 Crinkler

 Timestamp is 5f174901 (Tue Jul 21 21:58:57 2020)

 Preferred load address is 00400000

 Start         Length     Name                   Class
 0001:00000000 00000070H .text$di                CODE
 0001:00000070 000660f0H .text$mn                CODE
 0001:00066160 00001370H .text$x                 CODE
 0001:000674d0 000000a9H .text$yd                CODE
 0002:00000000 00000230H .idata$5                DATA
 0002:00000230 00000004H .00cfg                  DATA
 0002:00000234 00000004H .CRT$XCA                DATA
 0002:00000238 00000004H .CRT$XCAA               DATA
 0002:0000023c 00000008H .CRT$XCC                DATA
 0002:00000244 00000010H .CRT$XCU                DATA
 0002:00000254 00000004H .CRT$XCZ                DATA
 0002:00000258 00000004H .CRT$XIA                DATA
 0002:0000025c 00000004H .CRT$XIAA               DATA
 0002:00000260 00000004H .CRT$XIAC               DATA
 0002:00000264 00000018H .CRT$XIC                DATA
 0002:0000027c 00000004H .CRT$XIZ                DATA
 0002:00000280 00000004H .CRT$XPA                DATA
 0002:00000284 00000004H .CRT$XPB                DATA
 0002:00000288 00000008H .CRT$XPX                DATA
 0002:00000290 00000004H .CRT$XPXA               DATA
 0002:00000294 00000004H .CRT$XPZ                DATA
 0002:00000298 00000004H .CRT$XTA                DATA
 0002:0000029c 00000004H .CRT$XTZ                DATA
 0002:000002a0 00000000H .gfids$x                DATA
 0002:000002a0 00000000H .gfids$y                DATA
 0002:000002a0 0000c308H .rdata                  DATA
 0002:0000c5a8 00001ca8H .rdata$r                DATA
 0002:0000e250 0000038cH .rdata$zzzdbg           DATA
 0002:0000e5dc 00000004H .rtc$IAA                DATA
 0002:0000e5e0 00000004H .rtc$IZZ                DATA
 0002:0000e5e4 00000004H .rtc$TAA                DATA
 0002:0000e5e8 00000008H .rtc$TZZ                DATA
 0002:0000e5f0 0000386cH .xdata$x                DATA
 0002:00011e5c 00000000H .edata                  DATA
 0002:00011e5c 00000050H .idata$2                DATA
 0002:00011eac 00000014H .idata$3                DATA
 0002:00011ec0 00000230H .idata$4                DATA
 0002:000120f0 00000a80H .idata$6                DATA
 0003:00000000 0002ade0H .data                   DATA
 0003:0002ade0 00001470H .data$r                 DATA
 0003:0002c250 00046b88H .bss                    DATA
 0004:00000000 00008000H logtable                DATA
 0005:00000000 00000090H .rsrc$01                DATA
 0005:00000090 000001a8H .rsrc$02                DATA

  Address         Publics by Value              Rva+Base       Lib:Object

 0000:00000000       ___hybrid_code_map_count   00000000     <absolute>
 0000:00000000       ___guard_fids_count        00000000     <absolute>
 0000:00000000       ___guard_fids_table        00000000     <absolute>
 0000:00000000       ___guard_iat_count         00000000     <absolute>
 0000:00000000       ___dynamic_value_reloc_table 00000000     <absolute>
 0000:00000000       ___guard_longjmp_count     00000000     <absolute>
 0000:00000000       ___guard_iat_table         00000000     <absolute>
 0000:00000000       __except_list              00000000     <absolute>
 0000:00000000       ___guard_longjmp_table     00000000     <absolute>
 0000:00000000       ___hybrid_auxiliary_iat    00000000     <absolute>
 0000:00000000       ___enclave_config          00000000     <absolute>
 0000:00000000       ___volatile_metadata       00000000     <absolute>
 0000:00000000       ___safe_se_handler_table   00000000     <absolute>
 0000:00000000       ___safe_se_handler_count   00000000     <absolute>
 0000:00000000       ___hybrid_code_map         00000000     <absolute>
 0000:00000100       ___guard_flags             00000100     <absolute>
 0000:00000000       ___ImageBase               00400000     <linker-defined>
 0001:00000070       ??$?HDU?$char_traits@D@std@@V?$allocator@D@1@@std@@YA?AV?$basic_string@DU?$char_traits@D@std@@V?$allocator@D@2@@0@QBDABV10@@Z 00401070 f i Crinkler.obj
 0001:000001f0       ??$_Buynode@ABUpiecewise_construct_t@std@@V?$tuple@$$QAV?$basic_string@DU?$char_traits@D@std@@V?$allocator@D@2@@std@@@2@V?$tuple@$$V@2@@?$_Tree_comp_alloc@V?$_Tmap_traits@V?$basic_string@DU?$char_traits@D@std@@V?$allocator@D@2@@std@@V12@U?$less@V?$basic_string@DU?$char_traits@D@std@@V?$allocator@D@2@@std@@@2@V?$allocator@U?$pair@$$CBV?$basic_string@DU?$char_traits@D@std@@V?$allocator@D@2@@std@@V12@@std@@@2@$0A@@std@@@std@@QAEPAU?$_Tree_node@U?$pair@$$CBV?$basic_string@DU?$char_traits@D@std@@V?$allocator@D@2@@std@@V12@@std@@PAX@1@ABUpiecewise_construct_t@1@$$QAV?$tuple@$$QAV?$basic_string@DU?$char_traits@D@std@@V?$allocator@D@2@@std@@@1@$$QAV?$tuple@$$V@1@@Z 004011f0 f i Crinkler.obj
 0001:00000280       ??$_Buynode@ABV?$basic_string@DU?$char_traits@D@std@@V?$allocator@D@2@@std@@@?$_Tree_comp_alloc@V?$_Tset_traits@V?$basic_string@DU?$char_traits@D@std@@V?$allocator@D@2@@std@@U?$less@V?$basic_string@DU?$char_traits@D@std@@V?$allocator@D@2@@std@@@2@V?$allocator@V?$basic_string@DU?$char_traits@D@std@@V?$allocator@D@2@@std@@@2@$0A@@std@@@std@@QAEPAU?$_Tree_node@V?$basic_string@DU?$char_traits@D@std@@V?$allocator@D@2@@std@@PAX@1@ABV?$basic_string@DU?$char_traits@D@std@@V?$allocator@D@2@@1@@Z 00401280 f i Crinkler.obj
 0001:00000300       ??$_Buynode@VExport@@@?$_Tree_comp_alloc@V?$_Tset_traits@VExport@@U?$less@VExport@@@std@@V?$allocator@VExport@@@3@$0A@@std@@@std@@QAEPAU?$_Tree_node@VExport@@PAX@1@$$QAVExport@@@Z 00401300 f i Crinkler.obj
 0001:00000380       ??$_Deallocate@$07$0A@@std@@YAXPAXI@Z 00401380 f i Crinkler.obj
 0001:000003c0       ??$_Destroy_range@V?$allocator@V?$basic_string@DU?$char_traits@D@std@@V?$allocator@D@2@@std@@@std@@@std@@YAXPAV?$basic_string@DU?$char_traits@D@std@@V?$allocator@D@2@@0@0AAV?$allocator@V?$basic_string@DU?$char_traits@D@std@@V?$allocator@D@2@@std@@@0@@Z 004013c0 f i Crinkler.obj
 0001:00000420       ??$_Emplace_reallocate@ABQAVHunk@@@?$vector@PAVHunk@@V?$allocator@PAVHunk@@@std@@@std@@QAEPAPAVHunk@@QAPAV2@ABQAV2@@Z 00401420 f i Crinkler.obj
 0001:00000420       ??$_Emplace_reallocate@ABI@?$vector@IV?$allocator@I@std@@@std@@QAEPAIQAIABI@Z 00401420 f i ImportHandler.obj
 0001:00000580       ??$_Emplace_reallocate@ABQAVSymbol@@@?$vector@PAVSymbol@@V?$allocator@PAVSymbol@@@std@@@std@@QAEPAPAVSymbol@@QAPAV2@ABQAV2@@Z 00401580 f i Hunk.obj
 0001:00000580       ??$_Emplace_reallocate@PAVHunkLoader@@@?$vector@PAVHunkLoader@@V?$allocator@PAVHunkLoader@@@std@@@std@@QAEPAPAVHunkLoader@@QAPAV2@$$QAPAV2@@Z 00401580 f i MultiLoader.obj
 0001:00000580       ??$_Emplace_reallocate@PAVSymbol@@@?$vector@PAVSymbol@@V?$allocator@PAVSymbol@@@std@@@std@@QAEPAPAVSymbol@@QAPAV2@$$QAPAV2@@Z 00401580 f i Crinkler.obj
 0001:00000580       ??$_Emplace_reallocate@ABQAVCmdParam@@@?$vector@PAVCmdParam@@V?$allocator@PAVCmdParam@@@std@@@std@@QAEPAPAVCmdParam@@QAPAV2@ABQAV2@@Z 00401580 f i CmdLineInterface.obj
 0001:00000580       ??$_Emplace_reallocate@ABQAVProgressBar@@@?$vector@PAVProgressBar@@V?$allocator@PAVProgressBar@@@std@@@std@@QAEPAPAVProgressBar@@QAPAV2@ABQAV2@@Z 00401580 f i CompositeProgressBar.obj
 0001:00000580       ??$_Emplace_reallocate@ABQAUCompressionReportRecord@@@?$vector@PAUCompressionReportRecord@@V?$allocator@PAUCompressionReportRecord@@@std@@@std@@QAEPAPAUCompressionReportRecord@@QAPAU2@ABQAU2@@Z 00401580 f i Hunk.obj
 0001:00000730       ??$_Insert_at@AAU?$pair@$$CBV?$basic_string@DU?$char_traits@D@std@@V?$allocator@D@2@@std@@V12@@std@@PAU?$_Tree_node@U?$pair@$$CBV?$basic_string@DU?$char_traits@D@std@@V?$allocator@D@2@@std@@V12@@std@@PAX@2@@?$_Tree@V?$_Tmap_traits@V?$basic_string@DU?$char_traits@D@std@@V?$allocator@D@2@@std@@V12@U?$less@V?$basic_string@DU?$char_traits@D@std@@V?$allocator@D@2@@std@@@2@V?$allocator@U?$pair@$$CBV?$basic_string@DU?$char_traits@D@std@@V?$allocator@D@2@@std@@V12@@std@@@2@$0A@@std@@@std@@IAE?AV?$_Tree_iterator@V?$_Tree_val@U?$_Tree_simple_types@U?$pair@$$CBV?$basic_string@DU?$char_traits@D@std@@V?$allocator@D@2@@std@@V12@@std@@@std@@@std@@@1@_NPAU?$_Tree_node@U?$pair@$$CBV?$basic_string@DU?$char_traits@D@std@@V?$allocator@D@2@@std@@V12@@std@@PAX@1@AAU?$pair@$$CBV?$basic_string@DU?$char_traits@D@std@@V?$allocator@D@2@@std@@V12@@1@1@Z 00401730 f i Crinkler.obj
 0001:000008d0       ??$_Insert_at@ABV?$basic_string@DU?$char_traits@D@std@@V?$allocator@D@2@@std@@U_Not_a_node_tag@2@@?$_Tree@V?$_Tset_traits@V?$basic_string@DU?$char_traits@D@std@@V?$allocator@D@2@@std@@U?$less@V?$basic_string@DU?$char_traits@D@std@@V?$allocator@D@2@@std@@@2@V?$allocator@V?$basic_string@DU?$char_traits@D@std@@V?$allocator@D@2@@std@@@2@$0A@@std@@@std@@IAE?AV?$_Tree_const_iterator@V?$_Tree_val@U?$_Tree_simple_types@V?$basic_string@DU?$char_traits@D@std@@V?$allocator@D@2@@std@@@std@@@std@@@1@_NPAU?$_Tree_node@V?$basic_string@DU?$char_traits@D@std@@V?$allocator@D@2@@std@@PAX@1@ABV?$basic_string@DU?$char_traits@D@std@@V?$allocator@D@2@@1@U_Not_a_node_tag@1@@Z 004018d0 f i Crinkler.obj
 0001:00000a70       ??$_Insert_at@VExport@@U_Not_a_node_tag@std@@@?$_Tree@V?$_Tset_traits@VExport@@U?$less@VExport@@@std@@V?$allocator@VExport@@@3@$0A@@std@@@std@@IAE?AV?$_Tree_const_iterator@V?$_Tree_val@U?$_Tree_simple_types@VExport@@@std@@@std@@@1@_NPAU?$_Tree_node@VExport@@PAX@1@$$QAVExport@@U_Not_a_node_tag@1@@Z 00401a70 f i Crinkler.obj
 0001:00000c10       ??$_Insert_hint@AAU?$pair@$$CBV?$basic_string@DU?$char_traits@D@std@@V?$allocator@D@2@@std@@V12@@std@@PAU?$_Tree_node@U?$pair@$$CBV?$basic_string@DU?$char_traits@D@std@@V?$allocator@D@2@@std@@V12@@std@@PAX@2@@?$_Tree@V?$_Tmap_traits@V?$basic_string@DU?$char_traits@D@std@@V?$allocator@D@2@@std@@V12@U?$less@V?$basic_string@DU?$char_traits@D@std@@V?$allocator@D@2@@std@@@2@V?$allocator@U?$pair@$$CBV?$basic_string@DU?$char_traits@D@std@@V?$allocator@D@2@@std@@V12@@std@@@2@$0A@@std@@@std@@IAE?AV?$_Tree_iterator@V?$_Tree_val@U?$_Tree_simple_types@U?$pair@$$CBV?$basic_string@DU?$char_traits@D@std@@V?$allocator@D@2@@std@@V12@@std@@@std@@@std@@@1@V?$_Tree_const_iterator@V?$_Tree_val@U?$_Tree_simple_types@U?$pair@$$CBV?$basic_string@DU?$char_traits@D@std@@V?$allocator@D@2@@std@@V12@@std@@@std@@@std@@@1@AAU?$pair@$$CBV?$basic_string@DU?$char_traits@D@std@@V?$allocator@D@2@@std@@V12@@1@PAU?$_Tree_node@U?$pair@$$CBV?$basic_string@DU?$char_traits@D@std@@V?$allocator@D@2@@std@@V12@@std@@PAX@1@@Z 00401c10 f i Crinkler.obj
 0001:00000db0       ??$_Insert_nohint@AAU?$pair@$$CBV?$basic_string@DU?$char_traits@D@std@@V?$allocator@D@2@@std@@V12@@std@@PAU?$_Tree_node@U?$pair@$$CBV?$basic_string@DU?$char_traits@D@std@@V?$allocator@D@2@@std@@V12@@std@@PAX@2@@?$_Tree@V?$_Tmap_traits@V?$basic_string@DU?$char_traits@D@std@@V?$allocator@D@2@@std@@V12@U?$less@V?$basic_string@DU?$char_traits@D@std@@V?$allocator@D@2@@std@@@2@V?$allocator@U?$pair@$$CBV?$basic_string@DU?$char_traits@D@std@@V?$allocator@D@2@@std@@V12@@std@@@2@$0A@@std@@@std@@IAE?AU?$pair@V?$_Tree_iterator@V?$_Tree_val@U?$_Tree_simple_types@U?$pair@$$CBV?$basic_string@DU?$char_traits@D@std@@V?$allocator@D@2@@std@@V12@@std@@@std@@@std@@@std@@_N@1@_NAAU?$pair@$$CBV?$basic_string@DU?$char_traits@D@std@@V?$allocator@D@2@@std@@V12@@1@PAU?$_Tree_node@U?$pair@$$CBV?$basic_string@DU?$char_traits@D@std@@V?$allocator@D@2@@std@@V12@@std@@PAX@1@@Z 00401db0 f i Crinkler.obj
 0001:00000ed0       ??$_Insert_nohint@ABV?$basic_string@DU?$char_traits@D@std@@V?$allocator@D@2@@std@@U_Not_a_node_tag@2@@?$_Tree@V?$_Tset_traits@V?$basic_string@DU?$char_traits@D@std@@V?$allocator@D@2@@std@@U?$less@V?$basic_string@DU?$char_traits@D@std@@V?$allocator@D@2@@std@@@2@V?$allocator@V?$basic_string@DU?$char_traits@D@std@@V?$allocator@D@2@@std@@@2@$0A@@std@@@std@@IAE?AU?$pair@V?$_Tree_const_iterator@V?$_Tree_val@U?$_Tree_simple_types@V?$basic_string@DU?$char_traits@D@std@@V?$allocator@D@2@@std@@@std@@@std@@@std@@_N@1@_NABV?$basic_string@DU?$char_traits@D@std@@V?$allocator@D@2@@1@U_Not_a_node_tag@1@@Z 00401ed0 f i Crinkler.obj
 0001:00000fd0       ??$_Insert_nohint@VExport@@U_Not_a_node_tag@std@@@?$_Tree@V?$_Tset_traits@VExport@@U?$less@VExport@@@std@@V?$allocator@VExport@@@3@$0A@@std@@@std@@IAE?AU?$pair@V?$_Tree_const_iterator@V?$_Tree_val@U?$_Tree_simple_types@VExport@@@std@@@std@@@std@@_N@1@_N$$QAVExport@@U_Not_a_node_tag@1@@Z 00401fd0 f i Crinkler.obj
 0001:000010d0       ??$_InvokeBridge@V?$task_handle@V?$_Parallel_chunk_helper@HKV<lambda_dfda0ae30169a2ff753231d2ae0e1a41>@@Vauto_partitioner@Concurrency@@$0A@@Concurrency@@@Concurrency@@@_UnrealizedChore@details@Concurrency@@KAXPAX@Z 004020d0 f i Crinkler.obj
 0001:00001380       ??$_Traits_compare@U?$char_traits@D@std@@@std@@YAHQBDI0I@Z 00402380 f i Crinkler.obj
 0001:00001410       ??$construct@U?$pair@$$CBV?$basic_string@DU?$char_traits@D@std@@V?$allocator@D@2@@std@@V12@@std@@ABUpiecewise_construct_t@2@V?$tuple@$$QAV?$basic_string@DU?$char_traits@D@std@@V?$allocator@D@2@@std@@@2@V?$tuple@$$V@2@@?$_Default_allocator_traits@V?$allocator@U?$_Tree_node@U?$pair@$$CBV?$basic_string@DU?$char_traits@D@std@@V?$allocator@D@2@@std@@V12@@std@@PAX@std@@@std@@@std@@SAXAAV?$allocator@U?$_Tree_node@U?$pair@$$CBV?$basic_string@DU?$char_traits@D@std@@V?$allocator@D@2@@std@@V12@@std@@PAX@std@@@1@QAU?$pair@$$CBV?$basic_string@DU?$char_traits@D@std@@V?$allocator@D@2@@std@@V12@@1@ABUpiecewise_construct_t@1@$$QAV?$tuple@$$QAV?$basic_string@DU?$char_traits@D@std@@V?$allocator@D@2@@std@@@1@$$QAV?$tuple@$$V@1@@Z 00402410 f i Crinkler.obj
 0001:00001460       ??$construct@VExport@@V1@@?$_Default_allocator_traits@V?$allocator@U?$_Tree_node@VExport@@PAX@std@@@std@@@std@@SAXAAV?$allocator@U?$_Tree_node@VExport@@PAX@std@@@1@QAVExport@@$$QAV3@@Z 00402460 f i Crinkler.obj
 0001:00001530       ??0?$basic_string@DU?$char_traits@D@std@@V?$allocator@D@2@@std@@QAE@ABV01@@Z 00402530 f i Crinkler.obj
 0001:000015b0       ??0?$vector@EV?$allocator@E@std@@@std@@QAE@IABEABV?$allocator@E@1@@Z 004025b0 f i Crinkler.obj
 0001:000016a0       ??0?$vector@PAVHunk@@V?$allocator@PAVHunk@@@std@@@std@@QAE@ABV01@@Z 004026a0 f i Crinkler.obj
 0001:000016a0       ??0?$vector@IV?$allocator@I@std@@@std@@QAE@ABV01@@Z 004026a0 f i ImportHandler.obj
 0001:00001760       ??0?$vector@UTinyHashEntry@@V?$allocator@UTinyHashEntry@@@std@@@std@@QAE@IABV?$allocator@UTinyHashEntry@@@1@@Z 00402760 f i Crinkler.obj
 0001:00001850       ??0Crinkler@@QAE@XZ        00402850 f   Crinkler.obj
 0001:00001a80       ??0_UnrealizedChore@details@Concurrency@@QAE@XZ 00402a80 f i Crinkler.obj
 0001:00001a90       ??0bad_alloc@std@@QAE@ABV01@@Z 00402a90 f i Crinkler.obj
 0001:00001ac0       ??0bad_alloc@std@@QAE@XZ   00402ac0 f i Crinkler.obj
 0001:00001ae0       ??0exception@std@@QAE@ABV01@@Z 00402ae0 f i Crinkler.obj
 0001:00001b10       ??0invalid_argument@std@@QAE@ABV01@@Z 00402b10 f i Crinkler.obj
 0001:00001b40       ??0invalid_argument@std@@QAE@PBD@Z 00402b40 f i Crinkler.obj
 0001:00001b80       ??0logic_error@std@@QAE@ABV01@@Z 00402b80 f i Crinkler.obj
 0001:00001c50       ??1?$combinable@V?$vector@UTinyHashEntry@@V?$allocator@UTinyHashEntry@@@std@@@std@@@Concurrency@@QAE@XZ 00402c50 f i Crinkler.obj
 0001:00001d20       ??1?$pair@$$CBV?$basic_string@DU?$char_traits@D@std@@V?$allocator@D@2@@std@@V12@@std@@QAE@XZ 00402d20 f i Crinkler.obj
 0001:00001d20       ??1Export@@QAE@XZ          00402d20 f i Crinkler.obj
 0001:00001d20       ??1?$pair@V?$basic_string@DU?$char_traits@D@std@@V?$allocator@D@2@@std@@V12@@std@@QAE@XZ 00402d20 f i main.obj
 0001:00001db0       ??1?$vector@V?$basic_string@DU?$char_traits@D@std@@V?$allocator@D@2@@std@@V?$allocator@V?$basic_string@DU?$char_traits@D@std@@V?$allocator@D@2@@std@@@2@@std@@QAE@XZ 00402db0 f i Crinkler.obj
 0001:00001db0       ?_Tidy@?$vector@V?$basic_string@DU?$char_traits@D@std@@V?$allocator@D@2@@std@@V?$allocator@V?$basic_string@DU?$char_traits@D@std@@V?$allocator@D@2@@std@@@2@@std@@AAEXXZ 00402db0 f i ImportHandler.obj
 0001:00001e30       ??1CompositeProgressBar@@UAE@XZ 00402e30 f i Crinkler.obj
 0001:00001e90       ??1CompressionReportRecord@@QAE@XZ 00402e90 f i Crinkler.obj
 0001:00001fc0       ??1Crinkler@@QAE@XZ        00402fc0 f   Crinkler.obj
 0001:000021d0       ??1HashBits@@QAE@XZ        004031d0 f i Crinkler.obj
 0001:000022c0       ??1length_error@std@@UAE@XZ 004032c0 f i libcpmt:xthrow.obj
 0001:000022c0       ??1__non_rtti_object@std@@UAE@XZ 004032c0 f i libvcruntime:rtti.obj
 0001:000022c0       ??1bad_alloc@std@@UAE@XZ   004032c0 f i Crinkler.obj
 0001:000022c0       ??1scheduler_resource_allocation_error@Concurrency@@UAE@XZ 004032c0 f i libconcrt:utils.obj
 0001:000022c0       ??1bad_function_call@std@@UAE@XZ 004032c0 f i libcpmt:xthrow.obj
 0001:000022c0       ??1bad_array_new_length@std@@UAE@XZ 004032c0 f i LIBCMT:throw_bad_alloc.obj
 0001:000022c0       ??1improper_lock@Concurrency@@UAE@XZ 004032c0 f i libconcrt:rtlocks.obj
 0001:000022c0       ??1bad_cast@std@@UAE@XZ    004032c0 f i libvcruntime:rtti.obj
 0001:000022c0       ??1improper_scheduler_attach@Concurrency@@UAE@XZ 004032c0 f i libconcrt:SchedulerBase.obj
 0001:000022c0       ??1invalid_argument@std@@UAE@XZ 004032c0 f i Crinkler.obj
 0001:000022c0       ??1_Interruption_exception@details@Concurrency@@UAE@XZ 004032c0 f i libconcrt:Chores.obj
 0001:000022c0       ??1invalid_operation@Concurrency@@UAE@XZ 004032c0 f i libconcrt:ResourceManager.obj
 0001:000022c0       ??1unsupported_os@Concurrency@@UAE@XZ 004032c0 f i libconcrt:Exceptions.obj
 0001:000022c0       ??1nested_scheduler_missing_detach@Concurrency@@UAE@XZ 004032c0 f i libconcrt:Exceptions.obj
 0001:000022c0       ??1invalid_scheduler_policy_key@Concurrency@@UAE@XZ 004032c0 f i libconcrt:Exceptions.obj
 0001:000022c0       ??1invalid_multiple_scheduling@Concurrency@@UAE@XZ 004032c0 f i libconcrt:TaskCollection.obj
 0001:000022c0       ??1scheduler_worker_creation_error@Concurrency@@UAE@XZ 004032c0 f i libconcrt:Exceptions.obj
 0001:000022c0       ??1improper_scheduler_reference@Concurrency@@UAE@XZ 004032c0 f i libconcrt:SchedulerBase.obj
 0001:000022c0       ??1invalid_oversubscribe_operation@Concurrency@@UAE@XZ 004032c0 f i libconcrt:Exceptions.obj
 0001:000022c0       ??1context_self_unblock@Concurrency@@UAE@XZ 004032c0 f i libconcrt:Exceptions.obj
 0001:000022c0       ??1system_error@std@@UAE@XZ 004032c0 f i libcpmt:thread0.obj
 0001:000022c0       ??1invalid_scheduler_policy_value@Concurrency@@UAE@XZ 004032c0 f i libconcrt:Exceptions.obj
 0001:000022c0       ??1out_of_range@std@@UAE@XZ 004032c0 f i libcpmt:xthrow.obj
 0001:000022c0       ??1invalid_scheduler_policy_thread_specification@Concurrency@@UAE@XZ 004032c0 f i libconcrt:Exceptions.obj
 0001:000022c0       ??1context_unblock_unbalanced@Concurrency@@UAE@XZ 004032c0 f i libconcrt:Exceptions.obj
 0001:000022c0       ??1bad_exception@std@@UAE@XZ 004032c0 f i libvcruntime:frame.obj
 0001:000022c0       ??1missing_wait@Concurrency@@UAE@XZ 004032c0 f i libconcrt:Chores.obj
 0001:000022e0       ??4HashBits@@QAEAAU0@$$QAU0@@Z 004032e0 f i Crinkler.obj
 0001:000023f0       ??E?$_Tree_unchecked_const_iterator@V?$_Tree_val@U?$_Tree_simple_types@U?$pair@$$CBV?$basic_string@DU?$char_traits@D@std@@V?$allocator@D@2@@std@@V12@@std@@@std@@@std@@U_Iterator_base0@2@@std@@QAEAAV01@XZ 004033f0 f i Crinkler.obj
 0001:000023f0       ??E?$_Tree_unchecked_const_iterator@V?$_Tree_val@U?$_Tree_simple_types@VExport@@@std@@@std@@U_Iterator_base0@2@@std@@QAEAAV01@XZ 004033f0 f i Crinkler.obj
 0001:000023f0       ??E?$_Tree_const_iterator@V?$_Tree_val@U?$_Tree_simple_types@U?$pair@$$CBHPAVSymbol@@@std@@@std@@@std@@@std@@QAEAAV01@XZ 004033f0 f i Hunk.obj
 0001:000023f0       ??E?$_Tree_unchecked_const_iterator@V?$_Tree_val@U?$_Tree_simple_types@V?$basic_string@DU?$char_traits@D@std@@V?$allocator@D@2@@std@@@std@@@std@@U_Iterator_base0@2@@std@@QAEAAV01@XZ 004033f0 f i ImportHandler.obj
 0001:000023f0       ??E?$_Tree_const_iterator@V?$_Tree_val@U?$_Tree_simple_types@U?$pair@$$CBV?$basic_string@DU?$char_traits@D@std@@V?$allocator@D@2@@std@@PAVMemoryFile@@@std@@@std@@@std@@@std@@QAEAAV01@XZ 004033f0 f i main.obj
 0001:000023f0       ??E?$_Tree_unchecked_const_iterator@V?$_Tree_val@U?$_Tree_simple_types@U?$pair@$$CBHH@std@@@std@@@std@@U_Iterator_base0@2@@std@@QAEAAV01@XZ 004033f0 f i Export.obj
 0001:000023f0       ??E?$_Tree_unchecked_const_iterator@V?$_Tree_val@U?$_Tree_simple_types@U?$pair@$$CBV?$basic_string@DU?$char_traits@D@std@@V?$allocator@D@2@@std@@PAVSymbol@@@std@@@std@@@std@@U_Iterator_base0@2@@std@@QAEAAV01@XZ 004033f0 f i Hunk.obj
 0001:00002450       ??F?$_Tree_const_iterator@V?$_Tree_val@U?$_Tree_simple_types@U?$pair@$$CBHPAVSymbol@@@std@@@std@@@std@@@std@@QAEAAV01@XZ 00403450 f i Hunk.obj
 0001:00002450       ??F?$_Tree_const_iterator@V?$_Tree_val@U?$_Tree_simple_types@U?$pair@$$CBV?$basic_string@DU?$char_traits@D@std@@V?$allocator@D@2@@std@@PAVMemoryFile@@@std@@@std@@@std@@@std@@QAEAAV01@XZ 00403450 f i main.obj
 0001:00002450       ??F?$_Tree_const_iterator@V?$_Tree_val@U?$_Tree_simple_types@U?$pair@$$CBHH@std@@@std@@@std@@@std@@QAEAAV01@XZ 00403450 f i Export.obj
 0001:00002450       ??F?$_Tree_iterator@V?$_Tree_val@U?$_Tree_simple_types@U?$pair@$$CBV?$basic_string@DU?$char_traits@D@std@@V?$allocator@D@2@@std@@H@std@@@std@@@std@@@std@@QAEAAV01@XZ 00403450 f i CmdParamFlags.obj
 0001:00002450       ??F?$_Tree_const_iterator@V?$_Tree_val@U?$_Tree_simple_types@U?$pair@$$CBV?$basic_string@DU?$char_traits@D@std@@V?$allocator@D@2@@std@@PAVSymbol@@@std@@@std@@@std@@@std@@QAEAAV01@XZ 00403450 f i Hunk.obj
 0001:00002450       ??F?$_Tree_const_iterator@V?$_Tree_val@U?$_Tree_simple_types@V?$basic_string@DU?$char_traits@D@std@@V?$allocator@D@2@@std@@@std@@@std@@@std@@QAEAAV01@XZ 00403450 f i Crinkler.obj
 0001:00002450       ??F?$_Tree_const_iterator@V?$_Tree_val@U?$_Tree_simple_types@VExport@@@std@@@std@@@std@@QAEAAV01@XZ 00403450 f i Crinkler.obj
 0001:00002450       ??F?$_Tree_const_iterator@V?$_Tree_val@U?$_Tree_simple_types@U?$pair@$$CBV?$basic_string@DU?$char_traits@D@std@@V?$allocator@D@2@@std@@V12@@std@@@std@@@std@@@std@@QAEAAV01@XZ 00403450 f i Crinkler.obj
 0001:00002cd0       ??R?$less@V?$basic_string@DU?$char_traits@D@std@@V?$allocator@D@2@@std@@@std@@QBE_NABV?$basic_string@DU?$char_traits@D@std@@V?$allocator@D@2@@1@0@Z 00403cd0 f i Crinkler.obj
 0001:00002cd0       ??R?$less@VExport@@@std@@QBE_NABVExport@@0@Z 00403cd0 f i Crinkler.obj
 0001:00002d10       ??Y?$_Vb_iterator@U?$_Wrap_alloc@V?$allocator@I@std@@@std@@@std@@QAEAAV01@H@Z 00403d10 f i Crinkler.obj
 0001:00002e00       ??_ECompositeProgressBar@@UAEPAXI@Z 00403e00 f i Crinkler.obj
 0001:00002e00       ??_GCompositeProgressBar@@UAEPAXI@Z 00403e00 f i Crinkler.obj
 0001:00002e20       ??_EConsoleProgressBar@@UAEPAXI@Z 00403e20 f i Crinkler.obj
 0001:00002e20       ??_GConsoleProgressBar@@UAEPAXI@Z 00403e20 f i Crinkler.obj
 0001:00002e50       ??_GProgressBar@@UAEPAXI@Z 00403e50 f i Crinkler.obj
 0001:00002e50       ??_EProgressBar@@UAEPAXI@Z 00403e50 f i Crinkler.obj
 0001:00002e80       ??_GWindowProgressBar@@UAEPAXI@Z 00403e80 f i Crinkler.obj
 0001:00002e80       ??_EWindowProgressBar@@UAEPAXI@Z 00403e80 f i Crinkler.obj
 0001:00002ef0       ??_G_Chore@details@Concurrency@@MAEPAXI@Z 00403ef0 f i Crinkler.obj
 0001:00002ef0       ??_E_Chore@details@Concurrency@@MAEPAXI@Z 00403ef0 f i Crinkler.obj
 0001:00002f20       ??_G_UnrealizedChore@details@Concurrency@@UAEPAXI@Z 00403f20 f i Crinkler.obj
 0001:00002f20       ??_E_UnrealizedChore@details@Concurrency@@UAEPAXI@Z 00403f20 f i Crinkler.obj
 0001:00002f60       ??_Gbad_alloc@std@@UAEPAXI@Z 00403f60 f i Crinkler.obj
 0001:00002f60       ??_Ginvalid_argument@std@@UAEPAXI@Z 00403f60 f i Crinkler.obj
 0001:00002f60       ??_Glogic_error@std@@UAEPAXI@Z 00403f60 f i Crinkler.obj
 0001:00002f60       ??_Ebad_alloc@std@@UAEPAXI@Z 00403f60 f i Crinkler.obj
 0001:00002f60       ??_Gexception@std@@UAEPAXI@Z 00403f60 f i Crinkler.obj
 0001:00002f60       ??_Elogic_error@std@@UAEPAXI@Z 00403f60 f i Crinkler.obj
 0001:00002f60       ??_Eexception@std@@UAEPAXI@Z 00403f60 f i Crinkler.obj
 0001:00002f60       ??_Einvalid_argument@std@@UAEPAXI@Z 00403f60 f i Crinkler.obj
 0001:00002f90       ??_H@YGXPAXIIP6EPAX0@Z@Z   00403f90 f i Crinkler.obj
 0001:00002fc0       ?AddExport@Crinkler@@QAEXVExport@@@Z 00403fc0 f i Crinkler.obj
 0001:00003110       ?AddRuntimeLibrary@Crinkler@@QAEXXZ 00404110 f   Crinkler.obj
 0001:000031d0       ?CreateDynamicInitializerHunk@Crinkler@@AAEPAVHunk@@XZ 004041d0 f   Crinkler.obj
 0001:000034e0       ?CreateModelHunk@Crinkler@@AAEPAVHunk@@HH@Z 004044e0 f   Crinkler.obj
 0001:00003600       ?__global_delete@@YAXPAXI@Z 00404600 f i Crinkler.obj
 0001:00003600       @_guard_check_icall_nop@4  00404600 f i LIBCMT:guard_support.obj
 0001:00003600       ?destroy@stl_condition_variable_vista@details@Concurrency@@UAEXXZ 00404600 f i libcpmt:cond.obj
 0001:00003600       ??1critical_section@Concurrency@@QAE@XZ 00404600 f i libconcrt:rtlocks.obj
 0001:00003600       ?EndTask@ConsoleProgressBar@@UAEXXZ 00404600 f i ConsoleProgressBar.obj
 0001:00003600       __initialize_denormal_control 00404600 f i LIBCMT:denormal_control.obj
 0001:00003600       ?destroy@stl_condition_variable_win7@details@Concurrency@@UAEXXZ 00404600 f i libcpmt:cond.obj
 0001:00003600       ?__empty_global_delete@@YAXPAXI@Z 00404600 f i Crinkler.obj
 0001:00003600       ?destroy@stl_critical_section_win7@details@Concurrency@@UAEXXZ 00404600 f i libcpmt:mutex.obj
 0001:00003600       ?EndTask@WindowProgressBar@@UAEXXZ 00404600 f i WindowProgressBar.obj
 0001:00003600       ?Init@ProgressBar@@UAEXXZ  00404600 f i Crinkler.obj
 0001:00003600       ?NotifyAffinitizedWork@FairScheduleGroupSegment@details@Concurrency@@UAEXXZ 00404600 f i libconcrt:SchedulerBase.obj
 0001:00003600       ?Destroy@WaitAnyBlock@details@Concurrency@@UAEXXZ 00404600 f i libconcrt:event.obj
 0001:00003600       ?RMAwaken@InternalContextBase@details@Concurrency@@EAEXXZ 00404600 f i libconcrt:InternalContextBase.obj
 0001:00003600       ?Deinit@ProgressBar@@UAEXXZ 00404600 f i Crinkler.obj
 0001:00003600       __initialize_invalid_parameter_handler 00404600 f i LIBCMT:invalid_parameter_handler.obj
 0001:00003610       ?DeinitProgressBar@Crinkler@@AAEXXZ 00404610 f   Crinkler.obj
 0001:00003620       ?EstimateModels@Crinkler@@AAEHPAEHH_N1HH@Z 00404620 f   Crinkler.obj
 0001:00003a90       ?FinalLink@Crinkler@@AAEPAVHunk@@PAV2@000PAEHHH@Z 00404a90 f   Crinkler.obj
 0001:00003cb0       ?FindEntryPoint@Crinkler@@AAEPAVSymbol@@XZ 00404cb0 f   Crinkler.obj
 0001:00003d60       ?GetEntrySymbolName@Crinkler@@ABE?AV?$basic_string@DU?$char_traits@D@std@@V?$allocator@D@2@@std@@XZ 00404d60 f   Crinkler.obj
 0001:00003de0       ?InitProgressBar@Crinkler@@AAEXXZ 00404de0 f   Crinkler.obj
 0001:00003e40       ?Link@Crinkler@@QAEXPBD@Z  00404e40 f   Crinkler.obj
 0001:00004ba0       ?Load@Crinkler@@QAEXPBD@Z  00405ba0 f   Crinkler.obj
 0001:00004bf0       ?Load@Crinkler@@QAEXPBDH0@Z 00405bf0 f   Crinkler.obj
 0001:00004c30       ?LoadImportCode@Crinkler@@AAEX_N000@Z 00405c30 f   Crinkler.obj
 0001:00004d70       ?OptimizeHashsize@Crinkler@@AAEHPAEHHHH@Z 00405d70 f   Crinkler.obj
 0001:00005380       ?OverrideAlignments@Crinkler@@AAEXAAVHunkList@@@Z 00406380 f   Crinkler.obj
 0001:000053f0       ?PrintOptions@Crinkler@@QAEXPAU_iobuf@@@Z 004063f0 f   Crinkler.obj
 0001:00005820       ?Recompress@Crinkler@@QAEXPBD0@Z 00406820 f   Crinkler.obj
 0001:000071b0       ?RemoveUnreferencedHunks@Crinkler@@AAEXPAVHunk@@@Z 004081b0 f   Crinkler.obj
 0001:00007460       ?ReplaceDlls@Crinkler@@AAEXAAVHunkList@@@Z 00408460 f   Crinkler.obj
 0001:00007780       ?SetHeaderConstants@Crinkler@@AAEXPAVHunk@@0HHHHIHH_N@Z 00408780 f   Crinkler.obj
 0001:00007a60       ?SetHeaderSaturation@Crinkler@@AAEXPAVHunk@@@Z 00408a60 f   Crinkler.obj
 0001:00007c10       ?_Become_small@?$basic_string@DU?$char_traits@D@std@@V?$allocator@D@2@@std@@QAEXXZ 00408c10 f i Crinkler.obj
 0001:00007c60       ?_Buyheadnode@?$_Tree_comp_alloc@V?$_Tmap_traits@V?$basic_string@DU?$char_traits@D@std@@V?$allocator@D@2@@std@@V12@U?$less@V?$basic_string@DU?$char_traits@D@std@@V?$allocator@D@2@@std@@@2@V?$allocator@U?$pair@$$CBV?$basic_string@DU?$char_traits@D@std@@V?$allocator@D@2@@std@@V12@@std@@@2@$0A@@std@@@std@@QAEPAU?$_Tree_node@U?$pair@$$CBV?$basic_string@DU?$char_traits@D@std@@V?$allocator@D@2@@std@@V12@@std@@PAX@2@XZ 00408c60 f i Crinkler.obj
 0001:00007ce0       ?_Buyheadnode@?$_Tree_comp_alloc@V?$_Tset_traits@V?$basic_string@DU?$char_traits@D@std@@V?$allocator@D@2@@std@@U?$less@V?$basic_string@DU?$char_traits@D@std@@V?$allocator@D@2@@std@@@2@V?$allocator@V?$basic_string@DU?$char_traits@D@std@@V?$allocator@D@2@@std@@@2@$0A@@std@@@std@@QAEPAU?$_Tree_node@V?$basic_string@DU?$char_traits@D@std@@V?$allocator@D@2@@std@@PAX@2@XZ 00408ce0 f i Crinkler.obj
 0001:00007d60       ?_Buyheadnode@?$_Tree_comp_alloc@V?$_Tset_traits@VExport@@U?$less@VExport@@@std@@V?$allocator@VExport@@@3@$0A@@std@@@std@@QAEPAU?$_Tree_node@VExport@@PAX@2@XZ 00408d60 f i Crinkler.obj
 0001:00007de0       ?_Buynode0@?$_Tree_comp_alloc@V?$_Tmap_traits@V?$basic_string@DU?$char_traits@D@std@@V?$allocator@D@2@@std@@V12@U?$less@V?$basic_string@DU?$char_traits@D@std@@V?$allocator@D@2@@std@@@2@V?$allocator@U?$pair@$$CBV?$basic_string@DU?$char_traits@D@std@@V?$allocator@D@2@@std@@V12@@std@@@2@$0A@@std@@@std@@QAEPAU?$_Tree_node@U?$pair@$$CBV?$basic_string@DU?$char_traits@D@std@@V?$allocator@D@2@@std@@V12@@std@@PAX@2@XZ 00408de0 f i Crinkler.obj
 0001:00007e60       ?_Buynode0@?$_Tree_comp_alloc@V?$_Tset_traits@V?$basic_string@DU?$char_traits@D@std@@V?$allocator@D@2@@std@@U?$less@V?$basic_string@DU?$char_traits@D@std@@V?$allocator@D@2@@std@@@2@V?$allocator@V?$basic_string@DU?$char_traits@D@std@@V?$allocator@D@2@@std@@@2@$0A@@std@@@std@@QAEPAU?$_Tree_node@V?$basic_string@DU?$char_traits@D@std@@V?$allocator@D@2@@std@@PAX@2@XZ 00408e60 f i Crinkler.obj
 0001:00007ee0       ?_Buynode0@?$_Tree_comp_alloc@V?$_Tset_traits@VExport@@U?$less@VExport@@@std@@V?$allocator@VExport@@@3@$0A@@std@@@std@@QAEPAU?$_Tree_node@VExport@@PAX@2@XZ 00408ee0 f i Crinkler.obj
 0001:00007fe0       ?_Delete_this@?$_Func_impl_no_alloc@P6A_JXZ_J$$V@std@@EAEX_N@Z 00408fe0 f   Compressor:CompressionStateEvaluator.obj
 0001:00008000       ?_Destroy_if_node@?$_Tree@V?$_Tmap_traits@V?$basic_string@DU?$char_traits@D@std@@V?$allocator@D@2@@std@@V12@U?$less@V?$basic_string@DU?$char_traits@D@std@@V?$allocator@D@2@@std@@@2@V?$allocator@U?$pair@$$CBV?$basic_string@DU?$char_traits@D@std@@V?$allocator@D@2@@std@@V12@@std@@@2@$0A@@std@@@std@@IAEXPAU?$_Tree_node@U?$pair@$$CBV?$basic_string@DU?$char_traits@D@std@@V?$allocator@D@2@@std@@V12@@std@@PAX@2@@Z 00409000 f i Crinkler.obj
 0001:000080b0       ?_Erase@?$_Tree@V?$_Tmap_traits@V?$basic_string@DU?$char_traits@D@std@@V?$allocator@D@2@@std@@V12@U?$less@V?$basic_string@DU?$char_traits@D@std@@V?$allocator@D@2@@std@@@2@V?$allocator@U?$pair@$$CBV?$basic_string@DU?$char_traits@D@std@@V?$allocator@D@2@@std@@V12@@std@@@2@$0A@@std@@@std@@IAEXPAU?$_Tree_node@U?$pair@$$CBV?$basic_string@DU?$char_traits@D@std@@V?$allocator@D@2@@std@@V12@@std@@PAX@2@@Z 004090b0 f i Crinkler.obj
 0001:000080f0       ?_Erase@?$_Tree@V?$_Tset_traits@V?$basic_string@DU?$char_traits@D@std@@V?$allocator@D@2@@std@@U?$less@V?$basic_string@DU?$char_traits@D@std@@V?$allocator@D@2@@std@@@2@V?$allocator@V?$basic_string@DU?$char_traits@D@std@@V?$allocator@D@2@@std@@@2@$0A@@std@@@std@@IAEXPAU?$_Tree_node@V?$basic_string@DU?$char_traits@D@std@@V?$allocator@D@2@@std@@PAX@2@@Z 004090f0 f i Crinkler.obj
 0001:00008170       ?_Erase@?$_Tree@V?$_Tset_traits@VExport@@U?$less@VExport@@@std@@V?$allocator@VExport@@@3@$0A@@std@@@std@@IAEXPAU?$_Tree_node@VExport@@PAX@2@@Z 00409170 f i Crinkler.obj
 0001:000081b0       ?_Freenode0@?$_Tree_comp_alloc@V?$_Tmap_traits@V?$basic_string@DU?$char_traits@D@std@@V?$allocator@D@2@@std@@V12@U?$less@V?$basic_string@DU?$char_traits@D@std@@V?$allocator@D@2@@std@@@2@V?$allocator@U?$pair@$$CBV?$basic_string@DU?$char_traits@D@std@@V?$allocator@D@2@@std@@V12@@std@@@2@$0A@@std@@@std@@QAEXPAU?$_Tree_node@U?$pair@$$CBV?$basic_string@DU?$char_traits@D@std@@V?$allocator@D@2@@std@@V12@@std@@PAX@2@@Z 004091b0 f i Crinkler.obj
 0001:000081d0       ?_Freenode0@?$_Tree_comp_alloc@V?$_Tset_traits@V?$basic_string@DU?$char_traits@D@std@@V?$allocator@D@2@@std@@U?$less@V?$basic_string@DU?$char_traits@D@std@@V?$allocator@D@2@@std@@@2@V?$allocator@V?$basic_string@DU?$char_traits@D@std@@V?$allocator@D@2@@std@@@2@$0A@@std@@@std@@QAEXPAU?$_Tree_node@V?$basic_string@DU?$char_traits@D@std@@V?$allocator@D@2@@std@@PAX@2@@Z 004091d0 f i Crinkler.obj
 0001:000081f0       ?_Freenode0@?$_Tree_comp_alloc@V?$_Tset_traits@VExport@@U?$less@VExport@@@std@@V?$allocator@VExport@@@3@$0A@@std@@@std@@QAEXPAU?$_Tree_node@VExport@@PAX@2@@Z 004091f0 f i Crinkler.obj
 0001:00008210       ?_Get@?$_Func_impl_no_alloc@P6A_JXZ_J$$V@std@@EBEPBXXZ 00409210 f   Compressor:CompressionStateEvaluator.obj
 0001:00008220       ?_Lrotate@?$_Tree_val@U?$_Tree_simple_types@U?$pair@$$CBV?$basic_string@DU?$char_traits@D@std@@V?$allocator@D@2@@std@@V12@@std@@@std@@@std@@QAEXPAU?$_Tree_node@U?$pair@$$CBV?$basic_string@DU?$char_traits@D@std@@V?$allocator@D@2@@std@@V12@@std@@PAX@2@@Z 00409220 f i Crinkler.obj
 0001:00008220       ?_Lrotate@?$_Tree_val@U?$_Tree_simple_types@U?$pair@$$CBV?$basic_string@DU?$char_traits@D@std@@V?$allocator@D@2@@std@@PAVMemoryFile@@@std@@@std@@@std@@QAEXPAU?$_Tree_node@U?$pair@$$CBV?$basic_string@DU?$char_traits@D@std@@V?$allocator@D@2@@std@@PAVMemoryFile@@@std@@PAX@2@@Z 00409220 f i main.obj
 0001:00008220       ?_Lrotate@?$_Tree_val@U?$_Tree_simple_types@V?$basic_string@DU?$char_traits@D@std@@V?$allocator@D@2@@std@@@std@@@std@@QAEXPAU?$_Tree_node@V?$basic_string@DU?$char_traits@D@std@@V?$allocator@D@2@@std@@PAX@2@@Z 00409220 f i Crinkler.obj
 0001:00008220       ?_Lrotate@?$_Tree_val@U?$_Tree_simple_types@VExport@@@std@@@std@@QAEXPAU?$_Tree_node@VExport@@PAX@2@@Z 00409220 f i Crinkler.obj
 0001:00008220       ?_Lrotate@?$_Tree_val@U?$_Tree_simple_types@U?$pair@$$CBHH@std@@@std@@@std@@QAEXPAU?$_Tree_node@U?$pair@$$CBHH@std@@PAX@2@@Z 00409220 f i Export.obj
 0001:00008220       ?_Lrotate@?$_Tree_val@U?$_Tree_simple_types@U?$pair@$$CBV?$basic_string@DU?$char_traits@D@std@@V?$allocator@D@2@@std@@H@std@@@std@@@std@@QAEXPAU?$_Tree_node@U?$pair@$$CBV?$basic_string@DU?$char_traits@D@std@@V?$allocator@D@2@@std@@H@std@@PAX@2@@Z 00409220 f i CmdParamFlags.obj
 0001:00008220       ?_Lrotate@?$_Tree_val@U?$_Tree_simple_types@U?$pair@$$CBHPAVSymbol@@@std@@@std@@@std@@QAEXPAU?$_Tree_node@U?$pair@$$CBHPAVSymbol@@@std@@PAX@2@@Z 00409220 f i Hunk.obj
 0001:00008220       ?_Lrotate@?$_Tree_val@U?$_Tree_simple_types@U?$pair@$$CBV?$basic_string@DU?$char_traits@D@std@@V?$allocator@D@2@@std@@PAVSymbol@@@std@@@std@@@std@@QAEXPAU?$_Tree_node@U?$pair@$$CBV?$basic_string@DU?$char_traits@D@std@@V?$allocator@D@2@@std@@PAVSymbol@@@std@@PAX@2@@Z 00409220 f i Hunk.obj
 0001:00008270       ?_Receive_range@?$_Worker_proxy@K@Concurrency@@QAE_NPAV?$_Range@K@2@@Z 00409270 f i Crinkler.obj
 0001:00008410       ?_Reset@?$_SpinWait@$00@details@Concurrency@@IAEXXZ 00409410 f i Crinkler.obj
 0001:00008440       ?_Rrotate@?$_Tree_val@U?$_Tree_simple_types@V?$basic_string@DU?$char_traits@D@std@@V?$allocator@D@2@@std@@@std@@@std@@QAEXPAU?$_Tree_node@V?$basic_string@DU?$char_traits@D@std@@V?$allocator@D@2@@std@@PAX@2@@Z 00409440 f i Crinkler.obj
 0001:00008440       ?_Rrotate@?$_Tree_val@U?$_Tree_simple_types@U?$pair@$$CBV?$basic_string@DU?$char_traits@D@std@@V?$allocator@D@2@@std@@H@std@@@std@@@std@@QAEXPAU?$_Tree_node@U?$pair@$$CBV?$basic_string@DU?$char_traits@D@std@@V?$allocator@D@2@@std@@H@std@@PAX@2@@Z 00409440 f i CmdParamFlags.obj
 0001:00008440       ?_Rrotate@?$_Tree_val@U?$_Tree_simple_types@U?$pair@$$CBHH@std@@@std@@@std@@QAEXPAU?$_Tree_node@U?$pair@$$CBHH@std@@PAX@2@@Z 00409440 f i Export.obj
 0001:00008440       ?_Rrotate@?$_Tree_val@U?$_Tree_simple_types@U?$pair@$$CBV?$basic_string@DU?$char_traits@D@std@@V?$allocator@D@2@@std@@PAVSymbol@@@std@@@std@@@std@@QAEXPAU?$_Tree_node@U?$pair@$$CBV?$basic_string@DU?$char_traits@D@std@@V?$allocator@D@2@@std@@PAVSymbol@@@std@@PAX@2@@Z 00409440 f i Hunk.obj
 0001:00008440       ?_Rrotate@?$_Tree_val@U?$_Tree_simple_types@U?$pair@$$CBHPAVSymbol@@@std@@@std@@@std@@QAEXPAU?$_Tree_node@U?$pair@$$CBHPAVSymbol@@@std@@PAX@2@@Z 00409440 f i Hunk.obj
 0001:00008440       ?_Rrotate@?$_Tree_val@U?$_Tree_simple_types@VExport@@@std@@@std@@QAEXPAU?$_Tree_node@VExport@@PAX@2@@Z 00409440 f i Crinkler.obj
 0001:00008440       ?_Rrotate@?$_Tree_val@U?$_Tree_simple_types@U?$pair@$$CBV?$basic_string@DU?$char_traits@D@std@@V?$allocator@D@2@@std@@V12@@std@@@std@@@std@@QAEXPAU?$_Tree_node@U?$pair@$$CBV?$basic_string@DU?$char_traits@D@std@@V?$allocator@D@2@@std@@V12@@std@@PAX@2@@Z 00409440 f i Crinkler.obj
 0001:00008440       ?_Rrotate@?$_Tree_val@U?$_Tree_simple_types@U?$pair@$$CBV?$basic_string@DU?$char_traits@D@std@@V?$allocator@D@2@@std@@PAVMemoryFile@@@std@@@std@@@std@@QAEXPAU?$_Tree_node@U?$pair@$$CBV?$basic_string@DU?$char_traits@D@std@@V?$allocator@D@2@@std@@PAVMemoryFile@@@std@@PAX@2@@Z 00409440 f i main.obj
 0001:000084a0       ?_SpinOnce@?$_SpinWait@$00@details@Concurrency@@QAE_NXZ 004094a0 f i Crinkler.obj
 0001:00008560       ?_Tidy@?$vector@DV?$allocator@D@std@@@std@@AAEXXZ 00409560 f i Export.obj
 0001:00008560       ?_Tidy@?$vector@EV?$allocator@E@std@@@std@@AAEXXZ 00409560 f i Crinkler.obj
 0001:000085b0       ??1?$vector@IV?$allocator@I@std@@@std@@QAE@XZ 004095b0 f i ImportHandler.obj
 0001:000085b0       ?_Tidy@?$vector@HV?$allocator@H@std@@@std@@AAEXXZ 004095b0 f i Crinkler.obj
 0001:000085b0       ??1?$_Vb_val@V?$allocator@_N@std@@@std@@QAE@XZ 004095b0 f i ImportHandler.obj
 0001:000085b0       ??1?$vector@PAVHunk@@V?$allocator@PAVHunk@@@std@@@std@@QAE@XZ 004095b0 f i ImportHandler.obj
 0001:000085b0       ?_Tidy@?$vector@PAVHunk@@V?$allocator@PAVHunk@@@std@@@std@@AAEXXZ 004095b0 f i Crinkler.obj
 0001:000085b0       ?_Tidy@?$vector@PAUTinyHashEntry@@V?$allocator@PAUTinyHashEntry@@@std@@@std@@AAEXXZ 004095b0 f i Compressor:Compressor.obj
 0001:000085b0       ?_Tidy@?$vector@IV?$allocator@I@std@@@std@@AAEXXZ 004095b0 f i Crinkler.obj
 0001:000085b0       ?_Tidy@?$vector@PBDV?$allocator@PBD@std@@@std@@AAEXXZ 004095b0 f i CoffLibraryLoader.obj
 0001:00008610       ?_Tidy@?$vector@UTinyHashEntry@@V?$allocator@UTinyHashEntry@@@std@@@std@@AAEXXZ 00409610 f i Crinkler.obj
 0001:00008670       ?_Udefault@?$vector@UTinyHashEntry@@V?$allocator@UTinyHashEntry@@@std@@@std@@AAEPAUTinyHashEntry@@PAU3@I@Z 00409670 f i Crinkler.obj
 0001:00008670       ??R<lambda_7566ea893fcb1c2785c3eae8f394f78c>@@QBEPAUTinyHashEntry@@PAU1@I@Z 00409670 f i Compressor:Compressor.obj
 0001:000086a0       ?_Xlen@?$basic_string@DU?$char_traits@D@std@@V?$allocator@D@2@@std@@SAXXZ 004096a0 f i Crinkler.obj
 0001:000086b0       ?_Xlen@?$vector@_NV?$allocator@_N@std@@@std@@QBEXXZ 004096b0 f i Crinkler.obj
 0001:000086c0       ?_Xlength@?$vector@PAVProgressBar@@V?$allocator@PAVProgressBar@@@std@@@std@@CAXXZ 004096c0 f i CompositeProgressBar.obj
 0001:000086c0       ?_Xlength@?$vector@UTinyHashEntry@@V?$allocator@UTinyHashEntry@@@std@@@std@@CAXXZ 004096c0 f i Crinkler.obj
 0001:000086c0       ?_Xlength@?$vector@URelocation@@V?$allocator@URelocation@@@std@@@std@@CAXXZ 004096c0 f i Hunk.obj
 0001:000086c0       ?_Xlength@?$vector@V?$basic_string@DU?$char_traits@D@std@@V?$allocator@D@2@@std@@V?$allocator@V?$basic_string@DU?$char_traits@D@std@@V?$allocator@D@2@@std@@@2@@std@@CAXXZ 004096c0 f i ImportHandler.obj
 0001:000086c0       ?_Xlength@?$vector@U?$pair@V?$basic_string@DU?$char_traits@D@std@@V?$allocator@D@2@@std@@V12@@std@@V?$allocator@U?$pair@V?$basic_string@DU?$char_traits@D@std@@V?$allocator@D@2@@std@@V12@@std@@@2@@std@@CAXXZ 004096c0 f i CmdParamMultiAssign.obj
 0001:000086c0       ?_Xlength@?$vector@PAUTinyHashEntry@@V?$allocator@PAUTinyHashEntry@@@std@@@std@@CAXXZ 004096c0 f i Compressor:Compressor.obj
 0001:000086c0       ?_Xlength@?$vector@PAVCmdParam@@V?$allocator@PAVCmdParam@@@std@@@std@@CAXXZ 004096c0 f i CmdLineInterface.obj
 0001:000086c0       ?_Xlength@?$vector@PAVSymbol@@V?$allocator@PAVSymbol@@@std@@@std@@CAXXZ 004096c0 f i Crinkler.obj
 0001:000086c0       ?_Xlength@?$vector@V?$vector@UTinyHashEntry@@V?$allocator@UTinyHashEntry@@@std@@@std@@V?$allocator@V?$vector@UTinyHashEntry@@V?$allocator@UTinyHashEntry@@@std@@@std@@@2@@std@@CAXXZ 004096c0 f i Compressor:Compressor.obj
 0001:000086c0       ?_Xlength@?$vector@IV?$allocator@I@std@@@std@@CAXXZ 004096c0 f i ImportHandler.obj
 0001:000086c0       ?_Xlength@?$vector@PAVHunkLoader@@V?$allocator@PAVHunkLoader@@@std@@@std@@CAXXZ 004096c0 f i MultiLoader.obj
 0001:000086c0       ?_Xlength@?$vector@DV?$allocator@D@std@@@std@@CAXXZ 004096c0 f i Export.obj
 0001:000086c0       ?_Xlength@?$vector@PAUCompressionReportRecord@@V?$allocator@PAUCompressionReportRecord@@@std@@@std@@CAXXZ 004096c0 f i Hunk.obj
 0001:000086c0       ?_Xlength@?$vector@VModelList4k@@V?$allocator@VModelList4k@@@std@@@std@@CAXXZ 004096c0 f i Compressor:Compressor.obj
 0001:000086c0       ?_Xlength@?$vector@PBDV?$allocator@PBD@std@@@std@@CAXXZ 004096c0 f i CoffLibraryLoader.obj
 0001:000086c0       ?_Xlength@?$vector@HV?$allocator@H@std@@@std@@CAXXZ 004096c0 f i HtmlReport.obj
 0001:000086c0       ?_Xlength@?$vector@V?$_List_unchecked_iterator@V?$_List_val@U?$_List_simple_types@U?$pair@$$CBV?$basic_string@DU?$char_traits@D@std@@V?$allocator@D@2@@std@@PAVHunk@@@std@@@std@@@std@@@std@@V?$allocator@V?$_List_unchecked_iterator@V?$_List_val@U?$_List_simple_types@U?$pair@$$CBV?$basic_string@DU?$char_traits@D@std@@V?$allocator@D@2@@std@@PAVHunk@@@std@@@std@@@std@@@std@@@2@@std@@CAXXZ 004096c0 f i ExplicitHunkSorter.obj
 0001:000086c0       ?_Xlength@?$vector@PAVHunk@@V?$allocator@PAVHunk@@@std@@@std@@CAXXZ 004096c0 f i Crinkler.obj
 0001:000086c0       ?_Xlength@?$vector@U?$pair@PADH@std@@V?$allocator@U?$pair@PADH@std@@@2@@std@@CAXXZ 004096c0 f i Export.obj
 0001:000086c0       ?_Xlength@?$vector@UHashBits@@V?$allocator@UHashBits@@@std@@@std@@CAXXZ 004096c0 f i Compressor:Compressor.obj
 0001:000086c0       ?_Xlength@?$vector@EV?$allocator@E@std@@@std@@CAXXZ 004096c0 f i Crinkler.obj
 0001:000086d0       ?allocate@?$allocator@D@std@@QAEPADI@Z 004096d0 f i Crinkler.obj
 0001:00008720       ?allocate@?$allocator@V?$_List_unchecked_iterator@V?$_List_val@U?$_List_simple_types@U?$pair@$$CBV?$basic_string@DU?$char_traits@D@std@@V?$allocator@D@2@@std@@PAVHunk@@@std@@@std@@@std@@@std@@@std@@QAEPAV?$_List_unchecked_iterator@V?$_List_val@U?$_List_simple_types@U?$pair@$$CBV?$basic_string@DU?$char_traits@D@std@@V?$allocator@D@2@@std@@PAVHunk@@@std@@@std@@@std@@@2@I@Z 00409720 f i ExplicitHunkSorter.obj
 0001:00008720       ?allocate@?$allocator@I@std@@QAEPAII@Z 00409720 f i ImportHandler.obj
 0001:00008720       ?allocate@?$allocator@H@std@@QAEPAHI@Z 00409720 f i HtmlReport.obj
 0001:00008720       ?allocate@?$allocator@PAVHunk@@@std@@QAEPAPAVHunk@@I@Z 00409720 f i Crinkler.obj
 0001:00008780       ?append@?$basic_string@DU?$char_traits@D@std@@V?$allocator@D@2@@std@@QAEAAV12@QBDI@Z 00409780 f i Crinkler.obj
 0001:000088d0       ?assign@?$basic_string@DU?$char_traits@D@std@@V?$allocator@D@2@@std@@QAEAAV12@QBDI@Z 004098d0 f i Crinkler.obj
 0001:000089c0       ?deallocate@?$allocator@H@std@@QAEXQAHI@Z 004099c0 f i HtmlReport.obj
 0001:000089c0       ?deallocate@?$allocator@I@std@@QAEXQAII@Z 004099c0 f i ImportHandler.obj
 0001:000089c0       ?deallocate@?$allocator@PAVHunk@@@std@@QAEXQAPAVHunk@@I@Z 004099c0 f i Crinkler.obj
 0001:000089c0       ?deallocate@?$allocator@PAVSymbol@@@std@@QAEXQAPAVSymbol@@I@Z 004099c0 f i Crinkler.obj
 0001:000089c0       ?deallocate@?$allocator@V?$_List_unchecked_iterator@V?$_List_val@U?$_List_simple_types@U?$pair@$$CBV?$basic_string@DU?$char_traits@D@std@@V?$allocator@D@2@@std@@PAVHunk@@@std@@@std@@@std@@@std@@@std@@QAEXQAV?$_List_unchecked_iterator@V?$_List_val@U?$_List_simple_types@U?$pair@$$CBV?$basic_string@DU?$char_traits@D@std@@V?$allocator@D@2@@std@@PAVHunk@@@std@@@std@@@std@@@2@I@Z 004099c0 f i ExplicitHunkSorter.obj
 0001:000089c0       ?deallocate@?$allocator@PAVCmdParam@@@std@@QAEXQAPAVCmdParam@@I@Z 004099c0 f i CmdLineInterface.obj
 0001:000089c0       ?deallocate@?$allocator@PAVProgressBar@@@std@@QAEXQAPAVProgressBar@@I@Z 004099c0 f i CompositeProgressBar.obj
 0001:000089c0       ?deallocate@?$allocator@PAUCompressionReportRecord@@@std@@QAEXQAPAUCompressionReportRecord@@I@Z 004099c0 f i Hunk.obj
 0001:000089c0       ?deallocate@?$allocator@PAVHunkLoader@@@std@@QAEXQAPAVHunkLoader@@I@Z 004099c0 f i MultiLoader.obj
 0001:00008a00       ?deallocate@?$allocator@U?$_Tree_node@U?$pair@$$CBV?$basic_string@DU?$char_traits@D@std@@V?$allocator@D@2@@std@@V12@@std@@PAX@std@@@std@@QAEXQAU?$_Tree_node@U?$pair@$$CBV?$basic_string@DU?$char_traits@D@std@@V?$allocator@D@2@@std@@V12@@std@@PAX@2@I@Z 00409a00 f i Crinkler.obj
 0001:00008a40       ?deallocate@?$allocator@U?$_Tree_node@V?$basic_string@DU?$char_traits@D@std@@V?$allocator@D@2@@std@@PAX@std@@@std@@QAEXQAU?$_Tree_node@V?$basic_string@DU?$char_traits@D@std@@V?$allocator@D@2@@std@@PAX@2@I@Z 00409a40 f i Crinkler.obj
 0001:00008a80       ?deallocate@?$allocator@U?$_Tree_node@VExport@@PAX@std@@@std@@QAEXQAU?$_Tree_node@VExport@@PAX@2@I@Z 00409a80 f i Crinkler.obj
 0001:00008ac0       ?erase@?$vector@_NV?$allocator@_N@std@@@std@@QAE?AV?$_Vb_iterator@U?$_Wrap_alloc@V?$allocator@I@std@@@std@@@2@V?$_Vb_const_iterator@U?$_Wrap_alloc@V?$allocator@I@std@@@std@@@2@0@Z 00409ac0 f i Crinkler.obj
 0001:00008c60       ?local@?$combinable@V?$vector@UTinyHashEntry@@V?$allocator@UTinyHashEntry@@@std@@@std@@@Concurrency@@QAEAAV?$vector@UTinyHashEntry@@V?$allocator@UTinyHashEntry@@@std@@@std@@XZ 00409c60 f i Crinkler.obj
 0001:00008d00       ?lower_bound@?$_Tree@V?$_Tmap_traits@V?$basic_string@DU?$char_traits@D@std@@V?$allocator@D@2@@std@@V12@U?$less@V?$basic_string@DU?$char_traits@D@std@@V?$allocator@D@2@@std@@@2@V?$allocator@U?$pair@$$CBV?$basic_string@DU?$char_traits@D@std@@V?$allocator@D@2@@std@@V12@@std@@@2@$0A@@std@@@std@@QAE?AV?$_Tree_iterator@V?$_Tree_val@U?$_Tree_simple_types@U?$pair@$$CBV?$basic_string@DU?$char_traits@D@std@@V?$allocator@D@2@@std@@V12@@std@@@std@@@std@@@2@ABV?$basic_string@DU?$char_traits@D@std@@V?$allocator@D@2@@2@@Z 00409d00 f i Crinkler.obj
 0001:00008d00       ?lower_bound@?$_Tree@V?$_Tmap_traits@V?$basic_string@DU?$char_traits@D@std@@V?$allocator@D@2@@std@@PAVMemoryFile@@U?$less@V?$basic_string@DU?$char_traits@D@std@@V?$allocator@D@2@@std@@@2@V?$allocator@U?$pair@$$CBV?$basic_string@DU?$char_traits@D@std@@V?$allocator@D@2@@std@@PAVMemoryFile@@@std@@@2@$0A@@std@@@std@@QAE?AV?$_Tree_iterator@V?$_Tree_val@U?$_Tree_simple_types@U?$pair@$$CBV?$basic_string@DU?$char_traits@D@std@@V?$allocator@D@2@@std@@PAVMemoryFile@@@std@@@std@@@std@@@2@ABV?$basic_string@DU?$char_traits@D@std@@V?$allocator@D@2@@2@@Z 00409d00 f i main.obj
 0001:00008d60       ?what@exception@std@@UBEPBDXZ 00409d60 f i Crinkler.obj
 0001:00008d70       ___local_stdio_printf_options 00409d70 f i Crinkler.obj
 0001:00008d80       _fprintf                   00409d80 f i Crinkler.obj
 0001:00008db0       _printf                    00409db0 f i Crinkler.obj
 0001:00008de0       ??$_Buynode@ABUpiecewise_construct_t@std@@V?$tuple@ABV?$basic_string@DU?$char_traits@D@std@@V?$allocator@D@2@@std@@@2@V?$tuple@$$V@2@@?$_List_buy@U?$pair@$$CBV?$basic_string@DU?$char_traits@D@std@@V?$allocator@D@2@@std@@PAVHunk@@@std@@V?$allocator@U?$pair@$$CBV?$basic_string@DU?$char_traits@D@std@@V?$allocator@D@2@@std@@PAVHunk@@@std@@@2@@std@@QAEPAU?$_List_node@U?$pair@$$CBV?$basic_string@DU?$char_traits@D@std@@V?$allocator@D@2@@std@@PAVHunk@@@std@@PAX@1@PAU21@0ABUpiecewise_construct_t@1@$$QAV?$tuple@ABV?$basic_string@DU?$char_traits@D@std@@V?$allocator@D@2@@std@@@1@$$QAV?$tuple@$$V@1@@Z 00409de0 f i ExplicitHunkSorter.obj
 0001:00008e70       ??$_Fill_unchecked@PAV?$_List_unchecked_iterator@V?$_List_val@U?$_List_simple_types@U?$pair@$$CBV?$basic_string@DU?$char_traits@D@std@@V?$allocator@D@2@@std@@PAVHunk@@@std@@@std@@@std@@@std@@V12@@std@@YAXPAV?$_List_unchecked_iterator@V?$_List_val@U?$_List_simple_types@U?$pair@$$CBV?$basic_string@DU?$char_traits@D@std@@V?$allocator@D@2@@std@@PAVHunk@@@std@@@std@@@std@@@0@0ABV10@@Z 00409e70 f i ExplicitHunkSorter.obj
 0001:00008ee0       ??$_Insert@AAU?$pair@$$CBV?$basic_string@DU?$char_traits@D@std@@V?$allocator@D@2@@std@@PAVHunk@@@std@@V?$_List_unchecked_iterator@V?$_List_val@U?$_List_simple_types@U?$pair@$$CBV?$basic_string@DU?$char_traits@D@std@@V?$allocator@D@2@@std@@PAVHunk@@@std@@@std@@@std@@@2@@?$_Hash@V?$_Umap_traits@V?$basic_string@DU?$char_traits@D@std@@V?$allocator@D@2@@std@@PAVHunk@@V?$_Uhash_compare@V?$basic_string@DU?$char_traits@D@std@@V?$allocator@D@2@@std@@U?$hash@V?$basic_string@DU?$char_traits@D@std@@V?$allocator@D@2@@std@@@2@U?$equal_to@V?$basic_string@DU?$char_traits@D@std@@V?$allocator@D@2@@std@@@2@@2@V?$allocator@U?$pair@$$CBV?$basic_string@DU?$char_traits@D@std@@V?$allocator@D@2@@std@@PAVHunk@@@std@@@2@$0A@@std@@@std@@IAE?AU?$pair@V?$_List_iterator@V?$_List_val@U?$_List_simple_types@U?$pair@$$CBV?$basic_string@DU?$char_traits@D@std@@V?$allocator@D@2@@std@@PAVHunk@@@std@@@std@@@std@@@std@@_N@1@AAU?$pair@$$CBV?$basic_string@DU?$char_traits@D@std@@V?$allocator@D@2@@std@@PAVHunk@@@1@V?$_List_unchecked_iterator@V?$_List_val@U?$_List_simple_types@U?$pair@$$CBV?$basic_string@DU?$char_traits@D@std@@V?$allocator@D@2@@std@@PAVHunk@@@std@@@std@@@std@@@1@@Z 00409ee0 f i ExplicitHunkSorter.obj
 0001:00009060       ??$erase@V?$_List_iterator@V?$_List_val@U?$_List_simple_types@U?$pair@$$CBV?$basic_string@DU?$char_traits@D@std@@V?$allocator@D@2@@std@@PAVHunk@@@std@@@std@@@std@@@std@@X@?$_Hash@V?$_Umap_traits@V?$basic_string@DU?$char_traits@D@std@@V?$allocator@D@2@@std@@PAVHunk@@V?$_Uhash_compare@V?$basic_string@DU?$char_traits@D@std@@V?$allocator@D@2@@std@@U?$hash@V?$basic_string@DU?$char_traits@D@std@@V?$allocator@D@2@@std@@@2@U?$equal_to@V?$basic_string@DU?$char_traits@D@std@@V?$allocator@D@2@@std@@@2@@2@V?$allocator@U?$pair@$$CBV?$basic_string@DU?$char_traits@D@std@@V?$allocator@D@2@@std@@PAVHunk@@@std@@@2@$0A@@std@@@std@@QAE?AV?$_List_iterator@V?$_List_val@U?$_List_simple_types@U?$pair@$$CBV?$basic_string@DU?$char_traits@D@std@@V?$allocator@D@2@@std@@PAVHunk@@@std@@@std@@@std@@@1@V21@@Z 0040a060 f i ExplicitHunkSorter.obj
 0001:00009100       ??1?$_Hash@V?$_Umap_traits@V?$basic_string@DU?$char_traits@D@std@@V?$allocator@D@2@@std@@PAVHunk@@V?$_Uhash_compare@V?$basic_string@DU?$char_traits@D@std@@V?$allocator@D@2@@std@@U?$hash@V?$basic_string@DU?$char_traits@D@std@@V?$allocator@D@2@@std@@@2@U?$equal_to@V?$basic_string@DU?$char_traits@D@std@@V?$allocator@D@2@@std@@@2@@2@V?$allocator@U?$pair@$$CBV?$basic_string@DU?$char_traits@D@std@@V?$allocator@D@2@@std@@PAVHunk@@@std@@@2@$0A@@std@@@std@@QAE@XZ 0040a100 f i ExplicitHunkSorter.obj
 0001:00009160       ??1?$list@U?$pair@$$CBV?$basic_string@DU?$char_traits@D@std@@V?$allocator@D@2@@std@@PAVHunk@@@std@@V?$allocator@U?$pair@$$CBV?$basic_string@DU?$char_traits@D@std@@V?$allocator@D@2@@std@@PAVHunk@@@std@@@2@@std@@QAE@XZ 0040a160 f i ExplicitHunkSorter.obj
 0001:000091f0       ??R?$_Uhash_compare@V?$basic_string@DU?$char_traits@D@std@@V?$allocator@D@2@@std@@U?$hash@V?$basic_string@DU?$char_traits@D@std@@V?$allocator@D@2@@std@@@2@U?$equal_to@V?$basic_string@DU?$char_traits@D@std@@V?$allocator@D@2@@std@@@2@@std@@QBE_NABV?$basic_string@DU?$char_traits@D@std@@V?$allocator@D@2@@1@0@Z 0040a1f0 f i ExplicitHunkSorter.obj
 0001:000094a0       ?SortHunkList@ExplicitHunkSorter@@SAXPAVHunkList@@PAVReuse@@@Z 0040a4a0 f   ExplicitHunkSorter.obj
 0001:00009940       ?_Buynode0@?$_List_alloc@U?$_List_base_types@U?$pair@$$CBV?$basic_string@DU?$char_traits@D@std@@V?$allocator@D@2@@std@@PAVHunk@@@std@@V?$allocator@U?$pair@$$CBV?$basic_string@DU?$char_traits@D@std@@V?$allocator@D@2@@std@@PAVHunk@@@std@@@2@@std@@@std@@QAEPAU?$_List_node@U?$pair@$$CBV?$basic_string@DU?$char_traits@D@std@@V?$allocator@D@2@@std@@PAVHunk@@@std@@PAX@2@PAU32@0@Z 0040a940 f i ExplicitHunkSorter.obj
 0001:000099c0       ?_Check_size@?$_Hash@V?$_Umap_traits@V?$basic_string@DU?$char_traits@D@std@@V?$allocator@D@2@@std@@PAVHunk@@V?$_Uhash_compare@V?$basic_string@DU?$char_traits@D@std@@V?$allocator@D@2@@std@@U?$hash@V?$basic_string@DU?$char_traits@D@std@@V?$allocator@D@2@@std@@@2@U?$equal_to@V?$basic_string@DU?$char_traits@D@std@@V?$allocator@D@2@@std@@@2@@2@V?$allocator@U?$pair@$$CBV?$basic_string@DU?$char_traits@D@std@@V?$allocator@D@2@@std@@PAVHunk@@@std@@@2@$0A@@std@@@std@@IAEXXZ 0040a9c0 f i ExplicitHunkSorter.obj
 0001:00009a60       ?_Destroy_if_node@?$_Hash@V?$_Umap_traits@V?$basic_string@DU?$char_traits@D@std@@V?$allocator@D@2@@std@@PAVHunk@@V?$_Uhash_compare@V?$basic_string@DU?$char_traits@D@std@@V?$allocator@D@2@@std@@U?$hash@V?$basic_string@DU?$char_traits@D@std@@V?$allocator@D@2@@std@@@2@U?$equal_to@V?$basic_string@DU?$char_traits@D@std@@V?$allocator@D@2@@std@@@2@@2@V?$allocator@U?$pair@$$CBV?$basic_string@DU?$char_traits@D@std@@V?$allocator@D@2@@std@@PAVHunk@@@std@@@2@$0A@@std@@@std@@IAEXV?$_List_unchecked_iterator@V?$_List_val@U?$_List_simple_types@U?$pair@$$CBV?$basic_string@DU?$char_traits@D@std@@V?$allocator@D@2@@std@@PAVHunk@@@std@@@std@@@std@@@2@@Z 0040aa60 f i ExplicitHunkSorter.obj
 0001:00009a90       ?_End@?$_Hash@V?$_Umap_traits@V?$basic_string@DU?$char_traits@D@std@@V?$allocator@D@2@@std@@PAVHunk@@V?$_Uhash_compare@V?$basic_string@DU?$char_traits@D@std@@V?$allocator@D@2@@std@@U?$hash@V?$basic_string@DU?$char_traits@D@std@@V?$allocator@D@2@@std@@@2@U?$equal_to@V?$basic_string@DU?$char_traits@D@std@@V?$allocator@D@2@@std@@@2@@2@V?$allocator@U?$pair@$$CBV?$basic_string@DU?$char_traits@D@std@@V?$allocator@D@2@@std@@PAVHunk@@@std@@@2@$0A@@std@@@std@@IAE?AV?$_List_unchecked_iterator@V?$_List_val@U?$_List_simple_types@U?$pair@$$CBV?$basic_string@DU?$char_traits@D@std@@V?$allocator@D@2@@std@@PAVHunk@@@std@@@std@@@std@@@2@I@Z 0040aa90 f i ExplicitHunkSorter.obj
 0001:00009ab0       ?_Freenode@?$_List_buy@U?$pair@$$CBV?$basic_string@DU?$char_traits@D@std@@V?$allocator@D@2@@std@@PAVHunk@@@std@@V?$allocator@U?$pair@$$CBV?$basic_string@DU?$char_traits@D@std@@V?$allocator@D@2@@std@@PAVHunk@@@std@@@2@@std@@QAEXPAU?$_List_node@U?$pair@$$CBV?$basic_string@DU?$char_traits@D@std@@V?$allocator@D@2@@std@@PAVHunk@@@std@@PAX@2@@Z 0040aab0 f i ExplicitHunkSorter.obj
 0001:00009b10       ?_Getal@?$_Vector_alloc@U?$_Vec_base_types@DV?$allocator@D@std@@@std@@@std@@QAEAAV?$allocator@D@2@XZ 0040ab10 f i Hunk.obj
 0001:00009b10       ?_Getal@?$_Vector_alloc@U?$_Vec_base_types@V?$_List_unchecked_iterator@V?$_List_val@U?$_List_simple_types@U?$pair@$$CBV?$basic_string@DU?$char_traits@D@std@@V?$allocator@D@2@@std@@PAVHunk@@@std@@@std@@@std@@@std@@V?$allocator@V?$_List_unchecked_iterator@V?$_List_val@U?$_List_simple_types@U?$pair@$$CBV?$basic_string@DU?$char_traits@D@std@@V?$allocator@D@2@@std@@PAVHunk@@@std@@@std@@@std@@@std@@@2@@std@@@std@@QAEAAV?$allocator@V?$_List_unchecked_iterator@V?$_List_val@U?$_List_simple_types@U?$pair@$$CBV?$basic_string@DU?$char_traits@D@std@@V?$allocator@D@2@@std@@PAVHunk@@@std@@@std@@@std@@@std@@@2@XZ 0040ab10 f i ExplicitHunkSorter.obj
 0001:00009b10       ?_Getal@?$_Vector_alloc@U?$_Vec_base_types@UTinyHashEntry@@V?$allocator@UTinyHashEntry@@@std@@@std@@@std@@QAEAAV?$allocator@UTinyHashEntry@@@2@XZ 0040ab10 f i Compressor:Compressor.obj
 0001:00009b10       ?_Getal@?$_Vector_alloc@U?$_Vec_base_types@HV?$allocator@H@std@@@std@@@std@@QAEAAV?$allocator@H@2@XZ 0040ab10 f i Compressor:CompressionStream.obj
 0001:00009b10       ?_Getal@?$_Vector_alloc@U?$_Vec_base_types@IV?$allocator@I@std@@@std@@@std@@QAEAAV?$allocator@I@2@XZ 0040ab10 f i Compressor:CompressionStream.obj
 0001:00009b20       ?_Hashval@?$_Hash@V?$_Umap_traits@V?$basic_string@DU?$char_traits@D@std@@V?$allocator@D@2@@std@@PAVHunk@@V?$_Uhash_compare@V?$basic_string@DU?$char_traits@D@std@@V?$allocator@D@2@@std@@U?$hash@V?$basic_string@DU?$char_traits@D@std@@V?$allocator@D@2@@std@@@2@U?$equal_to@V?$basic_string@DU?$char_traits@D@std@@V?$allocator@D@2@@std@@@2@@2@V?$allocator@U?$pair@$$CBV?$basic_string@DU?$char_traits@D@std@@V?$allocator@D@2@@std@@PAVHunk@@@std@@@2@$0A@@std@@@std@@IBEIABV?$basic_string@DU?$char_traits@D@std@@V?$allocator@D@2@@2@@Z 0040ab20 f i ExplicitHunkSorter.obj
 0001:00009b60       ?_Init@?$_Hash@V?$_Umap_traits@V?$basic_string@DU?$char_traits@D@std@@V?$allocator@D@2@@std@@PAVHunk@@V?$_Uhash_compare@V?$basic_string@DU?$char_traits@D@std@@V?$allocator@D@2@@std@@U?$hash@V?$basic_string@DU?$char_traits@D@std@@V?$allocator@D@2@@std@@@2@U?$equal_to@V?$basic_string@DU?$char_traits@D@std@@V?$allocator@D@2@@std@@@2@@2@V?$allocator@U?$pair@$$CBV?$basic_string@DU?$char_traits@D@std@@V?$allocator@D@2@@std@@PAVHunk@@@std@@@2@$0A@@std@@@std@@IAEXI@Z 0040ab60 f i ExplicitHunkSorter.obj
 0001:00009cb0       ?_Make_iter@?$_Hash@V?$_Umap_traits@V?$basic_string@DU?$char_traits@D@std@@V?$allocator@D@2@@std@@PAVHunk@@V?$_Uhash_compare@V?$basic_string@DU?$char_traits@D@std@@V?$allocator@D@2@@std@@U?$hash@V?$basic_string@DU?$char_traits@D@std@@V?$allocator@D@2@@std@@@2@U?$equal_to@V?$basic_string@DU?$char_traits@D@std@@V?$allocator@D@2@@std@@@2@@2@V?$allocator@U?$pair@$$CBV?$basic_string@DU?$char_traits@D@std@@V?$allocator@D@2@@std@@PAVHunk@@@std@@@2@$0A@@std@@@std@@QBE?AV?$_List_iterator@V?$_List_val@U?$_List_simple_types@U?$pair@$$CBV?$basic_string@DU?$char_traits@D@std@@V?$allocator@D@2@@std@@PAVHunk@@@std@@@std@@@std@@@2@V?$_List_unchecked_const_iterator@V?$_List_val@U?$_List_simple_types@U?$pair@$$CBV?$basic_string@DU?$char_traits@D@std@@V?$allocator@D@2@@std@@PAVHunk@@@std@@@std@@@std@@U_Iterator_base0@2@@2@@Z 0040acb0 f i ExplicitHunkSorter.obj
 0001:00009cc0       ?_Reallocate_exactly@?$vector@V?$_List_unchecked_iterator@V?$_List_val@U?$_List_simple_types@U?$pair@$$CBV?$basic_string@DU?$char_traits@D@std@@V?$allocator@D@2@@std@@PAVHunk@@@std@@@std@@@std@@@std@@V?$allocator@V?$_List_unchecked_iterator@V?$_List_val@U?$_List_simple_types@U?$pair@$$CBV?$basic_string@DU?$char_traits@D@std@@V?$allocator@D@2@@std@@PAVHunk@@@std@@@std@@@std@@@std@@@2@@std@@AAEXI@Z 0040acc0 f i ExplicitHunkSorter.obj
 0001:00009d90       ?_Umove_if_noexcept@?$vector@V?$_List_unchecked_iterator@V?$_List_val@U?$_List_simple_types@U?$pair@$$CBV?$basic_string@DU?$char_traits@D@std@@V?$allocator@D@2@@std@@PAVHunk@@@std@@@std@@@std@@@std@@V?$allocator@V?$_List_unchecked_iterator@V?$_List_val@U?$_List_simple_types@U?$pair@$$CBV?$basic_string@DU?$char_traits@D@std@@V?$allocator@D@2@@std@@PAVHunk@@@std@@@std@@@std@@@std@@@2@@std@@AAEXPAV?$_List_unchecked_iterator@V?$_List_val@U?$_List_simple_types@U?$pair@$$CBV?$basic_string@DU?$char_traits@D@std@@V?$allocator@D@2@@std@@PAVHunk@@@std@@@std@@@std@@@2@00@Z 0040ad90 f i ExplicitHunkSorter.obj
 0001:00009dd0       ?deallocate@?$allocator@U?$_List_node@U?$pair@$$CBV?$basic_string@DU?$char_traits@D@std@@V?$allocator@D@2@@std@@PAVHunk@@@std@@PAX@std@@@std@@QAEXQAU?$_List_node@U?$pair@$$CBV?$basic_string@DU?$char_traits@D@std@@V?$allocator@D@2@@std@@PAVHunk@@@std@@PAX@2@I@Z 0040add0 f i ExplicitHunkSorter.obj
 0001:00009e10       ?find@?$_Hash@V?$_Umap_traits@V?$basic_string@DU?$char_traits@D@std@@V?$allocator@D@2@@std@@PAVHunk@@V?$_Uhash_compare@V?$basic_string@DU?$char_traits@D@std@@V?$allocator@D@2@@std@@U?$hash@V?$basic_string@DU?$char_traits@D@std@@V?$allocator@D@2@@std@@@2@U?$equal_to@V?$basic_string@DU?$char_traits@D@std@@V?$allocator@D@2@@std@@@2@@2@V?$allocator@U?$pair@$$CBV?$basic_string@DU?$char_traits@D@std@@V?$allocator@D@2@@std@@PAVHunk@@@std@@@2@$0A@@std@@@std@@QAE?AV?$_List_iterator@V?$_List_val@U?$_List_simple_types@U?$pair@$$CBV?$basic_string@DU?$char_traits@D@std@@V?$allocator@D@2@@std@@PAVHunk@@@std@@@std@@@std@@@2@ABV?$basic_string@DU?$char_traits@D@std@@V?$allocator@D@2@@2@@Z 0040ae10 f i ExplicitHunkSorter.obj
 0001:0000a5d0       ??$_Buffered_rotate_unchecked@PAU?$pair@PADH@std@@@std@@YAPAU?$pair@PADH@0@QAU10@00HH0H@Z 0040b5d0 f i Export.obj
 0001:0000a720       ??$_Buynode@ABUpiecewise_construct_t@std@@V?$tuple@ABH@2@V?$tuple@$$V@2@@?$_Tree_comp_alloc@V?$_Tmap_traits@HPAVSymbol@@U?$less@H@std@@V?$allocator@U?$pair@$$CBHPAVSymbol@@@std@@@3@$0A@@std@@@std@@QAEPAU?$_Tree_node@U?$pair@$$CBHPAVSymbol@@@std@@PAX@1@ABUpiecewise_construct_t@1@$$QAV?$tuple@ABH@1@$$QAV?$tuple@$$V@1@@Z 0040b720 f i Hunk.obj
 0001:0000a720       ??$_Buynode@ABUpiecewise_construct_t@std@@V?$tuple@$$QAH@2@V?$tuple@$$V@2@@?$_Tree_comp_alloc@V?$_Tmap_traits@HHU?$less@H@std@@V?$allocator@U?$pair@$$CBHH@std@@@2@$0A@@std@@@std@@QAEPAU?$_Tree_node@U?$pair@$$CBHH@std@@PAX@1@ABUpiecewise_construct_t@1@$$QAV?$tuple@$$QAH@1@$$QAV?$tuple@$$V@1@@Z 0040b720 f i Export.obj
 0001:0000a7a0       ??$_Emplace_reallocate@AAPADAAH@?$vector@U?$pair@PADH@std@@V?$allocator@U?$pair@PADH@std@@@2@@std@@QAEPAU?$pair@PADH@1@QAU21@AAPADAAH@Z 0040b7a0 f i Export.obj
 0001:0000a950       ??$_Insert_at@AAU?$pair@$$CBHH@std@@PAU?$_Tree_node@U?$pair@$$CBHH@std@@PAX@2@@?$_Tree@V?$_Tmap_traits@HHU?$less@H@std@@V?$allocator@U?$pair@$$CBHH@std@@@2@$0A@@std@@@std@@IAE?AV?$_Tree_iterator@V?$_Tree_val@U?$_Tree_simple_types@U?$pair@$$CBHH@std@@@std@@@std@@@1@_NPAU?$_Tree_node@U?$pair@$$CBHH@std@@PAX@1@AAU?$pair@$$CBHH@1@1@Z 0040b950 f i Export.obj
 0001:0000a950       ??$_Insert_at@AAU?$pair@$$CBHPAVSymbol@@@std@@PAU?$_Tree_node@U?$pair@$$CBHPAVSymbol@@@std@@PAX@2@@?$_Tree@V?$_Tmap_traits@HPAVSymbol@@U?$less@H@std@@V?$allocator@U?$pair@$$CBHPAVSymbol@@@std@@@3@$0A@@std@@@std@@IAE?AV?$_Tree_iterator@V?$_Tree_val@U?$_Tree_simple_types@U?$pair@$$CBHPAVSymbol@@@std@@@std@@@std@@@1@_NPAU?$_Tree_node@U?$pair@$$CBHPAVSymbol@@@std@@PAX@1@AAU?$pair@$$CBHPAVSymbol@@@1@1@Z 0040b950 f i Hunk.obj
 0001:0000aaf0       ??$_Insert_hint@AAU?$pair@$$CBHH@std@@PAU?$_Tree_node@U?$pair@$$CBHH@std@@PAX@2@@?$_Tree@V?$_Tmap_traits@HHU?$less@H@std@@V?$allocator@U?$pair@$$CBHH@std@@@2@$0A@@std@@@std@@IAE?AV?$_Tree_iterator@V?$_Tree_val@U?$_Tree_simple_types@U?$pair@$$CBHH@std@@@std@@@std@@@1@V?$_Tree_const_iterator@V?$_Tree_val@U?$_Tree_simple_types@U?$pair@$$CBHH@std@@@std@@@std@@@1@AAU?$pair@$$CBHH@1@PAU?$_Tree_node@U?$pair@$$CBHH@std@@PAX@1@@Z 0040baf0 f i Export.obj
 0001:0000ac70       ??$_Insert_nohint@AAU?$pair@$$CBHPAVSymbol@@@std@@PAU?$_Tree_node@U?$pair@$$CBHPAVSymbol@@@std@@PAX@2@@?$_Tree@V?$_Tmap_traits@HPAVSymbol@@U?$less@H@std@@V?$allocator@U?$pair@$$CBHPAVSymbol@@@std@@@3@$0A@@std@@@std@@IAE?AU?$pair@V?$_Tree_iterator@V?$_Tree_val@U?$_Tree_simple_types@U?$pair@$$CBHPAVSymbol@@@std@@@std@@@std@@@std@@_N@1@_NAAU?$pair@$$CBHPAVSymbol@@@1@PAU?$_Tree_node@U?$pair@$$CBHPAVSymbol@@@std@@PAX@1@@Z 0040bc70 f i Hunk.obj
 0001:0000ac70       ??$_Insert_nohint@AAU?$pair@$$CBHH@std@@PAU?$_Tree_node@U?$pair@$$CBHH@std@@PAX@2@@?$_Tree@V?$_Tmap_traits@HHU?$less@H@std@@V?$allocator@U?$pair@$$CBHH@std@@@2@$0A@@std@@@std@@IAE?AU?$pair@V?$_Tree_iterator@V?$_Tree_val@U?$_Tree_simple_types@U?$pair@$$CBHH@std@@@std@@@std@@@std@@_N@1@_NAAU?$pair@$$CBHH@1@PAU?$_Tree_node@U?$pair@$$CBHH@std@@PAX@1@@Z 0040bc70 f i Export.obj
 0001:0000aef0       ??$_Move_backward_unchecked@PAU?$pair@PADH@std@@PAU12@@std@@YAPAU?$pair@PADH@0@PAU10@00@Z 0040bef0 f i Export.obj
 0001:0000af20       ??$_Move_unchecked@PAU?$pair@PADH@std@@PAU12@@std@@YAPAU?$pair@PADH@0@PAU10@00@Z 0040bf20 f i Export.obj
 0001:0000b080       ??$_Uninitialized_move_unchecked@PAU?$pair@PADH@std@@PAU12@@std@@YAPAU?$pair@PADH@0@QAU10@00@Z 0040c080 f i Export.obj
 0001:0000b220       ??0?$vector@DV?$allocator@D@std@@@std@@QAE@IABV?$allocator@D@1@@Z 0040c220 f i Export.obj
 0001:0000b2d0       ??0Export@@QAE@V?$basic_string@DU?$char_traits@D@std@@V?$allocator@D@2@@std@@0@Z 0040c2d0 f   Export.obj
 0001:0000b380       ??0Export@@QAE@V?$basic_string@DU?$char_traits@D@std@@V?$allocator@D@2@@std@@H@Z 0040c380 f   Export.obj
 0001:0000b400       ??0Relocation@@QAE@$$QAU0@@Z 0040c400 f i Export.obj
 0001:0000b480       ??1?$_Tree@V?$_Tmap_traits@HHU?$less@H@std@@V?$allocator@U?$pair@$$CBHH@std@@@2@$0A@@std@@@std@@QAE@XZ 0040c480 f i Export.obj
 0001:0000b480       ??1?$_Tree@V?$_Tmap_traits@HPAVSymbol@@U?$less@H@std@@V?$allocator@U?$pair@$$CBHPAVSymbol@@@std@@@3@$0A@@std@@@std@@QAE@XZ 0040c480 f i Hunk.obj
 0001:0000b4e0       ?_Tidy_deallocate@?$basic_string@DU?$char_traits@D@std@@V?$allocator@D@2@@std@@QAEXXZ 0040c4e0 f i HtmlReport.obj
 0001:0000b4e0       ??1?$basic_string@DU?$char_traits@D@std@@V?$allocator@D@2@@std@@QAE@XZ 0040c4e0 f i Export.obj
 0001:0000b4e0       ??1?$pair@V?$basic_string@DU?$char_traits@D@std@@V?$allocator@D@2@@std@@PBD@std@@QAE@XZ 0040c4e0 f i CmdParamMultiAssign.obj
 0001:0000b530       ??1Relocation@@QAE@XZ      0040c530 f i Export.obj
 0001:0000b5c0       ?CreateExportTable@@YAPAVHunk@@ABV?$set@VExport@@U?$less@VExport@@@std@@V?$allocator@VExport@@@3@@std@@@Z 0040c5c0 f   Export.obj
 0001:0000c350       ?ParseExport@@YA?AVExport@@ABV?$basic_string@DU?$char_traits@D@std@@V?$allocator@D@2@@std@@0@Z 0040d350 f   Export.obj
 0001:0000c4b0       ?PrintExports@@YAXABV?$set@VExport@@U?$less@VExport@@@std@@V?$allocator@VExport@@@3@@std@@@Z 0040d4b0 f   Export.obj
 0001:0000c5e0       ?StripExports@@YA?AV?$set@VExport@@U?$less@VExport@@@std@@V?$allocator@VExport@@@3@@std@@PAVHunk@@H@Z 0040d5e0 f   Export.obj
 0001:0000c9c0       ?_Buyheadnode@?$_Tree_comp_alloc@V?$_Tmap_traits@HPAVSymbol@@U?$less@H@std@@V?$allocator@U?$pair@$$CBHPAVSymbol@@@std@@@3@$0A@@std@@@std@@QAEPAU?$_Tree_node@U?$pair@$$CBHPAVSymbol@@@std@@PAX@2@XZ 0040d9c0 f i HtmlReport.obj
 0001:0000c9c0       ?_Buyheadnode@?$_Tree_comp_alloc@V?$_Tmap_traits@HHU?$less@H@std@@V?$allocator@U?$pair@$$CBHH@std@@@2@$0A@@std@@@std@@QAEPAU?$_Tree_node@U?$pair@$$CBHH@std@@PAX@2@XZ 0040d9c0 f i Export.obj
 0001:0000ca40       ?_Buynode0@?$_Tree_comp_alloc@V?$_Tmap_traits@HPAVSymbol@@U?$less@H@std@@V?$allocator@U?$pair@$$CBHPAVSymbol@@@std@@@3@$0A@@std@@@std@@QAEPAU?$_Tree_node@U?$pair@$$CBHPAVSymbol@@@std@@PAX@2@XZ 0040da40 f i HtmlReport.obj
 0001:0000ca40       ?_Buynode0@?$_Tree_comp_alloc@V?$_Tmap_traits@HHU?$less@H@std@@V?$allocator@U?$pair@$$CBHH@std@@@2@$0A@@std@@@std@@QAEPAU?$_Tree_node@U?$pair@$$CBHH@std@@PAX@2@XZ 0040da40 f i Export.obj
 0001:0000cac0       ?_Freenode0@?$_Tree_comp_alloc@V?$_Tmap_traits@HPAVSymbol@@U?$less@H@std@@V?$allocator@U?$pair@$$CBHPAVSymbol@@@std@@@3@$0A@@std@@@std@@QAEXPAU?$_Tree_node@U?$pair@$$CBHPAVSymbol@@@std@@PAX@2@@Z 0040dac0 f i HtmlReport.obj
 0001:0000cac0       ?_Destroy_if_node@?$_Tree@V?$_Tmap_traits@HPAVSymbol@@U?$less@H@std@@V?$allocator@U?$pair@$$CBHPAVSymbol@@@std@@@3@$0A@@std@@@std@@IAEXPAU?$_Tree_node@U?$pair@$$CBHPAVSymbol@@@std@@PAX@2@@Z 0040dac0 f i Hunk.obj
 0001:0000cac0       ?_Freenode0@?$_Tree_comp_alloc@V?$_Tmap_traits@HHU?$less@H@std@@V?$allocator@U?$pair@$$CBHH@std@@@2@$0A@@std@@@std@@QAEXPAU?$_Tree_node@U?$pair@$$CBHH@std@@PAX@2@@Z 0040dac0 f i Export.obj
 0001:0000cac0       ?_Destroy_if_node@?$_Tree@V?$_Tmap_traits@HHU?$less@H@std@@V?$allocator@U?$pair@$$CBHH@std@@@2@$0A@@std@@@std@@IAEXPAU?$_Tree_node@U?$pair@$$CBHH@std@@PAX@2@@Z 0040dac0 f i Export.obj
 0001:0000cae0       ?_Erase@?$_Tree@V?$_Tmap_traits@HPAVSymbol@@U?$less@H@std@@V?$allocator@U?$pair@$$CBHPAVSymbol@@@std@@@3@$0A@@std@@@std@@IAEXPAU?$_Tree_node@U?$pair@$$CBHPAVSymbol@@@std@@PAX@2@@Z 0040dae0 f i HtmlReport.obj
 0001:0000cae0       ?_Erase@?$_Tree@V?$_Tmap_traits@HHU?$less@H@std@@V?$allocator@U?$pair@$$CBHH@std@@@2@$0A@@std@@@std@@IAEXPAU?$_Tree_node@U?$pair@$$CBHH@std@@PAX@2@@Z 0040dae0 f i Export.obj
 0001:0000cb20       ?_Umove@?$vector@U?$pair@PADH@std@@V?$allocator@U?$pair@PADH@std@@@2@@std@@AAEPAU?$pair@PADH@2@PAU32@00@Z 0040db20 f i Export.obj
 0001:0000cb50       ?_Umove_if_noexcept@?$vector@U?$pair@PADH@std@@V?$allocator@U?$pair@PADH@std@@@2@@std@@AAEXPAU?$pair@PADH@2@00@Z 0040db50 f i Export.obj
 0001:0000cb80       ?c_str@?$basic_string@DU?$char_traits@D@std@@V?$allocator@D@2@@std@@QBEPBDXZ 0040db80 f i Export.obj
 0001:0000cb90       ?deallocate@?$allocator@U?$_Tree_node@U?$pair@$$CBHH@std@@PAX@std@@@std@@QAEXQAU?$_Tree_node@U?$pair@$$CBHH@std@@PAX@2@I@Z 0040db90 f i Export.obj
 0001:0000cb90       ?deallocate@?$allocator@U?$_Tree_node@U?$pair@$$CBHPAVSymbol@@@std@@PAX@std@@@std@@QAEXQAU?$_Tree_node@U?$pair@$$CBHPAVSymbol@@@std@@PAX@2@I@Z 0040db90 f i HtmlReport.obj
 0001:0000cb90       ?deallocate@?$allocator@V?$basic_string@DU?$char_traits@D@std@@V?$allocator@D@2@@std@@@std@@QAEXQAV?$basic_string@DU?$char_traits@D@std@@V?$allocator@D@2@@2@I@Z 0040db90 f i ImportHandler.obj
 0001:0000cbd0       ?deallocate@?$allocator@U?$pair@PADH@std@@@std@@QAEXQAU?$pair@PADH@2@I@Z 0040dbd0 f i Export.obj
 0001:0000cbd0       ?deallocate@?$allocator@UTinyHashEntry@@@std@@QAEXQAUTinyHashEntry@@I@Z 0040dbd0 f i Compressor:Compressor.obj
 0001:0000cc30       ?FixHeader04@@YAXPAD@Z     0040dc30 f   Fix.obj
 0001:0000cd70       ?FixHeader10@@YAXPAD@Z     0040dd70 f   Fix.obj
 0001:0000cd90       ??$?0V?$allocator@U?$_Tree_node@U?$pair@$$CBHPAVSymbol@@@std@@PAX@std@@@std@@@?$_Tree@V?$_Tmap_traits@HPAVSymbol@@U?$less@H@std@@V?$allocator@U?$pair@$$CBHPAVSymbol@@@std@@@3@$0A@@std@@@std@@QAE@ABV01@$$QAV?$allocator@U?$_Tree_node@U?$pair@$$CBHPAVSymbol@@@std@@PAX@std@@@1@@Z 0040dd90 f i HtmlReport.obj
 0001:0000ce10       ??$?HDU?$char_traits@D@std@@V?$allocator@D@1@@std@@YA?AV?$basic_string@DU?$char_traits@D@std@@V?$allocator@D@2@@0@$$QAV10@ABV10@@Z 0040de10 f i HtmlReport.obj
 0001:0000ce70       ??$?HDU?$char_traits@D@std@@V?$allocator@D@1@@std@@YA?AV?$basic_string@DU?$char_traits@D@std@@V?$allocator@D@2@@0@$$QAV10@QBD@Z 0040de70 f i HtmlReport.obj
 0001:0000ced0       ??$_Buynode@U?$pair@HPAVSymbol@@@std@@@?$_Tree_comp_alloc@V?$_Tmap_traits@HPAVSymbol@@U?$less@H@std@@V?$allocator@U?$pair@$$CBHPAVSymbol@@@std@@@3@$0A@@std@@@std@@QAEPAU?$_Tree_node@U?$pair@$$CBHPAVSymbol@@@std@@PAX@1@$$QAU?$pair@HPAVSymbol@@@1@@Z 0040ded0 f i Hunk.obj
 0001:0000ced0       ??$_Buynode@AAU?$pair@$$CBHPAVSymbol@@@std@@@?$_Tree_comp_alloc@V?$_Tmap_traits@HPAVSymbol@@U?$less@H@std@@V?$allocator@U?$pair@$$CBHPAVSymbol@@@std@@@3@$0A@@std@@@std@@QAEPAU?$_Tree_node@U?$pair@$$CBHPAVSymbol@@@std@@PAX@1@AAU?$pair@$$CBHPAVSymbol@@@1@@Z 0040ded0 f i HtmlReport.obj
 0001:0000cf50       ??$_Buynode@ABUpiecewise_construct_t@std@@V?$tuple@ABV?$basic_string@DU?$char_traits@D@std@@V?$allocator@D@2@@std@@@2@V?$tuple@$$V@2@@?$_Tree_comp_alloc@V?$_Tmap_traits@V?$basic_string@DU?$char_traits@D@std@@V?$allocator@D@2@@std@@V12@U?$less@V?$basic_string@DU?$char_traits@D@std@@V?$allocator@D@2@@std@@@2@V?$allocator@U?$pair@$$CBV?$basic_string@DU?$char_traits@D@std@@V?$allocator@D@2@@std@@V12@@std@@@2@$0A@@std@@@std@@QAEPAU?$_Tree_node@U?$pair@$$CBV?$basic_string@DU?$char_traits@D@std@@V?$allocator@D@2@@std@@V12@@std@@PAX@1@ABUpiecewise_construct_t@1@$$QAV?$tuple@ABV?$basic_string@DU?$char_traits@D@std@@V?$allocator@D@2@@std@@@1@$$QAV?$tuple@$$V@1@@Z 0040df50 f i HtmlReport.obj
 0001:0000cfe0       ??$_Copy@U_Copy_tag@?$_Tree@V?$_Tmap_traits@HPAVSymbol@@U?$less@H@std@@V?$allocator@U?$pair@$$CBHPAVSymbol@@@std@@@3@$0A@@std@@@std@@@?$_Tree@V?$_Tmap_traits@HPAVSymbol@@U?$less@H@std@@V?$allocator@U?$pair@$$CBHPAVSymbol@@@std@@@3@$0A@@std@@@std@@IAEXABV01@U_Copy_tag@01@@Z 0040dfe0 f i HtmlReport.obj
 0001:0000d060       ??$_Copy_nodes@U_Copy_tag@?$_Tree@V?$_Tmap_traits@HPAVSymbol@@U?$less@H@std@@V?$allocator@U?$pair@$$CBHPAVSymbol@@@std@@@3@$0A@@std@@@std@@@?$_Tree@V?$_Tmap_traits@HPAVSymbol@@U?$less@H@std@@V?$allocator@U?$pair@$$CBHPAVSymbol@@@std@@@3@$0A@@std@@@std@@IAEPAU?$_Tree_node@U?$pair@$$CBHPAVSymbol@@@std@@PAX@1@PAU21@0U_Copy_tag@01@@Z 0040e060 f i HtmlReport.obj
 0001:0000d120       ??$_Emplace_reallocate@H@?$vector@HV?$allocator@H@std@@@std@@QAEPAHQAH$$QAH@Z 0040e120 f i HtmlReport.obj
 0001:0000d120       ??$_Emplace_reallocate@ABH@?$vector@HV?$allocator@H@std@@@std@@QAEPAHQAHABH@Z 0040e120 f i HtmlReport.obj
 0001:0000d120       ??$_Emplace_reallocate@PAVHunk@@@?$vector@PAVHunk@@V?$allocator@PAVHunk@@@std@@@std@@QAEPAPAVHunk@@QAPAV2@$$QAPAV2@@Z 0040e120 f i HunkList.obj
 0001:0000d250       ??$construct@U?$pair@$$CBV?$basic_string@DU?$char_traits@D@std@@V?$allocator@D@2@@std@@V12@@std@@ABUpiecewise_construct_t@2@V?$tuple@ABV?$basic_string@DU?$char_traits@D@std@@V?$allocator@D@2@@std@@@2@V?$tuple@$$V@2@@?$_Default_allocator_traits@V?$allocator@U?$_Tree_node@U?$pair@$$CBV?$basic_string@DU?$char_traits@D@std@@V?$allocator@D@2@@std@@V12@@std@@PAX@std@@@std@@@std@@SAXAAV?$allocator@U?$_Tree_node@U?$pair@$$CBV?$basic_string@DU?$char_traits@D@std@@V?$allocator@D@2@@std@@V12@@std@@PAX@std@@@1@QAU?$pair@$$CBV?$basic_string@DU?$char_traits@D@std@@V?$allocator@D@2@@std@@V12@@1@ABUpiecewise_construct_t@1@$$QAV?$tuple@ABV?$basic_string@DU?$char_traits@D@std@@V?$allocator@D@2@@std@@@1@$$QAV?$tuple@$$V@1@@Z 0040e250 f i HtmlReport.obj
 0001:0000d280       ??4?$basic_string@DU?$char_traits@D@std@@V?$allocator@D@2@@std@@QAEAAV01@$$QAV01@@Z 0040e280 f i HtmlReport.obj
 0001:0000d2c0       ??A?$map@V?$basic_string@DU?$char_traits@D@std@@V?$allocator@D@2@@std@@V12@U?$less@V?$basic_string@DU?$char_traits@D@std@@V?$allocator@D@2@@std@@@2@V?$allocator@U?$pair@$$CBV?$basic_string@DU?$char_traits@D@std@@V?$allocator@D@2@@std@@V12@@std@@@2@@std@@QAEAAV?$basic_string@DU?$char_traits@D@std@@V?$allocator@D@2@@1@ABV21@@Z 0040e2c0 f i HtmlReport.obj
 0001:0000dc90       ?HtmlReport@@YAXPAUCompressionReportRecord@@PBDAAVHunk@@2PBH1HPAVCrinkler@@@Z 0040ec90 f   HtmlReport.obj
 0001:0000f090       ?_Buyheadnode@?$_Tree_comp_alloc@V?$_Tmap_traits@V?$basic_string@DU?$char_traits@D@std@@V?$allocator@D@2@@std@@HU?$less@V?$basic_string@DU?$char_traits@D@std@@V?$allocator@D@2@@std@@@2@V?$allocator@U?$pair@$$CBV?$basic_string@DU?$char_traits@D@std@@V?$allocator@D@2@@std@@H@std@@@2@$0A@@std@@@std@@QAEPAU?$_Tree_node@U?$pair@$$CBV?$basic_string@DU?$char_traits@D@std@@V?$allocator@D@2@@std@@H@std@@PAX@2@XZ 00410090 f i HtmlReport.obj
 0001:0000f090       ?_Buyheadnode@?$_Tree_comp_alloc@V?$_Tmap_traits@V?$basic_string@DU?$char_traits@D@std@@V?$allocator@D@2@@std@@PAVMemoryFile@@U?$less@V?$basic_string@DU?$char_traits@D@std@@V?$allocator@D@2@@std@@@2@V?$allocator@U?$pair@$$CBV?$basic_string@DU?$char_traits@D@std@@V?$allocator@D@2@@std@@PAVMemoryFile@@@std@@@2@$0A@@std@@@std@@QAEPAU?$_Tree_node@U?$pair@$$CBV?$basic_string@DU?$char_traits@D@std@@V?$allocator@D@2@@std@@PAVMemoryFile@@@std@@PAX@2@XZ 00410090 f i main.obj
 0001:0000f090       ?_Buyheadnode@?$_Tree_comp_alloc@V?$_Tmap_traits@V?$basic_string@DU?$char_traits@D@std@@V?$allocator@D@2@@std@@PAVSymbol@@U?$less@V?$basic_string@DU?$char_traits@D@std@@V?$allocator@D@2@@std@@@2@V?$allocator@U?$pair@$$CBV?$basic_string@DU?$char_traits@D@std@@V?$allocator@D@2@@std@@PAVSymbol@@@std@@@2@$0A@@std@@@std@@QAEPAU?$_Tree_node@U?$pair@$$CBV?$basic_string@DU?$char_traits@D@std@@V?$allocator@D@2@@std@@PAVSymbol@@@std@@PAX@2@XZ 00410090 f i Hunk.obj
 0001:0000f110       ?_Change_array@?$vector@IV?$allocator@I@std@@@std@@AAEXQAIII@Z 00410110 f i Compressor:CompressionStream.obj
 0001:0000f110       ?_Change_array@?$vector@PAVHunk@@V?$allocator@PAVHunk@@@std@@@std@@AAEXQAPAVHunk@@II@Z 00410110 f i HunkList.obj
 0001:0000f110       ?_Change_array@?$vector@HV?$allocator@H@std@@@std@@AAEXQAHII@Z 00410110 f i HtmlReport.obj
 0001:0000f170       ?_Erase@?$_Tree@V?$_Tmap_traits@V?$basic_string@DU?$char_traits@D@std@@V?$allocator@D@2@@std@@PAVSymbol@@U?$less@V?$basic_string@DU?$char_traits@D@std@@V?$allocator@D@2@@std@@@2@V?$allocator@U?$pair@$$CBV?$basic_string@DU?$char_traits@D@std@@V?$allocator@D@2@@std@@PAVSymbol@@@std@@@2@$0A@@std@@@std@@IAEXPAU?$_Tree_node@U?$pair@$$CBV?$basic_string@DU?$char_traits@D@std@@V?$allocator@D@2@@std@@PAVSymbol@@@std@@PAX@2@@Z 00410170 f i Hunk.obj
 0001:0000f170       ?_Erase@?$_Tree@V?$_Tmap_traits@V?$basic_string@DU?$char_traits@D@std@@V?$allocator@D@2@@std@@HU?$less@V?$basic_string@DU?$char_traits@D@std@@V?$allocator@D@2@@std@@@2@V?$allocator@U?$pair@$$CBV?$basic_string@DU?$char_traits@D@std@@V?$allocator@D@2@@std@@H@std@@@2@$0A@@std@@@std@@IAEXPAU?$_Tree_node@U?$pair@$$CBV?$basic_string@DU?$char_traits@D@std@@V?$allocator@D@2@@std@@H@std@@PAX@2@@Z 00410170 f i HtmlReport.obj
 0001:0000f170       ?_Erase@?$_Tree@V?$_Tmap_traits@V?$basic_string@DU?$char_traits@D@std@@V?$allocator@D@2@@std@@PAVMemoryFile@@U?$less@V?$basic_string@DU?$char_traits@D@std@@V?$allocator@D@2@@std@@@2@V?$allocator@U?$pair@$$CBV?$basic_string@DU?$char_traits@D@std@@V?$allocator@D@2@@std@@PAVMemoryFile@@@std@@@2@$0A@@std@@@std@@IAEXPAU?$_Tree_node@U?$pair@$$CBV?$basic_string@DU?$char_traits@D@std@@V?$allocator@D@2@@std@@PAVMemoryFile@@@std@@PAX@2@@Z 00410170 f i main.obj
 0001:0000f1f0       ?_Tidy@?$_Tree@V?$_Tmap_traits@HPAVSymbol@@U?$less@H@std@@V?$allocator@U?$pair@$$CBHPAVSymbol@@@std@@@3@$0A@@std@@@std@@IAEXXZ 004101f0 f i HtmlReport.obj
 0001:0000f240       ?_Xran@?$_String_val@U?$_Simple_types@D@std@@@std@@SAXXZ 00410240 f i HtmlReport.obj
 0001:0000f250       ?deallocate@?$allocator@U?$_Tree_node@U?$pair@$$CBV?$basic_string@DU?$char_traits@D@std@@V?$allocator@D@2@@std@@H@std@@PAX@std@@@std@@QAEXQAU?$_Tree_node@U?$pair@$$CBV?$basic_string@DU?$char_traits@D@std@@V?$allocator@D@2@@std@@H@std@@PAX@2@I@Z 00410250 f i HtmlReport.obj
 0001:0000f250       ?deallocate@?$allocator@U?$_Tree_node@U?$pair@$$CBV?$basic_string@DU?$char_traits@D@std@@V?$allocator@D@2@@std@@PAVMemoryFile@@@std@@PAX@std@@@std@@QAEXQAU?$_Tree_node@U?$pair@$$CBV?$basic_string@DU?$char_traits@D@std@@V?$allocator@D@2@@std@@PAVMemoryFile@@@std@@PAX@2@I@Z 00410250 f i main.obj
 0001:0000f250       ?deallocate@?$allocator@U?$_Tree_node@U?$pair@$$CBV?$basic_string@DU?$char_traits@D@std@@V?$allocator@D@2@@std@@PAVSymbol@@@std@@PAX@std@@@std@@QAEXQAU?$_Tree_node@U?$pair@$$CBV?$basic_string@DU?$char_traits@D@std@@V?$allocator@D@2@@std@@PAVSymbol@@@std@@PAX@2@I@Z 00410250 f i Hunk.obj
 0001:0000f290       ?erase@?$basic_string@DU?$char_traits@D@std@@V?$allocator@D@2@@std@@QAEAAV12@II@Z 00410290 f i HtmlReport.obj
 0001:0000f2e0       ?find@?$_Tree@V?$_Tmap_traits@HPAVSymbol@@U?$less@H@std@@V?$allocator@U?$pair@$$CBHPAVSymbol@@@std@@@3@$0A@@std@@@std@@QAE?AV?$_Tree_iterator@V?$_Tree_val@U?$_Tree_simple_types@U?$pair@$$CBHPAVSymbol@@@std@@@std@@@std@@@2@ABH@Z 004102e0 f i HtmlReport.obj
 0001:0000f390       ?insert@?$basic_string@DU?$char_traits@D@std@@V?$allocator@D@2@@std@@QAEAAV12@IQBDI@Z 00410390 f i HtmlReport.obj
 0001:0000f570       ?push_back@?$vector@HV?$allocator@H@std@@@std@@QAEXABH@Z 00410570 f i HtmlReport.obj
 0001:0000f5a0       ___local_stdio_scanf_options 004105a0 f i HtmlReport.obj
 0001:0000f5b0       _sprintf                   004105b0 f i HtmlReport.obj
 0001:0000f5e0       _sprintf_s                 004105e0 f i HtmlReport.obj
 0001:0000f610       _sscanf_s                  00410610 f i HtmlReport.obj
 0001:0000f640       ??$?HDU?$char_traits@D@std@@V?$allocator@D@1@@std@@YA?AV?$basic_string@DU?$char_traits@D@std@@V?$allocator@D@2@@0@$$QAV10@0@Z 00410640 f i Hunk.obj
 0001:0000f6c0       ??$?HDU?$char_traits@D@std@@V?$allocator@D@1@@std@@YA?AV?$basic_string@DU?$char_traits@D@std@@V?$allocator@D@2@@0@ABV10@QBD@Z 004106c0 f i Hunk.obj
 0001:0000f840       ??$?MDU?$char_traits@D@std@@V?$allocator@D@1@@std@@YA_NABV?$basic_string@DU?$char_traits@D@std@@V?$allocator@D@2@@0@0@Z 00410840 f i Hunk.obj
 0001:0000f880       ??$_Buynode@ABUpiecewise_construct_t@std@@V?$tuple@$$QAV?$basic_string@DU?$char_traits@D@std@@V?$allocator@D@2@@std@@@2@V?$tuple@$$V@2@@?$_Tree_comp_alloc@V?$_Tmap_traits@V?$basic_string@DU?$char_traits@D@std@@V?$allocator@D@2@@std@@PAVSymbol@@U?$less@V?$basic_string@DU?$char_traits@D@std@@V?$allocator@D@2@@std@@@2@V?$allocator@U?$pair@$$CBV?$basic_string@DU?$char_traits@D@std@@V?$allocator@D@2@@std@@PAVSymbol@@@std@@@2@$0A@@std@@@std@@QAEPAU?$_Tree_node@U?$pair@$$CBV?$basic_string@DU?$char_traits@D@std@@V?$allocator@D@2@@std@@PAVSymbol@@@std@@PAX@1@ABUpiecewise_construct_t@1@$$QAV?$tuple@$$QAV?$basic_string@DU?$char_traits@D@std@@V?$allocator@D@2@@std@@@1@$$QAV?$tuple@$$V@1@@Z 00410880 f i Hunk.obj
 0001:0000f910       ??$_Buynode@ABUpiecewise_construct_t@std@@V?$tuple@ABV?$basic_string@DU?$char_traits@D@std@@V?$allocator@D@2@@std@@@2@V?$tuple@$$V@2@@?$_Tree_comp_alloc@V?$_Tmap_traits@V?$basic_string@DU?$char_traits@D@std@@V?$allocator@D@2@@std@@PAVMemoryFile@@U?$less@V?$basic_string@DU?$char_traits@D@std@@V?$allocator@D@2@@std@@@2@V?$allocator@U?$pair@$$CBV?$basic_string@DU?$char_traits@D@std@@V?$allocator@D@2@@std@@PAVMemoryFile@@@std@@@2@$0A@@std@@@std@@QAEPAU?$_Tree_node@U?$pair@$$CBV?$basic_string@DU?$char_traits@D@std@@V?$allocator@D@2@@std@@PAVMemoryFile@@@std@@PAX@1@ABUpiecewise_construct_t@1@$$QAV?$tuple@ABV?$basic_string@DU?$char_traits@D@std@@V?$allocator@D@2@@std@@@1@$$QAV?$tuple@$$V@1@@Z 00410910 f i main.obj
 0001:0000f910       ??$_Buynode@ABUpiecewise_construct_t@std@@V?$tuple@ABV?$basic_string@DU?$char_traits@D@std@@V?$allocator@D@2@@std@@@2@V?$tuple@$$V@2@@?$_Tree_comp_alloc@V?$_Tmap_traits@V?$basic_string@DU?$char_traits@D@std@@V?$allocator@D@2@@std@@PAVSymbol@@U?$less@V?$basic_string@DU?$char_traits@D@std@@V?$allocator@D@2@@std@@@2@V?$allocator@U?$pair@$$CBV?$basic_string@DU?$char_traits@D@std@@V?$allocator@D@2@@std@@PAVSymbol@@@std@@@2@$0A@@std@@@std@@QAEPAU?$_Tree_node@U?$pair@$$CBV?$basic_string@DU?$char_traits@D@std@@V?$allocator@D@2@@std@@PAVSymbol@@@std@@PAX@1@ABUpiecewise_construct_t@1@$$QAV?$tuple@ABV?$basic_string@DU?$char_traits@D@std@@V?$allocator@D@2@@std@@@1@$$QAV?$tuple@$$V@1@@Z 00410910 f i Hunk.obj
 0001:0000f9a0       ??$_Buynode@U?$pair@V?$basic_string@DU?$char_traits@D@std@@V?$allocator@D@2@@std@@PAVSymbol@@@std@@@?$_Tree_comp_alloc@V?$_Tmap_traits@V?$basic_string@DU?$char_traits@D@std@@V?$allocator@D@2@@std@@PAVSymbol@@U?$less@V?$basic_string@DU?$char_traits@D@std@@V?$allocator@D@2@@std@@@2@V?$allocator@U?$pair@$$CBV?$basic_string@DU?$char_traits@D@std@@V?$allocator@D@2@@std@@PAVSymbol@@@std@@@2@$0A@@std@@@std@@QAEPAU?$_Tree_node@U?$pair@$$CBV?$basic_string@DU?$char_traits@D@std@@V?$allocator@D@2@@std@@PAVSymbol@@@std@@PAX@1@$$QAU?$pair@V?$basic_string@DU?$char_traits@D@std@@V?$allocator@D@2@@std@@PAVSymbol@@@1@@Z 004109a0 f i Hunk.obj
 0001:0000f9a0       ??$_Buynode@U?$pair@V?$basic_string@DU?$char_traits@D@std@@V?$allocator@D@2@@std@@H@std@@@?$_Tree_comp_alloc@V?$_Tmap_traits@V?$basic_string@DU?$char_traits@D@std@@V?$allocator@D@2@@std@@HU?$less@V?$basic_string@DU?$char_traits@D@std@@V?$allocator@D@2@@std@@@2@V?$allocator@U?$pair@$$CBV?$basic_string@DU?$char_traits@D@std@@V?$allocator@D@2@@std@@H@std@@@2@$0A@@std@@@std@@QAEPAU?$_Tree_node@U?$pair@$$CBV?$basic_string@DU?$char_traits@D@std@@V?$allocator@D@2@@std@@H@std@@PAX@1@$$QAU?$pair@V?$basic_string@DU?$char_traits@D@std@@V?$allocator@D@2@@std@@H@1@@Z 004109a0 f i CmdParamFlags.obj
 0001:0000fa20       ??$_Emplace_reallocate@ABURelocation@@@?$vector@URelocation@@V?$allocator@URelocation@@@std@@@std@@QAEPAURelocation@@QAU2@ABU2@@Z 00410a20 f i Hunk.obj
 0001:0000fc30       ??$_Emplace_reallocate@D@?$vector@DV?$allocator@D@std@@@std@@QAEPADQAD$$QAD@Z 00410c30 f i Hunk.obj
 0001:0000fd50       ??$_Guess_median_unchecked@PAPAVSymbol@@P6A_NPAV1@0@Z@std@@YAXPAPAVSymbol@@00P6A_NPAV1@1@Z@Z 00410d50 f i Hunk.obj
 0001:0000fd50       ??$_Guess_median_unchecked@PAPAVHunk@@P6A_NPBV1@0@Z@std@@YAXPAPAVHunk@@00P6A_NPBV1@1@Z@Z 00410d50 f i ImportHandler.obj
 0001:0000fd50       ??$_Guess_median_unchecked@PAPAVHunk@@P6A_NPAV1@0@Z@std@@YAXPAPAVHunk@@00P6A_NPAV1@1@Z@Z 00410d50 f i HeuristicHunkSorter.obj
 0001:0000ff30       ??$_Insert_at@AAU?$pair@$$CBV?$basic_string@DU?$char_traits@D@std@@V?$allocator@D@2@@std@@H@std@@PAU?$_Tree_node@U?$pair@$$CBV?$basic_string@DU?$char_traits@D@std@@V?$allocator@D@2@@std@@H@std@@PAX@2@@?$_Tree@V?$_Tmap_traits@V?$basic_string@DU?$char_traits@D@std@@V?$allocator@D@2@@std@@HU?$less@V?$basic_string@DU?$char_traits@D@std@@V?$allocator@D@2@@std@@@2@V?$allocator@U?$pair@$$CBV?$basic_string@DU?$char_traits@D@std@@V?$allocator@D@2@@std@@H@std@@@2@$0A@@std@@@std@@IAE?AV?$_Tree_iterator@V?$_Tree_val@U?$_Tree_simple_types@U?$pair@$$CBV?$basic_string@DU?$char_traits@D@std@@V?$allocator@D@2@@std@@H@std@@@std@@@std@@@1@_NPAU?$_Tree_node@U?$pair@$$CBV?$basic_string@DU?$char_traits@D@std@@V?$allocator@D@2@@std@@H@std@@PAX@1@AAU?$pair@$$CBV?$basic_string@DU?$char_traits@D@std@@V?$allocator@D@2@@std@@H@1@1@Z 00410f30 f i CmdParamFlags.obj
 0001:0000ff30       ??$_Insert_at@AAU?$pair@$$CBV?$basic_string@DU?$char_traits@D@std@@V?$allocator@D@2@@std@@PAVSymbol@@@std@@PAU?$_Tree_node@U?$pair@$$CBV?$basic_string@DU?$char_traits@D@std@@V?$allocator@D@2@@std@@PAVSymbol@@@std@@PAX@2@@?$_Tree@V?$_Tmap_traits@V?$basic_string@DU?$char_traits@D@std@@V?$allocator@D@2@@std@@PAVSymbol@@U?$less@V?$basic_string@DU?$char_traits@D@std@@V?$allocator@D@2@@std@@@2@V?$allocator@U?$pair@$$CBV?$basic_string@DU?$char_traits@D@std@@V?$allocator@D@2@@std@@PAVSymbol@@@std@@@2@$0A@@std@@@std@@IAE?AV?$_Tree_iterator@V?$_Tree_val@U?$_Tree_simple_types@U?$pair@$$CBV?$basic_string@DU?$char_traits@D@std@@V?$allocator@D@2@@std@@PAVSymbol@@@std@@@std@@@std@@@1@_NPAU?$_Tree_node@U?$pair@$$CBV?$basic_string@DU?$char_traits@D@std@@V?$allocator@D@2@@std@@PAVSymbol@@@std@@PAX@1@AAU?$pair@$$CBV?$basic_string@DU?$char_traits@D@std@@V?$allocator@D@2@@std@@PAVSymbol@@@1@1@Z 00410f30 f i Hunk.obj
 0001:0000ff30       ??$_Insert_at@AAU?$pair@$$CBV?$basic_string@DU?$char_traits@D@std@@V?$allocator@D@2@@std@@PAVMemoryFile@@@std@@PAU?$_Tree_node@U?$pair@$$CBV?$basic_string@DU?$char_traits@D@std@@V?$allocator@D@2@@std@@PAVMemoryFile@@@std@@PAX@2@@?$_Tree@V?$_Tmap_traits@V?$basic_string@DU?$char_traits@D@std@@V?$allocator@D@2@@std@@PAVMemoryFile@@U?$less@V?$basic_string@DU?$char_traits@D@std@@V?$allocator@D@2@@std@@@2@V?$allocator@U?$pair@$$CBV?$basic_string@DU?$char_traits@D@std@@V?$allocator@D@2@@std@@PAVMemoryFile@@@std@@@2@$0A@@std@@@std@@IAE?AV?$_Tree_iterator@V?$_Tree_val@U?$_Tree_simple_types@U?$pair@$$CBV?$basic_string@DU?$char_traits@D@std@@V?$allocator@D@2@@std@@PAVMemoryFile@@@std@@@std@@@std@@@1@_NPAU?$_Tree_node@U?$pair@$$CBV?$basic_string@DU?$char_traits@D@std@@V?$allocator@D@2@@std@@PAVMemoryFile@@@std@@PAX@1@AAU?$pair@$$CBV?$basic_string@DU?$char_traits@D@std@@V?$allocator@D@2@@std@@PAVMemoryFile@@@1@1@Z 00410f30 f i main.obj
 0001:000100d0       ??$_Insert_hint@AAU?$pair@$$CBHPAVSymbol@@@std@@PAU?$_Tree_node@U?$pair@$$CBHPAVSymbol@@@std@@PAX@2@@?$_Tree@V?$_Tmap_traits@HPAVSymbol@@U?$less@H@std@@V?$allocator@U?$pair@$$CBHPAVSymbol@@@std@@@3@$0A@@std@@@std@@IAE?AV?$_Tree_iterator@V?$_Tree_val@U?$_Tree_simple_types@U?$pair@$$CBHPAVSymbol@@@std@@@std@@@std@@@1@V?$_Tree_const_iterator@V?$_Tree_val@U?$_Tree_simple_types@U?$pair@$$CBHPAVSymbol@@@std@@@std@@@std@@@1@AAU?$pair@$$CBHPAVSymbol@@@1@PAU?$_Tree_node@U?$pair@$$CBHPAVSymbol@@@std@@PAX@1@@Z 004110d0 f i Hunk.obj
 0001:00010250       ??$_Insert_hint@AAU?$pair@$$CBV?$basic_string@DU?$char_traits@D@std@@V?$allocator@D@2@@std@@PAVSymbol@@@std@@PAU?$_Tree_node@U?$pair@$$CBV?$basic_string@DU?$char_traits@D@std@@V?$allocator@D@2@@std@@PAVSymbol@@@std@@PAX@2@@?$_Tree@V?$_Tmap_traits@V?$basic_string@DU?$char_traits@D@std@@V?$allocator@D@2@@std@@PAVSymbol@@U?$less@V?$basic_string@DU?$char_traits@D@std@@V?$allocator@D@2@@std@@@2@V?$allocator@U?$pair@$$CBV?$basic_string@DU?$char_traits@D@std@@V?$allocator@D@2@@std@@PAVSymbol@@@std@@@2@$0A@@std@@@std@@IAE?AV?$_Tree_iterator@V?$_Tree_val@U?$_Tree_simple_types@U?$pair@$$CBV?$basic_string@DU?$char_traits@D@std@@V?$allocator@D@2@@std@@PAVSymbol@@@std@@@std@@@std@@@1@V?$_Tree_const_iterator@V?$_Tree_val@U?$_Tree_simple_types@U?$pair@$$CBV?$basic_string@DU?$char_traits@D@std@@V?$allocator@D@2@@std@@PAVSymbol@@@std@@@std@@@std@@@1@AAU?$pair@$$CBV?$basic_string@DU?$char_traits@D@std@@V?$allocator@D@2@@std@@PAVSymbol@@@1@PAU?$_Tree_node@U?$pair@$$CBV?$basic_string@DU?$char_traits@D@std@@V?$allocator@D@2@@std@@PAVSymbol@@@std@@PAX@1@@Z 00411250 f i Hunk.obj
 0001:000103f0       ??$_Insert_nohint@AAU?$pair@$$CBV?$basic_string@DU?$char_traits@D@std@@V?$allocator@D@2@@std@@H@std@@PAU?$_Tree_node@U?$pair@$$CBV?$basic_string@DU?$char_traits@D@std@@V?$allocator@D@2@@std@@H@std@@PAX@2@@?$_Tree@V?$_Tmap_traits@V?$basic_string@DU?$char_traits@D@std@@V?$allocator@D@2@@std@@HU?$less@V?$basic_string@DU?$char_traits@D@std@@V?$allocator@D@2@@std@@@2@V?$allocator@U?$pair@$$CBV?$basic_string@DU?$char_traits@D@std@@V?$allocator@D@2@@std@@H@std@@@2@$0A@@std@@@std@@IAE?AU?$pair@V?$_Tree_iterator@V?$_Tree_val@U?$_Tree_simple_types@U?$pair@$$CBV?$basic_string@DU?$char_traits@D@std@@V?$allocator@D@2@@std@@H@std@@@std@@@std@@@std@@_N@1@_NAAU?$pair@$$CBV?$basic_string@DU?$char_traits@D@std@@V?$allocator@D@2@@std@@H@1@PAU?$_Tree_node@U?$pair@$$CBV?$basic_string@DU?$char_traits@D@std@@V?$allocator@D@2@@std@@H@std@@PAX@1@@Z 004113f0 f i CmdParamFlags.obj
 0001:000103f0       ??$_Insert_nohint@AAU?$pair@$$CBV?$basic_string@DU?$char_traits@D@std@@V?$allocator@D@2@@std@@PAVMemoryFile@@@std@@PAU?$_Tree_node@U?$pair@$$CBV?$basic_string@DU?$char_traits@D@std@@V?$allocator@D@2@@std@@PAVMemoryFile@@@std@@PAX@2@@?$_Tree@V?$_Tmap_traits@V?$basic_string@DU?$char_traits@D@std@@V?$allocator@D@2@@std@@PAVMemoryFile@@U?$less@V?$basic_string@DU?$char_traits@D@std@@V?$allocator@D@2@@std@@@2@V?$allocator@U?$pair@$$CBV?$basic_string@DU?$char_traits@D@std@@V?$allocator@D@2@@std@@PAVMemoryFile@@@std@@@2@$0A@@std@@@std@@IAE?AU?$pair@V?$_Tree_iterator@V?$_Tree_val@U?$_Tree_simple_types@U?$pair@$$CBV?$basic_string@DU?$char_traits@D@std@@V?$allocator@D@2@@std@@PAVMemoryFile@@@std@@@std@@@std@@@std@@_N@1@_NAAU?$pair@$$CBV?$basic_string@DU?$char_traits@D@std@@V?$allocator@D@2@@std@@PAVMemoryFile@@@1@PAU?$_Tree_node@U?$pair@$$CBV?$basic_string@DU?$char_traits@D@std@@V?$allocator@D@2@@std@@PAVMemoryFile@@@std@@PAX@1@@Z 004113f0 f i main.obj
 0001:000103f0       ??$_Insert_nohint@AAU?$pair@$$CBV?$basic_string@DU?$char_traits@D@std@@V?$allocator@D@2@@std@@PAVSymbol@@@std@@PAU?$_Tree_node@U?$pair@$$CBV?$basic_string@DU?$char_traits@D@std@@V?$allocator@D@2@@std@@PAVSymbol@@@std@@PAX@2@@?$_Tree@V?$_Tmap_traits@V?$basic_string@DU?$char_traits@D@std@@V?$allocator@D@2@@std@@PAVSymbol@@U?$less@V?$basic_string@DU?$char_traits@D@std@@V?$allocator@D@2@@std@@@2@V?$allocator@U?$pair@$$CBV?$basic_string@DU?$char_traits@D@std@@V?$allocator@D@2@@std@@PAVSymbol@@@std@@@2@$0A@@std@@@std@@IAE?AU?$pair@V?$_Tree_iterator@V?$_Tree_val@U?$_Tree_simple_types@U?$pair@$$CBV?$basic_string@DU?$char_traits@D@std@@V?$allocator@D@2@@std@@PAVSymbol@@@std@@@std@@@std@@@std@@_N@1@_NAAU?$pair@$$CBV?$basic_string@DU?$char_traits@D@std@@V?$allocator@D@2@@std@@PAVSymbol@@@1@PAU?$_Tree_node@U?$pair@$$CBV?$basic_string@DU?$char_traits@D@std@@V?$allocator@D@2@@std@@PAVSymbol@@@std@@PAX@1@@Z 004113f0 f i Hunk.obj
 0001:00010510       ??$_Lbound@V?$basic_string@DU?$char_traits@D@std@@V?$allocator@D@2@@std@@@?$_Tree@V?$_Tmap_traits@V?$basic_string@DU?$char_traits@D@std@@V?$allocator@D@2@@std@@PAVSymbol@@U?$less@V?$basic_string@DU?$char_traits@D@std@@V?$allocator@D@2@@std@@@2@V?$allocator@U?$pair@$$CBV?$basic_string@DU?$char_traits@D@std@@V?$allocator@D@2@@std@@PAVSymbol@@@std@@@2@$0A@@std@@@std@@IBEPAU?$_Tree_node@U?$pair@$$CBV?$basic_string@DU?$char_traits@D@std@@V?$allocator@D@2@@std@@PAVSymbol@@@std@@PAX@1@ABV?$basic_string@DU?$char_traits@D@std@@V?$allocator@D@2@@1@@Z 00411510 f i Hunk.obj
 0001:00010570       ??$_Partition_by_median_guess_unchecked@PAPAVHunk@@P6A_NPBV1@0@Z@std@@YA?AU?$pair@PAPAVHunk@@PAPAV1@@0@PAPAVHunk@@0P6A_NPBV2@1@Z@Z 00411570 f i ImportHandler.obj
 0001:00010570       ??$_Partition_by_median_guess_unchecked@PAPAVSymbol@@P6A_NPAV1@0@Z@std@@YA?AU?$pair@PAPAVSymbol@@PAPAV1@@0@PAPAVSymbol@@0P6A_NPAV2@1@Z@Z 00411570 f i Hunk.obj
 0001:00010570       ??$_Partition_by_median_guess_unchecked@PAPAVHunk@@P6A_NPAV1@0@Z@std@@YA?AU?$pair@PAPAVHunk@@PAPAV1@@0@PAPAVHunk@@0P6A_NPAV2@1@Z@Z 00411570 f i HeuristicHunkSorter.obj
 0001:00010760       ??$_Pop_heap_hole_by_index@PAPAVHunk@@PAV1@P6A_NPBV1@0@Z@std@@YAXPAPAVHunk@@HH$$QAPAV1@P6A_NPBV1@2@Z@Z 00411760 f i ImportHandler.obj
 0001:00010760       ??$_Pop_heap_hole_by_index@PAPAVHunk@@PAV1@P6A_NPAV1@0@Z@std@@YAXPAPAVHunk@@HH$$QAPAV1@P6A_NPAV1@2@Z@Z 00411760 f i HeuristicHunkSorter.obj
 0001:00010760       ??$_Pop_heap_hole_by_index@PAPAVSymbol@@PAV1@P6A_NPAV1@0@Z@std@@YAXPAPAVSymbol@@HH$$QAPAV1@P6A_NPAV1@2@Z@Z 00411760 f i Hunk.obj
 0001:00010830       ??$_Resize@V<lambda_c82d6fc6887df3275822341e5972f698>@@@?$vector@DV?$allocator@D@std@@@std@@AAEXIV<lambda_c82d6fc6887df3275822341e5972f698>@@@Z 00411830 f i Hunk.obj
 0001:00010970       ??$_Sort_unchecked@PAPAVHunk@@P6A_NPBV1@0@Z@std@@YAXPAPAVHunk@@0HP6A_NPBV1@1@Z@Z 00411970 f i ImportHandler.obj
 0001:00010970       ??$_Sort_unchecked@PAPAVHunk@@P6A_NPAV1@0@Z@std@@YAXPAPAVHunk@@0HP6A_NPAV1@1@Z@Z 00411970 f i HeuristicHunkSorter.obj
 0001:00010970       ??$_Sort_unchecked@PAPAVSymbol@@P6A_NPAV1@0@Z@std@@YAXPAPAVSymbol@@0HP6A_NPAV1@1@Z@Z 00411970 f i Hunk.obj
 0001:00010be0       ??$_Ucopy@PAURelocation@@@?$vector@URelocation@@V?$allocator@URelocation@@@std@@@std@@AAEPAURelocation@@PAU2@00@Z 00411be0 f i Hunk.obj
 0001:00010c40       ??$_Uninitialized_move@PAURelocation@@PAU1@V?$allocator@URelocation@@@std@@@std@@YAPAURelocation@@QAU1@0PAU1@AAV?$allocator@URelocation@@@0@@Z 00411c40 f i Hunk.obj
 0001:00010cf0       ??$construct@U?$pair@$$CBV?$basic_string@DU?$char_traits@D@std@@V?$allocator@D@2@@std@@PAVSymbol@@@std@@ABUpiecewise_construct_t@2@V?$tuple@$$QAV?$basic_string@DU?$char_traits@D@std@@V?$allocator@D@2@@std@@@2@V?$tuple@$$V@2@@?$_Default_allocator_traits@V?$allocator@U?$_Tree_node@U?$pair@$$CBV?$basic_string@DU?$char_traits@D@std@@V?$allocator@D@2@@std@@PAVSymbol@@@std@@PAX@std@@@std@@@std@@SAXAAV?$allocator@U?$_Tree_node@U?$pair@$$CBV?$basic_string@DU?$char_traits@D@std@@V?$allocator@D@2@@std@@PAVSymbol@@@std@@PAX@std@@@1@QAU?$pair@$$CBV?$basic_string@DU?$char_traits@D@std@@V?$allocator@D@2@@std@@PAVSymbol@@@1@ABUpiecewise_construct_t@1@$$QAV?$tuple@$$QAV?$basic_string@DU?$char_traits@D@std@@V?$allocator@D@2@@std@@@1@$$QAV?$tuple@$$V@1@@Z 00411cf0 f i Hunk.obj
 0001:00010d40       ??$construct@U?$pair@$$CBV?$basic_string@DU?$char_traits@D@std@@V?$allocator@D@2@@std@@H@std@@U?$pair@V?$basic_string@DU?$char_traits@D@std@@V?$allocator@D@2@@std@@H@2@@?$_Default_allocator_traits@V?$allocator@U?$_Tree_node@U?$pair@$$CBV?$basic_string@DU?$char_traits@D@std@@V?$allocator@D@2@@std@@H@std@@PAX@std@@@std@@@std@@SAXAAV?$allocator@U?$_Tree_node@U?$pair@$$CBV?$basic_string@DU?$char_traits@D@std@@V?$allocator@D@2@@std@@H@std@@PAX@std@@@1@QAU?$pair@$$CBV?$basic_string@DU?$char_traits@D@std@@V?$allocator@D@2@@std@@H@1@$$QAU?$pair@V?$basic_string@DU?$char_traits@D@std@@V?$allocator@D@2@@std@@H@1@@Z 00411d40 f i CmdParamFlags.obj
 0001:00010d40       ??$construct@U?$pair@$$CBV?$basic_string@DU?$char_traits@D@std@@V?$allocator@D@2@@std@@PAVSymbol@@@std@@U?$pair@V?$basic_string@DU?$char_traits@D@std@@V?$allocator@D@2@@std@@PAVSymbol@@@2@@?$_Default_allocator_traits@V?$allocator@U?$_Tree_node@U?$pair@$$CBV?$basic_string@DU?$char_traits@D@std@@V?$allocator@D@2@@std@@PAVSymbol@@@std@@PAX@std@@@std@@@std@@SAXAAV?$allocator@U?$_Tree_node@U?$pair@$$CBV?$basic_string@DU?$char_traits@D@std@@V?$allocator@D@2@@std@@PAVSymbol@@@std@@PAX@std@@@1@QAU?$pair@$$CBV?$basic_string@DU?$char_traits@D@std@@V?$allocator@D@2@@std@@PAVSymbol@@@1@$$QAU?$pair@V?$basic_string@DU?$char_traits@D@std@@V?$allocator@D@2@@std@@PAVSymbol@@@1@@Z 00411d40 f i Hunk.obj
 0001:00010d80       ??$construct@URelocation@@ABU1@@?$_Default_allocator_traits@V?$allocator@URelocation@@@std@@@std@@SAXAAV?$allocator@URelocation@@@1@QAURelocation@@ABU3@@Z 00411d80 f i Hunk.obj
 0001:00010db0       ??0?$vector@DV?$allocator@D@std@@@std@@QAE@ABV01@@Z 00411db0 f i Hunk.obj
 0001:00010e70       ??0?$vector@URelocation@@V?$allocator@URelocation@@@std@@@std@@QAE@ABV01@@Z 00411e70 f i Hunk.obj
 0001:00010f40       ??0Hunk@@QAE@ABV0@@Z       00411f40 f   Hunk.obj
 0001:00011140       ??0Hunk@@QAE@PBD00@Z       00412140 f   Hunk.obj
 0001:000112a0       ??0Hunk@@QAE@PBD0IHHH@Z    004122a0 f   Hunk.obj
 0001:000113b0       ??1Hunk@@QAE@XZ            004123b0 f   Hunk.obj
 0001:00011680       ??_GSymbol@@QAEPAXI@Z      00412680 f i Hunk.obj
 0001:00011770       ?AddRelocation@Hunk@@QAEXURelocation@@@Z 00412770 f   Hunk.obj
 0001:000117d0       ?AddSymbol@Hunk@@QAEXPAVSymbol@@@Z 004127d0 f   Hunk.obj
 0001:00011a10       ?AppendZeroes@Hunk@@QAEXH@Z 00412a10 f   Hunk.obj
 0001:00011a50       ?CalculateSize@CompressionReportRecord@@QAEXHH@Z 00412a50 f i Hunk.obj
 0001:00011ae0       ?FindSymbol@Hunk@@QBEPAVSymbol@@PBD@Z 00412ae0 f   Hunk.obj
 0001:00011bd0       ?FindUndecoratedSymbol@Hunk@@QBEPAVSymbol@@PBD@Z 00412bd0 f   Hunk.obj
 0001:00011cd0       ?GetCompressionSummary@Hunk@@QAEPAUCompressionReportRecord@@PAHH@Z 00412cd0 f   Hunk.obj
 0001:000125e0       ?GetID@Hunk@@QAEABV?$basic_string@DU?$char_traits@D@std@@V?$allocator@D@2@@std@@XZ 004135e0 f   Hunk.obj
 0001:00012a40       ?GetLevel@CompressionReportRecord@@QAEHXZ 00413a40 f i Hunk.obj
 0001:00012a70       ?GetName@Hunk@@QBEPBDXZ    00413a70 f i Hunk.obj
 0001:00012a80       ?GetOffsetToRelocationMap@Hunk@@QAE?AV?$map@HPAVSymbol@@U?$less@H@std@@V?$allocator@U?$pair@$$CBHPAVSymbol@@@std@@@3@@std@@XZ 00413a80 f   Hunk.obj
 0001:00012b60       ?GetOffsetToSymbolMap@Hunk@@QAE?AV?$map@HPAVSymbol@@U?$less@H@std@@V?$allocator@U?$pair@$$CBHPAVSymbol@@@std@@@3@@std@@XZ 00413b60 f   Hunk.obj
 0001:00012da0       ?Insert@Hunk@@QAEXHPBEH@Z  00413da0 f   Hunk.obj
 0001:00012e50       ?MarkHunkAsLibrary@Hunk@@QAEXXZ 00413e50 f   Hunk.obj
 0001:00012e80       ?OverrideAlignment@Hunk@@QAEXH@Z 00413e80 f   Hunk.obj
 0001:000130d0       ?Relocate@Hunk@@QAEXH@Z    004140d0 f   Hunk.obj
 0001:000134c0       ?RoundFloats@Hunk@@QAEXH@Z 004144c0 f   Hunk.obj
 0001:00013990       ?SetAlignmentBits@Hunk@@QAEXH@Z 00414990 f   Hunk.obj
 0001:000139a0       ?SetRawSize@Hunk@@QAEXH@Z  004149a0 f   Hunk.obj
 0001:00013a10       ?Trim@Hunk@@QAEXXZ         00414a10 f   Hunk.obj
 0001:00013a60       ?_Buynode0@?$_Tree_comp_alloc@V?$_Tmap_traits@V?$basic_string@DU?$char_traits@D@std@@V?$allocator@D@2@@std@@PAVSymbol@@U?$less@V?$basic_string@DU?$char_traits@D@std@@V?$allocator@D@2@@std@@@2@V?$allocator@U?$pair@$$CBV?$basic_string@DU?$char_traits@D@std@@V?$allocator@D@2@@std@@PAVSymbol@@@std@@@2@$0A@@std@@@std@@QAEPAU?$_Tree_node@U?$pair@$$CBV?$basic_string@DU?$char_traits@D@std@@V?$allocator@D@2@@std@@PAVSymbol@@@std@@PAX@2@XZ 00414a60 f i Hunk.obj
 0001:00013a60       ?_Buynode0@?$_Tree_comp_alloc@V?$_Tmap_traits@V?$basic_string@DU?$char_traits@D@std@@V?$allocator@D@2@@std@@PAVMemoryFile@@U?$less@V?$basic_string@DU?$char_traits@D@std@@V?$allocator@D@2@@std@@@2@V?$allocator@U?$pair@$$CBV?$basic_string@DU?$char_traits@D@std@@V?$allocator@D@2@@std@@PAVMemoryFile@@@std@@@2@$0A@@std@@@std@@QAEPAU?$_Tree_node@U?$pair@$$CBV?$basic_string@DU?$char_traits@D@std@@V?$allocator@D@2@@std@@PAVMemoryFile@@@std@@PAX@2@XZ 00414a60 f i main.obj
 0001:00013a60       ?_Buynode0@?$_Tree_comp_alloc@V?$_Tmap_traits@V?$basic_string@DU?$char_traits@D@std@@V?$allocator@D@2@@std@@HU?$less@V?$basic_string@DU?$char_traits@D@std@@V?$allocator@D@2@@std@@@2@V?$allocator@U?$pair@$$CBV?$basic_string@DU?$char_traits@D@std@@V?$allocator@D@2@@std@@H@std@@@2@$0A@@std@@@std@@QAEPAU?$_Tree_node@U?$pair@$$CBV?$basic_string@DU?$char_traits@D@std@@V?$allocator@D@2@@std@@H@std@@PAX@2@XZ 00414a60 f i CmdParamFlags.obj
 0001:00013ae0       ?_Change_array@?$vector@DV?$allocator@D@std@@@std@@AAEXQADII@Z 00414ae0 f i Hunk.obj
 0001:00013b40       ?_Destroy@?$vector@URelocation@@V?$allocator@URelocation@@@std@@@std@@AAEXPAURelocation@@0@Z 00414b40 f i Hunk.obj
 0001:00013b70       ?_Destroy_if_node@?$_Tree@V?$_Tmap_traits@V?$basic_string@DU?$char_traits@D@std@@V?$allocator@D@2@@std@@PAVMemoryFile@@U?$less@V?$basic_string@DU?$char_traits@D@std@@V?$allocator@D@2@@std@@@2@V?$allocator@U?$pair@$$CBV?$basic_string@DU?$char_traits@D@std@@V?$allocator@D@2@@std@@PAVMemoryFile@@@std@@@2@$0A@@std@@@std@@IAEXPAU?$_Tree_node@U?$pair@$$CBV?$basic_string@DU?$char_traits@D@std@@V?$allocator@D@2@@std@@PAVMemoryFile@@@std@@PAX@2@@Z 00414b70 f i main.obj
 0001:00013b70       ?_Destroy_if_node@?$_Tree@V?$_Tmap_traits@V?$basic_string@DU?$char_traits@D@std@@V?$allocator@D@2@@std@@PAVSymbol@@U?$less@V?$basic_string@DU?$char_traits@D@std@@V?$allocator@D@2@@std@@@2@V?$allocator@U?$pair@$$CBV?$basic_string@DU?$char_traits@D@std@@V?$allocator@D@2@@std@@PAVSymbol@@@std@@@2@$0A@@std@@@std@@IAEXPAU?$_Tree_node@U?$pair@$$CBV?$basic_string@DU?$char_traits@D@std@@V?$allocator@D@2@@std@@PAVSymbol@@@std@@PAX@2@@Z 00414b70 f i Hunk.obj
 0001:00013b70       ?_Destroy_if_node@?$_Tree@V?$_Tmap_traits@V?$basic_string@DU?$char_traits@D@std@@V?$allocator@D@2@@std@@HU?$less@V?$basic_string@DU?$char_traits@D@std@@V?$allocator@D@2@@std@@@2@V?$allocator@U?$pair@$$CBV?$basic_string@DU?$char_traits@D@std@@V?$allocator@D@2@@std@@H@std@@@2@$0A@@std@@@std@@IAEXPAU?$_Tree_node@U?$pair@$$CBV?$basic_string@DU?$char_traits@D@std@@V?$allocator@D@2@@std@@H@std@@PAX@2@@Z 00414b70 f i CmdParamFlags.obj
 0001:00013bd0       ?_Freenode0@?$_Tree_comp_alloc@V?$_Tmap_traits@V?$basic_string@DU?$char_traits@D@std@@V?$allocator@D@2@@std@@PAVMemoryFile@@U?$less@V?$basic_string@DU?$char_traits@D@std@@V?$allocator@D@2@@std@@@2@V?$allocator@U?$pair@$$CBV?$basic_string@DU?$char_traits@D@std@@V?$allocator@D@2@@std@@PAVMemoryFile@@@std@@@2@$0A@@std@@@std@@QAEXPAU?$_Tree_node@U?$pair@$$CBV?$basic_string@DU?$char_traits@D@std@@V?$allocator@D@2@@std@@PAVMemoryFile@@@std@@PAX@2@@Z 00414bd0 f i main.obj
 0001:00013bd0       ?_Freenode0@?$_Tree_comp_alloc@V?$_Tmap_traits@V?$basic_string@DU?$char_traits@D@std@@V?$allocator@D@2@@std@@PAVSymbol@@U?$less@V?$basic_string@DU?$char_traits@D@std@@V?$allocator@D@2@@std@@@2@V?$allocator@U?$pair@$$CBV?$basic_string@DU?$char_traits@D@std@@V?$allocator@D@2@@std@@PAVSymbol@@@std@@@2@$0A@@std@@@std@@QAEXPAU?$_Tree_node@U?$pair@$$CBV?$basic_string@DU?$char_traits@D@std@@V?$allocator@D@2@@std@@PAVSymbol@@@std@@PAX@2@@Z 00414bd0 f i Hunk.obj
 0001:00013bd0       ?_Freenode0@?$_Tree_comp_alloc@V?$_Tmap_traits@V?$basic_string@DU?$char_traits@D@std@@V?$allocator@D@2@@std@@HU?$less@V?$basic_string@DU?$char_traits@D@std@@V?$allocator@D@2@@std@@@2@V?$allocator@U?$pair@$$CBV?$basic_string@DU?$char_traits@D@std@@V?$allocator@D@2@@std@@H@std@@@2@$0A@@std@@@std@@QAEXPAU?$_Tree_node@U?$pair@$$CBV?$basic_string@DU?$char_traits@D@std@@V?$allocator@D@2@@std@@H@std@@PAX@2@@Z 00414bd0 f i CmdParamFlags.obj
 0001:00013bf0       ?_Tidy@?$vector@URelocation@@V?$allocator@URelocation@@@std@@@std@@AAEXXZ 00414bf0 f i Hunk.obj
 0001:00013c80       ?_Umove@?$vector@URelocation@@V?$allocator@URelocation@@@std@@@std@@AAEPAURelocation@@PAU3@00@Z 00414c80 f i Hunk.obj
 0001:00013ca0       ?allocate@?$allocator@URelocation@@@std@@QAEPAURelocation@@I@Z 00414ca0 f i Hunk.obj
 0001:00013d10       ?deallocate@?$allocator@D@std@@QAEXQADI@Z 00414d10 f i Hunk.obj
 0001:00013d50       ?deallocate@?$allocator@URelocation@@@std@@QAEXQAURelocation@@I@Z 00414d50 f i Hunk.obj
 0001:00013da0       ?substr@?$basic_string@DU?$char_traits@D@std@@V?$allocator@D@2@@std@@QBE?AV12@II@Z 00414da0 f i Hunk.obj
 0001:00013df0       ??0HunkList@@QAE@XZ        00414df0 f   HunkList.obj
 0001:00013e10       ??1?$deque@PAVHunk@@V?$allocator@PAVHunk@@@std@@@std@@QAE@XZ 00414e10 f i HunkList.obj
 0001:00013ec0       ??1HunkList@@QAE@XZ        00414ec0 f   HunkList.obj
 0001:00013f60       ??AHunkList@@QAEAAPAVHunk@@I@Z 00414f60 f   HunkList.obj
 0001:00013f60       ??AHunkList@@QBEABQAVHunk@@I@Z 00414f60 f   HunkList.obj
 0001:00013f70       ?AddHunkBack@HunkList@@QAEXPAVHunk@@@Z 00414f70 f   HunkList.obj
 0001:00013fa0       ?AddHunkFront@HunkList@@QAEXPAVHunk@@@Z 00414fa0 f   HunkList.obj
 0001:00014000       ?Append@HunkList@@QAEXPAV1@@Z 00415000 f   HunkList.obj
 0001:00014090       ?Clear@HunkList@@QAEXXZ    00415090 f   HunkList.obj
 0001:000140a0       ?FindSymbol@HunkList@@QBEPAVSymbol@@PBD@Z 004150a0 f   HunkList.obj
 0001:000140e0       ?FindUndecoratedSymbol@HunkList@@QBEPAVSymbol@@PBD@Z 004150e0 f   HunkList.obj
 0001:00014180       ?InsertHunk@HunkList@@QAEXHPAVHunk@@@Z 00415180 f   HunkList.obj
 0001:000141e0       ?MarkHunksAsLibrary@HunkList@@QAEXXZ 004151e0 f   HunkList.obj
 0001:00014220       ?NeedsContinuationJump@HunkList@@QBE_NAAV?$_Vector_const_iterator@V?$_Vector_val@U?$_Simple_types@PAVHunk@@@std@@@std@@@std@@@Z 00415220 f   HunkList.obj
 0001:00014260       ?RemoveHunk@HunkList@@QAEPAVHunk@@PAV2@@Z 00415260 f   HunkList.obj
 0001:000142a0       ?RemoveImportHunks@HunkList@@QAEXXZ 004152a0 f   HunkList.obj
 0001:00014300       ?RemoveUnreferencedHunks@HunkList@@QAEXV?$vector@PAVHunk@@V?$allocator@PAVHunk@@@std@@@std@@@Z 00415300 f   HunkList.obj
 0001:00014660       ?RoundFloats@HunkList@@QAEXH@Z 00415660 f   HunkList.obj
 0001:000146a0       ?ToHunk@HunkList@@QBEPAVHunk@@PBDHPAH@Z 004156a0 f   HunkList.obj
 0001:00014ba0       ?Trim@HunkList@@QAEXXZ     00415ba0 f   HunkList.obj
 0001:00014be0       ?_Growmap@?$deque@PAVHunk@@V?$allocator@PAVHunk@@@std@@@std@@IAEXI@Z 00415be0 f i HunkList.obj
 0001:00014d80       ?_Xlen@?$deque@PAVHunk@@V?$allocator@PAVHunk@@@std@@@std@@IBEXXZ 00415d80 f i HunkList.obj
 0001:00014d90       ??$_Assign_range@PAV?$basic_string@DU?$char_traits@D@std@@V?$allocator@D@2@@std@@@?$vector@V?$basic_string@DU?$char_traits@D@std@@V?$allocator@D@2@@std@@V?$allocator@V?$basic_string@DU?$char_traits@D@std@@V?$allocator@D@2@@std@@@2@@std@@AAEXPAV?$basic_string@DU?$char_traits@D@std@@V?$allocator@D@2@@1@0Uforward_iterator_tag@1@@Z 00415d90 f i ImportHandler.obj
 0001:00014ef0       ??$_Buynode@V?$basic_string@DU?$char_traits@D@std@@V?$allocator@D@2@@std@@@?$_Tree_comp_alloc@V?$_Tset_traits@V?$basic_string@DU?$char_traits@D@std@@V?$allocator@D@2@@std@@U?$less@V?$basic_string@DU?$char_traits@D@std@@V?$allocator@D@2@@std@@@2@V?$allocator@V?$basic_string@DU?$char_traits@D@std@@V?$allocator@D@2@@std@@@2@$0A@@std@@@std@@QAEPAU?$_Tree_node@V?$basic_string@DU?$char_traits@D@std@@V?$allocator@D@2@@std@@PAX@1@$$QAV?$basic_string@DU?$char_traits@D@std@@V?$allocator@D@2@@1@@Z 00415ef0 f i ImportHandler.obj
 0001:00014f70       ??$_Copy_unchecked@PAV?$basic_string@DU?$char_traits@D@std@@V?$allocator@D@2@@std@@PAV12@@std@@YAPAV?$basic_string@DU?$char_traits@D@std@@V?$allocator@D@2@@0@PAV10@00@Z 00415f70 f i ImportHandler.obj
 0001:00015020       ??$_Emplace_reallocate@V?$basic_string@DU?$char_traits@D@std@@V?$allocator@D@2@@std@@@?$vector@V?$basic_string@DU?$char_traits@D@std@@V?$allocator@D@2@@std@@V?$allocator@V?$basic_string@DU?$char_traits@D@std@@V?$allocator@D@2@@std@@@2@@std@@QAEPAV?$basic_string@DU?$char_traits@D@std@@V?$allocator@D@2@@1@QAV21@$$QAV21@@Z 00416020 f i ImportHandler.obj
 0001:000151f0       ??$_Insert_at@V?$basic_string@DU?$char_traits@D@std@@V?$allocator@D@2@@std@@U_Not_a_node_tag@2@@?$_Tree@V?$_Tset_traits@V?$basic_string@DU?$char_traits@D@std@@V?$allocator@D@2@@std@@U?$less@V?$basic_string@DU?$char_traits@D@std@@V?$allocator@D@2@@std@@@2@V?$allocator@V?$basic_string@DU?$char_traits@D@std@@V?$allocator@D@2@@std@@@2@$0A@@std@@@std@@IAE?AV?$_Tree_const_iterator@V?$_Tree_val@U?$_Tree_simple_types@V?$basic_string@DU?$char_traits@D@std@@V?$allocator@D@2@@std@@@std@@@std@@@1@_NPAU?$_Tree_node@V?$basic_string@DU?$char_traits@D@std@@V?$allocator@D@2@@std@@PAX@1@$$QAV?$basic_string@DU?$char_traits@D@std@@V?$allocator@D@2@@1@U_Not_a_node_tag@1@@Z 004161f0 f i ImportHandler.obj
 0001:00015390       ??$_Insert_nohint@V?$basic_string@DU?$char_traits@D@std@@V?$allocator@D@2@@std@@U_Not_a_node_tag@2@@?$_Tree@V?$_Tset_traits@V?$basic_string@DU?$char_traits@D@std@@V?$allocator@D@2@@std@@U?$less@V?$basic_string@DU?$char_traits@D@std@@V?$allocator@D@2@@std@@@2@V?$allocator@V?$basic_string@DU?$char_traits@D@std@@V?$allocator@D@2@@std@@@2@$0A@@std@@@std@@IAE?AU?$pair@V?$_Tree_const_iterator@V?$_Tree_val@U?$_Tree_simple_types@V?$basic_string@DU?$char_traits@D@std@@V?$allocator@D@2@@std@@@std@@@std@@@std@@_N@1@_N$$QAV?$basic_string@DU?$char_traits@D@std@@V?$allocator@D@2@@1@U_Not_a_node_tag@1@@Z 00416390 f i ImportHandler.obj
 0001:00015490       ??$_Insertion_sort_unchecked@PAV?$basic_string@DU?$char_traits@D@std@@V?$allocator@D@2@@std@@U?$less@X@2@@std@@YAPAV?$basic_string@DU?$char_traits@D@std@@V?$allocator@D@2@@0@PAV10@QAV10@U?$less@X@0@@Z 00416490 f i ImportHandler.obj
 0001:00015750       ??$_InvokeBridge@V?$task_handle@V?$_Parallel_chunk_helper@HKV<lambda_57a867c021e719309a5fa634d37f8787>@@Vauto_partitioner@Concurrency@@$0A@@Concurrency@@@Concurrency@@@_UnrealizedChore@details@Concurrency@@KAXPAX@Z 00416750 f i ImportHandler.obj
 0001:00015760       ??$_Med3_unchecked@PAV?$basic_string@DU?$char_traits@D@std@@V?$allocator@D@2@@std@@U?$less@X@2@@std@@YAXPAV?$basic_string@DU?$char_traits@D@std@@V?$allocator@D@2@@0@00U?$less@X@0@@Z 00416760 f i ImportHandler.obj
 0001:00015870       ??$_Move_backward_unchecked@PAV?$basic_string@DU?$char_traits@D@std@@V?$allocator@D@2@@std@@PAV12@@std@@YAPAV?$basic_string@DU?$char_traits@D@std@@V?$allocator@D@2@@0@PAV10@00@Z 00416870 f i ImportHandler.obj
 0001:00015910       ??$_Move_unchecked@PAV?$basic_string@DU?$char_traits@D@std@@V?$allocator@D@2@@std@@PAV12@@std@@YAPAV?$basic_string@DU?$char_traits@D@std@@V?$allocator@D@2@@0@PAV10@00@Z 00416910 f i ImportHandler.obj
 0001:00015c30       ??$_Partition_by_median_guess_unchecked@PAV?$basic_string@DU?$char_traits@D@std@@V?$allocator@D@2@@std@@U?$less@X@2@@std@@YA?AU?$pair@PAV?$basic_string@DU?$char_traits@D@std@@V?$allocator@D@2@@std@@PAV12@@0@PAV?$basic_string@DU?$char_traits@D@std@@V?$allocator@D@2@@0@0U?$less@X@0@@Z 00416c30 f i ImportHandler.obj
 0001:00016020       ??$_Pop_heap_hole_by_index@PAV?$basic_string@DU?$char_traits@D@std@@V?$allocator@D@2@@std@@V12@U?$less@X@2@@std@@YAXPAV?$basic_string@DU?$char_traits@D@std@@V?$allocator@D@2@@0@HH$$QAV10@U?$less@X@0@@Z 00417020 f i ImportHandler.obj
 0001:00016190       ??$_Push_heap_by_index@PAV?$basic_string@DU?$char_traits@D@std@@V?$allocator@D@2@@std@@V12@U?$less@X@2@@std@@YAXPAV?$basic_string@DU?$char_traits@D@std@@V?$allocator@D@2@@0@HH$$QAV10@U?$less@X@0@@Z 00417190 f i ImportHandler.obj
 0001:000162f0       ??$_Range_construct_or_tidy@V?$_Tree_unchecked_const_iterator@V?$_Tree_val@U?$_Tree_simple_types@V?$basic_string@DU?$char_traits@D@std@@V?$allocator@D@2@@std@@@std@@@std@@U_Iterator_base0@2@@std@@@?$vector@V?$basic_string@DU?$char_traits@D@std@@V?$allocator@D@2@@std@@V?$allocator@V?$basic_string@DU?$char_traits@D@std@@V?$allocator@D@2@@std@@@2@@std@@AAEXV?$_Tree_unchecked_const_iterator@V?$_Tree_val@U?$_Tree_simple_types@V?$basic_string@DU?$char_traits@D@std@@V?$allocator@D@2@@std@@@std@@@std@@U_Iterator_base0@2@@1@0Uforward_iterator_tag@1@@Z 004172f0 f i ImportHandler.obj
 0001:000163f0       ??$_Sort_unchecked@PAV?$basic_string@DU?$char_traits@D@std@@V?$allocator@D@2@@std@@U?$less@X@2@@std@@YAXPAV?$basic_string@DU?$char_traits@D@std@@V?$allocator@D@2@@0@0HU?$less@X@0@@Z 004173f0 f i ImportHandler.obj
 0001:000166c0       ??$_Traits_equal@U?$char_traits@D@std@@@std@@YA_NQBDI0I@Z 004176c0 f i ImportHandler.obj
 0001:00016730       ??$_Ucopy@V?$_Tree_unchecked_const_iterator@V?$_Tree_val@U?$_Tree_simple_types@V?$basic_string@DU?$char_traits@D@std@@V?$allocator@D@2@@std@@@std@@@std@@U_Iterator_base0@2@@std@@@?$vector@V?$basic_string@DU?$char_traits@D@std@@V?$allocator@D@2@@std@@V?$allocator@V?$basic_string@DU?$char_traits@D@std@@V?$allocator@D@2@@std@@@2@@std@@AAEPAV?$basic_string@DU?$char_traits@D@std@@V?$allocator@D@2@@1@V?$_Tree_unchecked_const_iterator@V?$_Tree_val@U?$_Tree_simple_types@V?$basic_string@DU?$char_traits@D@std@@V?$allocator@D@2@@std@@@std@@@std@@U_Iterator_base0@2@@1@0PAV21@@Z 00417730 f i ImportHandler.obj
 0001:000167b0       ??$_Uninitialized_move@PAV?$basic_string@DU?$char_traits@D@std@@V?$allocator@D@2@@std@@PAV12@V?$allocator@V?$basic_string@DU?$char_traits@D@std@@V?$allocator@D@2@@std@@@2@@std@@YAPAV?$basic_string@DU?$char_traits@D@std@@V?$allocator@D@2@@0@QAV10@0PAV10@AAV?$allocator@V?$basic_string@DU?$char_traits@D@std@@V?$allocator@D@2@@std@@@0@@Z 004177b0 f i ImportHandler.obj
 0001:00016820       ??$construct@V?$basic_string@DU?$char_traits@D@std@@V?$allocator@D@2@@std@@V12@@?$_Default_allocator_traits@V?$allocator@V?$basic_string@DU?$char_traits@D@std@@V?$allocator@D@2@@std@@@std@@@std@@SAXAAV?$allocator@V?$basic_string@DU?$char_traits@D@std@@V?$allocator@D@2@@std@@@1@QAV?$basic_string@DU?$char_traits@D@std@@V?$allocator@D@2@@1@$$QAV31@@Z 00417820 f i ImportHandler.obj
 0001:00016820       ??$construct@V?$basic_string@DU?$char_traits@D@std@@V?$allocator@D@2@@std@@V12@@?$_Default_allocator_traits@V?$allocator@U?$_Tree_node@V?$basic_string@DU?$char_traits@D@std@@V?$allocator@D@2@@std@@PAX@std@@@std@@@std@@SAXAAV?$allocator@U?$_Tree_node@V?$basic_string@DU?$char_traits@D@std@@V?$allocator@D@2@@std@@PAX@std@@@1@QAV?$basic_string@DU?$char_traits@D@std@@V?$allocator@D@2@@1@$$QAV31@@Z 00417820 f i ImportHandler.obj
 0001:000168c0       ??0?$vector@IV?$allocator@I@std@@@std@@QAE@IABIABV?$allocator@I@1@@Z 004178c0 f i ImportHandler.obj
 0001:00016970       ??0?$vector@IV?$allocator@I@std@@@std@@QAE@IABV?$allocator@I@1@@Z 00417970 f i ImportHandler.obj
 0001:00016b10       ??0?$vector@V?$basic_string@DU?$char_traits@D@std@@V?$allocator@D@2@@std@@V?$allocator@V?$basic_string@DU?$char_traits@D@std@@V?$allocator@D@2@@std@@@2@@std@@QAE@IABV?$allocator@V?$basic_string@DU?$char_traits@D@std@@V?$allocator@D@2@@std@@@1@@Z 00417b10 f i ImportHandler.obj
 0001:00017550       ?CreateImportHunks1K@ImportHandler@@SAPAVHunkList@@PAV2@_NAAH2@Z 00418550 f   ImportHandler.obj
 0001:00018020       ?CreateImportHunks@ImportHandler@@SAPAVHunkList@@PAV2@AAPAVHunk@@AAV?$map@V?$basic_string@DU?$char_traits@D@std@@V?$allocator@D@2@@std@@V12@U?$less@V?$basic_string@DU?$char_traits@D@std@@V?$allocator@D@2@@std@@@2@V?$allocator@U?$pair@$$CBV?$basic_string@DU?$char_traits@D@std@@V?$allocator@D@2@@std@@V12@@std@@@2@@std@@ABV?$vector@V?$basic_string@DU?$char_traits@D@std@@V?$allocator@D@2@@std@@V?$allocator@V?$basic_string@DU?$char_traits@D@std@@V?$allocator@D@2@@std@@@2@@5@_NAA_N@Z 00419020 f   ImportHandler.obj
 0001:00019a20       ?ForEachExportInDLL@@YAXPBDV?$function@$$A6AXPBD@Z@std@@@Z 0041aa20 f   ImportHandler.obj
 0001:0001a150       ?GetImportDll@Hunk@@QBEPBDXZ 0041b150 f i ImportHandler.obj
 0001:0001a580       ?_Buy@?$vector@V?$basic_string@DU?$char_traits@D@std@@V?$allocator@D@2@@std@@V?$allocator@V?$basic_string@DU?$char_traits@D@std@@V?$allocator@D@2@@std@@@2@@std@@AAE_NI@Z 0041b580 f i ImportHandler.obj
 0001:0001a5d0       ?_Destroy@?$vector@V?$basic_string@DU?$char_traits@D@std@@V?$allocator@D@2@@std@@V?$allocator@V?$basic_string@DU?$char_traits@D@std@@V?$allocator@D@2@@std@@@2@@std@@AAEXPAV?$basic_string@DU?$char_traits@D@std@@V?$allocator@D@2@@2@0@Z 0041b5d0 f i ImportHandler.obj
 0001:0001a6d0       ?_Udefault@?$vector@V?$basic_string@DU?$char_traits@D@std@@V?$allocator@D@2@@std@@V?$allocator@V?$basic_string@DU?$char_traits@D@std@@V?$allocator@D@2@@std@@@2@@std@@AAEPAV?$basic_string@DU?$char_traits@D@std@@V?$allocator@D@2@@2@PAV32@I@Z 0041b6d0 f i ImportHandler.obj
 0001:0001a710       ?_Ufill@?$vector@IV?$allocator@I@std@@@std@@AAEPAIPAIIABI@Z 0041b710 f i ImportHandler.obj
 0001:0001a740       ?_Umove@?$vector@V?$basic_string@DU?$char_traits@D@std@@V?$allocator@D@2@@std@@V?$allocator@V?$basic_string@DU?$char_traits@D@std@@V?$allocator@D@2@@std@@@2@@std@@AAEPAV?$basic_string@DU?$char_traits@D@std@@V?$allocator@D@2@@2@PAV32@00@Z 0041b740 f i ImportHandler.obj
 0001:0001a760       ?allocate@?$allocator@V?$basic_string@DU?$char_traits@D@std@@V?$allocator@D@2@@std@@@std@@QAEPAV?$basic_string@DU?$char_traits@D@std@@V?$allocator@D@2@@2@I@Z 0041b760 f i ImportHandler.obj
 0001:0001a7c0       ?count@?$_Tree@V?$_Tset_traits@V?$basic_string@DU?$char_traits@D@std@@V?$allocator@D@2@@std@@U?$less@V?$basic_string@DU?$char_traits@D@std@@V?$allocator@D@2@@std@@@2@V?$allocator@V?$basic_string@DU?$char_traits@D@std@@V?$allocator@D@2@@std@@@2@$0A@@std@@@std@@QBEIABV?$basic_string@DU?$char_traits@D@std@@V?$allocator@D@2@@2@@Z 0041b7c0 f i ImportHandler.obj
 0001:0001a8d0       ?Clicks@LTCGLoader@@UBE_NPBDH@Z 0041b8d0 f   LTCGLoader.obj
 0001:0001a900       ?Load@LTCGLoader@@UAEPAVHunkList@@PBDH0@Z 0041b900 f   LTCGLoader.obj
 0001:0001a920       ??$?0V?$allocator@U?$_Tree_node@VExport@@PAX@std@@@std@@@?$_Tree@V?$_Tset_traits@VExport@@U?$less@VExport@@@std@@V?$allocator@VExport@@@3@$0A@@std@@@std@@QAE@ABV01@$$QAV?$allocator@U?$_Tree_node@VExport@@PAX@std@@@1@@Z 0041b920 f i main.obj
 0001:0001a9a0       ??$?HDU?$char_traits@D@std@@V?$allocator@D@1@@std@@YA?AV?$basic_string@DU?$char_traits@D@std@@V?$allocator@D@2@@0@QBD$$QAV10@@Z 0041b9a0 f i main.obj
 0001:0001aa00       ??$_Buynode@AAVExport@@@?$_Tree_comp_alloc@V?$_Tset_traits@VExport@@U?$less@VExport@@@std@@V?$allocator@VExport@@@3@$0A@@std@@@std@@QAEPAU?$_Tree_node@VExport@@PAX@1@AAVExport@@@Z 0041ba00 f i main.obj
 0001:0001aa80       ??$_Buynode@U?$pair@V?$basic_string@DU?$char_traits@D@std@@V?$allocator@D@2@@std@@V12@@std@@@?$_Tree_comp_alloc@V?$_Tmap_traits@V?$basic_string@DU?$char_traits@D@std@@V?$allocator@D@2@@std@@V12@U?$less@V?$basic_string@DU?$char_traits@D@std@@V?$allocator@D@2@@std@@@2@V?$allocator@U?$pair@$$CBV?$basic_string@DU?$char_traits@D@std@@V?$allocator@D@2@@std@@V12@@std@@@2@$0A@@std@@@std@@QAEPAU?$_Tree_node@U?$pair@$$CBV?$basic_string@DU?$char_traits@D@std@@V?$allocator@D@2@@std@@V12@@std@@PAX@1@$$QAU?$pair@V?$basic_string@DU?$char_traits@D@std@@V?$allocator@D@2@@std@@V12@@1@@Z 0041ba80 f i main.obj
 0001:0001ab00       ??$_Copy@U_Copy_tag@?$_Tree@V?$_Tset_traits@VExport@@U?$less@VExport@@@std@@V?$allocator@VExport@@@3@$0A@@std@@@std@@@?$_Tree@V?$_Tset_traits@VExport@@U?$less@VExport@@@std@@V?$allocator@VExport@@@3@$0A@@std@@@std@@IAEXABV01@U_Copy_tag@01@@Z 0041bb00 f i main.obj
 0001:0001ab80       ??$_Copy_nodes@U_Copy_tag@?$_Tree@V?$_Tset_traits@VExport@@U?$less@VExport@@@std@@V?$allocator@VExport@@@3@$0A@@std@@@std@@@?$_Tree@V?$_Tset_traits@VExport@@U?$less@VExport@@@std@@V?$allocator@VExport@@@3@$0A@@std@@@std@@IAEPAU?$_Tree_node@VExport@@PAX@1@PAU21@0U_Copy_tag@01@@Z 0041bb80 f i main.obj
 0001:0001ac40       ??$_Insert_hint@AAU?$pair@$$CBV?$basic_string@DU?$char_traits@D@std@@V?$allocator@D@2@@std@@PAVMemoryFile@@@std@@PAU?$_Tree_node@U?$pair@$$CBV?$basic_string@DU?$char_traits@D@std@@V?$allocator@D@2@@std@@PAVMemoryFile@@@std@@PAX@2@@?$_Tree@V?$_Tmap_traits@V?$basic_string@DU?$char_traits@D@std@@V?$allocator@D@2@@std@@PAVMemoryFile@@U?$less@V?$basic_string@DU?$char_traits@D@std@@V?$allocator@D@2@@std@@@2@V?$allocator@U?$pair@$$CBV?$basic_string@DU?$char_traits@D@std@@V?$allocator@D@2@@std@@PAVMemoryFile@@@std@@@2@$0A@@std@@@std@@IAE?AV?$_Tree_iterator@V?$_Tree_val@U?$_Tree_simple_types@U?$pair@$$CBV?$basic_string@DU?$char_traits@D@std@@V?$allocator@D@2@@std@@PAVMemoryFile@@@std@@@std@@@std@@@1@V?$_Tree_const_iterator@V?$_Tree_val@U?$_Tree_simple_types@U?$pair@$$CBV?$basic_string@DU?$char_traits@D@std@@V?$allocator@D@2@@std@@PAVMemoryFile@@@std@@@std@@@std@@@1@AAU?$pair@$$CBV?$basic_string@DU?$char_traits@D@std@@V?$allocator@D@2@@std@@PAVMemoryFile@@@1@PAU?$_Tree_node@U?$pair@$$CBV?$basic_string@DU?$char_traits@D@std@@V?$allocator@D@2@@std@@PAVMemoryFile@@@std@@PAX@1@@Z 0041bc40 f i main.obj
 0001:0001ade0       ??$construct@U?$pair@V?$basic_string@DU?$char_traits@D@std@@V?$allocator@D@2@@std@@V12@@std@@U12@@?$_Default_allocator_traits@V?$allocator@U?$pair@V?$basic_string@DU?$char_traits@D@std@@V?$allocator@D@2@@std@@V12@@std@@@std@@@std@@SAXAAV?$allocator@U?$pair@V?$basic_string@DU?$char_traits@D@std@@V?$allocator@D@2@@std@@V12@@std@@@1@QAU?$pair@V?$basic_string@DU?$char_traits@D@std@@V?$allocator@D@2@@std@@V12@@1@$$QAU31@@Z 0041bde0 f i CmdParamMultiAssign.obj
 0001:0001ade0       ??$construct@U?$pair@$$CBV?$basic_string@DU?$char_traits@D@std@@V?$allocator@D@2@@std@@V12@@std@@U?$pair@V?$basic_string@DU?$char_traits@D@std@@V?$allocator@D@2@@std@@V12@@2@@?$_Default_allocator_traits@V?$allocator@U?$_Tree_node@U?$pair@$$CBV?$basic_string@DU?$char_traits@D@std@@V?$allocator@D@2@@std@@V12@@std@@PAX@std@@@std@@@std@@SAXAAV?$allocator@U?$_Tree_node@U?$pair@$$CBV?$basic_string@DU?$char_traits@D@std@@V?$allocator@D@2@@std@@V12@@std@@PAX@std@@@1@QAU?$pair@$$CBV?$basic_string@DU?$char_traits@D@std@@V?$allocator@D@2@@std@@V12@@1@$$QAU?$pair@V?$basic_string@DU?$char_traits@D@std@@V?$allocator@D@2@@std@@V12@@1@@Z 0041bde0 f i main.obj
 0001:0001ae50       ??$construct@VExport@@AAV1@@?$_Default_allocator_traits@V?$allocator@U?$_Tree_node@VExport@@PAX@std@@@std@@@std@@SAXAAV?$allocator@U?$_Tree_node@VExport@@PAX@std@@@1@QAVExport@@AAV3@@Z 0041be50 f i main.obj
 0001:0001ae80       ??$make_pair@V?$basic_string@DU?$char_traits@D@std@@V?$allocator@D@2@@std@@V12@@std@@YA?AU?$pair@V?$basic_string@DU?$char_traits@D@std@@V?$allocator@D@2@@std@@V12@@0@$$QAV?$basic_string@DU?$char_traits@D@std@@V?$allocator@D@2@@0@0@Z 0041be80 f i main.obj
 0001:0001aef0       ??0?$basic_string@DU?$char_traits@D@std@@V?$allocator@D@2@@std@@QAE@QBD@Z 0041bef0 f i main.obj
 0001:0001af30       ??1CmdParam@@UAE@XZ        0041bf30 f i main.obj
 0001:0001b010       ??1CmdParamFlags@@UAE@XZ   0041c010 f i main.obj
 0001:0001b060       ??1CmdParamMultiAssign@@UAE@XZ 0041c060 f i main.obj
 0001:0001b0f0       ??1CmdParamString@@UAE@XZ  0041c0f0 f i main.obj
 0001:0001b110       ??Y?$basic_string@DU?$char_traits@D@std@@V?$allocator@D@2@@std@@QAEAAV01@ABV01@@Z 0041c110 f i main.obj
 0001:0001b130       ??_ECallTransform@@UAEPAXI@Z 0041c130 f i main.obj
 0001:0001b130       ??_GCallTransform@@UAEPAXI@Z 0041c130 f i main.obj
 0001:0001b160       ??_ECmdParam@@UAEPAXI@Z    0041c160 f i main.obj
 0001:0001b160       ??_GCmdParam@@UAEPAXI@Z    0041c160 f i main.obj
 0001:0001b180       ??_GIdentityTransform@@UAEPAXI@Z 0041c180 f i main.obj
 0001:0001b180       ??_ETransform@@UAEPAXI@Z   0041c180 f i main.obj
 0001:0001b180       ??_EIdentityTransform@@UAEPAXI@Z 0041c180 f i main.obj
 0001:0001b180       ??_GTransform@@UAEPAXI@Z   0041c180 f i main.obj
 0001:0001b1b0       ?AddFallbackDll@Crinkler@@QAEXPBD0@Z 0041c1b0 f i main.obj
 0001:0001b3b0       ?AddReplaceDll@Crinkler@@QAEXPBD0@Z 0041c3b0 f i main.obj
 0001:0001b5b0       ?DoTransform@IdentityTransform@@UAE_NPAVHunk@@H_N@Z 0041c5b0 f i main.obj
 0001:0001beb0       ?GetDetransformer@IdentityTransform@@UAEPAVHunk@@XZ 0041ceb0 f i main.obj
 0001:0001beb0       ___scrt_stub_for_initialize_mta 0041ceb0 f i LIBCMT:utility_desktop.obj
 0001:0001beb0       __get_startup_commit_mode  0041ceb0 f i LIBCMT:commit_mode.obj
 0001:0001beb0       ___scrt_exe_initialize_mta 0041ceb0 f i LIBCMT:utility_desktop.obj
 0001:0001beb0       ?EnterHyperCriticalRegion@ContextBase@details@Concurrency@@QAEHXZ 0041ceb0 f i libconcrt:ContextBase.obj
 0001:0001beb0       ?GetDefaultDestination@VirtualProcessor@details@Concurrency@@UAEPAUIExecutionContext@3@XZ 0041ceb0 f i libconcrt:VirtualProcessor.obj
 0001:0001beb0       ?EnterCriticalRegion@ContextBase@details@Concurrency@@QAEHXZ 0041ceb0 f i libconcrt:ContextBase.obj
 0001:0001beb0       ?ExitCriticalRegion@ContextBase@details@Concurrency@@QAEHXZ 0041ceb0 f i libconcrt:ContextBase.obj
 0001:0001beb0       ?PreRunnableSearch@VirtualProcessor@details@Concurrency@@UAEPAVInternalContextBase@23@XZ 0041ceb0 f i libconcrt:VirtualProcessor.obj
 0001:0001beb0       ?ExitHyperCriticalRegion@ContextBase@details@Concurrency@@QAEHXZ 0041ceb0 f i libconcrt:ContextBase.obj
 0001:0001beb0       __get_startup_thread_locale_mode 0041ceb0 f i LIBCMT:thread_locale.obj
 0001:0001beb0       __get_startup_new_mode     0041ceb0 f i LIBCMT:new_mode.obj
 0001:0001beb0       ?GetContextKind@ExternalContextBase@details@Concurrency@@EBE?AW4ContextKind@ContextBase@23@XZ 0041ceb0 f i libconcrt:ExternalContextBase.obj
 0001:0001beb0       ___scrt_initialize_winrt   0041ceb0 f i LIBCMT:utility_desktop.obj
 0001:0001beb0       __matherr                  0041ceb0 f i LIBCMT:matherr.obj
 0001:0001bfa0       ?GetValue1@CmdParamMultiAssign@@QBEPBDXZ 0041cfa0 f i main.obj
 0001:0001bfa0       ?GetValue@CmdParamString@@QBEPBDXZ 0041cfa0 f i main.obj
 0001:0001bfc0       ?GetValue2@CmdParamMultiAssign@@QBEPBDXZ 0041cfc0 f i main.obj
 0001:0001bfe0       ?LoadDLL@@YAPBDPBD@Z       0041cfe0 f   main.obj
 0001:0001c790       ?SetSummary@Crinkler@@QAEXPBD@Z 0041d790 f i main.obj
 0001:0001c7c0       ?_Tidy@?$_Tree@V?$_Tset_traits@VExport@@U?$less@VExport@@@std@@V?$allocator@VExport@@@3@$0A@@std@@@std@@IAEXXZ 0041d7c0 f i main.obj
 0001:0001c7f0       ?count@?$_Tree@V?$_Tset_traits@VExport@@U?$less@VExport@@@std@@V?$allocator@VExport@@@3@$0A@@std@@@std@@QBEIABVExport@@@Z 0041d7f0 f i main.obj
 0001:0001c930       ?find_first_not_of@?$basic_string@DU?$char_traits@D@std@@V?$allocator@D@2@@std@@QBEIABV12@I@Z 0041d930 f i main.obj
 0001:0001c9e0       ?find_first_of@?$basic_string@DU?$char_traits@D@std@@V?$allocator@D@2@@std@@QBEIABV12@I@Z 0041d9e0 f i main.obj
 0001:0001ca90       ?push_back@?$vector@V?$basic_string@DU?$char_traits@D@std@@V?$allocator@D@2@@std@@V?$allocator@V?$basic_string@DU?$char_traits@D@std@@V?$allocator@D@2@@std@@@2@@std@@QAEX$$QAV?$basic_string@DU?$char_traits@D@std@@V?$allocator@D@2@@2@@Z 0041da90 f i main.obj
 0001:0001cae0       ?replace@?$basic_string@DU?$char_traits@D@std@@V?$allocator@D@2@@std@@QAEAAV12@IIQBDI@Z 0041dae0 f i main.obj
 0001:0001cd80       _main                      0041dd80 f   main.obj
 0001:0001eb60       ??$?8DU?$char_traits@D@std@@V?$allocator@D@1@@std@@YA_NABV?$basic_string@DU?$char_traits@D@std@@V?$allocator@D@2@@0@QBD@Z 0041fb60 f i Reuse.obj
 0001:0001ebe0       ??$_Emplace_reallocate@ABV?$basic_string@DU?$char_traits@D@std@@V?$allocator@D@2@@std@@@?$vector@V?$basic_string@DU?$char_traits@D@std@@V?$allocator@D@2@@std@@V?$allocator@V?$basic_string@DU?$char_traits@D@std@@V?$allocator@D@2@@std@@@2@@std@@QAEPAV?$basic_string@DU?$char_traits@D@std@@V?$allocator@D@2@@1@QAV21@ABV21@@Z 0041fbe0 f i Reuse.obj
 0001:0001ee00       ??0Reuse@@QAE@ABVModelList4k@@0ABVHunkList@@H@Z 0041fe00 f   Reuse.obj
 0001:0001ef50       ??0Reuse@@QAE@XZ           0041ff50 f   Reuse.obj
 0001:0001efb0       ?LoadReuseFile@@YAPAVReuse@@PBD@Z 0041ffb0 f   Reuse.obj
 0001:0001f430       ?Save@Reuse@@QBEXPBD@Z     00420430 f   Reuse.obj
 0001:0001f880       ?push_back@?$vector@V?$basic_string@DU?$char_traits@D@std@@V?$allocator@D@2@@std@@V?$allocator@V?$basic_string@DU?$char_traits@D@std@@V?$allocator@D@2@@std@@@2@@std@@QAEXABV?$basic_string@DU?$char_traits@D@std@@V?$allocator@D@2@@2@@Z 00420880 f i Reuse.obj
 0001:0001f8b0       _sscanf                    004208b0 f i Reuse.obj
 0001:0001f8e0       ??0Symbol@@QAE@PBDHIPAVHunk@@0@Z 004208e0 f   Symbol.obj
 0001:0001f980       ?GetUndecoratedName@Symbol@@QBE?AV?$basic_string@DU?$char_traits@D@std@@V?$allocator@D@2@@std@@XZ 00420980 f   Symbol.obj
 0001:0001fa30       ?Error@Log@@SAXPBD0ZZ      00420a30 f   Log.obj
 0001:0001fa90       ?NonfatalError@Log@@SAXPBD0ZZ 00420a90 f   Log.obj
 0001:0001faf0       ?Warning@Log@@SAXPBD0ZZ    00420af0 f   Log.obj
 0001:0001fb50       _vsprintf_s                00420b50 f i Log.obj
 0001:0001fb80       ??0MemoryFile@@QAE@PBD_N@Z 00420b80 f   MemoryFile.obj
 0001:0001fc30       ??1MemoryFile@@QAE@XZ      00420c30 f   MemoryFile.obj
 0001:0001fc40       ?Write@MemoryFile@@QBE_NPBD@Z 00420c40 f   MemoryFile.obj
 0001:0001fc90       ?EnableMiniDumps@@YAXXZ    00420c90 f   MiniDump.obj
 0001:0001fcb0       ?ExitWithDump@@YGJPAU_EXCEPTION_POINTERS@@@Z 00420cb0 f   MiniDump.obj
 0001:0001fde0       ?Align@@YAHHH@Z            00420de0 f   Misc.obj
 0001:0001fe00       ?ReadBigEndian@@YAHPBE@Z   00420e00 f   Misc.obj
 0001:0001fe30       ?RoundInt64@@YA_K_KH@Z     00420e30 f   Misc.obj
 0001:0001feb0       ?StripCrinklerSymbolPrefix@@YA?AV?$basic_string@DU?$char_traits@D@std@@V?$allocator@D@2@@std@@PBD@Z 00420eb0 f   NameMangling.obj
 0001:0001ff70       ?StripSymbolPrefix@@YA?AV?$basic_string@DU?$char_traits@D@std@@V?$allocator@D@2@@std@@PBD@Z 00420f70 f   NameMangling.obj
 0001:0001fff0       ?UndecorateSymbolName@@YA?AV?$basic_string@DU?$char_traits@D@std@@V?$allocator@D@2@@std@@PBD@Z 00420ff0 f   NameMangling.obj
 0001:000200d0       ??$_Emplace_reallocate@PBDH@?$vector@V?$basic_string@DU?$char_traits@D@std@@V?$allocator@D@2@@std@@V?$allocator@V?$basic_string@DU?$char_traits@D@std@@V?$allocator@D@2@@std@@@2@@std@@QAEPAV?$basic_string@DU?$char_traits@D@std@@V?$allocator@D@2@@1@QAV21@$$QAPBD$$QAH@Z 004210d0 f i StringMisc.obj
 0001:000202f0       ??$construct@V?$basic_string@DU?$char_traits@D@std@@V?$allocator@D@2@@std@@PBDH@?$_Default_allocator_traits@V?$allocator@V?$basic_string@DU?$char_traits@D@std@@V?$allocator@D@2@@std@@@std@@@std@@SAXAAV?$allocator@V?$basic_string@DU?$char_traits@D@std@@V?$allocator@D@2@@std@@@1@QAV?$basic_string@DU?$char_traits@D@std@@V?$allocator@D@2@@1@$$QAPBD$$QAH@Z 004212f0 f i StringMisc.obj
 0001:00020320       ?EndsWith@@YA_NPBD0@Z      00421320 f   StringMisc.obj
 0001:000203b0       ?IntoLines@@YA?AV?$vector@V?$basic_string@DU?$char_traits@D@std@@V?$allocator@D@2@@std@@V?$allocator@V?$basic_string@DU?$char_traits@D@std@@V?$allocator@D@2@@std@@@2@@std@@PBDH@Z 004213b0 f   StringMisc.obj
 0001:00020450       ?StartsWith@@YA_NPBD0@Z    00421450 f   StringMisc.obj
 0001:00020480       ?StripPath@@YA?AV?$basic_string@DU?$char_traits@D@std@@V?$allocator@D@2@@std@@ABV12@@Z 00421480 f   StringMisc.obj
 0001:00020520       ?ToLower@@YA?AV?$basic_string@DU?$char_traits@D@std@@V?$allocator@D@2@@std@@ABV12@@Z 00421520 f   StringMisc.obj
 0001:000205a0       ?ToUpper@@YA?AV?$basic_string@DU?$char_traits@D@std@@V?$allocator@D@2@@std@@ABV12@@Z 004215a0 f   StringMisc.obj
 0001:00020620       ??0CmdLineInterface@@QAE@PBDH@Z 00421620 f   CmdLineInterface.obj
 0001:00020690       ??1CmdLineInterface@@QAE@XZ 00421690 f   CmdLineInterface.obj
 0001:00020730       ?AddParams@CmdLineInterface@@QAAXPAVCmdParam@@ZZ 00421730 f   CmdLineInterface.obj
 0001:00020770       ?AddTokens@CmdLineInterface@@AAEXPBD@Z 00421770 f   CmdLineInterface.obj
 0001:000208f0       ?Parse@CmdLineInterface@@QAE_NXZ 004218f0 f   CmdLineInterface.obj
 0001:00021150       ?PrintHeader@CmdLineInterface@@QAEXXZ 00422150 f   CmdLineInterface.obj
 0001:00021170       ?PrintSyntax@CmdLineInterface@@QAEXXZ 00422170 f   CmdLineInterface.obj
 0001:00021200       ?RemoveToken@CmdLineInterface@@QAE_NPBD@Z 00422200 f   CmdLineInterface.obj
 0001:00021390       ?SetCmdParameters@CmdLineInterface@@QAE_NHQAPAD@Z 00422390 f   CmdLineInterface.obj
 0001:000214b0       ??0CmdParam@@QAE@PBD00H@Z  004224b0 f   CmdParam.obj
 0001:00021570       ?ToString@CmdParam@@UBE?AV?$basic_string@DU?$char_traits@D@std@@V?$allocator@D@2@@std@@XZ 00422570 f   CmdParam.obj
 0001:00021670       ??0CmdParamFlags@@QAA@PBD0HH0HZZ 00422670 f   CmdParamFlags.obj
 0001:00021970       ??_ECmdParamFlags@@UAEPAXI@Z 00422970 f i CmdParamFlags.obj
 0001:00021970       ??_GCmdParamFlags@@UAEPAXI@Z 00422970 f i CmdParamFlags.obj
 0001:000219d0       ?Parse@CmdParamFlags@@UAEHPBDPADH@Z 004229d0 f   CmdParamFlags.obj
 0001:00021c20       ??0CmdParamInt@@QAE@PBD00HHHH@Z 00422c20 f   CmdParamInt.obj
 0001:00021c60       ??_GCmdParamInt@@UAEPAXI@Z 00422c60 f i CmdParamInt.obj
 0001:00021c60       ??_ECmdParamInt@@UAEPAXI@Z 00422c60 f i CmdParamInt.obj
 0001:00021c80       ?Parse@CmdParamInt@@UAEHPBDPADH@Z 00422c80 f   CmdParamInt.obj
 0001:00021d10       ??$_Emplace_reallocate@U?$pair@V?$basic_string@DU?$char_traits@D@std@@V?$allocator@D@2@@std@@V12@@std@@@?$vector@U?$pair@V?$basic_string@DU?$char_traits@D@std@@V?$allocator@D@2@@std@@V12@@std@@V?$allocator@U?$pair@V?$basic_string@DU?$char_traits@D@std@@V?$allocator@D@2@@std@@V12@@std@@@2@@std@@QAEPAU?$pair@V?$basic_string@DU?$char_traits@D@std@@V?$allocator@D@2@@std@@V12@@1@QAU21@$$QAU21@@Z 00422d10 f i CmdParamMultiAssign.obj
 0001:00021f40       ??0CmdParamMultiAssign@@QAE@PBD00H@Z 00422f40 f   CmdParamMultiAssign.obj
 0001:00021f90       ??1?$vector@U?$pair@V?$basic_string@DU?$char_traits@D@std@@V?$allocator@D@2@@std@@V12@@std@@V?$allocator@U?$pair@V?$basic_string@DU?$char_traits@D@std@@V?$allocator@D@2@@std@@V12@@std@@@2@@std@@QAE@XZ 00422f90 f i CmdParamMultiAssign.obj
 0001:00022010       ??_GCmdParamMultiAssign@@UAEPAXI@Z 00423010 f i CmdParamMultiAssign.obj
 0001:00022010       ??_ECmdParamMultiAssign@@UAEPAXI@Z 00423010 f i CmdParamMultiAssign.obj
 0001:00022040       ?Parse@CmdParamMultiAssign@@UAEHPBDPADH@Z 00423040 f   CmdParamMultiAssign.obj
 0001:00022360       ?_Destroy@?$vector@U?$pair@V?$basic_string@DU?$char_traits@D@std@@V?$allocator@D@2@@std@@V12@@std@@V?$allocator@U?$pair@V?$basic_string@DU?$char_traits@D@std@@V?$allocator@D@2@@std@@V12@@std@@@2@@std@@AAEXPAU?$pair@V?$basic_string@DU?$char_traits@D@std@@V?$allocator@D@2@@std@@V12@@2@0@Z 00423360 f i CmdParamMultiAssign.obj
 0001:00022390       ?_Umove@?$vector@U?$pair@V?$basic_string@DU?$char_traits@D@std@@V?$allocator@D@2@@std@@V12@@std@@V?$allocator@U?$pair@V?$basic_string@DU?$char_traits@D@std@@V?$allocator@D@2@@std@@V12@@std@@@2@@std@@AAEPAU?$pair@V?$basic_string@DU?$char_traits@D@std@@V?$allocator@D@2@@std@@V12@@2@PAU32@00@Z 00423390 f i CmdParamMultiAssign.obj
 0001:000223d0       ?_Umove_if_noexcept@?$vector@U?$pair@V?$basic_string@DU?$char_traits@D@std@@V?$allocator@D@2@@std@@V12@@std@@V?$allocator@U?$pair@V?$basic_string@DU?$char_traits@D@std@@V?$allocator@D@2@@std@@V12@@std@@@2@@std@@AAEXPAU?$pair@V?$basic_string@DU?$char_traits@D@std@@V?$allocator@D@2@@std@@V12@@2@00@Z 004233d0 f i CmdParamMultiAssign.obj
 0001:00022410       ?deallocate@?$allocator@U?$pair@V?$basic_string@DU?$char_traits@D@std@@V?$allocator@D@2@@std@@V12@@std@@@std@@QAEXQAU?$pair@V?$basic_string@DU?$char_traits@D@std@@V?$allocator@D@2@@std@@V12@@2@I@Z 00423410 f i CmdParamMultiAssign.obj
 0001:00022450       ??0CmdParamString@@QAE@PBD00H0@Z 00423450 f   CmdParamString.obj
 0001:00022560       ??_GCmdParamString@@UAEPAXI@Z 00423560 f i CmdParamString.obj
 0001:00022560       ??_ECmdParamString@@UAEPAXI@Z 00423560 f i CmdParamString.obj
 0001:00022590       ?Parse@CmdParamString@@UAEHPBDPADH@Z 00423590 f   CmdParamString.obj
 0001:00022670       ??0CmdParamSwitch@@QAE@PBD0H@Z 00423670 f   CmdParamSwitch.obj
 0001:000226a0       ??_ECmdParamSwitch@@UAEPAXI@Z 004236a0 f i CmdParamSwitch.obj
 0001:000226a0       ??_GCmdParamSwitch@@UAEPAXI@Z 004236a0 f i CmdParamSwitch.obj
 0001:000226c0       ?Parse@CmdParamSwitch@@UAEHPBDPADH@Z 004236c0 f   CmdParamSwitch.obj
 0001:000226d0       ??0?$vector@PBDV?$allocator@PBD@std@@@std@@QAE@IABV?$allocator@PBD@1@@Z 004236d0 f i CoffLibraryLoader.obj
 0001:000226d0       ??0?$vector@HV?$allocator@H@std@@@std@@QAE@IABV?$allocator@H@1@@Z 004236d0 f i Compressor:Compressor.obj
 0001:000226d0       ??0?$vector@PAUTinyHashEntry@@V?$allocator@PAUTinyHashEntry@@@std@@@std@@QAE@IABV?$allocator@PAUTinyHashEntry@@@1@@Z 004236d0 f i Compressor:Compressor.obj
 0001:000227c0       ??_GCoffObjectLoader@@UAEPAXI@Z 004237c0 f i CoffLibraryLoader.obj
 0001:000227c0       ??_ECoffObjectLoader@@UAEPAXI@Z 004237c0 f i CoffLibraryLoader.obj
 0001:000227e0       ??_EHunkLoader@@UAEPAXI@Z  004237e0 f i CoffLibraryLoader.obj
 0001:000227e0       ??_GLTCGLoader@@UAEPAXI@Z  004237e0 f i MultiLoader.obj
 0001:000227e0       ??_GHunkLoader@@UAEPAXI@Z  004237e0 f i CoffLibraryLoader.obj
 0001:000227e0       ??_ECoffLibraryLoader@@UAEPAXI@Z 004237e0 f i MultiLoader.obj
 0001:000227e0       ??_GCoffLibraryLoader@@UAEPAXI@Z 004237e0 f i MultiLoader.obj
 0001:000227e0       ??_ELTCGLoader@@UAEPAXI@Z  004237e0 f i MultiLoader.obj
 0001:00022810       ?Clicks@CoffLibraryLoader@@UBE_NPBDH@Z 00423810 f   CoffLibraryLoader.obj
 0001:00022870       ?Load@CoffLibraryLoader@@UAEPAVHunkList@@PBDH0@Z 00423870 f   CoffLibraryLoader.obj
 0001:00022d10       ?MakeCallStub@@YAPAVHunk@@PBD@Z 00423d10 f   CoffLibraryLoader.obj
 0001:00023000       ??1CoffObjectLoader@@UAE@XZ 00424000 f   CoffObjectLoader.obj
 0001:00023010       ?Clicks@CoffObjectLoader@@UBE_NPBDH@Z 00424010 f   CoffObjectLoader.obj
 0001:00023190       ?Load@CoffObjectLoader@@UAEPAVHunkList@@PBDH0@Z 00424190 f   CoffObjectLoader.obj
 0001:00023ca0       ?LoadFromFile@HunkLoader@@QAEPAVHunkList@@PBD@Z 00424ca0 f   HunkLoader.obj
 0001:00023ce0       ??0MultiLoader@@QAE@XZ     00424ce0 f   MultiLoader.obj
 0001:00023dc0       ??1MultiLoader@@UAE@XZ     00424dc0 f   MultiLoader.obj
 0001:00023e60       ??_EMultiLoader@@UAEPAXI@Z 00424e60 f i MultiLoader.obj
 0001:00023e60       ??_GMultiLoader@@UAEPAXI@Z 00424e60 f i MultiLoader.obj
 0001:00023e80       ?Clicks@MultiLoader@@UBE_NPBDH@Z 00424e80 f   MultiLoader.obj
 0001:00023ec0       ?Load@MultiLoader@@UAEPAVHunkList@@PBDH0@Z 00424ec0 f   MultiLoader.obj
 0001:000240c0       ?SortHunkList@EmpiricalHunkSorter@@SAHPAVHunkList@@AAVTransform@@AAVModelList4k@@2AAVModelList1k@@H_NHPAVProgressBar@@4PAH6@Z 004250c0 f   EmpiricalHunkSorter.obj
 0001:00024490       ?TryHunkCombination@EmpiricalHunkSorter@@CAHPAVHunkList@@AAVTransform@@AAVModelList4k@@2AAVModelList1k@@H_N4PAH5@Z 00425490 f   EmpiricalHunkSorter.obj
 0001:00024780       ?SortHunkList@HeuristicHunkSorter@@SAXPAVHunkList@@@Z 00425780 f   HeuristicHunkSorter.obj
 0001:00024930       ?DoTransform@CallTransform@@UAE_NPAVHunk@@H_N@Z 00425930 f   CallTransform.obj
 0001:00024a10       ?GetDetransformer@CallTransform@@UAEPAVHunk@@XZ 00425a10 f   CallTransform.obj
 0001:00024a80       ?LinkAndTransform@Transform@@QAE_NPAVHunkList@@PAVSymbol@@HAAPAVHunk@@PAPAV4@PAH_N@Z 00425a80 f   Transform.obj
 0001:00024b90       ?AddProgressBar@CompositeProgressBar@@QAEXPAVProgressBar@@@Z 00425b90 f   CompositeProgressBar.obj
 0001:00024bc0       ?BeginTask@CompositeProgressBar@@UAEXPBD@Z 00425bc0 f   CompositeProgressBar.obj
 0001:00024c00       ?Deinit@CompositeProgressBar@@UAEXXZ 00425c00 f   CompositeProgressBar.obj
 0001:00024c40       ?EndTask@CompositeProgressBar@@UAEXXZ 00425c40 f   CompositeProgressBar.obj
 0001:00024c80       ?Init@CompositeProgressBar@@UAEXXZ 00425c80 f   CompositeProgressBar.obj
 0001:00024cc0       ?Update@CompositeProgressBar@@UAEXHH@Z 00425cc0 f   CompositeProgressBar.obj
 0001:00024d00       ?BeginTask@ConsoleProgressBar@@UAEXPBD@Z 00425d00 f   ConsoleProgressBar.obj
 0001:00024d90       ?Update@ConsoleProgressBar@@UAEXHH@Z 00425d90 f   ConsoleProgressBar.obj
 0001:00024e30       ?BeginTask@WindowProgressBar@@UAEXPBD@Z 00425e30 f   WindowProgressBar.obj
 0001:00024f80       ?DlgProc@@YGJPAUHWND__@@IIJ@Z 00425f80 f   WindowProgressBar.obj
 0001:00025020       ?Init@WindowProgressBar@@UAEXXZ 00426020 f   WindowProgressBar.obj
 0001:000250b0       ?ThreadProc@@YGKPAX@Z      004260b0 f   WindowProgressBar.obj
 0001:000250d0       ?Update@WindowProgressBar@@UAEXHH@Z 004260d0 f   WindowProgressBar.obj
 0001:000251ca       _MiniDumpWriteDump@28      004261ca f   Dbghelp:dbghelp.dll
 0001:000251d0       _distorm_decode64          004261d0 f   distorm:distorm.obj
 0001:00025240       _distorm_version           00426240 f   distorm:distorm.obj
 0001:00025250       _internal_decode           00426250 f   distorm:decoder.obj
 0001:00025800       _ADDR_SIZE_AFFECT          00426800 f   distorm:decoder.obj
 0001:00025840       _OP_SIZE_AFFECT            00426840 f   distorm:decoder.obj
 0001:000260d0       @strcpy_WS@8               004270d0 f   distorm:wstring.obj
 0001:00026100       @strcpylen_WS@12           00427100 f   distorm:wstring.obj
 0001:00026120       @strcatlen_WS@12           00427120 f   distorm:wstring.obj
 0001:00026150       _is_prefix                 00427150 f   distorm:prefix.obj
 0001:00026260       _decode_prefixes           00427260 f   distorm:prefix.obj
 0001:00026a40       _get_unused_prefixes_list  00427a40 f   distorm:prefix.obj
 0001:00026b90       _str_seg_text              00427b90 f   distorm:prefix.obj
 0001:00026c40       _get_prefix_flag           00427c40 f   distorm:prefix.obj
 0001:00026e40       @str_hex_b@8               00427e40 f   distorm:textdefs.obj
 0001:00026e60       @str_code_hb@8             00427e60 f   distorm:textdefs.obj
 0001:00026e90       @str_hex_sp_b@8            00427e90 f   distorm:textdefs.obj
 0001:00026eb0       @str_code_sp_hb@8          00427eb0 f   distorm:textdefs.obj
 0001:00026ef0       @str_hex_sp_w@8            00427ef0 f   distorm:textdefs.obj
 0001:00026f50       @str_code_hw@8             00427f50 f   distorm:textdefs.obj
 0001:00026fd0       @str_hex_sp_dw@8           00427fd0 f   distorm:textdefs.obj
 0001:00027070       @str_code_hdw@8            00428070 f   distorm:textdefs.obj
 0001:000270d0       @str_hex_sp_qw@8           004280d0 f   distorm:textdefs.obj
 0001:00027200       @str_code_hqw@8            00428200 f   distorm:textdefs.obj
 0001:00027290       @str_off64@12              00428290 f   distorm:textdefs.obj
 0001:00027310       _locate_inst               00428310 f   distorm:instructions.obj
 0001:00027450       _locate_3dnow_inst         00428450 f   distorm:instructions.obj
 0001:000274a0       _str_indirection_text      004284a0 f   distorm:instructions.obj
 0001:00027a30       _extract_operand           00428a30 f   distorm:operands.obj
 0001:0002a1a0       ??4ModelList4k@@QAEAAV0@ABV0@@Z 0042b1a0 f   Compressor:ModelList.obj
 0001:0002a1a0       ??0ModelList4k@@QAE@ABV0@@Z 0042b1a0 f   Compressor:ModelList.obj
 0001:0002a1e0       ??0ModelList4k@@QAE@XZ     0042b1e0 f   Compressor:ModelList.obj
 0001:0002a1f0       ??AModelList4k@@QBEABUModel@@I@Z 0042b1f0 f   Compressor:ModelList.obj
 0001:0002a1f0       ??AModelList4k@@QAEAAUModel@@I@Z 0042b1f0 f   Compressor:ModelList.obj
 0001:0002a200       ?AddModel@ModelList4k@@QAEXUModel@@@Z 0042b200 f   Compressor:ModelList.obj
 0001:0002a220       ?DetectCompressionType@ModelList4k@@QBE?AW4CompressionType@@XZ 0042b220 f   Compressor:ModelList.obj
 0001:0002a310       ?GetMaskList@ModelList4k@@QBEIPAE_N@Z 0042b310 f   Compressor:ModelList.obj
 0001:0002a3e0       ?Print@ModelList1k@@QBEXXZ 0042b3e0 f   Compressor:ModelList.obj
 0001:0002a400       ?Print@ModelList4k@@QBEXPAU_iobuf@@@Z 0042b400 f   Compressor:ModelList.obj
 0001:0002a470       ?SetFromModelsAndMask@ModelList4k@@QAEXPBEH@Z 0042b470 f   Compressor:ModelList.obj
 0001:0002a4d0       ??$_Resize@V<lambda_4f2fd6a84b983411848f0e0333d0ea32>@@@?$vector@HV?$allocator@H@std@@@std@@AAEXIV<lambda_4f2fd6a84b983411848f0e0333d0ea32>@@@Z 0042b4d0 f i Compressor:CompressionStream.obj
 0001:0002a690       ??$_Resize@V<lambda_ac46504d121956be4d19caa267422eef>@@@?$vector@IV?$allocator@I@std@@@std@@AAEXIV<lambda_ac46504d121956be4d19caa267422eef>@@@Z 0042b690 f i Compressor:CompressionStream.obj
 0001:0002a7f0       ??0CompressionStream@@QAE@PAEPAHH_N@Z 0042b7f0 f   Compressor:CompressionStream.obj
 0001:0002a840       ??H?$_Vb_iterator@U?$_Wrap_alloc@V?$allocator@I@std@@@std@@@std@@QBE?AV01@H@Z 0042b840 f i Compressor:CompressionStream.obj
 0001:0002a8a0       ?Close@CompressionStream@@QAEHXZ 0042b8a0 f   Compressor:CompressionStream.obj
 0001:0002a8c0       ?CompressFromHashBits@CompressionStream@@QAEXABUHashBits@@PAUTinyHashEntry@@HH@Z 0042b8c0 f   Compressor:CompressionStream.obj
 0001:0002ab90       ?ComputeHashBits@@YA?AUHashBits@@PBEHPAEABVModelList4k@@_N3@Z 0042bb90 f   Compressor:CompressionStream.obj
 0001:0002af00       ?EvaluateSize@CompressionStream@@QAEHPBEHABVModelList4k@@HPADH@Z 0042bf00 f   Compressor:CompressionStream.obj
 0001:0002b380       ?_Insert_n@?$vector@_NV?$allocator@_N@std@@@std@@QAE?AV?$_Vb_iterator@U?$_Wrap_alloc@V?$allocator@I@std@@@std@@@2@V?$_Vb_const_iterator@U?$_Wrap_alloc@V?$allocator@I@std@@@std@@@2@IAB_N@Z 0042c380 f i Compressor:CompressionStream.obj
 0001:0002b540       ?_Reallocate_exactly@?$vector@IV?$allocator@I@std@@@std@@AAEXI@Z 0042c540 f i Compressor:CompressionStream.obj
 0001:0002b620       ?end@?$vector@_NV?$allocator@_N@std@@@std@@QAE?AV?$_Vb_iterator@U?$_Wrap_alloc@V?$allocator@I@std@@@std@@@2@XZ 0042c620 f i Compressor:CompressionStream.obj
 0001:0002b670       ??$?0H@?$_Optimistic_temporary_buffer@VModelList4k@@@std@@QAE@H@Z 0042c670 f i Compressor:Compressor.obj
 0001:0002c040       ??$_Buffered_rotate_unchecked@PAVModelList4k@@@std@@YAPAVModelList4k@@QAV1@00HH0H@Z 0042d040 f i Compressor:Compressor.obj
 0001:0002c130       ??$_Destroy_range@V?$allocator@V?$vector@UTinyHashEntry@@V?$allocator@UTinyHashEntry@@@std@@@std@@@std@@@std@@YAXPAV?$vector@UTinyHashEntry@@V?$allocator@UTinyHashEntry@@@std@@@0@0AAV?$allocator@V?$vector@UTinyHashEntry@@V?$allocator@UTinyHashEntry@@@std@@@std@@@0@@Z 0042d130 f i Compressor:Compressor.obj
 0001:0002c280       ??$_InvokeBridge@V?$task_handle@V?$_Parallel_chunk_helper@HKV<lambda_2d5c079ee375e47292eada9da8d68ac7>@@Vauto_partitioner@Concurrency@@$0A@@Concurrency@@@Concurrency@@@_UnrealizedChore@details@Concurrency@@KAXPAX@Z 0042d280 f i Compressor:Compressor.obj
 0001:0002c290       ??$_InvokeBridge@V?$task_handle@V?$_Parallel_chunk_helper@HKV<lambda_51962b6348015ef8663ca61abdd67dee>@@Vauto_partitioner@Concurrency@@$0A@@Concurrency@@@Concurrency@@@_UnrealizedChore@details@Concurrency@@KAXPAX@Z 0042d290 f i Compressor:Compressor.obj
 0001:0002c2a0       ??$_InvokeBridge@V?$task_handle@V?$_Parallel_chunk_helper@HKV<lambda_bcb400f1102bb6413efa5cc20b055453>@@Vauto_partitioner@Concurrency@@$0A@@Concurrency@@@Concurrency@@@_UnrealizedChore@details@Concurrency@@KAXPAX@Z 0042d2a0 f i Compressor:Compressor.obj
 0001:0002c2b0       ??$_Move_backward_unchecked@PAVModelList4k@@PAV1@@std@@YAPAVModelList4k@@PAV1@00@Z 0042d2b0 f i Compressor:Compressor.obj
 0001:0002c2f0       ??$_Uninitialized_move_unchecked@PAVModelList4k@@PAV1@@std@@YAPAVModelList4k@@QAV1@00@Z 0042d2f0 f i Compressor:Compressor.obj
 0001:0002c2f0       ??$_Move_unchecked@PAVModelList4k@@PAV1@@std@@YAPAVModelList4k@@PAV1@00@Z 0042d2f0 f i Compressor:Compressor.obj
 0001:0002c960       ??$_Resize@V<lambda_7566ea893fcb1c2785c3eae8f394f78c>@@@?$vector@UTinyHashEntry@@V?$allocator@UTinyHashEntry@@@std@@@std@@AAEXIV<lambda_7566ea893fcb1c2785c3eae8f394f78c>@@@Z 0042d960 f i Compressor:Compressor.obj
 0001:0002cb40       ??$_Reverse_unchecked@PAVModelList4k@@@std@@YAXQAVModelList4k@@0@Z 0042db40 f i Compressor:Compressor.obj
 0001:0002cba0       ??$_Rotate_one_left@PAVModelList4k@@@std@@YAXPAVModelList4k@@00@Z 0042dba0 f i Compressor:Compressor.obj
 0001:0002cc00       ??$_Rotate_one_right@PAVModelList4k@@@std@@YAXPAVModelList4k@@00@Z 0042dc00 f i Compressor:Compressor.obj
 0001:0002cd10       ??0?$vector@UHashBits@@V?$allocator@UHashBits@@@std@@@std@@QAE@IABV?$allocator@UHashBits@@@1@@Z 0042dd10 f i Compressor:Compressor.obj
 0001:0002ce00       ??0?$vector@V?$vector@UTinyHashEntry@@V?$allocator@UTinyHashEntry@@@std@@@std@@V?$allocator@V?$vector@UTinyHashEntry@@V?$allocator@UTinyHashEntry@@@std@@@std@@@2@@std@@QAE@IABV?$allocator@V?$vector@UTinyHashEntry@@V?$allocator@UTinyHashEntry@@@std@@@std@@@1@@Z 0042de00 f i Compressor:Compressor.obj
 0001:0002cef0       ??0?$vector@VModelList4k@@V?$allocator@VModelList4k@@@std@@@std@@QAE@IABV?$allocator@VModelList4k@@@1@@Z 0042def0 f i Compressor:Compressor.obj
 0001:0002dff0       ?ApproximateModels1k@@YA?AVModelList1k@@PBEHPAHP6AXPAXHH@Z2@Z 0042eff0 f   Compressor:Compressor.obj
 0001:0002e210       ?ApproximateModels4k@@YA?AVModelList4k@@PBEHQBEW4CompressionType@@_NHPAHP6AXPAXHH@Z5@Z 0042f210 f   Compressor:Compressor.obj
 0001:0002e850       ?ApproximateWeights@@YAIAAVCompressionState@@AAVModelList4k@@@Z 0042f850 f   Compressor:Compressor.obj
 0001:0002e8c0       ?Compress1k@@YAHPBEHPAEHAAVModelList1k@@PAH3@Z 0042f8c0 f   Compressor:Compressor.obj
 0001:0002eb70       ?Compress4k@@YAHPBEHPBHPAEHPAPAVModelList4k@@_NHHPAH@Z 0042fb70 f   Compressor:Compressor.obj
 0001:0002efc0       ?CompressFromHashBits4k@@YAHPBUHashBits@@PAPAUTinyHashEntry@@HPAEH_NHHPAH@Z 0042ffc0 f   Compressor:Compressor.obj
 0001:0002f020       ?CompressionTypeName@@YAPBDW4CompressionType@@@Z 00430020 f   Compressor:Compressor.obj
 0001:0002f060       ?Evaluate1K@@YAHPAEHPAH111I@Z 00430060 f   Compressor:Compressor.obj
 0001:0002f2e0       ?EvaluateSize4k@@YAHPBEHPBHPAHPAPAVModelList4k@@H_N@Z 004302e0 f   Compressor:Compressor.obj
 0001:0002f7c0       ?InitCompressor@@YAXXZ     004307c0 f   Compressor:Compressor.obj
 0001:0002f7d0       ?InstantModels4k@@YA?AVModelList4k@@XZ 004307d0 f   Compressor:Compressor.obj
 0001:0002f900       ?OptimizeWeights@@YAIAAVCompressionState@@AAVModelList4k@@@Z 00430900 f   Compressor:Compressor.obj
 0001:0002fac0       ?_Tidy@?$vector@UHashBits@@V?$allocator@UHashBits@@@std@@@std@@AAEXXZ 00430ac0 f i Compressor:Compressor.obj
 0001:0002fb40       ?_Tidy@?$vector@V?$vector@UTinyHashEntry@@V?$allocator@UTinyHashEntry@@@std@@@std@@V?$allocator@V?$vector@UTinyHashEntry@@V?$allocator@UTinyHashEntry@@@std@@@std@@@2@@std@@AAEXXZ 00430b40 f i Compressor:Compressor.obj
 0001:0002fbc0       ?_Tidy@?$vector@VModelList4k@@V?$allocator@VModelList4k@@@std@@@std@@AAEXXZ 00430bc0 f i Compressor:Compressor.obj
 0001:0002fc30       ?_Udefault@?$vector@UHashBits@@V?$allocator@UHashBits@@@std@@@std@@AAEPAUHashBits@@PAU3@I@Z 00430c30 f i Compressor:Compressor.obj
 0001:0002fce0       ?_Udefault@?$vector@V?$vector@UTinyHashEntry@@V?$allocator@UTinyHashEntry@@@std@@@std@@V?$allocator@V?$vector@UTinyHashEntry@@V?$allocator@UTinyHashEntry@@@std@@@std@@@2@@std@@AAEPAV?$vector@UTinyHashEntry@@V?$allocator@UTinyHashEntry@@@std@@@2@PAV32@I@Z 00430ce0 f i Compressor:Compressor.obj
 0001:0002fd20       ?_Udefault@?$vector@VModelList4k@@V?$allocator@VModelList4k@@@std@@@std@@AAEPAVModelList4k@@PAV3@I@Z 00430d20 f i Compressor:Compressor.obj
 0001:0002fd50       ?AritCode@@YAXPAUAritState@@IIH@Z 00430d50 f   Compressor:AritCode.obj
 0001:0002fe50       ?AritCodeEnd@@YAHPAUAritState@@@Z 00430e50 f   Compressor:AritCode.obj
 0001:0002fea0       ?AritCodeInit@@YAXPAUAritState@@PAX@Z 00430ea0 f   Compressor:AritCode.obj
 0001:0002fec0       ?AritCodePos@@YAIPAUAritState@@@Z 00430ec0 f   Compressor:AritCode.obj
 0001:0002ff20       ?ModelHash@@YAIPBEHIH@Z    00430f20 f   Compressor:Model.obj
 0001:0002ff90       ?ModelHashStart@@YAIIH@Z   00430f90 f   Compressor:Model.obj
 0001:0002ffb0       ??$_InvokeBridge@V?$task_handle@V?$_Parallel_chunk_helper@HKV<lambda_cd4254dc302f41e3ddbda3077e7f1b20>@@Vauto_partitioner@Concurrency@@$0A@@Concurrency@@@Concurrency@@@_UnrealizedChore@details@Concurrency@@KAXPAX@Z 00430fb0 f i Compressor:CompressionState.obj
 0001:000301d0       ??0CompressionState@@QAE@PBEHH_NPAVCompressionStateEvaluator@@0@Z 004311d0 f   Compressor:CompressionState.obj
 0001:000302d0       ??1CompressionState@@QAE@XZ 004312d0 f   Compressor:CompressionState.obj
 0001:00030730       ?ApplyModel@CompressionState@@AAE?AUModelPredictions@@PBEHE@Z 00431730 f   Compressor:CompressionState.obj
 0001:00030a80       ?SetModels@CompressionState@@QAEHABVModelList4k@@@Z 00431a80 f   Compressor:CompressionState.obj
 0001:00030ab0       ?UpdateWeights@@YAXPAUWeights@@H_N@Z 00431ab0 f   Compressor:CompressionState.obj
 0001:00030cf0       ?InitCounterStates@@YAXXZ  00431cf0 f   Compressor:CounterState.obj
 0001:00030d20       ??$_InvokeBridge@V?$task_handle@V?$_Parallel_chunk_helper@HKV<lambda_57d4acbe7c327e0278fbb4baf586306a>@@Vauto_partitioner@Concurrency@@$0A@@Concurrency@@@Concurrency@@@_UnrealizedChore@details@Concurrency@@KAXPAX@Z 00431d20 f i Compressor:CompressionStateEvaluator.obj
 0001:00030f40       ??0CompressionStateEvaluator@@QAE@XZ 00431f40 f   Compressor:CompressionStateEvaluator.obj
 0001:00030f80       ??1CompressionStateEvaluator@@QAE@XZ 00431f80 f   Compressor:CompressionStateEvaluator.obj
 0001:000319a0       ?Evaluate@CompressionStateEvaluator@@QAE_JABVModelList4k@@@Z 004329a0 f   Compressor:CompressionStateEvaluator.obj
 0001:00031d00       ?Init@CompressionStateEvaluator@@QAE_NPAUModelPredictions@@HHM@Z 00432d00 f   Compressor:CompressionStateEvaluator.obj
 0001:00031e70       ?_Copy@?$_Func_impl_no_alloc@P6A_JXZ_J$$V@std@@EBEPAV?$_Func_base@_J$$V@2@PAX@Z 00432e70 f i Compressor:CompressionStateEvaluator.obj
 0001:00031e70       ?_Move@?$_Func_impl_no_alloc@P6A_JXZ_J$$V@std@@EAEPAV?$_Func_base@_J$$V@2@PAX@Z 00432e70 f i Compressor:CompressionStateEvaluator.obj
 0001:00031e90       ?_DefaultInit@?$combinable@_J@Concurrency@@CA_JXZ 00432e90 f i Compressor:CompressionStateEvaluator.obj
 0001:00031ea0       ?_Do_call@?$_Func_impl_no_alloc@P6A_JXZ_J$$V@std@@EAE_JXZ 00432ea0 f i Compressor:CompressionStateEvaluator.obj
 0001:00031eb0       ?_Target_type@?$_Func_impl_no_alloc@P6A_JXZ_J$$V@std@@EBEABVtype_info@@XZ 00432eb0 f i Compressor:CompressionStateEvaluator.obj
 0001:00031eb6       ??0bad_function_call@std@@QAE@ABV01@@Z 00432eb6 f i libcpmt:xthrow.obj
 0001:00031ed1       ??0bad_function_call@std@@QAE@XZ 00432ed1 f i libcpmt:xthrow.obj
 0001:00031ee2       ??0exception@std@@QAE@QBD@Z 00432ee2 f i libcpmt:xthrow.obj
 0001:00031f17       ??0length_error@std@@QAE@ABV01@@Z 00432f17 f i libcpmt:xthrow.obj
 0001:00031f32       ??0length_error@std@@QAE@PBD@Z 00432f32 f i libcpmt:xthrow.obj
 0001:00031f51       ??0out_of_range@std@@QAE@ABV01@@Z 00432f51 f i libcpmt:xthrow.obj
 0001:00031f6c       ??0out_of_range@std@@QAE@PBD@Z 00432f6c f i libcpmt:xthrow.obj
 0001:00031f8b       ??0runtime_error@std@@QAE@ABV01@@Z 00432f8b f i libcpmt:xthrow.obj
 0001:00031fa6       ??_Gunsupported_os@Concurrency@@UAEPAXI@Z 00432fa6 f i libconcrt:Exceptions.obj
 0001:00031fa6       ??_Ginvalid_scheduler_policy_thread_specification@Concurrency@@UAEPAXI@Z 00432fa6 f i libconcrt:Exceptions.obj
 0001:00031fa6       ??_Ebad_typeid@std@@UAEPAXI@Z 00432fa6 f i libvcruntime:rtti.obj
 0001:00031fa6       ??_Eout_of_range@std@@UAEPAXI@Z 00432fa6 f i libcpmt:xthrow.obj
 0001:00031fa6       ??_Ginvalid_scheduler_policy_value@Concurrency@@UAEPAXI@Z 00432fa6 f i libconcrt:Exceptions.obj
 0001:00031fa6       ??_Eimproper_scheduler_attach@Concurrency@@UAEPAXI@Z 00432fa6 f i libconcrt:SchedulerBase.obj
 0001:00031fa6       ??_Eunsupported_os@Concurrency@@UAEPAXI@Z 00432fa6 f i libconcrt:Exceptions.obj
 0001:00031fa6       ??_Gbad_exception@std@@UAEPAXI@Z 00432fa6 f i libvcruntime:frame.obj
 0001:00031fa6       ??_Gimproper_scheduler_reference@Concurrency@@UAEPAXI@Z 00432fa6 f i libconcrt:SchedulerBase.obj
 0001:00031fa6       ??_E__non_rtti_object@std@@UAEPAXI@Z 00432fa6 f i libvcruntime:rtti.obj
 0001:00031fa6       ??_Gbad_typeid@std@@UAEPAXI@Z 00432fa6 f i libvcruntime:rtti.obj
 0001:00031fa6       ??_Gbad_function_call@std@@UAEPAXI@Z 00432fa6 f i libcpmt:xthrow.obj
 0001:00031fa6       ??_G__non_rtti_object@std@@UAEPAXI@Z 00432fa6 f i libvcruntime:rtti.obj
 0001:00031fa6       ??_Eimproper_scheduler_reference@Concurrency@@UAEPAXI@Z 00432fa6 f i libconcrt:SchedulerBase.obj
 0001:00031fa6       ??_Einvalid_operation@Concurrency@@UAEPAXI@Z 00432fa6 f i libconcrt:ResourceManager.obj
 0001:00031fa6       ??_Gnested_scheduler_missing_detach@Concurrency@@UAEPAXI@Z 00432fa6 f i libconcrt:Exceptions.obj
 0001:00031fa6       ??_Gmissing_wait@Concurrency@@UAEPAXI@Z 00432fa6 f i libconcrt:Chores.obj
 0001:00031fa6       ??_Ginvalid_oversubscribe_operation@Concurrency@@UAEPAXI@Z 00432fa6 f i libconcrt:Exceptions.obj
 0001:00031fa6       ??_Enested_scheduler_missing_detach@Concurrency@@UAEPAXI@Z 00432fa6 f i libconcrt:Exceptions.obj
 0001:00031fa6       ??_Ebad_exception@std@@UAEPAXI@Z 00432fa6 f i libvcruntime:frame.obj
 0001:00031fa6       ??_Elength_error@std@@UAEPAXI@Z 00432fa6 f i libcpmt:xthrow.obj
 0001:00031fa6       ??_Ebad_function_call@std@@UAEPAXI@Z 00432fa6 f i libcpmt:xthrow.obj
 0001:00031fa6       ??_Gimproper_scheduler_attach@Concurrency@@UAEPAXI@Z 00432fa6 f i libconcrt:SchedulerBase.obj
 0001:00031fa6       ??_Gbad_array_new_length@std@@UAEPAXI@Z 00432fa6 f i LIBCMT:throw_bad_alloc.obj
 0001:00031fa6       ??_G_Interruption_exception@details@Concurrency@@UAEPAXI@Z 00432fa6 f i libconcrt:Chores.obj
 0001:00031fa6       ??_Emissing_wait@Concurrency@@UAEPAXI@Z 00432fa6 f i libconcrt:Chores.obj
 0001:00031fa6       ??_Einvalid_scheduler_policy_thread_specification@Concurrency@@UAEPAXI@Z 00432fa6 f i libconcrt:Exceptions.obj
 0001:00031fa6       ??_Gcontext_unblock_unbalanced@Concurrency@@UAEPAXI@Z 00432fa6 f i libconcrt:Exceptions.obj
 0001:00031fa6       ??_Gruntime_error@std@@UAEPAXI@Z 00432fa6 f i libcpmt:xthrow.obj
 0001:00031fa6       ??_Einvalid_scheduler_policy_key@Concurrency@@UAEPAXI@Z 00432fa6 f i libconcrt:Exceptions.obj
 0001:00031fa6       ??_Einvalid_oversubscribe_operation@Concurrency@@UAEPAXI@Z 00432fa6 f i libconcrt:Exceptions.obj
 0001:00031fa6       ??_Econtext_self_unblock@Concurrency@@UAEPAXI@Z 00432fa6 f i libconcrt:Exceptions.obj
 0001:00031fa6       ??_Glength_error@std@@UAEPAXI@Z 00432fa6 f i libcpmt:xthrow.obj
 0001:00031fa6       ??_Ginvalid_scheduler_policy_key@Concurrency@@UAEPAXI@Z 00432fa6 f i libconcrt:Exceptions.obj
 0001:00031fa6       ??_Eruntime_error@std@@UAEPAXI@Z 00432fa6 f i libcpmt:xthrow.obj
 0001:00031fa6       ??_Ebad_array_new_length@std@@UAEPAXI@Z 00432fa6 f i LIBCMT:throw_bad_alloc.obj
 0001:00031fa6       ??_E_Interruption_exception@details@Concurrency@@UAEPAXI@Z 00432fa6 f i libconcrt:Chores.obj
 0001:00031fa6       ??_Gimproper_lock@Concurrency@@UAEPAXI@Z 00432fa6 f i libconcrt:rtlocks.obj
 0001:00031fa6       ??_Ginvalid_operation@Concurrency@@UAEPAXI@Z 00432fa6 f i libconcrt:ResourceManager.obj
 0001:00031fa6       ??_Eimproper_lock@Concurrency@@UAEPAXI@Z 00432fa6 f i libconcrt:rtlocks.obj
 0001:00031fa6       ??_Ebad_cast@std@@UAEPAXI@Z 00432fa6 f i libvcruntime:rtti.obj
 0001:00031fa6       ??_Gbad_cast@std@@UAEPAXI@Z 00432fa6 f i libvcruntime:rtti.obj
 0001:00031fa6       ??_Einvalid_scheduler_policy_value@Concurrency@@UAEPAXI@Z 00432fa6 f i libconcrt:Exceptions.obj
 0001:00031fa6       ??_Gout_of_range@std@@UAEPAXI@Z 00432fa6 f i libcpmt:xthrow.obj
 0001:00031fa6       ??_Einvalid_multiple_scheduling@Concurrency@@UAEPAXI@Z 00432fa6 f i libconcrt:TaskCollection.obj
 0001:00031fa6       ??_Econtext_unblock_unbalanced@Concurrency@@UAEPAXI@Z 00432fa6 f i libconcrt:Exceptions.obj
 0001:00031fa6       ??_Ginvalid_multiple_scheduling@Concurrency@@UAEPAXI@Z 00432fa6 f i libconcrt:TaskCollection.obj
 0001:00031fa6       ??_Gcontext_self_unblock@Concurrency@@UAEPAXI@Z 00432fa6 f i libconcrt:Exceptions.obj
 0001:00031fd3       ?_Xbad_function_call@std@@YAXXZ 00432fd3 f   libcpmt:xthrow.obj
 0001:00031ff0       ?_Xlength_error@std@@YAXPBD@Z 00432ff0 f   libcpmt:xthrow.obj
 0001:00032010       ?_Xout_of_range@std@@YAXPBD@Z 00433010 f   libcpmt:xthrow.obj
 0001:00032030       ?what@bad_function_call@std@@UBEPBDXZ 00433030 f i libcpmt:xthrow.obj
 0001:00032036       ?GetCurrentThreadId@platform@details@Concurrency@@YAJXZ 00433036 f   libcpmt:ppltasks.obj
 0001:0003203c       ??0AllocatorBucket@details@Concurrency@@QAE@XZ 0043303c f   libconcrt:SubAllocator.obj
 0001:00032051       ??1AllocatorBucket@details@Concurrency@@QAE@XZ 00433051 f   libconcrt:SubAllocator.obj
 0001:000320a3       ??1GlobalCore@details@Concurrency@@QAE@XZ 004330a3 f i libconcrt:SubAllocator.obj
 0001:000320b0       ??_EGlobalCore@details@Concurrency@@QAEPAXI@Z 004330b0 f i libconcrt:SubAllocator.obj
 0001:00032136       ?Alloc@AllocatorBucket@details@Concurrency@@QAEPATAllocationEntry@23@XZ 00433136 f   libconcrt:SubAllocator.obj
 0001:0003214f       ?Alloc@SubAllocator@details@Concurrency@@QAEPAXI@Z 0043314f f   libconcrt:SubAllocator.obj
 0001:0003219f       ?CurrentContext@SchedulerBase@details@Concurrency@@SAPAVContextBase@23@XZ 0043319f f i libconcrt:SubAllocator.obj
 0001:000321c1       ?Free@AllocatorBucket@details@Concurrency@@QAE_NPATAllocationEntry@23@@Z 004331c1 f   libconcrt:SubAllocator.obj
 0001:000321eb       ?Free@Concurrency@@YAXPAX@Z 004331eb f   libconcrt:SubAllocator.obj
 0001:00032215       ?Free@SubAllocator@details@Concurrency@@QAEXPAX@Z 00433215 f   libconcrt:SubAllocator.obj
 0001:0003224c       ?GetBucketIndex@SubAllocator@details@Concurrency@@SAHI@Z 0043324c f   libconcrt:SubAllocator.obj
 0001:0003229d       ?StaticAlloc@SubAllocator@details@Concurrency@@SAPAXI@Z 0043329d f   libconcrt:SubAllocator.obj
 0001:000322d6       ?Block@Context@Concurrency@@SAXXZ 004332d6 f   libconcrt:Context.obj
 0001:000322f3       ?CurrentContext@Context@Concurrency@@SAPAV12@XZ 004332f3 f   libconcrt:Context.obj
 0001:000322f8       ?_CurrentContext@_Context@details@Concurrency@@SA?AV123@XZ 004332f8 f   libconcrt:Context.obj
 0001:00032309       ?_IsSynchronouslyBlocked@_Context@details@Concurrency@@QBE_NXZ 00433309 f   libconcrt:Context.obj
 0001:00032321       ?_Yield@_Context@details@Concurrency@@SAXXZ 00433321 f   libconcrt:Context.obj
 0001:0003233e       ?GetNumberOfVirtualProcessors@CurrentScheduler@Concurrency@@SAIXZ 0043333e f   libconcrt:CurrentScheduler.obj
 0001:00032364       ?_GetNumberOfVirtualProcessors@_CurrentScheduler@details@Concurrency@@SAIXZ 00433364 f   libconcrt:CurrentScheduler.obj
 0001:00032381       ??0LockQueueNode@details@Concurrency@@QAE@I@Z 00433381 f i libconcrt:rtlocks.obj
 0001:00032425       ??0_ReentrantBlockingLock@details@Concurrency@@QAE@XZ 00433425 f   libconcrt:rtlocks.obj
 0001:00032425       ??0_NonReentrantBlockingLock@details@Concurrency@@QAE@XZ 00433425 f   libconcrt:rtlocks.obj
 0001:0003243a       ??0_ReaderWriterLock@details@Concurrency@@QAE@XZ 0043343a f   libconcrt:rtlocks.obj
 0001:0003244a       ??0critical_section@Concurrency@@QAE@XZ 0043344a f   libconcrt:rtlocks.obj
 0001:0003246a       ??0improper_lock@Concurrency@@QAE@ABV01@@Z 0043346a f i libconcrt:rtlocks.obj
 0001:00032485       ??0scoped_lock@critical_section@Concurrency@@QAE@AAV12@@Z 00433485 f   libconcrt:rtlocks.obj
 0001:000324af       ??1_NonReentrantBlockingLock@details@Concurrency@@QAE@XZ 004334af f   libconcrt:rtlocks.obj
 0001:000324af       ??1_ReentrantBlockingLock@details@Concurrency@@QAE@XZ 004334af f   libconcrt:rtlocks.obj
 0001:000324b7       ??1scoped_lock@critical_section@Concurrency@@QAE@XZ 004334b7 f   libconcrt:rtlocks.obj
 0001:000324ed       ?Block@LockQueueNode@details@Concurrency@@QAEXI@Z 004334ed f i libconcrt:rtlocks.obj
 0001:00032573       ?DerefTimerNode@LockQueueNode@details@Concurrency@@QAEXXZ 00433573 f i libconcrt:rtlocks.obj
 0001:00032592       ?DispatchNodeTimeoutTimer@LockQueueNode@details@Concurrency@@SGXPAU_TP_CALLBACK_INSTANCE@@PAXPAU_TP_TIMER@@@Z 00433592 f i libconcrt:rtlocks.obj
 0001:000325d9       ?DispatchNodeTimeoutTimerXP@LockQueueNode@details@Concurrency@@SGXPAXE@Z 004335d9 f i libconcrt:rtlocks.obj
 0001:00032626       ?TryCompensateTimer@LockQueueNode@details@Concurrency@@QAEXXZ 00433626 f i libconcrt:rtlocks.obj
 0001:0003264b       ?Unblock@LockQueueNode@details@Concurrency@@QAE_NXZ 0043364b f i libconcrt:rtlocks.obj
 0001:0003267d       ?UpdateQueuePosition@LockQueueNode@details@Concurrency@@QAEXPAV123@@Z 0043367d f i libconcrt:rtlocks.obj
 0001:000326e5       ?WaitForNextNode@LockQueueNode@details@Concurrency@@QAEPAV123@XZ 004336e5 f i libconcrt:rtlocks.obj
 0001:00032710       ?_Acquire@_ReentrantBlockingLock@details@Concurrency@@QAEXXZ 00433710 f   libconcrt:rtlocks.obj
 0001:00032710       ?_Acquire@_NonReentrantBlockingLock@details@Concurrency@@QAEXXZ 00433710 f   libconcrt:rtlocks.obj
 0001:00032718       ?_AcquireRead@_ReaderWriterLock@details@Concurrency@@QAEXXZ 00433718 f   libconcrt:rtlocks.obj
 0001:00032748       ?_AcquireWrite@_ReaderWriterLock@details@Concurrency@@QAEXXZ 00433748 f   libconcrt:rtlocks.obj
 0001:00032776       ?_Acquire_lock@critical_section@Concurrency@@QAE_NPAX_N@Z 00433776 f   libconcrt:rtlocks.obj
 0001:00032811       ?_FlushWriteOwners@_ReaderWriterLock@details@Concurrency@@QAEXXZ 00433811 f   libconcrt:rtlocks.obj
 0001:00032827       ?_Flush_current_owner@critical_section@Concurrency@@QAEXXZ 00433827 f   libconcrt:rtlocks.obj
 0001:0003283f       ?_Initialize@_SpinCount@details@Concurrency@@SAXXZ 0043383f f   libconcrt:rtlocks.obj
 0001:00032856       ?_Release@_NonReentrantBlockingLock@details@Concurrency@@QAEXXZ 00433856 f   libconcrt:rtlocks.obj
 0001:00032856       ?_Release@_ReentrantBlockingLock@details@Concurrency@@QAEXXZ 00433856 f   libconcrt:rtlocks.obj
 0001:0003285e       ?_ReleaseRead@_ReaderWriterLock@details@Concurrency@@QAEXXZ 0043385e f   libconcrt:rtlocks.obj
 0001:00032862       ?_ReleaseWrite@_ReaderWriterLock@details@Concurrency@@QAEXXZ 00433862 f   libconcrt:rtlocks.obj
 0001:0003286d       ?_SetSpinCount@?$_SpinWait@$0A@@details@Concurrency@@QAEXI@Z 0043386d f i libconcrt:rtlocks.obj
 0001:0003288c       ?_SpinOnce@?$_SpinWait@$0A@@details@Concurrency@@QAE_NXZ 0043388c f i libconcrt:rtlocks.obj
 0001:00032903       ?_Switch_to_active@critical_section@Concurrency@@AAEXPAX@Z 00433903 f   libconcrt:rtlocks.obj
 0001:00032952       ?_TryAcquireWrite@_ReaderWriterLock@details@Concurrency@@QAE_NXZ 00433952 f   libconcrt:rtlocks.obj
 0001:00032969       ?_Value@_SpinCount@details@Concurrency@@SAIXZ 00433969 f   libconcrt:rtlocks.obj
 0001:0003296f       ?_WaitEquals@_ReaderWriterLock@details@Concurrency@@CAXADJJJ@Z 0043396f f   libconcrt:rtlocks.obj
 0001:000329ac       ?lock@critical_section@Concurrency@@QAEXXZ 004339ac f   libconcrt:rtlocks.obj
 0001:000329da       ?try_lock@critical_section@Concurrency@@QAE_NXZ 004339da f   libconcrt:rtlocks.obj
 0001:00032a25       ?try_lock_for@critical_section@Concurrency@@QAE_NI@Z 00433a25 f   libconcrt:rtlocks.obj
 0001:00032a83       ?unlock@critical_section@Concurrency@@QAEXXZ 00433a83 f   libconcrt:rtlocks.obj
 0001:00032af4       __concrt_static_cleanup    00433af4 f   libconcrt:utils.obj
 0001:00032b02       ??0scheduler_resource_allocation_error@Concurrency@@QAE@ABV01@@Z 00433b02 f i libconcrt:utils.obj
 0001:00032b26       ??_Escheduler_worker_creation_error@Concurrency@@UAEPAXI@Z 00433b26 f i libconcrt:Exceptions.obj
 0001:00032b26       ??_Gscheduler_worker_creation_error@Concurrency@@UAEPAXI@Z 00433b26 f i libconcrt:Exceptions.obj
 0001:00032b26       ??_Gscheduler_resource_allocation_error@Concurrency@@UAEPAXI@Z 00433b26 f i libconcrt:utils.obj
 0001:00032b26       ??_Escheduler_resource_allocation_error@Concurrency@@UAEPAXI@Z 00433b26 f i libconcrt:utils.obj
 0001:00032b53       ?EncodePointer@Security@details@Concurrency@@SAPAXPAX@Z 00433b53 f   libconcrt:utils.obj
 0001:00032b53       ?DecodePointer@Security@details@Concurrency@@SAPAXPAX@Z 00433b53 f   libconcrt:utils.obj
 0001:00032b60       ?DeleteAsyncTimerAndUnloadLibrary@details@Concurrency@@YAXPAU_TP_TIMER@@@Z 00433b60 f   libconcrt:utils.obj
 0001:00032b9c       ?FreeLibraryAndDestroyThread@details@Concurrency@@YAXK@Z 00433b9c f   libconcrt:utils.obj
 0001:00032bc6       ?InitializeCookie@Security@details@Concurrency@@SAKXZ 00433bc6 f   libconcrt:utils.obj
 0001:00032c12       ?LoadLibraryAndCreateThread@details@Concurrency@@YAPAXPAU_SECURITY_ATTRIBUTES@@KP6GKPAX@Z1KPAK@Z 00433c12 f   libconcrt:utils.obj
 0001:00032c58       ?ReferenceLoadLibrary@details@Concurrency@@YAXXZ 00433c58 f   libconcrt:utils.obj
 0001:00032cec       ?RegisterAsyncTimerAndLoadLibrary@details@Concurrency@@YAPAU_TP_TIMER@@KP6GXPAU_TP_CALLBACK_INSTANCE@@PAXPAU3@@Z1_N@Z 00433cec f   libconcrt:utils.obj
 0001:00032d4b       ?RegisterAsyncWaitAndLoadLibrary@details@Concurrency@@YAPAU_TP_WAIT@@PAXP6GXPAU_TP_CALLBACK_INSTANCE@@0PAU3@K@Z0@Z 00433d4b f   libconcrt:utils.obj
 0001:00032d84       ?UnRegisterAsyncTimerAndUnloadLibrary@details@Concurrency@@YAXPAU_TP_CALLBACK_INSTANCE@@PAU_TP_TIMER@@@Z 00433d84 f   libconcrt:utils.obj
 0001:00032dba       ?UnRegisterAsyncWaitAndUnloadLibrary@details@Concurrency@@YAXPAU_TP_CALLBACK_INSTANCE@@PAU_TP_WAIT@@@Z 00433dba f   libconcrt:utils.obj
 0001:00032def       ?_Acquire@_HyperNonReentrantLock@details@Concurrency@@QAEXXZ 00433def f   libconcrt:utils.obj
 0001:00032def       ?_Acquire@_CriticalNonReentrantLock@details@Concurrency@@QAEXXZ 00433def f   libconcrt:utils.obj
 0001:00032dff       ?_Acquire@_NonReentrantLock@details@Concurrency@@QAEXXZ 00433dff f i libconcrt:utils.obj
 0001:00032e30       ?_Release@_HyperNonReentrantLock@details@Concurrency@@QAEXXZ 00433e30 f   libconcrt:utils.obj
 0001:00032e30       ?_Release@_CriticalNonReentrantLock@details@Concurrency@@QAEXXZ 00433e30 f   libconcrt:utils.obj
 0001:00032e3b       ?_Sleep0@details@Concurrency@@YAXXZ 00433e3b f   libconcrt:utils.obj
 0001:00032e44       ?_TryAcquire@_CriticalNonReentrantLock@details@Concurrency@@QAE_NXZ 00433e44 f   libconcrt:utils.obj
 0001:00032e64       ?_TryAcquire@_NonReentrantLock@details@Concurrency@@QAE_NXZ 00433e64 f i libconcrt:utils.obj
 0001:00032e79       ?_UnderlyingYield@details@Concurrency@@YAXXZ 00433e79 f   libconcrt:utils.obj
 0001:00032ea0       ??$atomic_compare_exchange@J@details@Concurrency@@YAJAAU?$atomic@J@std@@JJ@Z 00433ea0 f i libconcrt:Chores.obj
 0001:00032ec5       ??0CancellationTokenRegistration_TaskProc@details@Concurrency@@QAE@P6AXPAX@Z0H@Z 00433ec5 f i libconcrt:Chores.obj
 0001:00032ef0       ??0_CancellationTokenRegistration@details@Concurrency@@QAE@J@Z 00433ef0 f i libconcrt:Chores.obj
 0001:00032f39       ??0_Interruption_exception@details@Concurrency@@QAE@ABV012@@Z 00433f39 f i libconcrt:Chores.obj
 0001:00032f54       ??0_Interruption_exception@details@Concurrency@@QAE@XZ 00433f54 f i libconcrt:Chores.obj
 0001:00032f65       ??0missing_wait@Concurrency@@QAE@ABV01@@Z 00433f65 f i libconcrt:Chores.obj
 0001:00032f80       ??1?$lock_guard@Vmutex@std@@@std@@QAE@XZ 00433f80 f i libconcrt:Chores.obj
 0001:00032fb7       ??1?$unique_lock@Vmutex@std@@@std@@QAE@XZ 00433fb7 f i libconcrt:Chores.obj
 0001:00032ff4       ??1_CancellationTokenRegistration@details@Concurrency@@MAE@XZ 00433ff4 f i libconcrt:Chores.obj
 0001:00033019       ??_ECancellationTokenRegistration_TaskProc@details@Concurrency@@UAEPAXI@Z 00434019 f i libconcrt:Chores.obj
 0001:00033019       ??_GCancellationTokenRegistration_TaskProc@details@Concurrency@@UAEPAXI@Z 00434019 f i libconcrt:Chores.obj
 0001:0003303b       ??_E_CancellationTokenRegistration@details@Concurrency@@MAEPAXI@Z 0043403b f i libconcrt:Chores.obj
 0001:0003303b       ??_G_CancellationTokenRegistration@details@Concurrency@@MAEPAXI@Z 0043403b f i libconcrt:Chores.obj
 0001:0003305d       ??_E_RefCounter@details@Concurrency@@UAEPAXI@Z 0043405d f i libconcrt:Chores.obj
 0001:0003305d       ??_G_RefCounter@details@Concurrency@@UAEPAXI@Z 0043405d f i libconcrt:Chores.obj
 0001:00033080       ?AddTail@?$List@UListEntry@details@Concurrency@@VNoCount@CollectionTypes@23@@details@Concurrency@@QAEXPAUListEntry@23@@Z 00434080 f i libconcrt:Chores.obj
 0001:000330af       ?AddTail@?$SafeRWList@UListEntry@details@Concurrency@@VNoCount@CollectionTypes@23@V_ReaderWriterLock@23@@details@Concurrency@@QAEXPAUListEntry@23@@Z 004340af f i libconcrt:Chores.obj
 0001:000330e3       ?Remove@?$List@UListEntry@details@Concurrency@@VNoCount@CollectionTypes@23@@details@Concurrency@@QAEXPAUListEntry@23@@Z 004340e3 f i libconcrt:Chores.obj
 0001:00033111       ?Remove@?$SafeRWList@UListEntry@details@Concurrency@@VNoCount@CollectionTypes@23@V_ReaderWriterLock@23@@details@Concurrency@@QAEXPAUListEntry@23@@Z 00434111 f i libconcrt:Chores.obj
 0001:00033145       ?_Atomic_compare_exchange_strong_4@std@@YAHPCKPAKKW4memory_order@1@2@Z 00434145 f i libconcrt:Chores.obj
 0001:000331b5       ?_CancelViaToken@_UnrealizedChore@details@Concurrency@@CAXPAVContextBase@23@@Z 004341b5 f   libconcrt:Chores.obj
 0001:000331dc       ?_CheckTaskCollection@_UnrealizedChore@details@Concurrency@@IAEXXZ 004341dc f   libconcrt:Chores.obj
 0001:00033225       ?_Cnd_broadcastX@std@@YAHPAU_Cnd_internal_imp_t@@@Z 00434225 f i libconcrt:Chores.obj
 0001:00033244       ?_Cnd_waitX@std@@YAHPAU_Cnd_internal_imp_t@@PAU_Mtx_internal_imp_t@@@Z 00434244 f i libconcrt:Chores.obj
 0001:00033267       ?_Compare_exchange_release_4@std@@YAHPCKPAKK@Z 00434267 f i libconcrt:Chores.obj
 0001:00033267       ?_Compare_exchange_acquire_4@std@@YAHPCKPAKK@Z 00434267 f i libconcrt:Chores.obj
 0001:00033267       ?_Compare_exchange_relaxed_4@std@@YAHPCKPAKK@Z 00434267 f i libconcrt:Chores.obj
 0001:00033267       ?_Compare_exchange_seq_cst_4@std@@YAHPCKPAKK@Z 00434267 f i libconcrt:Chores.obj
 0001:0003328e       ?_DeregisterCallback@_CancellationTokenState@details@Concurrency@@QAEXPAV_CancellationTokenRegistration@23@@Z 0043428e f i libconcrt:Chores.obj
 0001:00033365       ?_Destroy@_RefCounter@details@Concurrency@@MAEXXZ 00434365 f i libconcrt:Chores.obj
 0001:00033382       ?_Exec@CancellationTokenRegistration_TaskProc@details@Concurrency@@MAEXXZ 00434382 f i libconcrt:Chores.obj
 0001:00033396       ?_InternalFree@_UnrealizedChore@details@Concurrency@@CAXPAV123@@Z 00434396 f   libconcrt:Chores.obj
 0001:000333b4       ?_Invoke@_CancellationTokenRegistration@details@Concurrency@@AAEXXZ 004343b4 f i libconcrt:Chores.obj
 0001:0003343c       ?_Mtx_lockX@std@@YAHPAU_Mtx_internal_imp_t@@@Z 0043443c f i libconcrt:Chores.obj
 0001:0003345b       ?_Mtx_unlockX@std@@YAHPAU_Mtx_internal_imp_t@@@Z 0043445b f i libconcrt:Chores.obj
 0001:0003347a       ?_PrepareSteal@_UnrealizedChore@details@Concurrency@@QAEXPAVContextBase@23@@Z 0043447a f   libconcrt:Chores.obj
 0001:00033492       ?_PrepareStealStructured@_UnrealizedChore@details@Concurrency@@AAEXPAVContextBase@23@@Z 00434492 f   libconcrt:Chores.obj
 0001:000334c8       ?_PrepareStealUnstructured@_UnrealizedChore@details@Concurrency@@AAEXPAVContextBase@23@@Z 004344c8 f   libconcrt:Chores.obj
 0001:00033530       ?_RegisterCallback@_CancellationTokenState@details@Concurrency@@QAEPAV_CancellationTokenRegistration@23@P6AXPAX@Z0H@Z 00434530 f i libconcrt:Chores.obj
 0001:0003356d       ?_RegisterCallback@_CancellationTokenState@details@Concurrency@@QAEXPAV_CancellationTokenRegistration@23@@Z 0043456d f i libconcrt:Chores.obj
 0001:000335df       ?_Release@_RefCounter@details@Concurrency@@QAEJXZ 004345df f i libconcrt:Chores.obj
 0001:00033606       ?_SetDetached@_UnrealizedChore@details@Concurrency@@QAEX_N@Z 00434606 f   libconcrt:Chores.obj
 0001:00033613       ?_StructuredChoreWrapper@_UnrealizedChore@details@Concurrency@@CAXPAV123@@Z 00434613 f   libconcrt:Chores.obj
 0001:0003377b       ?_TaskCleanup@_StructuredTaskCollection@details@Concurrency@@AAE_NXZ 0043477b f i libconcrt:Chores.obj
 0001:00033793       ?push_back@TokenRegistrationContainer@_CancellationTokenState@details@Concurrency@@QAEXPAV_CancellationTokenRegistration@34@@Z 00434793 f i libconcrt:Chores.obj
 0001:000337cf       ?remove@TokenRegistrationContainer@_CancellationTokenState@details@Concurrency@@QAEXPAV_CancellationTokenRegistration@34@@Z 004347cf f i libconcrt:Chores.obj
 0001:00033814       ??0_TaskCollection@details@Concurrency@@AAE@PAV012@_N@Z 00434814 f   libconcrt:TaskCollection.obj
 0001:000338f5       ??0invalid_multiple_scheduling@Concurrency@@QAE@ABV01@@Z 004348f5 f i libconcrt:TaskCollection.obj
 0001:00033910       ??1?$_MallocaArrayHolder@PAVevent@Concurrency@@@details@Concurrency@@UAE@XZ 00434910 f i libconcrt:TaskCollection.obj
 0001:00033920       ??1TaskStack@details@Concurrency@@QAE@XZ 00434920 f   libconcrt:TaskCollection.obj
 0001:00033930       ??1_Scoped_lock_read@?$SafeRWList@UListEntry@details@Concurrency@@VNoCount@CollectionTypes@23@V_ReaderWriterLock@23@@details@Concurrency@@QAE@XZ 00434930 f i libconcrt:TaskCollection.obj
 0001:00033969       ??1_StructuredTaskCollection@details@Concurrency@@QAE@XZ 00434969 f   libconcrt:TaskCollection.obj
 0001:000339e5       ??1_TaskCollection@details@Concurrency@@QAE@XZ 004349e5 f   libconcrt:TaskCollection.obj
 0001:00033ab4       ??1exception_ptr@std@@QAE@XZ 00434ab4 f i libconcrt:TaskCollection.obj
 0001:00033aea       ??_G?$_MallocaArrayHolder@PAVevent@Concurrency@@@details@Concurrency@@UAEPAXI@Z 00434aea f i libconcrt:TaskCollection.obj
 0001:00033aea       ??_E?$_MallocaArrayHolder@PAVevent@Concurrency@@@details@Concurrency@@UAEPAXI@Z 00434aea f i libconcrt:TaskCollection.obj
 0001:00033b16       ??_Gexception_ptr@std@@QAEPAXI@Z 00434b16 f i libconcrt:TaskCollection.obj
 0001:00033b68       ?AddArbitraryAlias@ContextBase@details@Concurrency@@QAEXPAV_TaskCollection@23@0@Z 00434b68 f i libconcrt:TaskCollection.obj
 0001:00033b8b       ?Find@?$Hash@II@details@Concurrency@@QAEPAUListNode@123@ABIPAI@Z 00434b8b f i libconcrt:SchedulerBase.obj
 0001:00033b8b       ?Find@?$Hash@PAV_TaskCollection@details@Concurrency@@PAV123@@details@Concurrency@@QAEPAUListNode@123@ABQAV_TaskCollection@23@PAPAV523@@Z 00434b8b f i libconcrt:TaskCollection.obj
 0001:00033bc1       ?FindAndDelete@?$Hash@PAV_TaskCollection@details@Concurrency@@PAV123@@details@Concurrency@@QAE_NABQAV_TaskCollection@23@PAPAV423@@Z 00434bc1 f i libconcrt:TaskCollection.obj
 0001:00033c03       ?GetArbitraryAlias@ContextBase@details@Concurrency@@QAEPAV_TaskCollection@23@PAV423@@Z 00434c03 f i libconcrt:TaskCollection.obj
 0001:00033c65       ?GetWorkQueueIdentity@ContextBase@details@Concurrency@@QAEIXZ 00434c65 f i libconcrt:TaskCollection.obj
 0001:00033c7c       ?HashValue@?$Hash@PAV_TaskCollection@details@Concurrency@@PAV123@@details@Concurrency@@CAIABQAV_TaskCollection@23@H@Z 00434c7c f i libconcrt:TaskCollection.obj
 0001:00033c7c       ?HashValue@?$Hash@II@details@Concurrency@@CAIABIH@Z 00434c7c f i libconcrt:SchedulerBase.obj
 0001:00033ca8       ?Insert@?$Hash@PAV_TaskCollection@details@Concurrency@@PAV123@@details@Concurrency@@QAEPAUListNode@123@ABQAV_TaskCollection@23@0@Z 00434ca8 f i libconcrt:TaskCollection.obj
 0001:00033ca8       ?Insert@?$Hash@II@details@Concurrency@@QAEPAUListNode@123@ABI0@Z 00434ca8 f i libconcrt:SchedulerBase.obj
 0001:00033d10       ?Lookup@?$Hash@II@details@Concurrency@@AAEPAUListNode@123@ABIH@Z 00434d10 f i libconcrt:SchedulerBase.obj
 0001:00033d10       ?Lookup@?$Hash@PAV_TaskCollection@details@Concurrency@@PAV123@@details@Concurrency@@AAEPAUListNode@123@ABQAV_TaskCollection@23@H@Z 00434d10 f i libconcrt:TaskCollection.obj
 0001:00033d3a       ?Remove@?$Hash@PAV_TaskCollection@details@Concurrency@@PAV123@@details@Concurrency@@AAEPAUListNode@123@ABQAV_TaskCollection@23@H@Z 00434d3a f i libconcrt:TaskCollection.obj
 0001:00033d88       ?_Abort@_StructuredTaskCollection@details@Concurrency@@AAEXXZ 00434d88 f   libconcrt:TaskCollection.obj
 0001:00033e3c       ?_Abort@_TaskCollection@details@Concurrency@@AAEX_N@Z 00434e3c f   libconcrt:TaskCollection.obj
 0001:00033f6b       ?_AbortiveSweep@_TaskCollection@details@Concurrency@@AAEXPAX@Z 00434f6b f   libconcrt:TaskCollection.obj
 0001:00033fb3       ?_Alias@_TaskCollection@details@Concurrency@@AAEPAV123@XZ 00434fb3 f   libconcrt:TaskCollection.obj
 0001:00034034       ?_Cancel@_StructuredTaskCollection@details@Concurrency@@QAEXXZ 00435034 f   libconcrt:TaskCollection.obj
 0001:00034089       ?_Cancel@_TaskCollection@details@Concurrency@@AAEX_NPAV123@@Z 00435089 f   libconcrt:TaskCollection.obj
 0001:00034128       ?_CancelDirectAliases@_TaskCollection@details@Concurrency@@AAEX_NPAV123@@Z 00435128 f   libconcrt:TaskCollection.obj
 0001:00034147       ?_CancelFromArbitraryThread@_TaskCollection@details@Concurrency@@AAEX_N@Z 00435147 f   libconcrt:TaskCollection.obj
 0001:000341ea       ?_CancelStolenContexts@_TaskCollection@details@Concurrency@@AAEX_N0@Z 004351ea f   libconcrt:TaskCollection.obj
 0001:00034275       ?_CleanupToken@_StructuredTaskCollection@details@Concurrency@@AAEXXZ 00435275 f   libconcrt:TaskCollection.obj
 0001:000342b1       ?_CollectionMatchPredicate@_TaskCollection@details@Concurrency@@CA_NPAV_UnrealizedChore@23@PAX@Z 004352b1 f   libconcrt:TaskCollection.obj
 0001:000342c4       ?_CountUp@_StructuredTaskCollection@details@Concurrency@@AAEXXZ 004352c4 f   libconcrt:TaskCollection.obj
 0001:000342f2       ?_FullAliasWait@_TaskCollection@details@Concurrency@@AAEXPAV123@@Z 004352f2 f   libconcrt:TaskCollection.obj
 0001:000343cf       ?_GetStealTrackingList@_TaskCollection@details@Concurrency@@ABEPAXXZ 004353cf f   libconcrt:TaskCollection.obj
 0001:000343d3       ?_InitOnRawMalloca@?$_MallocaArrayHolder@PAVContext@Concurrency@@@details@Concurrency@@QAEPAPAVContext@3@PAX@Z 004353d3 f i libconcrt:event.obj
 0001:000343d3       ?_InitOnRawMalloca@?$_MallocaArrayHolder@PAVevent@Concurrency@@@details@Concurrency@@QAEPAPAVevent@3@PAX@Z 004353d3 f i libconcrt:TaskCollection.obj
 0001:00034402       ?_Initialize@_StructuredTaskCollection@details@Concurrency@@AAEXXZ 00435402 f   libconcrt:TaskCollection.obj
 0001:0003444d       ?_Initialize@_TaskCollection@details@Concurrency@@AAEXXZ 0043544d f   libconcrt:TaskCollection.obj
 0001:00034463       ?_IsDirectAlias@_TaskCollection@details@Concurrency@@ABE_NXZ 00435463 f   libconcrt:TaskCollection.obj
 0001:00034475       ?_IsIndirectAlias@_TaskCollection@details@Concurrency@@ABE_NXZ 00435475 f   libconcrt:TaskCollection.obj
 0001:00034487       ?_IsMarkedForAbnormalExit@_TaskCollection@details@Concurrency@@QBE_NXZ 00435487 f   libconcrt:TaskCollection.obj
 0001:00034492       ?_IsStaleAlias@_TaskCollection@details@Concurrency@@ABE_NXZ 00435492 f   libconcrt:TaskCollection.obj
 0001:0003449a       ?_NotifyCompletedChoreAndFree@_TaskCollection@details@Concurrency@@AAEXPAV_UnrealizedChore@23@@Z 0043549a f   libconcrt:TaskCollection.obj
 0001:000344e9       ?_OriginalCollection@_TaskCollection@details@Concurrency@@QBEPAV123@XZ 004354e9 f   libconcrt:TaskCollection.obj
 0001:000344ed       ?_ReleaseAlias@_TaskCollection@details@Concurrency@@AAEXXZ 004354ed f   libconcrt:TaskCollection.obj
 0001:00034527       ?_Reset@_TaskCollection@details@Concurrency@@AAEXPAV123@@Z 00435527 f   libconcrt:TaskCollection.obj
 0001:00034622       ?_RunAndWait@_StructuredTaskCollection@details@Concurrency@@QAG?AW4_TaskCollectionStatus@23@PAV_UnrealizedChore@23@@Z 00435622 f   libconcrt:TaskCollection.obj
 0001:000348bf       ?_Schedule@_StructuredTaskCollection@details@Concurrency@@QAEXPAV_UnrealizedChore@23@@Z 004358bf f   libconcrt:TaskCollection.obj
 0001:00034913       ?_SetCancelState@_TaskCollection@details@Concurrency@@AAE_NJ@Z 00435913 f   libconcrt:TaskCollection.obj
 0001:0003494d       ?_SweepAbortedChore@_TaskCollection@details@Concurrency@@CA_NPAV_UnrealizedChore@23@PAX@Z 0043594d f   libconcrt:TaskCollection.obj
 0001:00034966       ?_TaskCleanup@_TaskCollection@details@Concurrency@@AAE_N_N@Z 00435966 f   libconcrt:TaskCollection.obj
 0001:000349ba       ?_WaitOnStolenChores@_StructuredTaskCollection@details@Concurrency@@AAEXJ@Z 004359ba f   libconcrt:TaskCollection.obj
 0001:000349ee       __freea                    004359ee f i libconcrt:TaskCollection.obj
 0001:00034a0c       ??0?$Hash@II@details@Concurrency@@QAE@H@Z 00435a0c f i libconcrt:SchedulerBase.obj
 0001:00034a0c       ??0?$Hash@PAV_TaskCollection@details@Concurrency@@PAV123@@details@Concurrency@@QAE@H@Z 00435a0c f i libconcrt:ContextBase.obj
 0001:00034a4a       ??0CancellationBeaconNode@CancellationBeaconStack@ContextBase@details@Concurrency@@QAE@XZ 00435a4a f i libconcrt:ContextBase.obj
 0001:00034a62       ??0CancellationBeaconStack@ContextBase@details@Concurrency@@QAE@XZ 00435a62 f i libconcrt:ContextBase.obj
 0001:00034a7b       ??0ContextBase@details@Concurrency@@QAE@PAVSchedulerBase@12@_N@Z 00435a7b f   libconcrt:ContextBase.obj
 0001:00034b4d       ??0Slot@?$Mailbox@VInternalContextBase@details@Concurrency@@@details@Concurrency@@QAE@XZ 00435b4d f i libconcrt:VirtualProcessor.obj
 0001:00034b4d       ??0Slot@?$Mailbox@V_UnrealizedChore@details@Concurrency@@@details@Concurrency@@QAE@XZ 00435b4d f i libconcrt:ContextBase.obj
 0001:00034b57       ??0_Cancellation_beacon@details@Concurrency@@QAE@XZ 00435b57 f   libconcrt:ContextBase.obj
 0001:00034b6c       ??1?$Hash@PAV_TaskCollection@details@Concurrency@@PAV123@@details@Concurrency@@QAE@XZ 00435b6c f i libconcrt:ContextBase.obj
 0001:00034b6c       ??1?$Hash@II@details@Concurrency@@QAE@XZ 00435b6c f i libconcrt:SchedulerBase.obj
 0001:00034b7f       ??1?$StructuredWorkStealingQueue@V_UnrealizedChore@details@Concurrency@@V_CriticalNonReentrantLock@23@@details@Concurrency@@QAE@XZ 00435b7f f i libconcrt:ContextBase.obj
 0001:00034b7f       ??1?$StructuredWorkStealingQueue@VInternalContextBase@details@Concurrency@@V_HyperNonReentrantLock@23@@details@Concurrency@@QAE@XZ 00435b7f f i libconcrt:VirtualProcessor.obj
 0001:00034b96       ??1?$WorkStealingQueue@V_UnrealizedChore@details@Concurrency@@V_CriticalNonReentrantLock@23@@details@Concurrency@@QAE@XZ 00435b96 f i libconcrt:ContextBase.obj
 0001:00034bad       ??1CancellationBeaconStack@ContextBase@details@Concurrency@@QAE@XZ 00435bad f i libconcrt:ContextBase.obj
 0001:00034be9       ??1Context@Concurrency@@MAE@XZ 00435be9 f i libconcrt:ContextBase.obj
 0001:00034bf0       ??1ContextBase@details@Concurrency@@UAE@XZ 00435bf0 f i libconcrt:ContextBase.obj
 0001:00034c1e       ??1QuickBitSet@details@Concurrency@@QAE@XZ 00435c1e f i libconcrt:ContextBase.obj
 0001:00034c28       ??1Segment@?$Mailbox@VInternalContextBase@details@Concurrency@@@details@Concurrency@@QAE@XZ 00435c28 f i libconcrt:VirtualProcessor.obj
 0001:00034c28       ??1Segment@?$Mailbox@V_UnrealizedChore@details@Concurrency@@@details@Concurrency@@QAE@XZ 00435c28 f i libconcrt:ContextBase.obj
 0001:00034c3f       ??1_Cancellation_beacon@details@Concurrency@@QAE@XZ 00435c3f f   libconcrt:ContextBase.obj
 0001:00034c79       ??1_Scoped_lock@_CriticalNonReentrantLock@details@Concurrency@@QAE@XZ 00435c79 f i libconcrt:ContextBase.obj
 0001:00034c79       ??1_Scoped_lock@_HyperNonReentrantLock@details@Concurrency@@QAE@XZ 00435c79 f i libconcrt:SchedulerBase.obj
 0001:00034caf       ??8location@Concurrency@@QBE_NABV01@@Z 00435caf f i libconcrt:ContextBase.obj
 0001:00034cd2       ??ACancellationBeaconStack@ContextBase@details@Concurrency@@QAEPAUCancellationBeacon@123@J@Z 00435cd2 f i libconcrt:ContextBase.obj
 0001:00034d06       ??_EContext@Concurrency@@MAEPAXI@Z 00435d06 f i libconcrt:ContextBase.obj
 0001:00034d06       ??_GContext@Concurrency@@MAEPAXI@Z 00435d06 f i libconcrt:ContextBase.obj
 0001:00034d29       ??_EContextBase@details@Concurrency@@UAEPAXI@Z 00435d29 f i libconcrt:ContextBase.obj
 0001:00034d29       ??_GContextBase@details@Concurrency@@UAEPAXI@Z 00435d29 f i libconcrt:ContextBase.obj
 0001:00034d4e       ??_GWorkQueue@details@Concurrency@@QAEPAXI@Z 00435d4e f i libconcrt:ContextBase.obj
 0001:00034d7a       ?AcquirePushBeacon@CancellationBeaconStack@ContextBase@details@Concurrency@@QAEPAUCancellationBeacon@234@H@Z 00435d7a f i libconcrt:ContextBase.obj
 0001:00034db2       ?Add@?$ListArray@VWorkQueue@details@Concurrency@@@details@Concurrency@@QAEHPAVWorkQueue@23@@Z 00435db2 f i libconcrt:ContextBase.obj
 0001:00034f14       ?AddStealer@ContextBase@details@Concurrency@@QAEXPAV123@_N@Z 00435f14 f   libconcrt:ContextBase.obj
 0001:00034f3e       ?CancelCollection@ContextBase@details@Concurrency@@QAEXH@Z 00435f3e f   libconcrt:ContextBase.obj
 0001:00034fa5       ?CancelCollectionComplete@ContextBase@details@Concurrency@@QAE_NH@Z 00435fa5 f   libconcrt:ContextBase.obj
 0001:00034fd5       ?CancelStealers@ContextBase@details@Concurrency@@QAEXPAV_TaskCollectionBase@23@@Z 00435fd5 f   libconcrt:ContextBase.obj
 0001:0003509f       ?CheckForDeletion@?$ListArray@VWorkQueue@details@Concurrency@@@details@Concurrency@@AAEXXZ 0043609f f i libconcrt:ContextBase.obj
 0001:000350c5       ?CheckForDeletionBridge@?$ListArray@VWorkQueue@details@Concurrency@@@details@Concurrency@@CAXPAV123@@Z 004360c5 f i libconcrt:ContextBase.obj
 0001:000350d1       ?Claim@Slot@?$Mailbox@VInternalContextBase@details@Concurrency@@@details@Concurrency@@QAE_NPAPAVInternalContextBase@34@@Z 004360d1 f i libconcrt:VirtualProcessor.obj
 0001:000350d1       ?Claim@Slot@?$Mailbox@V_UnrealizedChore@details@Concurrency@@@details@Concurrency@@QAE_NPAPAV_UnrealizedChore@34@@Z 004360d1 f i libconcrt:ContextBase.obj
 0001:00035118       ?Cleanup@ContextBase@details@Concurrency@@QAEXXZ 00436118 f   libconcrt:ContextBase.obj
 0001:00035149       ?ClearAliasTable@ContextBase@details@Concurrency@@QAEXXZ 00436149 f   libconcrt:ContextBase.obj
 0001:00035188       ?ClearContextTls@ContextBase@details@Concurrency@@AAEXXZ 00436188 f   libconcrt:ContextBase.obj
 0001:00035198       ?CreateStructuredWorkQueue@ContextBase@details@Concurrency@@QAEXXZ 00436198 f   libconcrt:ContextBase.obj
 0001:00035218       ?CreateWorkQueue@ContextBase@details@Concurrency@@QAEXXZ 00436218 f   libconcrt:ContextBase.obj
 0001:00035298       ?DeleteElements@?$ListArray@VWorkQueue@details@Concurrency@@@details@Concurrency@@AAEXPAU_SINGLE_LIST_ENTRY@@@Z 00436298 f i libconcrt:ContextBase.obj
 0001:000352ba       ?Dereference@Segment@?$Mailbox@V_UnrealizedChore@details@Concurrency@@@details@Concurrency@@QAEXXZ 004362ba f i libconcrt:ContextBase.obj
 0001:000352ba       ?Dereference@Segment@?$Mailbox@VInternalContextBase@details@Concurrency@@@details@Concurrency@@QAEXXZ 004362ba f i libconcrt:VirtualProcessor.obj
 0001:000352d5       ?DetachStealers@ContextBase@details@Concurrency@@QAEXXZ 004362d5 f   libconcrt:ContextBase.obj
 0001:00035417       ?EnterCriticalRegionHelper@ContextBase@details@Concurrency@@UAEHXZ 00436417 f i libconcrt:ContextBase.obj
 0001:0003541f       ?EnterHyperCriticalRegionHelper@ContextBase@details@Concurrency@@UAEHXZ 0043641f f i libconcrt:ContextBase.obj
 0001:0003542a       ?ExitCriticalRegionHelper@ContextBase@details@Concurrency@@UAEHXZ 0043642a f i libconcrt:ContextBase.obj
 0001:00035432       ?ExitHyperCriticalRegionHelper@ContextBase@details@Concurrency@@UAEHXZ 00436432 f i libconcrt:ContextBase.obj
 0001:0003543d       ?FlagCancellationBeacons@ContextBase@details@Concurrency@@QAEXH@Z 0043643d f   libconcrt:ContextBase.obj
 0001:00035485       ?GetCriticalRegionType@ContextBase@details@Concurrency@@UBE?AW4CriticalRegionType@3@XZ 00436485 f i libconcrt:ContextBase.obj
 0001:00035499       ?GetId@ContextBase@details@Concurrency@@UBEIXZ 00436499 f   libconcrt:ContextBase.obj
 0001:0003549d       ?GetIndirectAlias@ContextBase@details@Concurrency@@QBEPAV_TaskCollection@23@XZ 0043649d f   libconcrt:ContextBase.obj
 0001:000354a1       ?GetScheduleGroup@ContextBase@details@Concurrency@@QBEPAVScheduleGroupBase@23@XZ 004364a1 f   libconcrt:ContextBase.obj
 0001:000354b2       ?GetScheduleGroupId@ContextBase@details@Concurrency@@UBEIXZ 004364b2 f   libconcrt:ContextBase.obj
 0001:000354da       ?GetAvailableNodeCount@ResourceManager@details@Concurrency@@UBEIXZ 004364da f   libconcrt:ResourceManager.obj
 0001:000354da       ?GetScheduleGroupSegment@ContextBase@details@Concurrency@@QBEPAVScheduleGroupSegmentBase@23@XZ 004364da f   libconcrt:ContextBase.obj
 0001:000354de       ?Id@ScheduleGroupBase@details@Concurrency@@UBEIXZ 004364de f   libconcrt:SchedulerBase.obj
 0001:000354de       ?GetScheduler@ContextBase@details@Concurrency@@QBEPAVSchedulerBase@23@XZ 004364de f   libconcrt:ContextBase.obj
 0001:000354e2       ?Grow@CancellationBeaconStack@ContextBase@details@Concurrency@@AAEXXZ 004364e2 f i libconcrt:ContextBase.obj
 0001:0003557f       ?GrowAndPush@?$StructuredWorkStealingQueue@V_UnrealizedChore@details@Concurrency@@V_CriticalNonReentrantLock@23@@details@Concurrency@@AAEXPAV_UnrealizedChore@23@VSlot@?$Mailbox@V_UnrealizedChore@details@Concurrency@@@23@@Z 0043657f f i libconcrt:ContextBase.obj
 0001:0003557f       ?GrowAndPush@?$StructuredWorkStealingQueue@VInternalContextBase@details@Concurrency@@V_HyperNonReentrantLock@23@@details@Concurrency@@AAEXPAVInternalContextBase@23@VSlot@?$Mailbox@VInternalContextBase@details@Concurrency@@@23@@Z 0043657f f i libconcrt:InternalContextBase.obj
 0001:000356f7       ?IsCanceledAtDepth@ContextBase@details@Concurrency@@AAE_NPAV_TaskCollectionBase@23@H@Z 004366f7 f   libconcrt:ContextBase.obj
 0001:000357d7       ?IsCancellationVisible@ContextBase@details@Concurrency@@QBE_NPAV_TaskCollectionBase@23@_N@Z 004367d7 f   libconcrt:ContextBase.obj
 0001:0003580f       ?LockedSetOwningContext@WorkQueue@details@Concurrency@@QAEXPAVContextBase@23@@Z 0043680f f i libconcrt:ContextBase.obj
 0001:00035832       ?NextList@?$Hash@PAV_TaskCollection@details@Concurrency@@PAV123@@details@Concurrency@@AAEPAUListNode@123@PAH@Z 00436832 f i libconcrt:ContextBase.obj
 0001:00035863       ?Pop@?$StructuredWorkStealingQueue@VInternalContextBase@details@Concurrency@@V_HyperNonReentrantLock@23@@details@Concurrency@@QAEPAVInternalContextBase@23@XZ 00436863 f i libconcrt:VirtualProcessor.obj
 0001:00035863       ?Pop@?$StructuredWorkStealingQueue@V_UnrealizedChore@details@Concurrency@@V_CriticalNonReentrantLock@23@@details@Concurrency@@QAEPAV_UnrealizedChore@23@XZ 00436863 f i libconcrt:ContextBase.obj
 0001:000358b1       ?Pop@?$WorkStealingQueue@V_UnrealizedChore@details@Concurrency@@V_CriticalNonReentrantLock@23@@details@Concurrency@@QAEPAV_UnrealizedChore@23@XZ 004368b1 f i libconcrt:ContextBase.obj
 0001:00035902       ?PopContextFromTls@ContextBase@details@Concurrency@@AAEPAV123@XZ 00436902 f   libconcrt:ContextBase.obj
 0001:00035920       ?PopGoverningTokenState@ContextBase@details@Concurrency@@QAEXPAV_CancellationTokenState@23@@Z 00436920 f   libconcrt:ContextBase.obj
 0001:00035980       ?PopStructured@ContextBase@details@Concurrency@@QAEPAV_UnrealizedChore@23@XZ 00436980 f   libconcrt:ContextBase.obj
 0001:00035988       ?Push@?$StructuredWorkStealingQueue@V_UnrealizedChore@details@Concurrency@@V_CriticalNonReentrantLock@23@@details@Concurrency@@QAEXPAV_UnrealizedChore@23@@Z 00436988 f i libconcrt:ContextBase.obj
 0001:00035988       ?Push@?$StructuredWorkStealingQueue@VInternalContextBase@details@Concurrency@@V_HyperNonReentrantLock@23@@details@Concurrency@@QAEXPAVInternalContextBase@23@@Z 00436988 f i libconcrt:InternalContextBase.obj
 0001:000359c9       ?PushCancellationBeacon@ContextBase@details@Concurrency@@QAEPAU_Beacon_reference@23@XZ 004369c9 f   libconcrt:ContextBase.obj
 0001:00035a06       ?PushContextToTls@ContextBase@details@Concurrency@@AAEXPAV123@@Z 00436a06 f   libconcrt:ContextBase.obj
 0001:00035a21       ?PushGoverningTokenState@ContextBase@details@Concurrency@@QAEXPAV_CancellationTokenState@23@H@Z 00436a21 f   libconcrt:ContextBase.obj
 0001:00035a34       ?PushStructured@ContextBase@details@Concurrency@@QAEXPAV_UnrealizedChore@23@@Z 00436a34 f   libconcrt:ContextBase.obj
 0001:00035aaf       ?RecomputeMaximumCancellationDepth@ContextBase@details@Concurrency@@AAEXXZ 00436aaf f   libconcrt:ContextBase.obj
 0001:00035b32       ?ReferenceForCancellation@ContextBase@details@Concurrency@@QAEXXZ 00436b32 f   libconcrt:ContextBase.obj
 0001:00035b37       ?ReleaseWorkQueue@ContextBase@details@Concurrency@@IAEXXZ 00436b37 f   libconcrt:ContextBase.obj
 0001:00035b8e       ?Remove@?$ListArray@VWorkQueue@details@Concurrency@@@details@Concurrency@@QAE_NPAVWorkQueue@23@H_N@Z 00436b8e f i libconcrt:ContextBase.obj
 0001:00035c7f       ?RemoveStealer@ContextBase@details@Concurrency@@QAEXPAV123@@Z 00436c7f f   libconcrt:ContextBase.obj
 0001:00035c95       ?SetAsCurrentTls@ContextBase@details@Concurrency@@IAEXXZ 00436c95 f   libconcrt:ContextBase.obj
 0001:00035ca4       ?StaticDelete@Segment@?$Mailbox@VInternalContextBase@details@Concurrency@@@details@Concurrency@@SAXPAU1234@@Z 00436ca4 f i libconcrt:VirtualProcessor.obj
 0001:00035ca4       ?StaticDelete@Segment@?$Mailbox@V_UnrealizedChore@details@Concurrency@@@details@Concurrency@@SAXPAU1234@@Z 00436ca4 f i libconcrt:ContextBase.obj
 0001:00035cc3       ?StaticEnterHyperCriticalRegion@ContextBase@details@Concurrency@@SAXXZ 00436cc3 f   libconcrt:ContextBase.obj
 0001:00035cc3       ?StaticExitCriticalRegion@ContextBase@details@Concurrency@@SAXXZ 00436cc3 f   libconcrt:ContextBase.obj
 0001:00035cc3       ?StaticEnterCriticalRegion@ContextBase@details@Concurrency@@SAXXZ 00436cc3 f   libconcrt:ContextBase.obj
 0001:00035cc3       ?StaticExitHyperCriticalRegion@ContextBase@details@Concurrency@@SAXXZ 00436cc3 f   libconcrt:ContextBase.obj
 0001:00035cc8       ?SweepAliasTable@ContextBase@details@Concurrency@@QAEXXZ 00436cc8 f   libconcrt:ContextBase.obj
 0001:00035d4a       ?SweepUnstructured@ContextBase@details@Concurrency@@QAEXP6A_NPAV_UnrealizedChore@23@PAX@Z12@Z 00436d4a f   libconcrt:ContextBase.obj
 0001:00035d56       ?SyncPop@?$WorkStealingQueue@V_UnrealizedChore@details@Concurrency@@V_CriticalNonReentrantLock@23@@details@Concurrency@@AAEPAV_UnrealizedChore@23@XZ 00436d56 f i libconcrt:ContextBase.obj
 0001:00035def       ?ThrowContextEvent@ContextBase@details@Concurrency@@KAXW4ConcRT_EventType@3@EKK@Z 00436def f   libconcrt:ContextBase.obj
 0001:00035e60       ?TokenHidesCancellation@ContextBase@details@Concurrency@@QBE_NPAV_TaskCollectionBase@23@_N@Z 00436e60 f   libconcrt:ContextBase.obj
 0001:00035eac       ?TraceContextEvent@ContextBase@details@Concurrency@@IAEXW4ConcRT_EventType@3@EKK@Z 00436eac f i libconcrt:ContextBase.obj
 0001:00035ed9       ?TryPop@?$WorkStealingQueue@V_UnrealizedChore@details@Concurrency@@V_CriticalNonReentrantLock@23@@details@Concurrency@@QAEPAV_UnrealizedChore@23@H@Z 00436ed9 f i libconcrt:ContextBase.obj
 0001:00035f3c       ?TryPopUnstructured@ContextBase@details@Concurrency@@QAEPAV_UnrealizedChore@23@H@Z 00436f3c f   libconcrt:ContextBase.obj
 0001:00035f4b       ?Wipe@?$Hash@II@details@Concurrency@@QAEXXZ 00436f4b f i libconcrt:SchedulerBase.obj
 0001:00035f4b       ?Wipe@?$Hash@PAV_TaskCollection@details@Concurrency@@PAV123@@details@Concurrency@@QAEXXZ 00436f4b f i libconcrt:ContextBase.obj
 0001:00035f98       ?_Assign@location@Concurrency@@QAEXABV12@@Z 00436f98 f i libconcrt:ContextBase.obj
 0001:00035fcd       ?_Confirm_cancel@_Cancellation_beacon@details@Concurrency@@QAE_NXZ 00436fcd f   libconcrt:ContextBase.obj
 0001:00035fef       ?_SafeGetParent@_TaskCollectionBase@details@Concurrency@@IAEPAV123@XZ 00436fef f i libconcrt:ContextBase.obj
 0001:00036003       ??0Etw@details@Concurrency@@AAE@XZ 00437003 f   libconcrt:Trace.obj
 0001:000360fd       ??1_Scoped_lock@_NonReentrantLock@details@Concurrency@@QAE@XZ 004370fd f i libconcrt:Trace.obj
 0001:00036106       ?ControlCallback@details@Concurrency@@YGKW4WMIDPREQUESTCODE@@PAXPAK1@Z 00437106 f   libconcrt:Trace.obj
 0001:000361cc       ?GetEnableFlags@Etw@details@Concurrency@@QAEK_K@Z 004371cc f   libconcrt:Trace.obj
 0001:00036209       ?GetEnableLevel@Etw@details@Concurrency@@QAEE_K@Z 00437209 f   libconcrt:Trace.obj
 0001:00036246       ?GetLoggerHandle@Etw@details@Concurrency@@QAE_KPAX@Z 00437246 f   libconcrt:Trace.obj
 0001:00036283       ?PPL_Trace_Event@details@Concurrency@@YAXABU_GUID@@W4ConcRT_EventType@2@E@Z 00437283 f   libconcrt:Trace.obj
 0001:000362e6       ?RegisterGuids@Etw@details@Concurrency@@QAEKP6GKW4WMIDPREQUESTCODE@@PAXPAK1@ZPBU_GUID@@KPAU_TRACE_GUID_REGISTRATION@@PA_K@Z 004372e6 f   libconcrt:Trace.obj
 0001:0003632a       ?Trace@Etw@details@Concurrency@@QAEK_KPAU_EVENT_TRACE_HEADER@@@Z 0043732a f   libconcrt:Trace.obj
 0001:00036363       ?UnregisterGuids@Etw@details@Concurrency@@QAEK_K@Z 00437363 f   libconcrt:Trace.obj
 0001:00036399       ?_GetConcRTTraceInfo@Concurrency@@YAPBU_CONCRT_TRACE_INFO@details@1@XZ 00437399 f   libconcrt:Trace.obj
 0001:000363ad       ?_RegisterConcRTEventTracing@details@Concurrency@@YAXXZ 004373ad f   libconcrt:Trace.obj
 0001:0003641c       ?_Trace_ppl_function@Concurrency@@YAXABU_GUID@@EW4ConcRT_EventType@1@@Z 0043741c f   libconcrt:Trace.obj
 0001:00036443       ?_UnregisterConcRTEventTracing@details@Concurrency@@YAXXZ 00437443 f   libconcrt:Trace.obj
 0001:00036486       ?_GetCombinableSize@details@Concurrency@@YAIXZ 00437486 f   libconcrt:ppl.obj
 0001:000364b5       ??1DefaultWaiterPool@platform@details@Concurrency@@QAE@XZ 004374b5 f i libconcrt:Platform.obj
 0001:000364da       ??1WaiterThreadPool@platform@details@Concurrency@@QAE@XZ 004374da f i libconcrt:Platform.obj
 0001:000364fc       ?InitializeSystemFunctionPointers@platform@details@Concurrency@@YAXXZ 004374fc f   libconcrt:Platform.obj
 0001:000365ad       ?__ChangeTimerQueueTimer@platform@details@Concurrency@@YAHPAX0KK@Z 004375ad f   libconcrt:Platform.obj
 0001:000365c4       ?__CloseThreadHandle@platform@details@Concurrency@@YAXPAX@Z 004375c4 f   libconcrt:Platform.obj
 0001:000365d2       ?__CreateAutoResetEvent@platform@details@Concurrency@@YAPAX_N@Z 004375d2 f   libconcrt:Platform.obj
 0001:00036620       ?__CreateThread@platform@details@Concurrency@@YAPAXPAU_SECURITY_ATTRIBUTES@@IP6GKPAX@Z1KPAK@Z 00437620 f   libconcrt:Platform.obj
 0001:0003663d       ?__CreateTimerQueueTimer@platform@details@Concurrency@@YAHPAPAXPAXP6GX1E@Z1KKK@Z 0043763d f   libconcrt:Platform.obj
 0001:0003665d       ?__DeleteTimerQueueTimer@platform@details@Concurrency@@YAXPAX00@Z 0043765d f   libconcrt:Platform.obj
 0001:0003668c       ?__GetCurrentProcessorNumberEx@platform@details@Concurrency@@YAXPAU_PROCESSOR_NUMBER@@@Z 0043768c f   libconcrt:Platform.obj
 0001:000366ae       ?__GetLogicalProcessorInformation@platform@details@Concurrency@@YAPAU_SYSTEM_LOGICAL_PROCESSOR_INFORMATION@@PAK@Z 004376ae f   libconcrt:Platform.obj
 0001:00036735       ?__GetLogicalProcessorInformationEx@platform@details@Concurrency@@YAPAU_SYSTEM_LOGICAL_PROCESSOR_INFORMATION_EX@@W4_LOGICAL_PROCESSOR_RELATIONSHIP@@PAK@Z 00437735 f   libconcrt:Platform.obj
 0001:000367e9       ?__GetNumaHighestNodeNumber@platform@details@Concurrency@@YAKXZ 004377e9 f   libconcrt:Platform.obj
 0001:0003682c       ?__GetThreadGroupAffinity@platform@details@Concurrency@@YAHPAXPAU_GROUP_AFFINITY@@@Z 0043782c f   libconcrt:Platform.obj
 0001:00036885       ?__GetThreadPriority@platform@details@Concurrency@@YAHPAX@Z 00437885 f   libconcrt:Platform.obj
 0001:00036893       ?__GetTickCount64@platform@details@Concurrency@@YA_KXZ 00437893 f   libconcrt:Platform.obj
 0001:00036898       ?__InitializeCriticalSectionEx@platform@details@Concurrency@@YAHPAU_RTL_CRITICAL_SECTION@@K@Z 00437898 f   libconcrt:Platform.obj
 0001:000368ad       ?__RegisterWaitForSingleObject@platform@details@Concurrency@@YAPAXPAXP6GX0E@Z0@Z 004378ad f   libconcrt:Platform.obj
 0001:000368fd       ?__SetThreadGroupAffinity@platform@details@Concurrency@@YAHPAXPBU_GROUP_AFFINITY@@@Z 004378fd f   libconcrt:Platform.obj
 0001:00036941       ?__SetThreadPriority@platform@details@Concurrency@@YAXPAXH@Z 00437941 f   libconcrt:Platform.obj
 0001:00036983       ?__SignalObjectAndWait@platform@details@Concurrency@@YAKPAX0KH@Z 00437983 f   libconcrt:Platform.obj
 0001:0003699a       ?__Sleep@platform@details@Concurrency@@YAXK@Z 0043799a f   libconcrt:Platform.obj
 0001:000369a8       ?__SwitchToThread@platform@details@Concurrency@@YAXXZ 004379a8 f   libconcrt:Platform.obj
 0001:000369ae       ?__TlsAlloc@platform@details@Concurrency@@YAKXZ 004379ae f   libconcrt:Platform.obj
 0001:000369eb       ?__TlsFree@platform@details@Concurrency@@YAXK@Z 004379eb f   libconcrt:Platform.obj
 0001:000369f9       ?__TlsGetValue@platform@details@Concurrency@@YAPAXK@Z 004379f9 f   libconcrt:Platform.obj
 0001:00036a07       ?__TlsSetValue@platform@details@Concurrency@@YAXKPAX@Z 00437a07 f   libconcrt:Platform.obj
 0001:00036a49       ?__UnregisterWait@platform@details@Concurrency@@YAXPAX@Z 00437a49 f   libconcrt:Platform.obj
 0001:00036a57       ?__WaitForThread@platform@details@Concurrency@@YAKPAXK@Z 00437a57 f   libconcrt:Platform.obj
 0001:00036a6a       ?notify@WaiterThread@platform@details@Concurrency@@AAEX_N@Z 00437a6a f i libconcrt:Platform.obj
 0001:00036a9e       ??$_InternalDeleteHelper@VExternalContextBase@details@Concurrency@@@details@Concurrency@@YAXPAVExternalContextBase@01@@Z 00437a9e f i libconcrt:SchedulerBase.obj
 0001:00036ac1       ??$_InternalDeleteHelper@VInternalContextBase@details@Concurrency@@@details@Concurrency@@YAXPAVInternalContextBase@01@@Z 00437ac1 f i libconcrt:SchedulerBase.obj
 0001:00036ae6       ??$_InternalDeleteHelper@VScheduleGroupBase@details@Concurrency@@@details@Concurrency@@YAXPAVScheduleGroupBase@01@@Z 00437ae6 f i libconcrt:SchedulerBase.obj
 0001:00036b09       ??0?$ListArray@VExternalStatistics@details@Concurrency@@@details@Concurrency@@QAE@PAVSchedulerBase@12@HH@Z 00437b09 f i libconcrt:SchedulerBase.obj
 0001:00036b09       ??0?$ListArray@VVirtualProcessor@details@Concurrency@@@details@Concurrency@@QAE@PAVSchedulerBase@12@HH@Z 00437b09 f i libconcrt:SchedulingNode.obj
 0001:00036b09       ??0?$ListArray@VScheduleGroupSegmentBase@details@Concurrency@@@details@Concurrency@@QAE@PAVSchedulerBase@12@HH@Z 00437b09 f i libconcrt:SchedulingRing.obj
 0001:00036b09       ??0?$ListArray@U?$ListArrayInlineLink@VWorkQueue@details@Concurrency@@@details@Concurrency@@@details@Concurrency@@QAE@PAVSchedulerBase@12@HH@Z 00437b09 f i libconcrt:ScheduleGroupBase.obj
 0001:00036b09       ??0?$ListArray@VScheduleGroupBase@details@Concurrency@@@details@Concurrency@@QAE@PAVSchedulerBase@12@HH@Z 00437b09 f i libconcrt:SchedulerBase.obj
 0001:00036b09       ??0?$ListArray@VWorkQueue@details@Concurrency@@@details@Concurrency@@QAE@PAVSchedulerBase@12@HH@Z 00437b09 f i libconcrt:ScheduleGroupBase.obj
 0001:00036c00       ??0CacheLocalScheduleGroupSegment@details@Concurrency@@QAE@PAVScheduleGroupBase@12@PAVSchedulingRing@12@PAVlocation@2@@Z 00437c00 f i libconcrt:SchedulerBase.obj
 0001:00036c38       ??0FairScheduleGroupSegment@details@Concurrency@@QAE@PAVScheduleGroupBase@12@PAVSchedulingRing@12@PAVlocation@2@@Z 00437c38 f i libconcrt:SchedulerBase.obj
 0001:00036c70       ??0NumaInformation@SchedulerBase@details@Concurrency@@QAE@XZ 00437c70 f i libconcrt:SchedulerBase.obj
 0001:00036c88       ??0QuickBitSet@details@Concurrency@@QAE@I@Z 00437c88 f i libconcrt:SchedulerBase.obj
 0001:00036cce       ??0SchedulerBase@details@Concurrency@@QAE@ABVSchedulerPolicy@2@@Z 00437cce f   libconcrt:SchedulerBase.obj
 0001:00036fec       ??0improper_scheduler_attach@Concurrency@@QAE@ABV01@@Z 00437fec f i libconcrt:SchedulerBase.obj
 0001:00037007       ??0improper_scheduler_reference@Concurrency@@QAE@ABV01@@Z 00438007 f i libconcrt:SchedulerBase.obj
 0001:00037022       ??1?$ListArray@VExternalStatistics@details@Concurrency@@@details@Concurrency@@QAE@XZ 00438022 f i libconcrt:SchedulerBase.obj
 0001:0003709c       ??1?$ListArray@VScheduleGroupBase@details@Concurrency@@@details@Concurrency@@QAE@XZ 0043809c f i libconcrt:SchedulerBase.obj
 0001:00037113       ??1NumaInformation@SchedulerBase@details@Concurrency@@QAE@XZ 00438113 f i libconcrt:SchedulerBase.obj
 0001:0003712a       ??1ReferenceCountedQuickBitSet@details@Concurrency@@QAE@XZ 0043812a f i libconcrt:SchedulerBase.obj
 0001:00037141       ??1ScheduleGroup@Concurrency@@MAE@XZ 00438141 f i libconcrt:SchedulerBase.obj
 0001:00037148       ??1Scheduler@Concurrency@@MAE@XZ 00438148 f i libconcrt:SchedulerBase.obj
 0001:0003714f       ??1SchedulerBase@details@Concurrency@@UAE@XZ 0043814f f   libconcrt:SchedulerBase.obj
 0001:00037208       ??A?$ListArray@U?$ListArrayInlineLink@VWorkQueue@details@Concurrency@@@details@Concurrency@@@details@Concurrency@@QBEPAU?$ListArrayInlineLink@VWorkQueue@details@Concurrency@@@12@H@Z 00438208 f i libconcrt:ScheduleGroupBase.obj
 0001:00037208       ??A?$ListArray@VWorkQueue@details@Concurrency@@@details@Concurrency@@QBEPAVWorkQueue@12@H@Z 00438208 f i libconcrt:ScheduleGroupBase.obj
 0001:00037208       ??A?$ListArray@VVirtualProcessor@details@Concurrency@@@details@Concurrency@@QBEPAVVirtualProcessor@12@H@Z 00438208 f i libconcrt:SchedulerBase.obj
 0001:00037208       ??A?$ListArray@VScheduleGroupSegmentBase@details@Concurrency@@@details@Concurrency@@QBEPAVScheduleGroupSegmentBase@12@H@Z 00438208 f i libconcrt:SchedulerBase.obj
 0001:00037208       ??A?$ListArray@VExternalStatistics@details@Concurrency@@@details@Concurrency@@QBEPAVExternalStatistics@12@H@Z 00438208 f i libconcrt:SchedulerBase.obj
 0001:00037250       ??_ENumaInformation@SchedulerBase@details@Concurrency@@QAEPAXI@Z 00438250 f i libconcrt:SchedulerBase.obj
 0001:000372d1       ??_ECacheLocalScheduleGroup@details@Concurrency@@UAEPAXI@Z 004382d1 f i libconcrt:SchedulerBase.obj
 0001:000372d1       ??_GCacheLocalScheduleGroup@details@Concurrency@@UAEPAXI@Z 004382d1 f i libconcrt:SchedulerBase.obj
 0001:000372d1       ??_GScheduleGroupBase@details@Concurrency@@UAEPAXI@Z 004382d1 f i libconcrt:ScheduleGroupBase.obj
 0001:000372d1       ??_EScheduleGroupBase@details@Concurrency@@UAEPAXI@Z 004382d1 f i libconcrt:ScheduleGroupBase.obj
 0001:000372f4       ??_ECacheLocalScheduleGroupSegment@details@Concurrency@@UAEPAXI@Z 004382f4 f i libconcrt:SchedulerBase.obj
 0001:000372f4       ??_GCacheLocalScheduleGroupSegment@details@Concurrency@@UAEPAXI@Z 004382f4 f i libconcrt:SchedulerBase.obj
 0001:000372f4       ??_GFairScheduleGroupSegment@details@Concurrency@@UAEPAXI@Z 004382f4 f i libconcrt:SchedulerBase.obj
 0001:000372f4       ??_EFairScheduleGroupSegment@details@Concurrency@@UAEPAXI@Z 004382f4 f i libconcrt:SchedulerBase.obj
 0001:00037319       ??_EFairScheduleGroup@details@Concurrency@@UAEPAXI@Z 00438319 f i libconcrt:SchedulerBase.obj
 0001:00037319       ??_GFairScheduleGroup@details@Concurrency@@UAEPAXI@Z 00438319 f i libconcrt:SchedulerBase.obj
 0001:0003733c       ??_ERealizedChore@details@Concurrency@@UAEPAXI@Z 0043833c f i libconcrt:SchedulerBase.obj
 0001:0003733c       ??_GRealizedChore@details@Concurrency@@UAEPAXI@Z 0043833c f i libconcrt:SchedulerBase.obj
 0001:0003735f       ??_EScheduleGroup@Concurrency@@MAEPAXI@Z 0043835f f i libconcrt:SchedulerBase.obj
 0001:0003735f       ??_GScheduleGroup@Concurrency@@MAEPAXI@Z 0043835f f i libconcrt:SchedulerBase.obj
 0001:00037382       ??_GScheduler@Concurrency@@MAEPAXI@Z 00438382 f i libconcrt:SchedulerBase.obj
 0001:00037382       ??_EScheduler@Concurrency@@MAEPAXI@Z 00438382 f i libconcrt:SchedulerBase.obj
 0001:000373a5       ??_ESchedulerBase@details@Concurrency@@UAEPAXI@Z 004383a5 f i libconcrt:SchedulerBase.obj
 0001:000373a5       ??_GSchedulerBase@details@Concurrency@@UAEPAXI@Z 004383a5 f i libconcrt:SchedulerBase.obj
 0001:000373ca       ??_GSubAllocator@details@Concurrency@@QAEPAXI@Z 004383ca f i libconcrt:SchedulerBase.obj
 0001:0003742a       ?Add@?$ListArray@VScheduleGroupBase@details@Concurrency@@@details@Concurrency@@QAEHPAVScheduleGroupBase@23@@Z 0043842a f i libconcrt:SchedulerBase.obj
 0001:0003758c       ?AddContext@SchedulerBase@details@Concurrency@@QAEXPAVInternalContextBase@23@@Z 0043858c f   libconcrt:SchedulerBase.obj
 0001:000375bd       ?AddHead@?$List@UBoostedObject@details@Concurrency@@VNoCount@CollectionTypes@23@@details@Concurrency@@QAEXPAUBoostedObject@23@@Z 004385bd f i libconcrt:SchedulerBase.obj
 0001:000375f1       ?AddTail@?$List@VWaitNode@SchedulerBase@details@Concurrency@@VNoCount@CollectionTypes@34@@details@Concurrency@@QAEXPAVWaitNode@SchedulerBase@23@@Z 004385f1 f i libconcrt:SchedulerBase.obj
 0001:0003761e       ?AddTail@?$SafeRWList@VWaitNode@SchedulerBase@details@Concurrency@@VNoCount@CollectionTypes@34@V_ReaderWriterLock@34@@details@Concurrency@@QAEXPAVWaitNode@SchedulerBase@23@@Z 0043861e f i libconcrt:SchedulerBase.obj
 0001:00037652       ?AddVirtualProcessors@SchedulerBase@details@Concurrency@@IAEXPAPAUIVirtualProcessorRoot@3@I@Z 00438652 f   libconcrt:SchedulerBase.obj
 0001:0003770a       ?AllocateSegment@CacheLocalScheduleGroup@details@Concurrency@@MAEPAVScheduleGroupSegmentBase@23@PAVSchedulingRing@23@PAVlocation@3@@Z 0043870a f i libconcrt:SchedulerBase.obj
 0001:00037745       ?AllocateSegment@FairScheduleGroup@details@Concurrency@@MAEPAVScheduleGroupSegmentBase@23@PAVSchedulingRing@23@PAVlocation@3@@Z 00438745 f i libconcrt:SchedulerBase.obj
 0001:00037791       ?AllowGeneralFetchOfReservedContexts@SchedulerBase@details@Concurrency@@MAE_NXZ 00438791 f i libconcrt:SchedulerBase.obj
 0001:00037791       ___acrt_uninitialize_command_line 00438791 f i libucrt:argv_data.obj
 0001:00037791       __should_initialize_environment 00438791 f i LIBCMT:env_mode.obj
 0001:00037791       ?SweepWaitNode@SingleWaitBlock@details@Concurrency@@UAE_NXZ 00438791 f i libconcrt:event.obj
 0001:00037794       ?Attach@SchedulerBase@details@Concurrency@@UAEXXZ 00438794 f   libconcrt:SchedulerBase.obj
 0001:000377da       ?AttachExternalContext@SchedulerBase@details@Concurrency@@AAEPAVExternalContextBase@23@_N@Z 004387da f   libconcrt:SchedulerBase.obj
 0001:0003784a       ?AttemptSchedulerSweep@SchedulerBase@details@Concurrency@@IAEXXZ 0043884a f   libconcrt:SchedulerBase.obj
 0001:0003786d       ?CancelAllContexts@SchedulerBase@details@Concurrency@@MAEXXZ 0043886d f   libconcrt:SchedulerBase.obj
 0001:000378ab       ?ChangeThrottlingTimer@SchedulerBase@details@Concurrency@@AAEXK@Z 004388ab f   libconcrt:SchedulerBase.obj
 0001:00037905       ?CheckForDeletion@?$ListArray@VExternalStatistics@details@Concurrency@@@details@Concurrency@@AAEXXZ 00438905 f i libconcrt:SchedulerBase.obj
 0001:00037933       ?CheckForDeletion@?$ListArray@VScheduleGroupBase@details@Concurrency@@@details@Concurrency@@AAEXXZ 00438933 f i libconcrt:SchedulerBase.obj
 0001:00037961       ?CheckForDeletionBridge@?$ListArray@VExternalStatistics@details@Concurrency@@@details@Concurrency@@CAXPAV123@@Z 00438961 f i libconcrt:SchedulerBase.obj
 0001:0003796d       ?CheckForDeletionBridge@?$ListArray@VScheduleGroupBase@details@Concurrency@@@details@Concurrency@@CAXPAV123@@Z 0043896d f i libconcrt:SchedulerBase.obj
 0001:00037979       ?CheckOneShotStaticDestruction@SchedulerBase@details@Concurrency@@SAXXZ 00438979 f   libconcrt:SchedulerBase.obj
 0001:0003799f       ?CheckStaticConstruction@SchedulerBase@details@Concurrency@@CAXXZ 0043899f f   libconcrt:SchedulerBase.obj
 0001:00037a04       ?Cleanup@SchedulerBase@details@Concurrency@@AAEXXZ 00438a04 f   libconcrt:SchedulerBase.obj
 0001:00037ab7       ?CommitSafePoints@SchedulerBase@details@Concurrency@@QAEXXZ 00438ab7 f   libconcrt:SchedulerBase.obj
 0001:00037afa       ?CommitToVersion@SchedulerBase@details@Concurrency@@AAEXK@Z 00438afa f   libconcrt:SchedulerBase.obj
 0001:00037b91       ?ComputeSafePointCommitVersion@SchedulerBase@details@Concurrency@@AAEKXZ 00438b91 f   libconcrt:SchedulerBase.obj
 0001:00037c1a       ?CopyFrom@QuickBitSet@details@Concurrency@@IAEXABV123@@Z 00438c1a f i libconcrt:SchedulerBase.obj
 0001:00037c58       ?CreateContextFromDefaultScheduler@SchedulerBase@details@Concurrency@@SAPAVContextBase@23@XZ 00438c58 f   libconcrt:SchedulerBase.obj
 0001:00037c84       ?CreateScheduleGroup@SchedulerBase@details@Concurrency@@UAEPAVScheduleGroup@3@AAVlocation@3@@Z 00438c84 f i libconcrt:SchedulerBase.obj
 0001:00037c8d       ?CreateScheduleGroup@SchedulerBase@details@Concurrency@@UAEPAVScheduleGroup@3@XZ 00438c8d f i libconcrt:SchedulerBase.obj
 0001:00037cac       ?CreateWithoutInitializing@SchedulerBase@details@Concurrency@@SAPAV123@ABVSchedulerPolicy@3@@Z 00438cac f   libconcrt:SchedulerBase.obj
 0001:00037cd2       ?CurrentScheduler@SchedulerBase@details@Concurrency@@SAPAV123@XZ 00438cd2 f   libconcrt:SchedulerBase.obj
 0001:00037cde       ?DecrementInternalContextCount@SchedulerBase@details@Concurrency@@QAEXXZ 00438cde f   libconcrt:SchedulerBase.obj
 0001:00037cf7       ?DeferredGetInternalContext@SchedulerBase@details@Concurrency@@QAEXXZ 00438cf7 f   libconcrt:SchedulerBase.obj
 0001:00037d15       ?DeleteElements@?$ListArray@VExternalStatistics@details@Concurrency@@@details@Concurrency@@AAEXPAU_SINGLE_LIST_ENTRY@@@Z 00438d15 f i libconcrt:SchedulerBase.obj
 0001:00037d36       ?DeleteElements@?$ListArray@VScheduleGroupBase@details@Concurrency@@@details@Concurrency@@AAEXPAU_SINGLE_LIST_ENTRY@@@Z 00438d36 f i libconcrt:SchedulerBase.obj
 0001:00037d54       ?Dequeue@?$SQueue@VInternalContextBase@details@Concurrency@@@details@Concurrency@@QAEPAVInternalContextBase@23@XZ 00438d54 f i libconcrt:SchedulerBase.obj
 0001:00037d71       ?Dequeue@?$SQueue@VSafePointInvocation@details@Concurrency@@@details@Concurrency@@QAEPAVSafePointInvocation@23@XZ 00438d71 f i libconcrt:SchedulerBase.obj
 0001:00037d71       ?Dequeue@?$SQueue@VRealizedChore@details@Concurrency@@@details@Concurrency@@QAEPAVRealizedChore@23@XZ 00438d71 f i libconcrt:ScheduleGroupBase.obj
 0001:00037d8b       ?Dequeue@?$SafeSQueue@VInternalContextBase@details@Concurrency@@V_HyperNonReentrantLock@23@@details@Concurrency@@QAEPAVInternalContextBase@23@XZ 00438d8b f i libconcrt:SchedulerBase.obj
 0001:00037dbf       ?DestroySchedulerEventHandlers@SchedulerBase@details@Concurrency@@MAEXXZ 00438dbf f   libconcrt:SchedulerBase.obj
 0001:00037e0a       ?DetachExternalContext@SchedulerBase@details@Concurrency@@AAEXPAVExternalContextBase@23@_N@Z 00438e0a f   libconcrt:SchedulerBase.obj
 0001:00037e4c       ?FastCurrentContext@SchedulerBase@details@Concurrency@@SAPAVContextBase@23@XZ 00438e4c f   libconcrt:SchedulerBase.obj
 0001:00037e59       ?FastCurrentScheduler@SchedulerBase@details@Concurrency@@SAPAV123@XZ 00438e59 f   libconcrt:SchedulerBase.obj
 0001:00037e73       ?Fill@QuickBitSet@details@Concurrency@@QAEXXZ 00438e73 f i libconcrt:SchedulerBase.obj
 0001:00037e90       ?Finalize@SchedulerBase@details@Concurrency@@AAEXXZ 00438e90 f   libconcrt:SchedulerBase.obj
 0001:00037fba       ?FindCurrentNode@SchedulerBase@details@Concurrency@@QAEPAVSchedulingNode@23@XZ 00438fba f   libconcrt:SchedulerBase.obj
 0001:00037ffb       ?FindNodeByLocation@SchedulerBase@details@Concurrency@@QAEPAVSchedulingNode@23@PAVlocation@3@@Z 00438ffb f   libconcrt:SchedulerBase.obj
 0001:00038054       ?FindScheduleGroupSegment@SchedulingRing@details@Concurrency@@AAEPAVScheduleGroupSegmentBase@23@HHPAHPAV?$ListArray@VScheduleGroupSegmentBase@details@Concurrency@@@23@@Z 00439054 f i libconcrt:SchedulerBase.obj
 0001:0003807f       ?FindVirtualProcessor@SchedulingNode@details@Concurrency@@QAEPAVVirtualProcessor@23@HHPAH@Z 0043907f f i libconcrt:SchedulerBase.obj
 0001:000380ae       ?FoundAvailableVirtualProcessor@SchedulerBase@details@Concurrency@@QAE_NAAVClaimTicket@VirtualProcessor@23@Vlocation@3@K@Z 004390ae f   libconcrt:SchedulerBase.obj
 0001:000381b6       ?FoundBlockedContexts@SchedulerBase@details@Concurrency@@AAE_NXZ 004391b6 f   libconcrt:SchedulerBase.obj
 0001:000381e0       ?FoundUnstartedChores@SchedulerBase@details@Concurrency@@AAE_NXZ 004391e0 f   libconcrt:SchedulerBase.obj
 0001:000382a7       ?GetAnonymousScheduleGroupSegment@SchedulerBase@details@Concurrency@@QAEPAVScheduleGroupSegmentBase@23@XZ 004392a7 f   libconcrt:SchedulerBase.obj
 0001:000382b0       ?GetBitSet@SchedulerBase@details@Concurrency@@QAE?AVQuickBitSet@23@PBVlocation@3@@Z 004392b0 f   libconcrt:SchedulerBase.obj
 0001:00038366       ?GetDefaultScheduler@SchedulerBase@details@Concurrency@@CAPAV123@XZ 00439366 f   libconcrt:SchedulerBase.obj
 0001:00038403       ?GetExternalContext@SchedulerBase@details@Concurrency@@AAEPAVExternalContextBase@23@_N@Z 00439403 f   libconcrt:SchedulerBase.obj
 0001:00038463       ?GetInternalContext@SchedulerBase@details@Concurrency@@QAEPAVInternalContextBase@23@_N@Z 00439463 f   libconcrt:SchedulerBase.obj
 0001:00038586       ?GetNewContextId@SchedulerBase@details@Concurrency@@QAEIXZ 00439586 f   libconcrt:SchedulerBase.obj
 0001:00038593       ?GetNewScheduleGroupId@SchedulerBase@details@Concurrency@@QAEIXZ 00439593 f   libconcrt:SchedulerBase.obj
 0001:000385a0       ?GetNewWorkQueueId@SchedulerBase@details@Concurrency@@SAIXZ 004395a0 f   libconcrt:SchedulerBase.obj
 0001:000385ad       ?GetNextPriorityObject@SchedulerBase@details@Concurrency@@QAEPAUBoostedObject@23@XZ 004395ad f   libconcrt:SchedulerBase.obj
 0001:000385e2       ?GetNextScheduleGroupSegment@SchedulingRing@details@Concurrency@@AAEPAVScheduleGroupSegmentBase@23@PAHHPAV?$ListArray@VScheduleGroupSegmentBase@details@Concurrency@@@23@@Z 004395e2 f i libconcrt:SchedulerBase.obj
 0001:0003861e       ?GetNextSchedulingRing@SchedulerBase@details@Concurrency@@QAEPAVSchedulingRing@23@PBV423@PAV423@@Z 0043961e f   libconcrt:SchedulerBase.obj
 0001:00038649       ?GetNextSchedulingRing@SchedulerBase@details@Concurrency@@QAEPAVSchedulingRing@23@XZ 00439649 f   libconcrt:SchedulerBase.obj
 0001:0003866a       ?GetNextValidSchedulingRingIndex@SchedulerBase@details@Concurrency@@AAEHH@Z 0043966a f   libconcrt:SchedulerBase.obj
 0001:0003868c       ?GetNextVirtualProcessor@SchedulingNode@details@Concurrency@@QAEPAVVirtualProcessor@23@PAHH@Z 0043968c f i libconcrt:SchedulerBase.obj
 0001:000386c1       ?GetNumberOfVirtualProcessors@SchedulerBase@details@Concurrency@@UBEIXZ 004396c1 f i libconcrt:SchedulerBase.obj
 0001:000386c5       ?GetPolicy@SchedulerBase@details@Concurrency@@UBE?AVSchedulerPolicy@3@XZ 004396c5 f   libconcrt:SchedulerBase.obj
 0001:000386db       ?GetRealizedChore@SchedulerBase@details@Concurrency@@QAEPAVRealizedChore@23@P6AXPAX@Z0@Z 004396db f   libconcrt:SchedulerBase.obj
 0001:00038738       ?GetReservedContext@SchedulerBase@details@Concurrency@@QAEPAVInternalContextBase@23@XZ 00439738 f i libconcrt:SchedulerBase.obj
 0001:0003874f       ?GetRunnableContext@CacheLocalScheduleGroupSegment@details@Concurrency@@EAEPAVInternalContextBase@23@XZ 0043974f f i libconcrt:SchedulerBase.obj
 0001:0003874f       ?GetRunnableContext@FairScheduleGroupSegment@details@Concurrency@@EAEPAVInternalContextBase@23@XZ 0043974f f i libconcrt:SchedulerBase.obj
 0001:00038762       ?GetSubAllocator@SchedulerBase@details@Concurrency@@SAPAVSubAllocator@23@_N@Z 00439762 f   libconcrt:SchedulerBase.obj
 0001:000387e2       ?GetValidSchedulingRingIndex@SchedulerBase@details@Concurrency@@AAEHH@Z 004397e2 f   libconcrt:SchedulerBase.obj
 0001:00038805       ?Grow@QuickBitSet@details@Concurrency@@QAEXI@Z 00439805 f i libconcrt:SchedulerBase.obj
 0001:00038884       ?Grow@ReferenceCountedQuickBitSet@details@Concurrency@@QAEXI@Z 00439884 f i libconcrt:SchedulerBase.obj
 0001:000388f5       ?HasCompletedShutdown@SchedulerBase@details@Concurrency@@QAE_NXZ 004398f5 f   libconcrt:SchedulerBase.obj
 0001:00038908       ?Id@SchedulerBase@details@Concurrency@@UBEIXZ 00439908 f i libconcrt:SchedulerBase.obj
 0001:0003890f       ?Initialize@SchedulerBase@details@Concurrency@@AAEXXZ 0043990f f   libconcrt:SchedulerBase.obj
 0001:00038dc0       ?InitializeSchedulerEventHandlers@SchedulerBase@details@Concurrency@@MAEXXZ 00439dc0 f   libconcrt:SchedulerBase.obj
 0001:00038dc8       ?InternalCreateScheduleGroup@SchedulerBase@details@Concurrency@@AAEPAVScheduleGroup@3@PAVlocation@3@@Z 00439dc8 f   libconcrt:SchedulerBase.obj
 0001:00038e8e       ?InternalRelease@ScheduleGroupBase@details@Concurrency@@IAEJXZ 00439e8e f i libconcrt:SchedulerBase.obj
 0001:00038ec8       ?Intersects@QuickBitSet@details@Concurrency@@QBE_NABV123@@Z 00439ec8 f i libconcrt:SchedulerBase.obj
 0001:00038f04       ?InvokeAtNextSafePoint@SafePointInvocation@details@Concurrency@@QAEXP6AXPAX@Z0PAVSchedulerBase@23@@Z 00439f04 f   libconcrt:SchedulerBase.obj
 0001:00038f40       ?InvokeOnSafePoint@SchedulerBase@details@Concurrency@@AAEXPAVSafePointInvocation@23@@Z 00439f40 f   libconcrt:SchedulerBase.obj
 0001:00038f84       ?IsActive@ExternalStatistics@details@Concurrency@@QAE_NXZ 00439f84 f i libconcrt:SchedulerBase.obj
 0001:00038fa0       ?IsAvailableLocation@SchedulerBase@details@Concurrency@@UBE_NABVlocation@3@@Z 00439fa0 f   libconcrt:SchedulerBase.obj
 0001:00038fd4       ?MailChore@FairScheduleGroup@details@Concurrency@@UAE?AVSlot@?$Mailbox@V_UnrealizedChore@details@Concurrency@@@23@PAV_UnrealizedChore@23@PAVlocation@3@PAPAVScheduleGroupSegmentBase@23@@Z 00439fd4 f i libconcrt:SchedulerBase.obj
 0001:00038fe5       ?MarkSafePoint@SchedulerBase@details@Concurrency@@QAE_NPAVSafePointMarker@23@@Z 00439fe5 f   libconcrt:SchedulerBase.obj
 0001:00039007       ?NotifyThrottledContext@SchedulerBase@details@Concurrency@@AAE_NPAVInternalContextBase@23@@Z 0043a007 f   libconcrt:SchedulerBase.obj
 0001:00039097       ?OneShotStaticConstruction@SchedulerBase@details@Concurrency@@CAXXZ 0043a097 f   libconcrt:SchedulerBase.obj
 0001:000390ab       ?OneShotStaticDestruction@SchedulerBase@details@Concurrency@@CAXXZ 0043a0ab f   libconcrt:SchedulerBase.obj
 0001:000390c4       ?PerformServiceScan@SchedulerBase@details@Concurrency@@AAEX_K@Z 0043a0c4 f   libconcrt:SchedulerBase.obj
 0001:00039288       ?PhaseOneShutdown@SchedulerBase@details@Concurrency@@AAEXXZ 0043a288 f   libconcrt:SchedulerBase.obj
 0001:000392fe       ?PhaseTwoShutdown@SchedulerBase@details@Concurrency@@AAEXXZ 0043a2fe f   libconcrt:SchedulerBase.obj
 0001:0003939b       ?PublishNewDataVersion@SchedulerBase@details@Concurrency@@AAEKXZ 0043a39b f i libconcrt:SchedulerBase.obj
 0001:000393b3       ?Push@?$LockFreePushStack@VContextNode@SchedulerBase@details@Concurrency@@@details@Concurrency@@QAEXPAVContextNode@SchedulerBase@23@@Z 0043a3b3 f i libconcrt:SchedulerBase.obj
 0001:000393d1       ?PushRunnableToInactive@SchedulerBase@details@Concurrency@@UAE_NPAVInternalContextBase@23@Vlocation@3@@Z 0043a3d1 f   libconcrt:SchedulerBase.obj
 0001:0003943e       ?Reallocate@QuickBitSet@details@Concurrency@@IAEXI@Z 0043a43e f i libconcrt:SchedulerBase.obj
 0001:00039475       ?Reference@ScheduleGroupBase@details@Concurrency@@UAEIXZ 0043a475 f i libconcrt:SchedulerBase.obj
 0001:00039485       ?Reference@SchedulerBase@details@Concurrency@@UAEIXZ 0043a485 f   libconcrt:SchedulerBase.obj
 0001:000394f5       ?ReferenceForAttach@SchedulerBase@details@Concurrency@@IAEXXZ 0043a4f5 f   libconcrt:SchedulerBase.obj
 0001:00039514       ?RegisterShutdownEvent@SchedulerBase@details@Concurrency@@UAEXPAX@Z 0043a514 f   libconcrt:SchedulerBase.obj
 0001:000395b1       ?Release@ScheduleGroupBase@details@Concurrency@@UAEIXZ 0043a5b1 f i libconcrt:SchedulerBase.obj
 0001:000395b6       ?Release@SchedulerBase@details@Concurrency@@UAEIXZ 0043a5b6 f   libconcrt:SchedulerBase.obj
 0001:000395ce       ?ReleaseExternalContext@SchedulerBase@details@Concurrency@@AAEXPAVExternalContextBase@23@@Z 0043a5ce f   libconcrt:SchedulerBase.obj
 0001:00039610       ?ReleaseForDetach@SchedulerBase@details@Concurrency@@IAEXXZ 0043a610 f   libconcrt:SchedulerBase.obj
 0001:0003962f       ?ReleaseInternalContext@SchedulerBase@details@Concurrency@@QAEXPAVInternalContextBase@23@_N@Z 0043a62f f   libconcrt:SchedulerBase.obj
 0001:00039679       ?ReleaseRealizedChore@SchedulerBase@details@Concurrency@@QAEXPAVRealizedChore@23@@Z 0043a679 f   libconcrt:SchedulerBase.obj
 0001:000396c9       ?ReleaseReservedContexts@SchedulerBase@details@Concurrency@@QAEXXZ 0043a6c9 f   libconcrt:SchedulerBase.obj
 0001:00039733       ?ReleaseSuspendedVirtualProcessors@SchedulerBase@details@Concurrency@@AAEXJ@Z 0043a733 f   libconcrt:SchedulerBase.obj
 0001:00039751       ?Remove@?$List@UBoostedObject@details@Concurrency@@VNoCount@CollectionTypes@23@@details@Concurrency@@QAEXPAUBoostedObject@23@@Z 0043a751 f i libconcrt:SchedulerBase.obj
 0001:00039783       ?Remove@?$ListArray@VExternalStatistics@details@Concurrency@@@details@Concurrency@@QAE_NPAVExternalStatistics@23@H_N@Z 0043a783 f i libconcrt:SchedulerBase.obj
 0001:0003987c       ?Remove@?$ListArray@VScheduleGroupBase@details@Concurrency@@@details@Concurrency@@QAE_NPAVScheduleGroupBase@23@H_N@Z 0043a87c f i libconcrt:SchedulerBase.obj
 0001:00039975       ?RemoveHead@?$List@UBoostedObject@details@Concurrency@@VNoCount@CollectionTypes@23@@details@Concurrency@@QAEPAUBoostedObject@23@XZ 0043a975 f i libconcrt:SchedulerBase.obj
 0001:0003999d       ?RemoveHead@?$List@VWaitNode@SchedulerBase@details@Concurrency@@VNoCount@CollectionTypes@34@@details@Concurrency@@QAEPAVWaitNode@SchedulerBase@23@XZ 0043a99d f i libconcrt:SchedulerBase.obj
 0001:000399c1       ?RemoveHead@?$SafeRWList@VWaitNode@SchedulerBase@details@Concurrency@@VNoCount@CollectionTypes@34@V_ReaderWriterLock@34@@details@Concurrency@@QAEPAVWaitNode@SchedulerBase@23@XZ 0043a9c1 f i libconcrt:SchedulerBase.obj
 0001:000399f5       ?RemovePrioritizedObject@SchedulerBase@details@Concurrency@@QAEXPAUBoostedObject@23@@Z 0043a9f5 f   libconcrt:SchedulerBase.obj
 0001:00039a31       ?RemoveScheduleGroup@SchedulerBase@details@Concurrency@@QAEXPAVScheduleGroupBase@23@@Z 0043aa31 f   libconcrt:SchedulerBase.obj
 0001:00039a49       ?RemoveSegments@FairScheduleGroup@details@Concurrency@@MAEXXZ 0043aa49 f i libconcrt:SchedulerBase.obj
 0001:00039a57       ?RemoveVirtualProcessors@SchedulerBase@details@Concurrency@@IAEXPAPAUIVirtualProcessorRoot@3@I@Z 0043aa57 f   libconcrt:SchedulerBase.obj
 0001:00039b53       ?Resurrect@SchedulerBase@details@Concurrency@@AAEXXZ 0043ab53 f   libconcrt:SchedulerBase.obj
 0001:00039b9a       ?ReturnSubAllocator@SchedulerBase@details@Concurrency@@SAXPAVSubAllocator@23@@Z 0043ab9a f   libconcrt:SchedulerBase.obj
 0001:00039bdb       ?SafeFastCurrentContext@SchedulerBase@details@Concurrency@@SAPAVContextBase@23@XZ 0043abdb f   libconcrt:SchedulerBase.obj
 0001:00039bf7       ?SafeFastCurrentScheduler@SchedulerBase@details@Concurrency@@SAPAV123@XZ 0043abf7 f   libconcrt:SchedulerBase.obj
 0001:00039c0a       ?SafeReference@SchedulerBase@details@Concurrency@@AAE_NXZ 0043ac0a f   libconcrt:SchedulerBase.obj
 0001:00039c2c       ?ScheduleTask@SchedulerBase@details@Concurrency@@UAEXP6AXPAX@Z0@Z 0043ac2c f   libconcrt:SchedulerBase.obj
 0001:00039c7d       ?ScheduleTask@SchedulerBase@details@Concurrency@@UAEXP6AXPAX@Z0AAVlocation@3@@Z 0043ac7d f   libconcrt:SchedulerBase.obj
 0001:00039cba       ?SetNextSchedulingRing@SchedulerBase@details@Concurrency@@QAEXPAVSchedulingRing@23@@Z 0043acba f   libconcrt:SchedulerBase.obj
 0001:00039cdf       ?SpinUntilBitsReset@details@Concurrency@@YAJPCJJ@Z 0043acdf f i libconcrt:SchedulerBase.obj
 0001:00039d10       ?SpinUntilBitsSet@details@Concurrency@@YAJPCJJ@Z 0043ad10 f i libconcrt:SchedulerBase.obj
 0001:00039d4a       ?StartupNewVirtualProcessor@SchedulerBase@details@Concurrency@@UAEXPAVScheduleGroupSegmentBase@23@Vlocation@3@@Z 0043ad4a f i libconcrt:SchedulerBase.obj
 0001:00039d70       ?StartupVirtualProcessor@SchedulerBase@details@Concurrency@@QAE_NPAVScheduleGroupSegmentBase@23@Vlocation@3@K@Z 0043ad70 f   libconcrt:SchedulerBase.obj
 0001:00039dc5       ?StaticDestruction@SchedulerBase@details@Concurrency@@CAXXZ 0043adc5 f   libconcrt:SchedulerBase.obj
 0001:00039e1b       ?Statistics@SchedulerBase@details@Concurrency@@IAEXPAI00@Z 0043ae1b f   libconcrt:SchedulerBase.obj
 0001:00039f57       ?SweepSchedulerForFinalize@SchedulerBase@details@Concurrency@@AAEXXZ 0043af57 f   libconcrt:SchedulerBase.obj
 0001:00039ff3       ?ThrottlerDispatch@SchedulerBase@details@Concurrency@@AAEXXZ 0043aff3 f   libconcrt:SchedulerBase.obj
 0001:0003a107       ?ThrottlerDispatchBridge@SchedulerBase@details@Concurrency@@CGXPAU_TP_CALLBACK_INSTANCE@@PAXPAU_TP_TIMER@@@Z 0043b107 f i libconcrt:SchedulerBase.obj
 0001:0003a116       ?ThrottlerDispatchBridgeXP@SchedulerBase@details@Concurrency@@CGXPAXE@Z 0043b116 f i libconcrt:SchedulerBase.obj
 0001:0003a125       ?ThrottlerTrampoline@SchedulerBase@details@Concurrency@@CGXPAXE@Z 0043b125 f   libconcrt:SchedulerBase.obj
 0001:0003a160       ?ThrottlingTime@SchedulerBase@details@Concurrency@@QAEKK@Z 0043b160 f   libconcrt:SchedulerBase.obj
 0001:0003a1f7       ?ThrowSchedulerEvent@SchedulerBase@details@Concurrency@@CAXW4ConcRT_EventType@3@EI@Z 0043b1f7 f   libconcrt:SchedulerBase.obj
 0001:0003a262       ?TraceSchedulerEvent@SchedulerBase@details@Concurrency@@AAEXW4ConcRT_EventType@3@EI@Z 0043b262 f i libconcrt:SchedulerBase.obj
 0001:0003a28c       ?TriggerCommitSafePoints@SchedulerBase@details@Concurrency@@QAEXPAVSafePointMarker@23@@Z 0043b28c f   libconcrt:SchedulerBase.obj
 0001:0003a2c1       ?TypeOfWorkPending@SchedulerBase@details@Concurrency@@MAE?AW4PendingWorkType@123@XZ 0043b2c1 f   libconcrt:SchedulerBase.obj
 0001:0003a2ef       ?UpdateCommitVersion@SchedulerBase@details@Concurrency@@AAEKK@Z 0043b2ef f   libconcrt:SchedulerBase.obj
 0001:0003a337       ?UpdatePendingVersion@SchedulerBase@details@Concurrency@@AAEKXZ 0043b337 f   libconcrt:SchedulerBase.obj
 0001:0003a369       ?VirtualProcessorActive@SchedulerBase@details@Concurrency@@QAE_N_N@Z 0043b369 f   libconcrt:SchedulerBase.obj
 0001:0003a41a       ?NotifyResourcesExternallyIdle@ThreadScheduler@details@Concurrency@@UAEXPAPAUIVirtualProcessorRoot@3@I@Z 0043b41a f i libconcrt:ThreadScheduler.obj
 0001:0003a41a       ?NotifyResourcesExternallyBusy@ThreadScheduler@details@Concurrency@@UAEXPAPAUIVirtualProcessorRoot@3@I@Z 0043b41a f i libconcrt:ThreadScheduler.obj
 0001:0003a41a       ?VirtualProcessorActiveNotification@SchedulerBase@details@Concurrency@@MAEX_NJ@Z 0043b41a f i libconcrt:SchedulerBase.obj
 0001:0003a41d       ?VirtualProcessorIdle@SchedulerBase@details@Concurrency@@QAEX_N@Z 0043b41d f   libconcrt:SchedulerBase.obj
 0001:0003a47a       ??0context_self_unblock@Concurrency@@QAE@XZ 0043b47a f   libconcrt:Exceptions.obj
 0001:0003a48b       ??0context_unblock_unbalanced@Concurrency@@QAE@XZ 0043b48b f   libconcrt:Exceptions.obj
 0001:0003a49c       ??0improper_lock@Concurrency@@QAE@PBD@Z 0043b49c f   libconcrt:Exceptions.obj
 0001:0003a4b7       ??0improper_scheduler_attach@Concurrency@@QAE@XZ 0043b4b7 f   libconcrt:Exceptions.obj
 0001:0003a4c8       ??0improper_scheduler_reference@Concurrency@@QAE@XZ 0043b4c8 f   libconcrt:Exceptions.obj
 0001:0003a4d9       ??0invalid_multiple_scheduling@Concurrency@@QAE@XZ 0043b4d9 f   libconcrt:Exceptions.obj
 0001:0003a4ea       ??0invalid_oversubscribe_operation@Concurrency@@QAE@XZ 0043b4ea f   libconcrt:Exceptions.obj
 0001:0003a4fb       ??0invalid_scheduler_policy_key@Concurrency@@QAE@PBD@Z 0043b4fb f   libconcrt:Exceptions.obj
 0001:0003a516       ??0invalid_scheduler_policy_thread_specification@Concurrency@@QAE@XZ 0043b516 f   libconcrt:Exceptions.obj
 0001:0003a527       ??0invalid_scheduler_policy_value@Concurrency@@QAE@PBD@Z 0043b527 f   libconcrt:Exceptions.obj
 0001:0003a542       ??0missing_wait@Concurrency@@QAE@XZ 0043b542 f   libconcrt:Exceptions.obj
 0001:0003a553       ??0nested_scheduler_missing_detach@Concurrency@@QAE@XZ 0043b553 f   libconcrt:Exceptions.obj
 0001:0003a564       ??0scheduler_resource_allocation_error@Concurrency@@QAE@J@Z 0043b564 f   libconcrt:Exceptions.obj
 0001:0003a581       ??0scheduler_worker_creation_error@Concurrency@@QAE@J@Z 0043b581 f   libconcrt:Exceptions.obj
 0001:0003a59e       ??0unsupported_os@Concurrency@@QAE@XZ 0043b59e f   libconcrt:Exceptions.obj
 0001:0003a5af       ??0HardwareAffinity@details@Concurrency@@QAE@PAX@Z 0043b5af f   libconcrt:ResourceManager.obj
 0001:0003a5d0       ??0ResourceManager@details@Concurrency@@AAE@XZ 0043b5d0 f   libconcrt:ResourceManager.obj
 0001:0003a6b4       ??0SchedulerCore@details@Concurrency@@QAE@XZ 0043b6b4 f i libconcrt:ResourceManager.obj
 0001:0003a6bf       ??0invalid_operation@Concurrency@@QAE@ABV01@@Z 0043b6bf f i libconcrt:ResourceManager.obj
 0001:0003a6da       ??0invalid_operation@Concurrency@@QAE@XZ 0043b6da f i libconcrt:ResourceManager.obj
 0001:0003a6eb       ??0unsupported_os@Concurrency@@QAE@ABV01@@Z 0043b6eb f i libconcrt:ResourceManager.obj
 0001:0003a706       ??1GlobalNode@details@Concurrency@@QAE@XZ 0043b706 f i libconcrt:ResourceManager.obj
 0001:0003a713       ??1ResourceManager@details@Concurrency@@AAE@XZ 0043b713 f   libconcrt:ResourceManager.obj
 0001:0003a7e6       ??1_Scoped_lock@_ReentrantBlockingLock@details@Concurrency@@QAE@XZ 0043b7e6 f i libconcrt:SchedulerProxy.obj
 0001:0003a7e6       ??1_Scoped_lock@_NonReentrantBlockingLock@details@Concurrency@@QAE@XZ 0043b7e6 f i libconcrt:ResourceManager.obj
 0001:0003a81c       ??_EGlobalNode@details@Concurrency@@QAEPAXI@Z 0043b81c f i libconcrt:ResourceManager.obj
 0001:0003a8a2       ??_GAffinityRestriction@ResourceManager@details@Concurrency@@QAEPAXI@Z 0043b8a2 f i libconcrt:ResourceManager.obj
 0001:0003a8cb       ?AddTail@?$List@VSchedulerProxy@details@Concurrency@@VCount@CollectionTypes@23@@details@Concurrency@@QAEXPAVSchedulerProxy@23@@Z 0043b8cb f i libconcrt:ResourceManager.obj
 0001:0003a904       ?AdjustDynamicAllocation@ResourceManager@details@Concurrency@@AAEIIII@Z 0043b904 f   libconcrt:ResourceManager.obj
 0001:0003a9d4       ?ApplyAffinityLimits@AffinityRestriction@ResourceManager@details@Concurrency@@QAEXPAU_GROUP_AFFINITY@@@Z 0043b9d4 f i libconcrt:ResourceManager.obj
 0001:0003a9f7       ?ApplyAffinityRestrictions@ResourceManager@details@Concurrency@@CAXPAK@Z 0043b9f7 f   libconcrt:ResourceManager.obj
 0001:0003aa22       ?ApplyAffinityRestrictions@ResourceManager@details@Concurrency@@CAXPAU_GROUP_AFFINITY@@@Z 0043ba22 f   libconcrt:ResourceManager.obj
 0001:0003aa49       ?ApplyTo@HardwareAffinity@details@Concurrency@@QAEXPAX@Z 0043ba49 f   libconcrt:ResourceManager.obj
 0001:0003aa5b       ?CaptureProcessAffinity@ResourceManager@details@Concurrency@@CAXXZ 0043ba5b f   libconcrt:ResourceManager.obj
 0001:0003ab80       ?CleanupTopologyInformation@ResourceManager@details@Concurrency@@CAXXZ 0043bb80 f   libconcrt:ResourceManager.obj
 0001:0003ab9b       ?CommitStolenCores@ResourceManager@details@Concurrency@@AAEXPAVSchedulerProxy@23@@Z 0043bb9b f   libconcrt:ResourceManager.obj
 0001:0003aca8       ?ComputeDesiredHWThreadsWithExternalThread@SchedulerProxy@details@Concurrency@@QBEIXZ 0043bca8 f i libconcrt:ResourceManager.obj
 0001:0003accb       ?ComputeMinHWThreadsWithExternalThread@SchedulerProxy@details@Concurrency@@QBEIXZ 0043bccb f i libconcrt:ResourceManager.obj
 0001:0003acf8       ?CreateAllocatedNodeData@ResourceManager@details@Concurrency@@QAEPAUSchedulerNode@23@XZ 0043bcf8 f   libconcrt:ResourceManager.obj
 0001:0003ae2f       ?CreateDynamicRMWorker@ResourceManager@details@Concurrency@@AAEXXZ 0043be2f f   libconcrt:ResourceManager.obj
 0001:0003ae8e       ?CreateNodeTopology@ResourceManager@details@Concurrency@@UAEXIPAIPAPAI0@Z 0043be8e f   libconcrt:ResourceManager.obj
 0001:0003ae91       ?CreateResourceManager@Concurrency@@YAPAUIResourceManager@1@XZ 0043be91 f   libconcrt:ResourceManager.obj
 0001:0003ae96       ?CreateSchedulerProxy@ResourceManager@details@Concurrency@@AAEPAVSchedulerProxy@23@PAUIScheduler@3@@Z 0043be96 f   libconcrt:ResourceManager.obj
 0001:0003aef8       ?CreateSingleton@ResourceManager@details@Concurrency@@SAPAV123@XZ 0043bef8 f   libconcrt:ResourceManager.obj
 0001:0003af8b       ?CurrentSubscriptionLevel@ResourceManager@details@Concurrency@@QAEIII@Z 0043bf8b f   libconcrt:ResourceManager.obj
 0001:0003aff5       ?DesiredHWThreads@SchedulerProxy@details@Concurrency@@QBEIXZ 0043bff5 f i libconcrt:ResourceManager.obj
 0001:0003b00e       ?DestroyAllocatedNodeData@ResourceManager@details@Concurrency@@QAEXPAUSchedulerNode@23@@Z 0043c00e f   libconcrt:ResourceManager.obj
 0001:0003b048       ?DetermineTopology@ResourceManager@details@Concurrency@@AAEXXZ 0043c048 f   libconcrt:ResourceManager.obj
 0001:0003b35a       ?DiscardExistingSchedulerStatistics@ResourceManager@details@Concurrency@@AAEXXZ 0043c35a f   libconcrt:ResourceManager.obj
 0001:0003b3c5       ?DistributeCoresToSurvivingScheduler@ResourceManager@details@Concurrency@@AAE_NXZ 0043c3c5 f   libconcrt:ResourceManager.obj
 0001:0003b55e       ?DistributeExclusiveCores@ResourceManager@details@Concurrency@@AAEXIIIII@Z 0043c55e f   libconcrt:ResourceManager.obj
 0001:0003b69b       ?DistributeIdleCores@ResourceManager@details@Concurrency@@AAEXII@Z 0043c69b f   libconcrt:ResourceManager.obj
 0001:0003b82e       ?DoCoreMigration@ResourceManager@details@Concurrency@@AAEXXZ 0043c82e f   libconcrt:ResourceManager.obj
 0001:0003ba66       ?DynamicAssignCores@ResourceManager@details@Concurrency@@AAEXPAVSchedulerProxy@23@II_N@Z 0043ca66 f   libconcrt:ResourceManager.obj
 0001:0003bad3       ?DynamicMigrateCores@ResourceManager@details@Concurrency@@AAEXPAUDynamicAllocationData@23@PAVSchedulerProxy@23@II@Z 0043cad3 f   libconcrt:ResourceManager.obj
 0001:0003bc35       ?DynamicRMThreadProc@ResourceManager@details@Concurrency@@CGKPAX@Z 0043cc35 f   libconcrt:ResourceManager.obj
 0001:0003bc4e       ?DynamicResourceManager@ResourceManager@details@Concurrency@@AAEXXZ 0043cc4e f   libconcrt:ResourceManager.obj
 0001:0003bd4e       ?FindBestFitExclusiveAllocation@ResourceManager@details@Concurrency@@AAEIAAI0PAUDynamicAllocationData@23@II@Z 0043cd4e f   libconcrt:ResourceManager.obj
 0001:0003c094       ?FindBestFitIdleAllocation@ResourceManager@details@Concurrency@@AAEIIPAUDynamicAllocationData@23@I@Z 0043d094 f   libconcrt:ResourceManager.obj
 0001:0003c1ae       ?FindCoreForPartiallyFilledNode@ResourceManager@details@Concurrency@@AAE_NAAI0PAUDynamicAllocationData@23@I@Z 0043d1ae f   libconcrt:ResourceManager.obj
 0001:0003c2b7       ?FindGroupAffinity@AffinityRestriction@ResourceManager@details@Concurrency@@QAEPAUHardwareAffinity@34@G@Z 0043d2b7 f i libconcrt:ResourceManager.obj
 0001:0003c2eb       ?FlushStoreBuffers@ResourceManager@details@Concurrency@@QAEXXZ 0043d2eb f   libconcrt:ResourceManager.obj
 0001:0003c31b       ?GetCoreCount@ResourceManager@details@Concurrency@@SAIXZ 0043d31b f   libconcrt:ResourceManager.obj
 0001:0003c366       ?GetCurrentNodeAndCore@ResourceManager@details@Concurrency@@QAEIPAI@Z 0043d366 f   libconcrt:ResourceManager.obj
 0001:0003c474       ?GetId@TopologyObject@GlobalCore@details@Concurrency@@UBEIXZ 0043d474 f i libconcrt:ResourceManager.obj
 0001:0003c474       ?GetExecutionResourceCount@TopologyObject@GlobalNode@details@Concurrency@@UBEIXZ 0043d474 f i libconcrt:ResourceManager.obj
 0001:0003c47b       ?GetFirstExecutionResource@TopologyObject@GlobalNode@details@Concurrency@@UBEPAUITopologyExecutionResource@4@XZ 0043d47b f i libconcrt:ResourceManager.obj
 0001:0003c485       ?GetFirstNode@ResourceManager@details@Concurrency@@UBEPAUITopologyNode@3@XZ 0043d485 f i libconcrt:ResourceManager.obj
 0001:0003c48c       ?GetId@TopologyObject@GlobalNode@details@Concurrency@@UBEIXZ 0043d48c f i libconcrt:ResourceManager.obj
 0001:0003c493       ?GetNext@TopologyObject@GlobalCore@details@Concurrency@@UBEPAUITopologyExecutionResource@4@XZ 0043d493 f   libconcrt:ResourceManager.obj
 0001:0003c4aa       ?GetNext@TopologyObject@GlobalNode@details@Concurrency@@UBEPAUITopologyNode@4@XZ 0043d4aa f   libconcrt:ResourceManager.obj
 0001:0003c4c1       ?GetNextGlobalCore@GlobalNode@details@Concurrency@@QAEPAUGlobalCore@23@PBU423@@Z 0043d4c1 f i libconcrt:ResourceManager.obj
 0001:0003c4e6       ?GetNextGlobalNode@ResourceManager@details@Concurrency@@QAEPAUGlobalNode@23@PBU423@@Z 0043d4e6 f i libconcrt:ResourceManager.obj
 0001:0003c50b       ?GetNodeCount@ResourceManager@details@Concurrency@@SAIXZ 0043d50b f   libconcrt:ResourceManager.obj
 0001:0003c556       ?GetNumaNode@TopologyObject@GlobalNode@details@Concurrency@@UBEKXZ 0043d556 f i libconcrt:ResourceManager.obj
 0001:0003c55d       ?GetOSVersion@Concurrency@@YA?AW4OSVersion@IResourceManager@1@XZ 0043d55d f   libconcrt:ResourceManager.obj
 0001:0003c562       ?GetProcessorCount@Concurrency@@YAIXZ 0043d562 f   libconcrt:ResourceManager.obj
 0001:0003c567       ?GetProcessorNodeCount@Concurrency@@YAIXZ 0043d567 f   libconcrt:ResourceManager.obj
 0001:0003c56c       ?GetSchedulerId@Concurrency@@YAIXZ 0043d56c f   libconcrt:ResourceManager.obj
 0001:0003c579       ?GetTopologyInformation@ResourceManager@details@Concurrency@@CAXW4_LOGICAL_PROCESSOR_RELATIONSHIP@@@Z 0043d579 f   libconcrt:ResourceManager.obj
 0001:0003c5a2       ?HandleBorrowedCores@ResourceManager@details@Concurrency@@AAEXPAVSchedulerProxy@23@PAUAllocationData@23@@Z 0043d5a2 f   libconcrt:ResourceManager.obj
 0001:0003c6bf       ?HandleSharedCores@ResourceManager@details@Concurrency@@AAEXPAVSchedulerProxy@23@PAUDynamicAllocationData@23@@Z 0043d6bf f   libconcrt:ResourceManager.obj
 0001:0003c807       ?IncreaseFullyLoadedSchedulerAllocations@ResourceManager@details@Concurrency@@AAEXXZ 0043d807 f   libconcrt:ResourceManager.obj
 0001:0003c83d       ?Initialize@GlobalCore@details@Concurrency@@QAEXPAUGlobalNode@23@IE@Z 0043d83d f i libconcrt:ResourceManager.obj
 0001:0003c87a       ?Initialize@GlobalNode@details@Concurrency@@QAEXPAVResourceManager@23@GGKII@Z 0043d87a f i libconcrt:ResourceManager.obj
 0001:0003c98d       ?InitializeRMBuffers@ResourceManager@details@Concurrency@@AAEXXZ 0043d98d f   libconcrt:ResourceManager.obj
 0001:0003ca4f       ?InitializeSystemInformation@ResourceManager@details@Concurrency@@CAX_N@Z 0043da4f f   libconcrt:ResourceManager.obj
 0001:0003cc7b       ?MinVprocHWThreads@SchedulerProxy@details@Concurrency@@QBEIXZ 0043dc7b f i libconcrt:ResourceManager.obj
 0001:0003cc94       ?PerformAllocation@ResourceManager@details@Concurrency@@QAEPAVExecutionResource@23@PAVSchedulerProxy@23@_N1@Z 0043dc94 f   libconcrt:ResourceManager.obj
 0001:0003cdea       ?PopulateCommonAllocationData@ResourceManager@details@Concurrency@@AAEXIPAVSchedulerProxy@23@PAUAllocationData@23@@Z 0043ddea f   libconcrt:ResourceManager.obj
 0001:0003ceb0       ?PopulateDynamicAllocationData@ResourceManager@details@Concurrency@@AAEXXZ 0043deb0 f   libconcrt:ResourceManager.obj
 0001:0003cfc3       ?PreProcessDynamicAllocationData@ResourceManager@details@Concurrency@@AAEXXZ 0043dfc3 f   libconcrt:ResourceManager.obj
 0001:0003d08a       ?PreProcessStaticAllocationData@ResourceManager@details@Concurrency@@AAEXXZ 0043e08a f   libconcrt:ResourceManager.obj
 0001:0003d0b9       ?PrepareReceiversForCoreTransfer@ResourceManager@details@Concurrency@@AAEII@Z 0043e0b9 f   libconcrt:ResourceManager.obj
 0001:0003d2cb       ?RedistributeCoresAmongAll@ResourceManager@details@Concurrency@@AAEIPAVSchedulerProxy@23@III@Z 0043e2cb f   libconcrt:ResourceManager.obj
 0001:0003d69f       ?Reference@ResourceManager@details@Concurrency@@UAEIXZ 0043e69f f   libconcrt:ResourceManager.obj
 0001:0003d6a9       ?RegisterScheduler@ResourceManager@details@Concurrency@@UAEPAUISchedulerProxy@3@PAUIScheduler@3@I@Z 0043e6a9 f   libconcrt:ResourceManager.obj
 0001:0003d6ed       ?Release@ResourceManager@details@Concurrency@@UAEIXZ 0043e6ed f   libconcrt:ResourceManager.obj
 0001:0003d798       ?ReleaseCoresOnExistingSchedulers@ResourceManager@details@Concurrency@@AAEIPAVSchedulerProxy@23@II@Z 0043e798 f   libconcrt:ResourceManager.obj
 0001:0003d7ed       ?ReleaseSchedulerResources@ResourceManager@details@Concurrency@@AAE_NPAVSchedulerProxy@23@0I@Z 0043e7ed f   libconcrt:ResourceManager.obj
 0001:0003d8e1       ?Remove@?$List@VSchedulerProxy@details@Concurrency@@VCount@CollectionTypes@23@@details@Concurrency@@QAEXPAVSchedulerProxy@23@@Z 0043e8e1 f i libconcrt:ResourceManager.obj
 0001:0003d917       ?RemoveExecutionResource@ResourceManager@details@Concurrency@@QAEXPAVExecutionResource@23@@Z 0043e917 f   libconcrt:ResourceManager.obj
 0001:0003d98e       ?RequestInitialVirtualProcessors@ResourceManager@details@Concurrency@@QAEPAUIExecutionResource@3@PAVSchedulerProxy@23@_N@Z 0043e98e f   libconcrt:ResourceManager.obj
 0001:0003daa3       ?ReserveAtHigherUseCounts@ResourceManager@details@Concurrency@@AAEIPAVSchedulerProxy@23@I@Z 0043eaa3 f   libconcrt:ResourceManager.obj
 0001:0003dad7       ?ReserveCores@ResourceManager@details@Concurrency@@AAEIPAVSchedulerProxy@23@II@Z 0043ead7 f   libconcrt:ResourceManager.obj
 0001:0003dcb2       ?ResetGlobalAllocationData@ResourceManager@details@Concurrency@@AAEXXZ 0043ecb2 f   libconcrt:ResourceManager.obj
 0001:0003dd09       ?RetrieveSystemVersionInformation@ResourceManager@details@Concurrency@@CAXXZ 0043ed09 f   libconcrt:ResourceManager.obj
 0001:0003ddf7       ?RoundUpScaledAllocations@ResourceManager@details@Concurrency@@CAXPAPAUAllocationData@23@II@Z 0043edf7 f   libconcrt:ResourceManager.obj
 0001:0003dfaf       ?SafeReference@ResourceManager@details@Concurrency@@AAE_NXZ 0043efaf f   libconcrt:ResourceManager.obj
 0001:0003dfce       ?SendResourceNotifications@ResourceManager@details@Concurrency@@QAEXPAVSchedulerProxy@23@@Z 0043efce f   libconcrt:ResourceManager.obj
 0001:0003e1ab       ?SetupStaticAllocationData@ResourceManager@details@Concurrency@@AAEXPAVSchedulerProxy@23@_N@Z 0043f1ab f   libconcrt:ResourceManager.obj
 0001:0003e27a       ?Shutdown@ResourceManager@details@Concurrency@@QAEXPAVSchedulerProxy@23@@Z 0043f27a f   libconcrt:ResourceManager.obj
 0001:0003e34c       ?SubscribeCurrentThread@ResourceManager@details@Concurrency@@QAEPAVExecutionResource@23@PAVSchedulerProxy@23@@Z 0043f34c f   libconcrt:ResourceManager.obj
 0001:0003e3a0       ?ToggleRMIdleState@ResourceManager@details@Concurrency@@AAEXPAUSchedulerNode@23@PAUSchedulerCore@23@PAUGlobalNode@23@PAUGlobalCore@23@PAUAllocationData@23@@Z 0043f3a0 f   libconcrt:ResourceManager.obj
 0001:0003e409       ?Version@ResourceManager@details@Concurrency@@SA?AW4OSVersion@IResourceManager@3@XZ 0043f409 f   libconcrt:ResourceManager.obj
 0001:0003e452       ??0MultiWaitBlock@details@Concurrency@@QAE@I_N0@Z 0043f452 f i libconcrt:event.obj
 0001:0003e48e       ??0MultiWaitBlockHolder@details@Concurrency@@QAE@_NI00@Z 0043f48e f   libconcrt:event.obj
 0001:0003e515       ??0TimedSingleWaitBlock@details@Concurrency@@QAE@_N@Z 0043f515 f i libconcrt:event.obj
 0001:0003e544       ??0WaitAnyBlock@details@Concurrency@@QAE@I_N0@Z 0043f544 f i libconcrt:event.obj
 0001:0003e56c       ??0WaitBlock@details@Concurrency@@QAE@XZ 0043f56c f i libconcrt:event.obj
 0001:0003e58c       ??0_Condition_variable@details@Concurrency@@QAE@XZ 0043f58c f   libconcrt:event.obj
 0001:0003e5a9       ??0event@Concurrency@@QAE@XZ 0043f5a9 f   libconcrt:event.obj
 0001:0003e5ca       ??1?$_MallocaArrayHolder@PAVContext@Concurrency@@@details@Concurrency@@UAE@XZ 0043f5ca f i libconcrt:event.obj
 0001:0003e5da       ??1MultiWaitBlockHolder@details@Concurrency@@QAE@XZ 0043f5da f   libconcrt:event.obj
 0001:0003e5f8       ??1_Condition_variable@details@Concurrency@@QAE@XZ 0043f5f8 f   libconcrt:event.obj
 0001:0003e644       ??1event@Concurrency@@QAE@XZ 0043f644 f   libconcrt:event.obj
 0001:0003e6c6       ??_G?$_MallocaArrayHolder@PAVContext@Concurrency@@@details@Concurrency@@UAEPAXI@Z 0043f6c6 f i libconcrt:event.obj
 0001:0003e6c6       ??_E?$_MallocaArrayHolder@PAVContext@Concurrency@@@details@Concurrency@@UAEPAXI@Z 0043f6c6 f i libconcrt:event.obj
 0001:0003e6f2       ?Destroy@EventWaitNode@details@Concurrency@@QAEXXZ 0043f6f2 f i libconcrt:event.obj
 0001:0003e70b       ?SweepResetNode@SingleWaitBlock@details@Concurrency@@UAE_NXZ 0043f70b f   libconcrt:event.obj
 0001:0003e70b       ?Reset@SingleWaitBlock@details@Concurrency@@UAE_NXZ 0043f70b f   libconcrt:event.obj
 0001:0003e70b       ?Reset@WaitAnyBlock@details@Concurrency@@UAE_NXZ 0043f70b f   libconcrt:event.obj
 0001:0003e70b       ?SweepResetNode@WaitAnyBlock@details@Concurrency@@UAE_NXZ 0043f70b f   libconcrt:event.obj
 0001:0003e70b       ?Destroy@SingleWaitBlock@details@Concurrency@@UAEXXZ 0043f70b f   libconcrt:event.obj
 0001:0003e70c       ?Destroy@TimedSingleWaitBlock@details@Concurrency@@UAEXXZ 0043f70c f   libconcrt:event.obj
 0001:0003e725       ?Destroy@WaitAllBlock@details@Concurrency@@UAEXXZ 0043f725 f   libconcrt:event.obj
 0001:0003e72a       ?DispatchEventTimer@MultiWaitBlock@details@Concurrency@@SGXPAU_TP_CALLBACK_INSTANCE@@PAXPAU_TP_TIMER@@@Z 0043f72a f   libconcrt:event.obj
 0001:0003e788       ?DispatchEventTimer@TimedSingleWaitBlock@details@Concurrency@@SGXPAU_TP_CALLBACK_INSTANCE@@PAXPAU_TP_TIMER@@@Z 0043f788 f   libconcrt:event.obj
 0001:0003e7bb       ?DispatchEventTimerXP@MultiWaitBlock@details@Concurrency@@SGXPAXE@Z 0043f7bb f   libconcrt:event.obj
 0001:0003e813       ?DispatchEventTimerXP@TimedSingleWaitBlock@details@Concurrency@@SGXPAXE@Z 0043f813 f   libconcrt:event.obj
 0001:0003e835       ?GetSharedTimerQueue@details@Concurrency@@YAPAXXZ 0043f835 f   libconcrt:event.obj
 0001:0003e8c9       ?NotifyCompletedNode@MultiWaitBlock@details@Concurrency@@QAEXXZ 0043f8c9 f   libconcrt:event.obj
 0001:0003e8e2       ?Reset@WaitAllBlock@details@Concurrency@@UAE_NXZ 0043f8e2 f   libconcrt:event.obj
 0001:0003e91b       ?Satisfy@EventWaitNode@details@Concurrency@@QAE_NPAPAVContext@3@@Z 0043f91b f i libconcrt:event.obj
 0001:0003e93d       ?Satisfy@SingleWaitBlock@details@Concurrency@@UAE_NPAPAVContext@3@PAVEventWaitNode@23@@Z 0043f93d f   libconcrt:event.obj
 0001:0003e997       ?Satisfy@TimedSingleWaitBlock@details@Concurrency@@UAE_NPAPAVContext@3@PAVEventWaitNode@23@@Z 0043f997 f   libconcrt:event.obj
 0001:0003e9f0       ?Satisfy@WaitAllBlock@details@Concurrency@@UAE_NPAPAVContext@3@PAVEventWaitNode@23@@Z 0043f9f0 f   libconcrt:event.obj
 0001:0003ea37       ?Satisfy@WaitAnyBlock@details@Concurrency@@UAE_NPAPAVContext@3@PAVEventWaitNode@23@@Z 0043fa37 f   libconcrt:event.obj
 0001:0003ea7a       ?Set@StructuredEvent@details@Concurrency@@QAEXXZ 0043fa7a f   libconcrt:event.obj
 0001:0003eac2       ?SingleSatisfy@MultiWaitBlock@details@Concurrency@@MAEXPAPAVContext@3@PAVEventWaitNode@23@@Z 0043fac2 f   libconcrt:event.obj
 0001:0003eb72       ?Sweep@details@Concurrency@@YAPAVEventWaitNode@12@PAV312@_N@Z 0043fb72 f   libconcrt:event.obj
 0001:0003ebac       ?SweepResetNode@EventWaitNode@details@Concurrency@@QAE_NXZ 0043fbac f i libconcrt:event.obj
 0001:0003ebc5       ?SweepResetNode@WaitAllBlock@details@Concurrency@@UAE_NXZ 0043fbc5 f   libconcrt:event.obj
 0001:0003ebf8       ?SweepWaitNode@EventWaitNode@details@Concurrency@@QAE_NXZ 0043fbf8 f i libconcrt:event.obj
 0001:0003ec11       ?SweepWaitNode@TimedSingleWaitBlock@details@Concurrency@@UAE_NXZ 0043fc11 f   libconcrt:event.obj
 0001:0003ec35       ?SweepWaitNode@WaitAllBlock@details@Concurrency@@UAE_NXZ 0043fc35 f   libconcrt:event.obj
 0001:0003ec78       ?SweepWaitNode@WaitAnyBlock@details@Concurrency@@UAE_NXZ 0043fc78 f   libconcrt:event.obj
 0001:0003ecae       ?Wait@StructuredEvent@details@Concurrency@@QAEXXZ 0043fcae f   libconcrt:event.obj
 0001:0003ed17       ?createTimer@TimedSingleWaitBlock@details@Concurrency@@QAE_NI@Z 0043fd17 f i libconcrt:event.obj
 0001:0003ed7a       ?destroyTimer@TimedSingleWaitBlock@details@Concurrency@@QAEX_N@Z 0043fd7a f i libconcrt:event.obj
 0001:0003edc6       ?notify_all@_Condition_variable@details@Concurrency@@QAEXXZ 0043fdc6 f   libconcrt:event.obj
 0001:0003ee31       ?notify_one@_Condition_variable@details@Concurrency@@QAEXXZ 0043fe31 f   libconcrt:event.obj
 0001:0003eeb5       ?set@event@Concurrency@@QAEXXZ 0043feb5 f   libconcrt:event.obj
 0001:0003efd4       ?wait@_Condition_variable@details@Concurrency@@QAEXAAVcritical_section@3@@Z 0043ffd4 f   libconcrt:event.obj
 0001:0003f038       ?wait@event@Concurrency@@QAEII@Z 00440038 f   libconcrt:event.obj
 0001:0003f114       ?wait_for@_Condition_variable@details@Concurrency@@QAE_NAAVcritical_section@3@I@Z 00440114 f   libconcrt:event.obj
 0001:0003f1fc       ?wait_for_multiple@event@Concurrency@@SAIPAPAV12@I_NI@Z 004401fc f   libconcrt:event.obj
 0001:0003f4de       ??0exception_ptr@std@@QAE@ABV01@@Z 004404de f i libconcrt:TaskCollectionBase.obj
 0001:0003f520       ?_Current_exception@exception_ptr@std@@SA?AV12@XZ 00440520 f i libconcrt:TaskCollectionBase.obj
 0001:0003f56c       ?_FinishCancelState@_TaskCollectionBase@details@Concurrency@@IAEXI@Z 0044056c f   libconcrt:TaskCollectionBase.obj
 0001:0003f592       ?_GetTokenState@_TaskCollectionBase@details@Concurrency@@QAEPAV_CancellationTokenState@23@PAPAV_CancellationTokenRegistration@23@@Z 00440592 f   libconcrt:TaskCollectionBase.obj
 0001:0003f5ba       ?_MarkCancellation@_TaskCollectionBase@details@Concurrency@@IAE_NXZ 004405ba f   libconcrt:TaskCollectionBase.obj
 0001:0003f5e2       ?_RaisedCancel@_TaskCollectionBase@details@Concurrency@@IAEXXZ 004405e2 f   libconcrt:TaskCollectionBase.obj
 0001:0003f60d       ?_RaisedException@_TaskCollectionBase@details@Concurrency@@IAEXXZ 0044060d f   libconcrt:TaskCollectionBase.obj
 0001:0003f66b       ?_RethrowException@_TaskCollectionBase@details@Concurrency@@IAEXXZ 0044066b f   libconcrt:TaskCollectionBase.obj
 0001:0003f6db       ?_RethrowException@exception_ptr@std@@QBEXXZ 004406db f i libconcrt:TaskCollectionBase.obj
 0001:0003f6e2       ?_WillInterruptForPendingCancel@_TaskCollectionBase@details@Concurrency@@IAE_NXZ 004406e2 f   libconcrt:TaskCollectionBase.obj
 0001:0003f749       ?rethrow_exception@std@@YAXVexception_ptr@1@@Z 00440749 f i libconcrt:TaskCollectionBase.obj
 0001:0003f762       ??0?$StructuredWorkStealingQueue@V_UnrealizedChore@details@Concurrency@@V_CriticalNonReentrantLock@23@@details@Concurrency@@QAE@PAV_CriticalNonReentrantLock@12@@Z 00440762 f i libconcrt:WorkQueue.obj
 0001:0003f762       ??0?$StructuredWorkStealingQueue@VInternalContextBase@details@Concurrency@@V_HyperNonReentrantLock@23@@details@Concurrency@@QAE@PAV_HyperNonReentrantLock@12@@Z 00440762 f i libconcrt:VirtualProcessor.obj
 0001:0003f7d0       ??0?$WorkStealingQueue@V_UnrealizedChore@details@Concurrency@@V_CriticalNonReentrantLock@23@@details@Concurrency@@QAE@PAV_CriticalNonReentrantLock@12@@Z 004407d0 f i libconcrt:WorkQueue.obj
 0001:0003f837       ??0WorkQueue@details@Concurrency@@QAE@XZ 00440837 f   libconcrt:WorkQueue.obj
 0001:0003f881       ?DeferToAffineSearchers@Slot@?$Mailbox@V_UnrealizedChore@details@Concurrency@@@details@Concurrency@@QBE_NXZ 00440881 f i libconcrt:WorkQueue.obj
 0001:0003f881       ?DeferToAffineSearchers@Slot@?$Mailbox@VInternalContextBase@details@Concurrency@@@details@Concurrency@@QBE_NXZ 00440881 f i libconcrt:SchedulingNode.obj
 0001:0003f8d5       ?IsEmpty@WorkQueue@details@Concurrency@@QBE_NXZ 004408d5 f i libconcrt:WorkQueue.obj
 0001:0003f8ea       ?RedetachFromScheduleGroupAtSafePoint@WorkQueue@details@Concurrency@@QAEXPAVScheduleGroupSegmentBase@23@@Z 004408ea f   libconcrt:WorkQueue.obj
 0001:0003f90e       ?Reinitialize@WorkQueue@details@Concurrency@@AAEXXZ 0044090e f   libconcrt:WorkQueue.obj
 0001:0003f948       ?RetireAtSafePoint@WorkQueue@details@Concurrency@@QAEXPAVScheduleGroupSegmentBase@23@@Z 00440948 f   libconcrt:WorkQueue.obj
 0001:0003f96c       ?StaticRedetachFromScheduleGroup@WorkQueue@details@Concurrency@@CAXPAV123@@Z 0044096c f   libconcrt:WorkQueue.obj
 0001:0003f97d       ?StaticRetire@WorkQueue@details@Concurrency@@CAXPAV123@@Z 0044097d f   libconcrt:WorkQueue.obj
 0001:0003f98e       ?Steal@WorkQueue@details@Concurrency@@QAEPAV_UnrealizedChore@23@_N@Z 0044098e f   libconcrt:WorkQueue.obj
 0001:0003f9d1       ?Sweep@?$WorkStealingQueue@V_UnrealizedChore@details@Concurrency@@V_CriticalNonReentrantLock@23@@details@Concurrency@@QAEXP6A_NPAV_UnrealizedChore@23@PAX@Z12@Z 004409d1 f i libconcrt:WorkQueue.obj
 0001:0003fa85       ?SweepUnstructured@WorkQueue@details@Concurrency@@QAEXP6A_NPAV_UnrealizedChore@23@PAX@Z12@Z 00440a85 f   libconcrt:WorkQueue.obj
 0001:0003fa91       ?TryToSteal@WorkQueue@details@Concurrency@@QAEPAV_UnrealizedChore@23@_NAA_N@Z 00440a91 f   libconcrt:WorkQueue.obj
 0001:0003fb01       ?UnlockedSteal@?$StructuredWorkStealingQueue@VInternalContextBase@details@Concurrency@@V_HyperNonReentrantLock@23@@details@Concurrency@@QAEPAVInternalContextBase@23@_N@Z 00440b01 f i libconcrt:SchedulingNode.obj
 0001:0003fb01       ?UnlockedSteal@?$StructuredWorkStealingQueue@V_UnrealizedChore@details@Concurrency@@V_CriticalNonReentrantLock@23@@details@Concurrency@@QAEPAV_UnrealizedChore@23@_N@Z 00440b01 f i libconcrt:WorkQueue.obj
 0001:0003fb7f       ?UnlockedSteal@?$WorkStealingQueue@V_UnrealizedChore@details@Concurrency@@V_CriticalNonReentrantLock@23@@details@Concurrency@@QAEPAV_UnrealizedChore@23@_N0@Z 00440b7f f i libconcrt:WorkQueue.obj
 0001:0003fc0d       ?UnlockedSteal@WorkQueue@details@Concurrency@@AAEPAV_UnrealizedChore@23@_N@Z 00440c0d f   libconcrt:WorkQueue.obj
 0001:0003fcc9       ??0?$Mailbox@V_UnrealizedChore@details@Concurrency@@@details@Concurrency@@QAE@PAVSchedulerBase@12@ABVQuickBitSet@12@_NI@Z 00440cc9 f i libconcrt:ScheduleGroupBase.obj
 0001:0003fd40       ??0ScheduleGroupBase@details@Concurrency@@QAE@PAVSchedulerBase@12@PAVlocation@2@@Z 00440d40 f   libconcrt:ScheduleGroupBase.obj
 0001:0003fd99       ??0ScheduleGroupSegmentBase@details@Concurrency@@IAE@PAVScheduleGroupBase@12@PAVSchedulingRing@12@PAVlocation@2@@Z 00440d99 f   libconcrt:ScheduleGroupBase.obj
 0001:0003fe5a       ??0Segment@?$Mailbox@V_UnrealizedChore@details@Concurrency@@@details@Concurrency@@QAE@PAVSchedulerBase@23@ABVQuickBitSet@23@II@Z 00440e5a f i libconcrt:ScheduleGroupBase.obj
 0001:0003fec6       ??1?$ListArray@U?$ListArrayInlineLink@VWorkQueue@details@Concurrency@@@details@Concurrency@@@details@Concurrency@@QAE@XZ 00440ec6 f i libconcrt:ScheduleGroupBase.obj
 0001:0003ff40       ??1?$ListArray@VWorkQueue@details@Concurrency@@@details@Concurrency@@QAE@XZ 00440f40 f i libconcrt:ScheduleGroupBase.obj
 0001:0003ffbc       ??1?$Mailbox@V_UnrealizedChore@details@Concurrency@@@details@Concurrency@@QAE@XZ 00440fbc f i libconcrt:ScheduleGroupBase.obj
 0001:00040020       ??1ScheduleGroupSegmentBase@details@Concurrency@@UAE@XZ 00441020 f   libconcrt:ScheduleGroupBase.obj
 0001:0004006e       ??4QuickBitSet@details@Concurrency@@QAEAAV012@$$QAV012@@Z 0044106e f i libconcrt:ScheduleGroupBase.obj
 0001:00040098       ??_EScheduleGroupSegmentBase@details@Concurrency@@UAEPAXI@Z 00441098 f i libconcrt:ScheduleGroupBase.obj
 0001:00040098       ??_GScheduleGroupSegmentBase@details@Concurrency@@UAEPAXI@Z 00441098 f i libconcrt:ScheduleGroupBase.obj
 0001:000400bd       ?Add@?$ListArray@VExternalStatistics@details@Concurrency@@@details@Concurrency@@QAEHPAVExternalStatistics@23@@Z 004410bd f i libconcrt:ScheduleGroupBase.obj
 0001:000400bd       ?Add@?$ListArray@U?$ListArrayInlineLink@VWorkQueue@details@Concurrency@@@details@Concurrency@@@details@Concurrency@@QAEHPAU?$ListArrayInlineLink@VWorkQueue@details@Concurrency@@@23@@Z 004410bd f i libconcrt:ScheduleGroupBase.obj
 0001:0004021e       ?Add@?$ListArray@VScheduleGroupSegmentBase@details@Concurrency@@@details@Concurrency@@QAEHPAVScheduleGroupSegmentBase@23@@Z 0044121e f i libconcrt:ScheduleGroupBase.obj
 0001:00040383       ?AddRunnableContext@ScheduleGroupSegmentBase@details@Concurrency@@IAEXPAVInternalContextBase@23@Vlocation@3@@Z 00441383 f   libconcrt:ScheduleGroupBase.obj
 0001:00040465       ?CheckForDeletion@?$ListArray@U?$ListArrayInlineLink@VWorkQueue@details@Concurrency@@@details@Concurrency@@@details@Concurrency@@AAEXXZ 00441465 f i libconcrt:ScheduleGroupBase.obj
 0001:0004048b       ?CheckForDeletionBridge@?$ListArray@U?$ListArrayInlineLink@VWorkQueue@details@Concurrency@@@details@Concurrency@@@details@Concurrency@@CAXPAV123@@Z 0044148b f i libconcrt:ScheduleGroupBase.obj
 0001:00040497       ?ClearQuickCacheSlotIf@SchedulerBase@details@Concurrency@@QAEXIPAVScheduleGroupSegmentBase@23@@Z 00441497 f i libconcrt:ScheduleGroupBase.obj
 0001:000404bc       ?CreateSegment@ScheduleGroupBase@details@Concurrency@@IAEPAVScheduleGroupSegmentBase@23@PAVlocation@3@PAVSchedulingRing@23@@Z 004414bc f   libconcrt:ScheduleGroupBase.obj
 0001:0004056d       ?DeleteElements@?$ListArray@U?$ListArrayInlineLink@VWorkQueue@details@Concurrency@@@details@Concurrency@@@details@Concurrency@@AAEXPAU_SINGLE_LIST_ENTRY@@@Z 0044156d f i libconcrt:ScheduleGroupBase.obj
 0001:0004058e       ?DemandInitialize@?$Mailbox@V_UnrealizedChore@details@Concurrency@@@details@Concurrency@@AAEXXZ 0044158e f i libconcrt:ScheduleGroupBase.obj
 0001:00040604       ?Dequeue@?$Mailbox@V_UnrealizedChore@details@Concurrency@@@details@Concurrency@@QAE_NPAPAV_UnrealizedChore@23@@Z 00441604 f i libconcrt:ScheduleGroupBase.obj
 0001:000406c6       ?Dequeue@?$SafeSQueue@VRealizedChore@details@Concurrency@@V_HyperNonReentrantLock@23@@details@Concurrency@@QAEPAVRealizedChore@23@XZ 004416c6 f i libconcrt:ScheduleGroupBase.obj
 0001:000406fa       ?DetachActiveWorkQueue@ScheduleGroupSegmentBase@details@Concurrency@@IAEXPAVWorkQueue@23@@Z 004416fa f   libconcrt:ScheduleGroupBase.obj
 0001:00040739       ?Enqueue@?$SafeSQueue@VRealizedChore@details@Concurrency@@V_HyperNonReentrantLock@23@@details@Concurrency@@QAEXPAVRealizedChore@23@@Z 00441739 f i libconcrt:ScheduleGroupBase.obj
 0001:00040774       ?FindSegment@ScheduleGroupBase@details@Concurrency@@MAEPAVScheduleGroupSegmentBase@23@PAVlocation@3@PAVSchedulingRing@23@@Z 00441774 f   libconcrt:ScheduleGroupBase.obj
 0001:000407c8       ?GetDetachedWorkQueue@ScheduleGroupSegmentBase@details@Concurrency@@IAEPAVWorkQueue@23@XZ 004417c8 f   libconcrt:ScheduleGroupBase.obj
 0001:0004082d       ?GetInternalContext@ScheduleGroupSegmentBase@details@Concurrency@@IAEPAVInternalContextBase@23@PAU_Chore@23@_N@Z 0044182d f   libconcrt:ScheduleGroupBase.obj
 0001:00040860       ?GetRealizedChore@ScheduleGroupSegmentBase@details@Concurrency@@IAEPAVRealizedChore@23@XZ 00441860 f   libconcrt:ScheduleGroupBase.obj
 0001:00040870       ?GetResourceMaskId@SchedulerBase@details@Concurrency@@QAEII@Z 00441870 f i libconcrt:ScheduleGroupBase.obj
 0001:0004088e       ?Grow@?$Mailbox@V_UnrealizedChore@details@Concurrency@@@details@Concurrency@@AAEPAUSegment@123@PAU4123@@Z 0044188e f i libconcrt:ScheduleGroupBase.obj
 0001:000408d8       ?HasRealizedChores@ScheduleGroupSegmentBase@details@Concurrency@@IBE_NXZ 004418d8 f   libconcrt:ScheduleGroupBase.obj
 0001:000408e0       ?HasUnrealizedChores@ScheduleGroupSegmentBase@details@Concurrency@@IAE_NXZ 004418e0 f   libconcrt:ScheduleGroupBase.obj
 0001:000408eb       ?Initialize@?$Mailbox@V_UnrealizedChore@details@Concurrency@@@details@Concurrency@@QAEXABVQuickBitSet@23@@Z 004418eb f i libconcrt:ScheduleGroupBase.obj
 0001:00040914       ?Initialize@ScheduleGroupBase@details@Concurrency@@QAEXPAVlocation@3@@Z 00441914 f   libconcrt:ScheduleGroupBase.obj
 0001:00040927       ?Initialize@ScheduleGroupSegmentBase@details@Concurrency@@IAEXPAVScheduleGroupBase@23@PAVSchedulingRing@23@PAVlocation@3@@Z 00441927 f   libconcrt:ScheduleGroupBase.obj
 0001:000409a9       ?LocateMailboxSegment@?$Mailbox@V_UnrealizedChore@details@Concurrency@@@details@Concurrency@@AAEPAUSegment@123@I_N@Z 004419a9 f i libconcrt:ScheduleGroupBase.obj
 0001:000409f1       ?LocateSegment@ScheduleGroupBase@details@Concurrency@@UAEPAVScheduleGroupSegmentBase@23@PAVlocation@3@_N@Z 004419f1 f   libconcrt:ScheduleGroupBase.obj
 0001:00040acd       ?LocateUnrealizedChores@ScheduleGroupSegmentBase@details@Concurrency@@IAEPAVWorkQueue@23@XZ 00441acd f   libconcrt:ScheduleGroupBase.obj
 0001:00040b26       ?MarkDetachment@?$WorkStealingQueue@V_UnrealizedChore@details@Concurrency@@V_CriticalNonReentrantLock@23@@details@Concurrency@@QAEXXZ 00441b26 f i libconcrt:ScheduleGroupBase.obj
 0001:00040b59       ?RedetachQueue@ScheduleGroupSegmentBase@details@Concurrency@@QAEXPAVWorkQueue@23@@Z 00441b59 f   libconcrt:ScheduleGroupBase.obj
 0001:00040b72       ?ReleaseInternalContext@ScheduleGroupSegmentBase@details@Concurrency@@IAEXPAVInternalContextBase@23@@Z 00441b72 f   libconcrt:ScheduleGroupBase.obj
 0001:00040b98       ?Remove@?$ListArray@U?$ListArrayInlineLink@VWorkQueue@details@Concurrency@@@details@Concurrency@@@details@Concurrency@@QAE_NPAU?$ListArrayInlineLink@VWorkQueue@details@Concurrency@@@23@H_N@Z 00441b98 f i libconcrt:ScheduleGroupBase.obj
 0001:00040c89       ?Remove@ScheduleGroupSegmentBase@details@Concurrency@@IAEXXZ 00441c89 f   libconcrt:ScheduleGroupBase.obj
 0001:00040cac       ?RemoveSegments@ScheduleGroupBase@details@Concurrency@@MAEXXZ 00441cac f   libconcrt:ScheduleGroupBase.obj
 0001:00040ceb       ?RetireDetachedQueue@ScheduleGroupSegmentBase@details@Concurrency@@QAEXPAVWorkQueue@23@@Z 00441ceb f   libconcrt:ScheduleGroupBase.obj
 0001:00040d12       ?SafelyDeleteDetachedWorkQueue@ScheduleGroupSegmentBase@details@Concurrency@@IAE_NPAVWorkQueue@23@@Z 00441d12 f   libconcrt:ScheduleGroupBase.obj
 0001:00040d54       ?ScheduleTask@ScheduleGroupBase@details@Concurrency@@QAEXP6AXPAX@Z0AAVlocation@3@@Z 00441d54 f   libconcrt:ScheduleGroupBase.obj
 0001:00040d84       ?ScheduleTask@ScheduleGroupBase@details@Concurrency@@UAEXP6AXPAX@Z0@Z 00441d84 f   libconcrt:ScheduleGroupBase.obj
 0001:00040dac       ?ScheduleTask@ScheduleGroupSegmentBase@details@Concurrency@@QAEXP6AXPAX@Z0@Z 00441dac f   libconcrt:ScheduleGroupBase.obj
 0001:00040ee0       ?SetDeletionReferences@Segment@?$Mailbox@V_UnrealizedChore@details@Concurrency@@@details@Concurrency@@QAEXI@Z 00441ee0 f i libconcrt:ScheduleGroupBase.obj
 0001:00040f06       ?StealUnrealizedChore@ScheduleGroupSegmentBase@details@Concurrency@@IAEPAV_UnrealizedChore@23@_N@Z 00441f06 f   libconcrt:ScheduleGroupBase.obj
 0001:000410b1       ??0SchedulerPolicy@Concurrency@@QAA@IZZ 004420b1 f   libconcrt:SchedulerPolicyBase.obj
 0001:000410cf       ??0SchedulerPolicy@Concurrency@@QAE@ABV01@@Z 004420cf f   libconcrt:SchedulerPolicyBase.obj
 0001:000410f5       ??0invalid_scheduler_policy_key@Concurrency@@QAE@ABV01@@Z 004420f5 f i libconcrt:SchedulerPolicyBase.obj
 0001:00041110       ??0invalid_scheduler_policy_thread_specification@Concurrency@@QAE@ABV01@@Z 00442110 f i libconcrt:SchedulerPolicyBase.obj
 0001:0004112b       ??0invalid_scheduler_policy_value@Concurrency@@QAE@ABV01@@Z 0044212b f i libconcrt:SchedulerPolicyBase.obj
 0001:00041146       ??1SchedulerPolicy@Concurrency@@QAE@XZ 00442146 f   libconcrt:SchedulerPolicyBase.obj
 0001:00041152       ??4SchedulerPolicy@Concurrency@@QAEAAV01@ABV01@@Z 00442152 f   libconcrt:SchedulerPolicyBase.obj
 0001:00041170       ?GetPolicyValue@SchedulerPolicy@Concurrency@@QBEIW4PolicyElementKey@2@@Z 00442170 f   libconcrt:SchedulerPolicyBase.obj
 0001:000411a6       ?_AreConcurrencyLimitsValid@SchedulerPolicy@Concurrency@@CA_NII@Z 004421a6 f   libconcrt:SchedulerPolicyBase.obj
 0001:000411c4       ?_Initialize@SchedulerPolicy@Concurrency@@AAEXIPAPAD@Z 004421c4 f   libconcrt:SchedulerPolicyBase.obj
 0001:000412b0       ?_ResolvePolicyValues@SchedulerPolicy@Concurrency@@AAEXXZ 004422b0 f   libconcrt:SchedulerPolicyBase.obj
 0001:000412f9       ?_StringFromPolicyKey@SchedulerPolicy@Concurrency@@CAPADI@Z 004422f9 f   libconcrt:SchedulerPolicyBase.obj
 0001:00041310       ?_ValidPolicyValue@SchedulerPolicy@Concurrency@@CA_NW4PolicyElementKey@2@I@Z 00442310 f   libconcrt:SchedulerPolicyBase.obj
 0001:000413f0       ?_ValidateConcRTPolicy@SchedulerPolicy@Concurrency@@QBEXXZ 004423f0 f   libconcrt:SchedulerPolicyBase.obj
 0001:0004142a       ??$_InternalDeleteHelper@VVirtualProcessor@details@Concurrency@@@details@Concurrency@@YAXPAVVirtualProcessor@01@@Z 0044242a f i libconcrt:VirtualProcessor.obj
 0001:0004142a       ??$_InternalDeleteHelper@VScheduleGroupSegmentBase@details@Concurrency@@@details@Concurrency@@YAXPAVScheduleGroupSegmentBase@01@@Z 0044242a f i libconcrt:SchedulingRing.obj
 0001:0004144c       ??0VirtualProcessor@details@Concurrency@@QAE@XZ 0044244c f   libconcrt:VirtualProcessor.obj
 0001:000414ac       ??1VirtualProcessor@details@Concurrency@@UAE@XZ 004424ac f   libconcrt:VirtualProcessor.obj
 0001:0004150c       ??_GVirtualProcessor@details@Concurrency@@UAEPAXI@Z 0044250c f i libconcrt:VirtualProcessor.obj
 0001:0004150c       ??_EVirtualProcessor@details@Concurrency@@UAEPAXI@Z 0044250c f i libconcrt:VirtualProcessor.obj
 0001:00041531       ?AcknowledgedAffinityMessage@SchedulerBase@details@Concurrency@@QAE_NI@Z 00442531 f i libconcrt:VirtualProcessor.obj
 0001:00041566       ?Affinitize@VirtualProcessor@details@Concurrency@@MAEXPAVInternalContextBase@23@@Z 00442566 f   libconcrt:VirtualProcessor.obj
 0001:000415af       ?CheckAffinityNotification@VirtualProcessor@details@Concurrency@@QAE_NXZ 004425af f   libconcrt:VirtualProcessor.obj
 0001:000415cd       ?CheckForDeletion@?$ListArray@VVirtualProcessor@details@Concurrency@@@details@Concurrency@@AAEXXZ 004425cd f i libconcrt:VirtualProcessor.obj
 0001:000415f3       ?CheckForDeletionBridge@?$ListArray@VVirtualProcessor@details@Concurrency@@@details@Concurrency@@CAXPAV123@@Z 004425f3 f i libconcrt:VirtualProcessor.obj
 0001:000415ff       ?ClaimExclusiveOwnership@VirtualProcessor@details@Concurrency@@QAE_NAAVClaimTicket@123@K_N@Z 004425ff f   libconcrt:VirtualProcessor.obj
 0001:00041694       ?ClearQuickCacheSlot@SchedulerBase@details@Concurrency@@QAEXI@Z 00442694 f i libconcrt:VirtualProcessor.obj
 0001:000416b9       ?Deactivate@VirtualProcessor@details@Concurrency@@QAE_NPAUIExecutionContext@3@@Z 004426b9 f   libconcrt:VirtualProcessor.obj
 0001:000416db       ?DeleteElements@?$ListArray@VVirtualProcessor@details@Concurrency@@@details@Concurrency@@AAEXPAU_SINGLE_LIST_ENTRY@@@Z 004426db f i libconcrt:VirtualProcessor.obj
 0001:000416fc       ?EnsureAllTasksVisible@VirtualProcessor@details@Concurrency@@QAEXPAUIExecutionContext@3@@Z 004426fc f   libconcrt:VirtualProcessor.obj
 0001:0004171e       ?ExerciseClaim@VirtualProcessor@details@Concurrency@@AAE_NW4AvailabilityType@123@PAVScheduleGroupSegmentBase@23@PAVInternalContextBase@23@@Z 0044271e f   libconcrt:VirtualProcessor.obj
 0001:000417af       ?ExerciseWith@ClaimTicket@VirtualProcessor@details@Concurrency@@QAE_NPAVInternalContextBase@34@@Z 004427af f   libconcrt:VirtualProcessor.obj
 0001:000417da       ?GetCurrentSubAllocator@VirtualProcessor@details@Concurrency@@QAEPAVSubAllocator@23@XZ 004427da f   libconcrt:VirtualProcessor.obj
 0001:000417f0       ?Initialize@VirtualProcessor@details@Concurrency@@MAEXPAVSchedulingNode@23@PAUIVirtualProcessorRoot@3@@Z 004427f0 f   libconcrt:VirtualProcessor.obj
 0001:0004196e       ?InterlockedClear@ReferenceCountedQuickBitSet@details@Concurrency@@QAEII@Z 0044296e f i libconcrt:VirtualProcessor.obj
 0001:000419ae       ?InterlockedSet@ReferenceCountedQuickBitSet@details@Concurrency@@QAEII@Z 004429ae f i libconcrt:VirtualProcessor.obj
 0001:000419f2       ?MakeAvailable@VirtualProcessor@details@Concurrency@@IAEXW4AvailabilityType@123@_N@Z 004429f2 f   libconcrt:VirtualProcessor.obj
 0001:00041a62       ?MarkForRetirement@VirtualProcessor@details@Concurrency@@AAEXXZ 00442a62 f   libconcrt:VirtualProcessor.obj
 0001:00041acc       ?Oversubscribe@VirtualProcessor@details@Concurrency@@EAEPAV123@XZ 00442acc f   libconcrt:VirtualProcessor.obj
 0001:00041aff       ?Remove@?$ListArray@VVirtualProcessor@details@Concurrency@@@details@Concurrency@@QAE_NPAVVirtualProcessor@23@H_N@Z 00442aff f i libconcrt:VirtualProcessor.obj
 0001:00041bf3       ?Retire@VirtualProcessor@details@Concurrency@@MAEXXZ 00442bf3 f   libconcrt:VirtualProcessor.obj
 0001:00041d55       ?SafePoint@VirtualProcessor@details@Concurrency@@QAE_NXZ 00442d55 f   libconcrt:VirtualProcessor.obj
 0001:00041d67       ?SaveRetiredVirtualProcessorStatistics@SchedulerBase@details@Concurrency@@QAEXPAVVirtualProcessor@23@@Z 00442d67 f i libconcrt:VirtualProcessor.obj
 0001:00041da1       ?SpinUntilClear@QuickBitSet@details@Concurrency@@QBEXI@Z 00442da1 f i libconcrt:VirtualProcessor.obj
 0001:00041de9       ?SpinUntilSet@QuickBitSet@details@Concurrency@@QBEXI@Z 00442de9 f i libconcrt:VirtualProcessor.obj
 0001:00041e31       ?StartupWorkerContext@VirtualProcessor@details@Concurrency@@EAE_NPAVScheduleGroupSegmentBase@23@PAVInternalContextBase@23@@Z 00442e31 f   libconcrt:VirtualProcessor.obj
 0001:00041ecf       ?ThrowVirtualProcessorEvent@VirtualProcessor@details@Concurrency@@CAXW4ConcRT_EventType@3@EKK@Z 00442ecf f   libconcrt:VirtualProcessor.obj
 0001:00041f40       ?ToInternalContext@VirtualProcessor@details@Concurrency@@MAEPAVInternalContextBase@23@PAUIExecutionContext@3@@Z 00442f40 f   libconcrt:VirtualProcessor.obj
 0001:00041f4a       ?TraceVirtualProcessorEvent@VirtualProcessor@details@Concurrency@@AAEXW4ConcRT_EventType@3@EKK@Z 00442f4a f i libconcrt:VirtualProcessor.obj
 0001:00041f77       ?UpdateWorkState@VirtualProcessor@details@Concurrency@@QAEX_N0@Z 00442f77 f   libconcrt:VirtualProcessor.obj
 0001:00041fd5       ?Wipe@QuickBitSet@details@Concurrency@@QAEXXZ 00442fd5 f i libconcrt:VirtualProcessor.obj
 0001:00041ff2       ??0SchedulingNode@details@Concurrency@@QAE@ABVQuickBitSet@12@KPAVSchedulingRing@12@@Z 00442ff2 f   libconcrt:SchedulingNode.obj
 0001:0004206f       ??1?$ListArray@VVirtualProcessor@details@Concurrency@@@details@Concurrency@@QAE@XZ 0044306f f i libconcrt:SchedulingNode.obj
 0001:000420e6       ??1SchedulingNode@details@Concurrency@@QAE@XZ 004430e6 f   libconcrt:SchedulingNode.obj
 0001:0004210f       ?Add@?$ListArray@VVirtualProcessor@details@Concurrency@@@details@Concurrency@@QAEHPAVVirtualProcessor@23@@Z 0044310f f i libconcrt:SchedulingNode.obj
 0001:00042271       ?AddVirtualProcessor@SchedulingNode@details@Concurrency@@QAEPAVVirtualProcessor@23@PAUIVirtualProcessorRoot@3@_N@Z 00443271 f   libconcrt:SchedulingNode.obj
 0001:00042379       ?FindMatchingVirtualProcessor@SchedulingNode@details@Concurrency@@QAEPAVVirtualProcessor@23@PAUIVirtualProcessorRoot@3@@Z 00443379 f   libconcrt:SchedulingNode.obj
 0001:000423b6       ?FindVirtualProcessorByLocation@SchedulingNode@details@Concurrency@@QAEPAVVirtualProcessor@23@PBVlocation@3@@Z 004433b6 f   libconcrt:SchedulingNode.obj
 0001:00042410       ?FoundAvailableVirtualProcessor@SchedulingNode@details@Concurrency@@AAE_NAAVClaimTicket@VirtualProcessor@23@Vlocation@3@K@Z 00443410 f   libconcrt:SchedulingNode.obj
 0001:00042480       ?GetLocation@SchedulingNode@details@Concurrency@@QAE?AVlocation@3@XZ 00443480 f   libconcrt:SchedulingNode.obj
 0001:000424b4       ?Steal@?$StructuredWorkStealingQueue@VInternalContextBase@details@Concurrency@@V_HyperNonReentrantLock@23@@details@Concurrency@@QAEPAVInternalContextBase@23@_N@Z 004434b4 f i libconcrt:SchedulingNode.obj
 0001:000424f7       ??0InternalContextBase@details@Concurrency@@QAE@PAVSchedulerBase@12@@Z 004434f7 f   libconcrt:InternalContextBase.obj
 0001:0004256e       ??0context_self_unblock@Concurrency@@QAE@ABV01@@Z 0044356e f i libconcrt:InternalContextBase.obj
 0001:00042589       ??0context_unblock_unbalanced@Concurrency@@QAE@ABV01@@Z 00443589 f i libconcrt:InternalContextBase.obj
 0001:000425a4       ??0invalid_oversubscribe_operation@Concurrency@@QAE@ABV01@@Z 004435a4 f i libconcrt:InternalContextBase.obj
 0001:000425bf       ??0nested_scheduler_missing_detach@Concurrency@@QAE@ABV01@@Z 004435bf f i libconcrt:InternalContextBase.obj
 0001:000425da       ??1InternalContextBase@details@Concurrency@@UAE@XZ 004435da f   libconcrt:InternalContextBase.obj
 0001:00042626       ??1ScopedCriticalRegion@ContextBase@details@Concurrency@@QAE@XZ 00443626 f i libconcrt:InternalContextBase.obj
 0001:0004265c       ??_EInternalContextBase@details@Concurrency@@W3AEPAXI@Z 0044365c f i libconcrt:InternalContextBase.obj
 0001:00042664       ??_EInternalContextBase@details@Concurrency@@UAEPAXI@Z 00443664 f i libconcrt:InternalContextBase.obj
 0001:00042664       ??_GInternalContextBase@details@Concurrency@@UAEPAXI@Z 00443664 f i libconcrt:InternalContextBase.obj
 0001:00042689       ?AddToRunnables@InternalContextBase@details@Concurrency@@MAEXVlocation@3@@Z 00443689 f   libconcrt:InternalContextBase.obj
 0001:00042807       ?Alloc@InternalContextBase@details@Concurrency@@UAEPAXI@Z 00443807 f   libconcrt:InternalContextBase.obj
 0001:0004285b       ?Block@InternalContextBase@details@Concurrency@@UAEXXZ 0044385b f   libconcrt:InternalContextBase.obj
 0001:00042997       ?Cancel@InternalContextBase@details@Concurrency@@MAEXXZ 00443997 f   libconcrt:InternalContextBase.obj
 0001:00042a09       ?Cleanup@InternalContextBase@details@Concurrency@@IAEXXZ 00443a09 f   libconcrt:InternalContextBase.obj
 0001:00042a21       ?CleanupDispatchedContextOnCancel@InternalContextBase@details@Concurrency@@IAEXXZ 00443a21 f   libconcrt:InternalContextBase.obj
 0001:00042a3c       ?Dispatch@InternalContextBase@details@Concurrency@@UAEXPAUDispatchState@3@@Z 00443a3c f   libconcrt:InternalContextBase.obj
 0001:00042bca       ?ExecuteChoreInline@InternalContextBase@details@Concurrency@@IAEXPAVWorkItem@23@@Z 00443bca f   libconcrt:InternalContextBase.obj
 0001:00042c07       ?ExecutedAssociatedChore@InternalContextBase@details@Concurrency@@IAE_NXZ 00443c07 f   libconcrt:InternalContextBase.obj
 0001:00042c75       ?FindWorkForBlockingOrNesting@InternalContextBase@details@Concurrency@@AAEPAV123@AA_N0@Z 00443c75 f   libconcrt:InternalContextBase.obj
 0001:00042d9f       ?Free@InternalContextBase@details@Concurrency@@UAEXPAX@Z 00443d9f f   libconcrt:InternalContextBase.obj
 0001:00042dcb       ?GetAndResetOversubscribedVProc@InternalContextBase@details@Concurrency@@QAEPAVVirtualProcessor@23@PAV423@@Z 00443dcb f   libconcrt:InternalContextBase.obj
 0001:00042df9       ?GetId@InternalContextBase@details@Concurrency@@UBEIXZ 00443df9 f   libconcrt:InternalContextBase.obj
 0001:00042dfd       ?GetId@InternalContextBase@details@Concurrency@@W3BEIXZ 00443dfd f i libconcrt:InternalContextBase.obj
 0001:00042e05       ?GetProxy@InternalContextBase@details@Concurrency@@UAEPAUIThreadProxy@3@XZ 00443e05 f   libconcrt:InternalContextBase.obj
 0001:00042e0c       ?GetScheduler@InternalContextBase@details@Concurrency@@UAEPAUIScheduler@3@XZ 00443e0c f   libconcrt:InternalContextBase.obj
 0001:00042e25       ?GetVirtualProcessorId@InternalContextBase@details@Concurrency@@UBEIXZ 00443e25 f   libconcrt:InternalContextBase.obj
 0001:00042e54       ?IsSynchronouslyBlocked@InternalContextBase@details@Concurrency@@UBE_NXZ 00443e54 f i libconcrt:InternalContextBase.obj
 0001:00042e5c       ?IsVirtualProcessorRetired@InternalContextBase@details@Concurrency@@IAE_NXZ 00443e5c f   libconcrt:InternalContextBase.obj
 0001:00042eba       ?LeaveScheduler@InternalContextBase@details@Concurrency@@AAEXXZ 00443eba f   libconcrt:InternalContextBase.obj
 0001:00042fbf       ?Oversubscribe@InternalContextBase@details@Concurrency@@UAEX_N@Z 00443fbf f   libconcrt:InternalContextBase.obj
 0001:00043045       ?PrepareForUse@InternalContextBase@details@Concurrency@@QAEXPAVScheduleGroupSegmentBase@23@PAU_Chore@23@_N@Z 00444045 f   libconcrt:InternalContextBase.obj
 0001:00043098       ?PrepareToRun@InternalContextBase@details@Concurrency@@MAEXPAVVirtualProcessor@23@@Z 00444098 f i libconcrt:InternalContextBase.obj
 0001:000430af       ?ReclaimVirtualProcessor@InternalContextBase@details@Concurrency@@IAEXXZ 004440af f   libconcrt:InternalContextBase.obj
 0001:00043118       ?RejoinScheduler@InternalContextBase@details@Concurrency@@AAEXXZ 00444118 f   libconcrt:InternalContextBase.obj
 0001:00043137       ?RemoveFromUse@InternalContextBase@details@Concurrency@@QAEXXZ 00444137 f   libconcrt:InternalContextBase.obj
 0001:0004315a       ?SearchForWork@VirtualProcessor@details@Concurrency@@QAE_NPAVWorkItem@23@PAVScheduleGroupSegmentBase@23@_N@Z 0044415a f i libconcrt:InternalContextBase.obj
 0001:00043182       ?SetProxy@InternalContextBase@details@Concurrency@@UAEXPAUIThreadProxy@3@@Z 00444182 f   libconcrt:InternalContextBase.obj
 0001:000431b5       ?SpinUntilBlocked@InternalContextBase@details@Concurrency@@IAEXXZ 004441b5 f   libconcrt:InternalContextBase.obj
 0001:000431e0       ?SpinUntilValueEquals@details@Concurrency@@YAXPCJJ@Z 004441e0 f i libconcrt:InternalContextBase.obj
 0001:0004320d       ?SpinYield@InternalContextBase@details@Concurrency@@UAEXXZ 0044420d f   libconcrt:InternalContextBase.obj
 0001:000432c8       ?SwapScheduleGroupSegment@InternalContextBase@details@Concurrency@@QAEXPAVScheduleGroupSegmentBase@23@_N@Z 004442c8 f   libconcrt:InternalContextBase.obj
 0001:00043313       ?SwitchOut@InternalContextBase@details@Concurrency@@IAE_NW4ReasonForSwitch@123@@Z 00444313 f   libconcrt:InternalContextBase.obj
 0001:00043432       ?SwitchTo@InternalContextBase@details@Concurrency@@IAEXPAV123@W4ReasonForSwitch@123@@Z 00444432 f   libconcrt:InternalContextBase.obj
 0001:00043577       ?Unblock@InternalContextBase@details@Concurrency@@UAEXXZ 00444577 f   libconcrt:InternalContextBase.obj
 0001:00043636       ?WaitForWork@InternalContextBase@details@Concurrency@@IAEXXZ 00444636 f   libconcrt:InternalContextBase.obj
 0001:00043736       ?WorkWasFound@InternalContextBase@details@Concurrency@@IAE_NPAVWorkItem@23@@Z 00444736 f   libconcrt:InternalContextBase.obj
 0001:00043792       ?Yield@InternalContextBase@details@Concurrency@@UAEXXZ 00444792 f   libconcrt:InternalContextBase.obj
 0001:00043916       ??0SchedulingRing@details@Concurrency@@QAE@PAVSchedulerBase@12@H@Z 00444916 f   libconcrt:SchedulingRing.obj
 0001:0004399f       ??1?$ListArray@VScheduleGroupSegmentBase@details@Concurrency@@@details@Concurrency@@QAE@XZ 0044499f f i libconcrt:SchedulingRing.obj
 0001:00043a16       ??1SchedulingRing@details@Concurrency@@QAE@XZ 00444a16 f   libconcrt:SchedulingRing.obj
 0001:00043a2e       ?Activate@SchedulingRing@details@Concurrency@@QAEXXZ 00444a2e f   libconcrt:SchedulingRing.obj
 0001:00043a3a       ?CheckForDeletion@?$ListArray@VScheduleGroupSegmentBase@details@Concurrency@@@details@Concurrency@@AAEXXZ 00444a3a f i libconcrt:SchedulingRing.obj
 0001:00043a60       ?CheckForDeletionBridge@?$ListArray@VScheduleGroupSegmentBase@details@Concurrency@@@details@Concurrency@@CAXPAV123@@Z 00444a60 f i libconcrt:SchedulingRing.obj
 0001:00043a6c       ?DeleteElements@?$ListArray@VScheduleGroupSegmentBase@details@Concurrency@@@details@Concurrency@@AAEXPAU_SINGLE_LIST_ENTRY@@@Z 00444a6c f i libconcrt:SchedulingRing.obj
 0001:00043a8d       ?Remove@?$ListArray@VScheduleGroupSegmentBase@details@Concurrency@@@details@Concurrency@@QAE_NPAVScheduleGroupSegmentBase@23@H_N@Z 00444a8d f i libconcrt:SchedulingRing.obj
 0001:00043b81       ?RemoveScheduleGroupSegment@SchedulingRing@details@Concurrency@@AAEXPAVScheduleGroupSegmentBase@23@@Z 00444b81 f   libconcrt:SchedulingRing.obj
 0001:00043bb0       ??IQuickBitSet@details@Concurrency@@QBE?AV012@ABV012@@Z 00444bb0 f i libconcrt:CacheLocalScheduleGroup.obj
 0001:00043bfc       ?AddToRunnablesCollection@FairScheduleGroupSegment@details@Concurrency@@EAEXPAVInternalContextBase@23@@Z 00444bfc f   libconcrt:FairScheduleGroup.obj
 0001:00043bfc       ?AddToRunnablesCollection@CacheLocalScheduleGroupSegment@details@Concurrency@@EAEXPAVInternalContextBase@23@@Z 00444bfc f   libconcrt:CacheLocalScheduleGroup.obj
 0001:00043c0b       ?Enqueue@?$Mailbox@V_UnrealizedChore@details@Concurrency@@@details@Concurrency@@QAE?AVSlot@123@PAV_UnrealizedChore@23@@Z 00444c0b f i libconcrt:CacheLocalScheduleGroup.obj
 0001:00043c5a       ?Enqueue@?$SafeSQueue@VInternalContextBase@details@Concurrency@@V_HyperNonReentrantLock@23@@details@Concurrency@@QAEXPAVInternalContextBase@23@@Z 00444c5a f i libconcrt:CacheLocalScheduleGroup.obj
 0001:00043c98       ?InterlockedSet@QuickBitSet@details@Concurrency@@QAEXABV123@@Z 00444c98 f i libconcrt:CacheLocalScheduleGroup.obj
 0001:00043cd0       ?MailChore@CacheLocalScheduleGroup@details@Concurrency@@UAE?AVSlot@?$Mailbox@V_UnrealizedChore@details@Concurrency@@@23@PAV_UnrealizedChore@23@PAVlocation@3@PAPAVScheduleGroupSegmentBase@23@@Z 00444cd0 f   libconcrt:CacheLocalScheduleGroup.obj
 0001:00043d08       ?MailChore@CacheLocalScheduleGroupSegment@details@Concurrency@@QAE?AVSlot@?$Mailbox@V_UnrealizedChore@details@Concurrency@@@23@PAV_UnrealizedChore@23@@Z 00444d08 f   libconcrt:CacheLocalScheduleGroup.obj
 0001:00043d20       ?NotifyAffinitizedWork@CacheLocalScheduleGroupSegment@details@Concurrency@@UAEXXZ 00444d20 f   libconcrt:CacheLocalScheduleGroup.obj
 0001:00043d53       ?PostAffinityMessage@SchedulerBase@details@Concurrency@@QAEXABVQuickBitSet@23@@Z 00444d53 f i libconcrt:CacheLocalScheduleGroup.obj
 0001:00043d91       ?SetQuickCacheSlot@SchedulerBase@details@Concurrency@@QAEXIPAVScheduleGroupSegmentBase@23@@Z 00444d91 f i libconcrt:CacheLocalScheduleGroup.obj
 0001:00043db7       ?FindSegment@FairScheduleGroup@details@Concurrency@@MAEPAVScheduleGroupSegmentBase@23@PAVlocation@3@PAVSchedulingRing@23@@Z 00444db7 f   libconcrt:FairScheduleGroup.obj
 0001:00043de6       ?LocateSegment@FairScheduleGroup@details@Concurrency@@UAEPAVScheduleGroupSegmentBase@23@PAVlocation@3@_N@Z 00444de6 f   libconcrt:FairScheduleGroup.obj
 0001:00043e4f       ??0ExternalContextBase@details@Concurrency@@QAE@PAVSchedulerBase@12@_N@Z 00444e4f f   libconcrt:ExternalContextBase.obj
 0001:00043ee8       ??1ExternalContextBase@details@Concurrency@@UAE@XZ 00444ee8 f   libconcrt:ExternalContextBase.obj
 0001:00043f2d       ??_EExternalContextBase@details@Concurrency@@UAEPAXI@Z 00444f2d f i libconcrt:ExternalContextBase.obj
 0001:00043f2d       ??_GExternalContextBase@details@Concurrency@@UAEPAXI@Z 00444f2d f i libconcrt:ExternalContextBase.obj
 0001:00043f52       ?Alloc@ExternalContextBase@details@Concurrency@@UAEPAXI@Z 00444f52 f   libconcrt:ExternalContextBase.obj
 0001:00043f73       ?Block@ExternalContextBase@details@Concurrency@@UAEXXZ 00444f73 f   libconcrt:ExternalContextBase.obj
 0001:00043fbd       ?Cleanup@ExternalContextBase@details@Concurrency@@AAEXXZ 00444fbd f   libconcrt:ExternalContextBase.obj
 0001:00044015       ?Free@ExternalContextBase@details@Concurrency@@UAEXPAX@Z 00445015 f   libconcrt:ExternalContextBase.obj
 0001:0004403a       ?GetCurrentSubAllocator@ExternalContextBase@details@Concurrency@@QAEPAVSubAllocator@23@XZ 0044503a f i libconcrt:ExternalContextBase.obj
 0001:00044057       ?GetVirtualProcessorId@ExternalContextBase@details@Concurrency@@UBEIXZ 00445057 f i libconcrt:ExternalContextBase.obj
 0001:0004405b       ?ImplicitDetachHandler@ExternalContextBase@details@Concurrency@@CGXPAU_TP_CALLBACK_INSTANCE@@PAXPAU_TP_WAIT@@K@Z 0044505b f   libconcrt:ExternalContextBase.obj
 0001:0004407d       ?ImplicitDetachHandlerXP@ExternalContextBase@details@Concurrency@@CGXPAXE@Z 0044507d f   libconcrt:ExternalContextBase.obj
 0001:000440a0       ?IsSynchronouslyBlocked@ExternalContextBase@details@Concurrency@@UBE_NXZ 004450a0 f i libconcrt:ExternalContextBase.obj
 0001:000440a8       ?Oversubscribe@ExternalContextBase@details@Concurrency@@UAEX_N@Z 004450a8 f   libconcrt:ExternalContextBase.obj
 0001:000440dd       ?PrepareForUse@ExternalContextBase@details@Concurrency@@QAEX_N@Z 004450dd f   libconcrt:ExternalContextBase.obj
 0001:000441a0       ?RemoveFromUse@ExternalContextBase@details@Concurrency@@QAEXXZ 004451a0 f   libconcrt:ExternalContextBase.obj
 0001:000441c2       ?SpinYield@ExternalContextBase@details@Concurrency@@UAEXXZ 004451c2 f i libconcrt:ExternalContextBase.obj
 0001:000441da       ?Unblock@ExternalContextBase@details@Concurrency@@UAEXXZ 004451da f   libconcrt:ExternalContextBase.obj
 0001:0004425b       ?Yield@ExternalContextBase@details@Concurrency@@UAEXXZ 0044525b f   libconcrt:ExternalContextBase.obj
 0001:0004428b       ??0ThreadInternalContext@details@Concurrency@@QAE@PAVSchedulerBase@12@@Z 0044528b f i libconcrt:ThreadScheduler.obj
 0001:000442b1       ??0ThreadScheduler@details@Concurrency@@QAE@ABVSchedulerPolicy@2@@Z 004452b1 f   libconcrt:ThreadScheduler.obj
 0001:000442e2       ??1ThreadScheduler@details@Concurrency@@UAE@XZ 004452e2 f   libconcrt:ThreadScheduler.obj
 0001:000442f6       ??_EThreadInternalContext@details@Concurrency@@W3AEPAXI@Z 004452f6 f i libconcrt:ThreadScheduler.obj
 0001:000442fe       ??_EThreadScheduler@details@Concurrency@@W7AEPAXI@Z 004452fe f i libconcrt:ThreadScheduler.obj
 0001:00044306       ??_GThreadInternalContext@details@Concurrency@@UAEPAXI@Z 00445306 f i libconcrt:ThreadScheduler.obj
 0001:00044306       ??_EThreadInternalContext@details@Concurrency@@UAEPAXI@Z 00445306 f i libconcrt:ThreadScheduler.obj
 0001:00044338       ??_GThreadScheduler@details@Concurrency@@UAEPAXI@Z 00445338 f i libconcrt:ThreadScheduler.obj
 0001:00044338       ??_EThreadScheduler@details@Concurrency@@UAEPAXI@Z 00445338 f i libconcrt:ThreadScheduler.obj
 0001:0004435d       ?AddVirtualProcessors@ThreadScheduler@details@Concurrency@@UAEXPAPAUIVirtualProcessorRoot@3@I@Z 0044535d f i libconcrt:ThreadScheduler.obj
 0001:00044369       ?Create@ThreadScheduler@details@Concurrency@@SAPAV123@ABVSchedulerPolicy@3@@Z 00445369 f   libconcrt:ThreadScheduler.obj
 0001:0004439c       ?CreateInternalContext@ThreadScheduler@details@Concurrency@@MAEPAVInternalContextBase@23@XZ 0044539c f   libconcrt:ThreadScheduler.obj
 0001:000443da       ?CreateVirtualProcessor@ThreadScheduler@details@Concurrency@@UAEPAVVirtualProcessor@23@PAVSchedulingNode@23@PAUIVirtualProcessorRoot@3@@Z 004453da f   libconcrt:ThreadScheduler.obj
 0001:00044412       ?GetContextKind@ThreadInternalContext@details@Concurrency@@UBE?AW4ContextKind@ContextBase@23@XZ 00445412 f i libconcrt:ThreadScheduler.obj
 0001:00044412       __get_startup_argv_mode    00445412 f i LIBCMT:argv_mode.obj
 0001:00044416       ?GetIScheduler@ThreadScheduler@details@Concurrency@@UAEPAUIScheduler@3@XZ 00445416 f i libconcrt:ThreadScheduler.obj
 0001:0004441a       ?GetId@ThreadScheduler@details@Concurrency@@UBEIXZ 0044541a f i libconcrt:ThreadScheduler.obj
 0001:00044433       ?GetPolicy@ThreadScheduler@details@Concurrency@@UBE?AVSchedulerPolicy@3@XZ 00445433 f i libconcrt:ThreadScheduler.obj
 0001:00044448       ?GetPolicy@ThreadScheduler@details@Concurrency@@W7BE?AVSchedulerPolicy@3@XZ 00445448 f i libconcrt:ThreadScheduler.obj
 0001:00044450       ?RemoveVirtualProcessors@ThreadScheduler@details@Concurrency@@UAEXPAPAUIVirtualProcessorRoot@3@I@Z 00445450 f i libconcrt:ThreadScheduler.obj
 0001:0004445c       ?Statistics@ThreadScheduler@details@Concurrency@@UAEXPAI00@Z 0044545c f i libconcrt:ThreadScheduler.obj
 0001:00044468       ?OneShotStaticConstruction@UMSThreadScheduler@details@Concurrency@@SAXXZ 00445468 f   libconcrt:UMSThreadScheduler.obj
 0001:000444aa       ?OneShotStaticDestruction@UMSThreadScheduler@details@Concurrency@@SAXXZ 004454aa f   libconcrt:UMSThreadScheduler.obj
 0001:000444be       ??0ExecutionResource@details@Concurrency@@QAE@PAVSchedulerProxy@12@PAUSchedulerNode@12@I@Z 004454be f   libconcrt:ExecutionResource.obj
 0001:0004451c       ??0ExecutionResource@details@Concurrency@@QAE@PAVSchedulerProxy@12@PAV012@@Z 0044551c f   libconcrt:ExecutionResource.obj
 0001:0004456a       ?CurrentSubscriptionLevel@ExecutionResource@details@Concurrency@@UBEIXZ 0044556a f   libconcrt:ExecutionResource.obj
 0001:0004457c       ?DecrementUseCounts@ExecutionResource@details@Concurrency@@QAEXXZ 0044557c f   libconcrt:ExecutionResource.obj
 0001:000445e4       ?GetExecutionResourceId@ExecutionResource@details@Concurrency@@UBEIXZ 004455e4 f i libconcrt:ExecutionResource.obj
 0001:000445e4       ?GetNodeId@VirtualProcessorRoot@details@Concurrency@@UBEIXZ 004455e4 f i libconcrt:VirtualProcessorRoot.obj
 0001:000445e8       ?GetNodeId@ExecutionResource@details@Concurrency@@UBEIXZ 004455e8 f i libconcrt:ExecutionResource.obj
 0001:000445ec       ?IncrementUseCounts@ExecutionResource@details@Concurrency@@QAEXXZ 004455ec f   libconcrt:ExecutionResource.obj
 0001:000446b4       ?Remove@ExecutionResource@details@Concurrency@@UAEXPAUIScheduler@3@@Z 004456b4 f   libconcrt:ExecutionResource.obj
 0001:00044713       ?ResetCurrent@ExecutionResource@details@Concurrency@@QAEXXZ 00445713 f   libconcrt:ExecutionResource.obj
 0001:0004472f       ?SetAsCurrent@ExecutionResource@details@Concurrency@@QAEXXZ 0044572f f   libconcrt:ExecutionResource.obj
 0001:00044752       ??$sign@I@details@Concurrency@@YAII@Z 00445752 f i libconcrt:HillClimbing.obj
 0001:0004476a       ??$sign@N@details@Concurrency@@YANN@Z 0044576a f i libconcrt:HillClimbing.obj
 0001:000447a2       ??0HillClimbing@details@Concurrency@@QAE@IIPAVSchedulerProxy@12@@Z 004457a2 f   libconcrt:HillClimbing.obj
 0001:0004482f       ?Add@MeasuredHistory@HillClimbing@details@Concurrency@@QAEXNI@Z 0044582f f   libconcrt:HillClimbing.obj
 0001:00044852       ?CalculateThroughput@HillClimbing@details@Concurrency@@AAENIIII@Z 00445852 f   libconcrt:HillClimbing.obj
 0001:0004488d       ?CalculateThroughputSlope@HillClimbing@details@Concurrency@@AAENHH@Z 0044588d f   libconcrt:HillClimbing.obj
 0001:00044948       ?CoefficientOfVariationMean@MeasuredHistory@HillClimbing@details@Concurrency@@QAENXZ 00445948 f   libconcrt:HillClimbing.obj
 0001:0004497f       ?EstablishControlSetting@HillClimbing@details@Concurrency@@AAEXI@Z 0044597f f   libconcrt:HillClimbing.obj
 0001:000449c4       ?FlushHistories@HillClimbing@details@Concurrency@@AAEXXZ 004459c4 f   libconcrt:HillClimbing.obj
 0001:00044a0a       ?GetHistory@HillClimbing@details@Concurrency@@AAEPAVMeasuredHistory@123@I@Z 00445a0a f   libconcrt:HillClimbing.obj
 0001:00044a35       ?GetRandomMove@HillClimbing@details@Concurrency@@AAEHXZ 00445a35 f   libconcrt:HillClimbing.obj
 0001:00044a4e       ?IsStableHistory@HillClimbing@details@Concurrency@@AAE_NPAVMeasuredHistory@123@@Z 00445a4e f   libconcrt:HillClimbing.obj
 0001:00044a7e       ?Mean@MeasuredHistory@HillClimbing@details@Concurrency@@QAENXZ 00445a7e f   libconcrt:HillClimbing.obj
 0001:00044a9e       ?RecommendControlSetting@HillClimbing@details@Concurrency@@AAEII@Z 00445a9e f   libconcrt:HillClimbing.obj
 0001:00044b6e       ?Update@HillClimbing@details@Concurrency@@QAEIIIII@Z 00445b6e f   libconcrt:HillClimbing.obj
 0001:00044d2e       ?Variance@MeasuredHistory@HillClimbing@details@Concurrency@@QAENXZ 00445d2e f   libconcrt:HillClimbing.obj
 0001:00044d7a       ??0SchedulerProxy@details@Concurrency@@QAE@PAUIScheduler@2@PAVResourceManager@12@ABVSchedulerPolicy@2@@Z 00445d7a f   libconcrt:SchedulerProxy.obj
 0001:00044fd6       ??1SchedulerProxy@details@Concurrency@@IAE@XZ 00445fd6 f   libconcrt:SchedulerProxy.obj
 0001:00045033       ?AddCore@SchedulerProxy@details@Concurrency@@QAEXPAUSchedulerNode@23@I_N@Z 00446033 f   libconcrt:SchedulerProxy.obj
 0001:000450fe       ?AddExecutionResource@SchedulerProxy@details@Concurrency@@QAEXPAVExecutionResource@23@@Z 004460fe f   libconcrt:SchedulerProxy.obj
 0001:0004514c       ?AddTail@?$List@VExecutionResource@details@Concurrency@@VCount@CollectionTypes@23@@details@Concurrency@@QAEXPAVExecutionResource@23@@Z 0044614c f i libconcrt:SchedulerProxy.obj
 0001:00045185       ?AddThreadSubscription@SchedulerProxy@details@Concurrency@@QAEXPAVExecutionResource@23@@Z 00446185 f   libconcrt:SchedulerProxy.obj
 0001:00045194       ?AddVirtualProcessorRoots@SchedulerProxy@details@Concurrency@@QAEXPAPAUIVirtualProcessorRoot@3@I@Z 00446194 f   libconcrt:SchedulerProxy.obj
 0001:00045242       ?AdjustAllocationIncrease@SchedulerProxy@details@Concurrency@@QBEII@Z 00446242 f   libconcrt:SchedulerProxy.obj
 0001:000452b2       ?BindContext@SchedulerProxy@details@Concurrency@@UAEXPAUIExecutionContext@3@@Z 004462b2 f   libconcrt:SchedulerProxy.obj
 0001:0004530e       ?Cleanup@SchedulerProxy@details@Concurrency@@IAEXXZ 0044630e f   libconcrt:SchedulerProxy.obj
 0001:000453db       ?CreateExternalThreadResource@SchedulerProxy@details@Concurrency@@QAEPAVExecutionResource@23@PAUSchedulerNode@23@I@Z 004463db f   libconcrt:SchedulerProxy.obj
 0001:00045422       ?CreateOversubscriber@SchedulerProxy@details@Concurrency@@UAEPAUIVirtualProcessorRoot@3@PAUIExecutionResource@3@@Z 00446422 f   libconcrt:SchedulerProxy.obj
 0001:000454de       ?CreateVirtualProcessorRoot@SchedulerProxy@details@Concurrency@@UAEPAVVirtualProcessorRoot@23@PAUSchedulerNode@23@I@Z 004464de f   libconcrt:SchedulerProxy.obj
 0001:00045516       ?DecrementCoreSubscription@SchedulerProxy@details@Concurrency@@QAEXPAVExecutionResource@23@@Z 00446516 f   libconcrt:SchedulerProxy.obj
 0001:00045560       ?DecrementFixedCoreCount@SchedulerProxy@details@Concurrency@@QAEXII_N@Z 00446560 f   libconcrt:SchedulerProxy.obj
 0001:000455d9       ?DeleteThis@SchedulerProxy@details@Concurrency@@MAEXXZ 004465d9 f i libconcrt:SchedulerProxy.obj
 0001:000455f4       ?DestroyExecutionResource@SchedulerProxy@details@Concurrency@@QAEXPAVExecutionResource@23@@Z 004465f4 f   libconcrt:SchedulerProxy.obj
 0001:00045679       ?DestroyVirtualProcessorRoot@SchedulerProxy@details@Concurrency@@QAEXPAVVirtualProcessorRoot@23@@Z 00446679 f   libconcrt:SchedulerProxy.obj
 0001:00045703       ?FinalShutdown@SchedulerProxy@details@Concurrency@@UAEXXZ 00446703 f   libconcrt:SchedulerProxy.obj
 0001:00045720       ?GetCurrentThreadExecutionResource@SchedulerProxy@details@Concurrency@@QAEPAVExecutionResource@23@XZ 00446720 f   libconcrt:SchedulerProxy.obj
 0001:0004573d       ?GetNewThreadProxy@SchedulerProxy@details@Concurrency@@UAEPAUIThreadProxy@3@PAUIExecutionContext@3@@Z 0044673d f   libconcrt:SchedulerProxy.obj
 0001:0004578d       ?GetResourceForNewSubscription@SchedulerProxy@details@Concurrency@@QAEPAVExecutionResource@23@PAV423@@Z 0044678d f   libconcrt:SchedulerProxy.obj
 0001:000457db       ?GrantAllocation@SchedulerProxy@details@Concurrency@@QAEPAVExecutionResource@23@I_N0@Z 004467db f   libconcrt:SchedulerProxy.obj
 0001:00045ab4       ?IncrementCoreSubscription@SchedulerProxy@details@Concurrency@@QAEXPAVExecutionResource@23@@Z 00446ab4 f   libconcrt:SchedulerProxy.obj
 0001:00045b02       ?IncrementFixedCoreCount@SchedulerProxy@details@Concurrency@@QAEXII_N@Z 00446b02 f   libconcrt:SchedulerProxy.obj
 0001:00045b88       ?ReferenceCurrentThreadExecutionResource@SchedulerProxy@details@Concurrency@@QAEPAVExecutionResource@23@XZ 00446b88 f   libconcrt:SchedulerProxy.obj
 0001:00045c31       ?Remove@?$List@VExecutionResource@details@Concurrency@@VCount@CollectionTypes@23@@details@Concurrency@@QAEXPAVExecutionResource@23@@Z 00446c31 f i libconcrt:SchedulerProxy.obj
 0001:00045c67       ?RemoveCore@SchedulerProxy@details@Concurrency@@QAEXPAUSchedulerNode@23@I@Z 00446c67 f   libconcrt:SchedulerProxy.obj
 0001:00045d51       ?RemoveThreadSubscription@SchedulerProxy@details@Concurrency@@QAEXPAVExecutionResource@23@@Z 00446d51 f   libconcrt:SchedulerProxy.obj
 0001:00045d7d       ?RequestInitialVirtualProcessors@SchedulerProxy@details@Concurrency@@UAEPAUIExecutionResource@3@_N@Z 00446d7d f   libconcrt:SchedulerProxy.obj
 0001:00045d90       ?SendCoreNotification@SchedulerProxy@details@Concurrency@@QAEXPAUSchedulerCore@23@_N@Z 00446d90 f   libconcrt:SchedulerProxy.obj
 0001:00045e74       ?Shutdown@SchedulerProxy@details@Concurrency@@UAEXXZ 00446e74 f   libconcrt:SchedulerProxy.obj
 0001:00045e7e       ?SubscribeCurrentThread@SchedulerProxy@details@Concurrency@@UAEPAUIExecutionResource@3@XZ 00446e7e f   libconcrt:SchedulerProxy.obj
 0001:00045e88       ?ToggleBorrowedState@SchedulerProxy@details@Concurrency@@QAEXPAUSchedulerNode@23@I@Z 00446e88 f   libconcrt:SchedulerProxy.obj
 0001:00045ec4       ?UnbindContext@SchedulerProxy@details@Concurrency@@UAEXPAUIExecutionContext@3@@Z 00446ec4 f   libconcrt:SchedulerProxy.obj
 0001:00045f0d       ?Initialize@WinRT@details@Concurrency@@SAXXZ 00446f0d f   libconcrt:WinRTWrapper.obj
 0001:00045fba       ?RoInitialize@WinRT@details@Concurrency@@SAJW4RO_INIT_TYPE@@@Z 00446fba f   libconcrt:WinRTWrapper.obj
 0001:00045fdc       ?RoUninitialize@WinRT@details@Concurrency@@SAXXZ 00446fdc f   libconcrt:WinRTWrapper.obj
 0001:00045ff7       ??0?$ThreadProxyFactory@VFreeThreadProxy@details@Concurrency@@@details@Concurrency@@IAE@PAVThreadProxyFactoryManager@12@@Z 00446ff7 f i libconcrt:ThreadProxyFactoryManager.obj
 0001:00046030       ??0FreeThreadProxy@details@Concurrency@@QAE@PAUIThreadProxyFactory@12@I@Z 00447030 f i libconcrt:ThreadProxyFactoryManager.obj
 0001:00046065       ??0FreeThreadProxyFactory@details@Concurrency@@IAE@PAVThreadProxyFactoryManager@12@@Z 00447065 f i libconcrt:ThreadProxyFactoryManager.obj
 0001:0004608f       ??0ThreadProxyFactoryManager@details@Concurrency@@QAE@XZ 0044708f f   libconcrt:ThreadProxyFactoryManager.obj
 0001:000460c3       ??1ThreadProxyFactoryManager@details@Concurrency@@QAE@XZ 004470c3 f   libconcrt:ThreadProxyFactoryManager.obj
 0001:0004613a       ??_G?$ThreadProxyFactory@VFreeThreadProxy@details@Concurrency@@@details@Concurrency@@UAEPAXI@Z 0044713a f i libconcrt:ThreadProxyFactoryManager.obj
 0001:0004613a       ??_E?$ThreadProxyFactory@VFreeThreadProxy@details@Concurrency@@@details@Concurrency@@UAEPAXI@Z 0044713a f i libconcrt:ThreadProxyFactoryManager.obj
 0001:0004615d       ??_EFreeThreadProxy@details@Concurrency@@UAEPAXI@Z 0044715d f i libconcrt:ThreadProxyFactoryManager.obj
 0001:0004615d       ??_GFreeThreadProxy@details@Concurrency@@UAEPAXI@Z 0044715d f i libconcrt:ThreadProxyFactoryManager.obj
 0001:00046185       ??_EFreeThreadProxyFactory@details@Concurrency@@UAEPAXI@Z 00447185 f i libconcrt:ThreadProxyFactoryManager.obj
 0001:00046185       ??_GFreeThreadProxyFactory@details@Concurrency@@UAEPAXI@Z 00447185 f i libconcrt:ThreadProxyFactoryManager.obj
 0001:000461a8       ??_EIThreadProxyFactory@details@Concurrency@@UAEPAXI@Z 004471a8 f i libconcrt:ThreadProxyFactoryManager.obj
 0001:000461a8       ??_GIThreadProxyFactory@details@Concurrency@@UAEPAXI@Z 004471a8 f i libconcrt:ThreadProxyFactoryManager.obj
 0001:000461cb       ?Create@FreeThreadProxyFactory@details@Concurrency@@EAEPAVFreeThreadProxy@23@I@Z 004471cb f i libconcrt:ThreadProxyFactoryManager.obj
 0001:00046200       ?CreateFactory@FreeThreadProxyFactory@details@Concurrency@@SAPAV123@PAVThreadProxyFactoryManager@23@@Z 00447200 f i libconcrt:ThreadProxyFactoryManager.obj
 0001:00046228       ?GetExecutionResourceTls@?$ThreadProxyFactory@VFreeThreadProxy@details@Concurrency@@@details@Concurrency@@UAEKXZ 00447228 f i libconcrt:ThreadProxyFactoryManager.obj
 0001:0004622c       ?GetFreeThreadProxyFactory@ThreadProxyFactoryManager@details@Concurrency@@QAEPAVFreeThreadProxyFactory@23@XZ 0044722c f   libconcrt:ThreadProxyFactoryManager.obj
 0001:00046274       ?Prepare@?$ThreadProxyFactory@VFreeThreadProxy@details@Concurrency@@@details@Concurrency@@MAEXPAVFreeThreadProxy@23@H@Z 00447274 f i libconcrt:ThreadProxyFactoryManager.obj
 0001:0004628c       ?ReclaimProxy@?$ThreadProxyFactory@VFreeThreadProxy@details@Concurrency@@@details@Concurrency@@UAEXPAUIThreadProxy@3@@Z 0044728c f i libconcrt:ThreadProxyFactoryManager.obj
 0001:000462ef       ?ReclaimProxy@FreeThreadProxyFactory@details@Concurrency@@UAEXPAUIThreadProxy@3@@Z 004472ef f i libconcrt:ThreadProxyFactoryManager.obj
 0001:00046394       ?Reference@FreeThreadProxyFactory@details@Concurrency@@UAEJXZ 00447394 f i libconcrt:ThreadProxyFactoryManager.obj
 0001:0004639e       ?Release@FreeThreadProxyFactory@details@Concurrency@@UAEJXZ 0044739e f i libconcrt:ThreadProxyFactoryManager.obj
 0001:000463cb       ?RequestProxy@?$ThreadProxyFactory@VFreeThreadProxy@details@Concurrency@@@details@Concurrency@@UAEPAUIThreadProxy@3@IH@Z 004473cb f i libconcrt:ThreadProxyFactoryManager.obj
 0001:0004644d       ?Retire@FreeThreadProxyFactory@details@Concurrency@@EAEXPAVFreeThreadProxy@23@@Z 0044744d f i libconcrt:ThreadProxyFactoryManager.obj
 0001:0004645c       ?RetireThreadProxies@?$ThreadProxyFactory@VFreeThreadProxy@details@Concurrency@@@details@Concurrency@@QAEXXZ 0044745c f i libconcrt:ThreadProxyFactoryManager.obj
 0001:000464c8       ?ShutdownFactory@FreeThreadProxyFactory@details@Concurrency@@UAEXXZ 004474c8 f i libconcrt:ThreadProxyFactoryManager.obj
 0001:000464e9       ?StaticInitialize@?$ThreadProxyFactory@VFreeThreadProxy@details@Concurrency@@@details@Concurrency@@KAXXZ 004474e9 f i libconcrt:ThreadProxyFactoryManager.obj
 0001:00046500       ?YieldToSystem@FreeThreadProxy@details@Concurrency@@UAEXXZ 00447500 f i libconcrt:ThreadProxyFactoryManager.obj
 0001:00046505       ??0location@Concurrency@@QAE@W4_Type@01@IIPAX@Z 00447505 f   libconcrt:location.obj
 0001:0004652a       ?ContainsResourceId@SchedulingNode@details@Concurrency@@QAE_NI@Z 0044752a f i libconcrt:location.obj
 0001:00046554       ?_FastNodeIntersects@location@Concurrency@@QBE_NABV12@@Z 00447554 f   libconcrt:location.obj
 0001:0004659f       ?_FastVPIntersects@location@Concurrency@@QBE_NABV12@@Z 0044759f f   libconcrt:location.obj
 0001:000465eb       ??0WorkItem@details@Concurrency@@QAE@PAVInternalContextBase@12@@Z 004475eb f   libconcrt:SearchAlgorithms.obj
 0001:00046611       ?AcquireQuickCacheSlot@SchedulerBase@details@Concurrency@@QAEPAVScheduleGroupSegmentBase@23@I@Z 00447611 f i libconcrt:SearchAlgorithms.obj
 0001:0004662f       ?ActualGetQuickCacheSlot@SchedulerBase@details@Concurrency@@AAEPAVScheduleGroupSegmentBase@23@I@Z 0044762f f i libconcrt:SearchAlgorithms.obj
 0001:00046662       ?Bind@WorkItem@details@Concurrency@@QAEPAVInternalContextBase@23@XZ 00447662 f   libconcrt:SearchAlgorithms.obj
 0001:000466af       ?BindTo@WorkItem@details@Concurrency@@QAEXPAVInternalContextBase@23@@Z 004476af f   libconcrt:SearchAlgorithms.obj
 0001:000466e9       ?CheckPriorityList@WorkSearchContext@details@Concurrency@@AAE_N_K@Z 004476e9 f i libconcrt:SearchAlgorithms.obj
 0001:0004671f       ?GetLocalRunnable@WorkSearchContext@details@Concurrency@@AAE_NPAVWorkItem@23@PAVVirtualProcessor@23@_N@Z 0044771f f   libconcrt:SearchAlgorithms.obj
 0001:000467b6       ?GetNextSchedulingNode@SchedulerBase@details@Concurrency@@QAEPAVSchedulingNode@23@PAHH@Z 004477b6 f i libconcrt:SearchAlgorithms.obj
 0001:00046803       ?GetPseudoRRAffineScheduleGroupSegment@SchedulingRing@details@Concurrency@@QAEPAVScheduleGroupSegmentBase@23@PAH@Z 00447803 f i libconcrt:SearchAlgorithms.obj
 0001:0004683e       ?GetPseudoRRNonAffineScheduleGroupSegment@SchedulingRing@details@Concurrency@@QAEPAVScheduleGroupSegmentBase@23@PAH@Z 0044783e f i libconcrt:SearchAlgorithms.obj
 0001:0004687c       ?GetRealizedChore@WorkSearchContext@details@Concurrency@@AAE_NPAVWorkItem@23@PAVScheduleGroupSegmentBase@23@_N@Z 0044787c f   libconcrt:SearchAlgorithms.obj
 0001:000468cc       ?GetRealizedChoreWithinGroup@WorkSearchContext@details@Concurrency@@AAE_NPAVWorkItem@23@PAVScheduleGroupSegmentBase@23@_NW4SearchAffinity@123@2@Z 004478cc f   libconcrt:SearchAlgorithms.obj
 0001:0004694d       ?GetRunnableContext@WorkSearchContext@details@Concurrency@@AAE_NPAVWorkItem@23@PAVScheduleGroupSegmentBase@23@@Z 0044794d f   libconcrt:SearchAlgorithms.obj
 0001:0004698a       ?GetRunnableContextWithinGroup@WorkSearchContext@details@Concurrency@@AAE_NPAVWorkItem@23@PAVScheduleGroupSegmentBase@23@W4SearchAffinity@123@_N@Z 0044798a f   libconcrt:SearchAlgorithms.obj
 0001:00046a05       ?GetUnrealizedChore@WorkSearchContext@details@Concurrency@@AAE_NPAVWorkItem@23@PAVScheduleGroupSegmentBase@23@_N2@Z 00447a05 f   libconcrt:SearchAlgorithms.obj
 0001:00046a58       ?GetUnrealizedChoreWithinGroup@WorkSearchContext@details@Concurrency@@AAE_NPAVWorkItem@23@PAVScheduleGroupSegmentBase@23@_NW4SearchAffinity@123@2@Z 00447a58 f   libconcrt:SearchAlgorithms.obj
 0001:00046ae6       ?Invoke@WorkItem@details@Concurrency@@QAEXXZ 00447ae6 f   libconcrt:SearchAlgorithms.obj
 0001:00046b29       ?PeriodicScan@SchedulerBase@details@Concurrency@@QAEX_K@Z 00447b29 f i libconcrt:SearchAlgorithms.obj
 0001:00046b62       ?PreSearch@WorkSearchContext@details@Concurrency@@AAE_NPAVWorkItem@23@@Z 00447b62 f   libconcrt:SearchAlgorithms.obj
 0001:00046b9e       ?QuickSearch@WorkSearchContext@details@Concurrency@@AAE_NPAVScheduleGroupSegmentBase@23@PAVWorkItem@23@_NK@Z 00447b9e f   libconcrt:SearchAlgorithms.obj
 0001:00046c0b       ?QuickSearchYield@WorkSearchContext@details@Concurrency@@AAE_NPAVScheduleGroupSegmentBase@23@PAVWorkItem@23@_NK@Z 00447c0b f   libconcrt:SearchAlgorithms.obj
 0001:00046c79       ?Reset@WorkSearchContext@details@Concurrency@@QAEXPAVVirtualProcessor@23@W4Algorithm@123@@Z 00447c79 f   libconcrt:SearchAlgorithms.obj
 0001:00046cd3       ?ResolveToken@WorkItem@details@Concurrency@@QAE_NXZ 00447cd3 f   libconcrt:SearchAlgorithms.obj
 0001:00046d52       ?SearchCacheLocal@WorkSearchContext@details@Concurrency@@AAE_NPAVWorkItem@23@PAVScheduleGroupSegmentBase@23@_NK@Z 00447d52 f   libconcrt:SearchAlgorithms.obj
 0001:00047019       ?SearchCacheLocalYield@WorkSearchContext@details@Concurrency@@AAE_NPAVWorkItem@23@PAVScheduleGroupSegmentBase@23@_NK@Z 00448019 f   libconcrt:SearchAlgorithms.obj
 0001:000472a1       ?SearchCacheLocal_Realized@WorkSearchContext@details@Concurrency@@AAE_NPAVWorkItem@23@PAVSchedulingRing@23@PAVScheduleGroupSegmentBase@23@_NW4SearchAffinity@123@K3@Z 004482a1 f   libconcrt:SearchAlgorithms.obj
 0001:0004739d       ?SearchCacheLocal_Runnables@WorkSearchContext@details@Concurrency@@AAE_NPAVWorkItem@23@PAVSchedulingRing@23@PAVScheduleGroupSegmentBase@23@_NW4SearchAffinity@123@K3@Z 0044839d f   libconcrt:SearchAlgorithms.obj
 0001:000474ab       ?SearchCacheLocal_Unrealized@WorkSearchContext@details@Concurrency@@AAE_NPAVWorkItem@23@PAVSchedulingRing@23@PAVScheduleGroupSegmentBase@23@_NW4SearchAffinity@123@K3@Z 004484ab f   libconcrt:SearchAlgorithms.obj
 0001:000475aa       ?SearchFair@WorkSearchContext@details@Concurrency@@AAE_NPAVWorkItem@23@PAVScheduleGroupSegmentBase@23@_NK@Z 004485aa f   libconcrt:SearchAlgorithms.obj
 0001:000476bd       ?SearchFairYield@WorkSearchContext@details@Concurrency@@AAE_NPAVWorkItem@23@PAVScheduleGroupSegmentBase@23@_NK@Z 004486bd f   libconcrt:SearchAlgorithms.obj
 0001:000477cb       ?SearchFair_Realized@WorkSearchContext@details@Concurrency@@AAE_NPAVWorkItem@23@PAVSchedulingRing@23@_N@Z 004487cb f   libconcrt:SearchAlgorithms.obj
 0001:0004785f       ?SearchFair_Runnables@WorkSearchContext@details@Concurrency@@AAE_NPAVWorkItem@23@PAVSchedulingRing@23@@Z 0044885f f   libconcrt:SearchAlgorithms.obj
 0001:000478e0       ?SearchFair_Unrealized@WorkSearchContext@details@Concurrency@@AAE_NPAVWorkItem@23@PAVSchedulingRing@23@_N@Z 004488e0 f   libconcrt:SearchAlgorithms.obj
 0001:00047978       ?ServiceMark@ScheduleGroupSegmentBase@details@Concurrency@@QAEX_K@Z 00448978 f i libconcrt:SearchAlgorithms.obj
 0001:0004799e       ?ServiceMark@VirtualProcessor@details@Concurrency@@QAEX_K@Z 0044899e f i libconcrt:SearchAlgorithms.obj
 0001:000479c4       ?SkipSegmentSearch@WorkSearchContext@details@Concurrency@@AAE_NPAVScheduleGroupSegmentBase@23@0W4SearchAffinity@123@_N@Z 004489c4 f   libconcrt:SearchAlgorithms.obj
 0001:00047a50       ?StealForeignLocalRunnable@WorkSearchContext@details@Concurrency@@AAE_NPAVWorkItem@23@PAVSchedulingNode@23@@Z 00448a50 f   libconcrt:SearchAlgorithms.obj
 0001:00047a92       ?StealLocalRunnable@WorkSearchContext@details@Concurrency@@AAE_NPAVWorkItem@23@PAVSchedulingNode@23@PAVVirtualProcessor@23@@Z 00448a92 f   libconcrt:SearchAlgorithms.obj
 0001:00047b01       ?StealLocalRunnableContext@VirtualProcessor@details@Concurrency@@AAEPAVInternalContextBase@23@XZ 00448b01 f i libconcrt:SearchAlgorithms.obj
 0001:00047b18       ?TransferReferences@WorkItem@details@Concurrency@@QAEXPAVInternalContextBase@23@@Z 00448b18 f   libconcrt:SearchAlgorithms.obj
 0001:00047b63       ?Invoke@RealizedChore@details@Concurrency@@QAEXXZ 00448b63 f   libconcrt:RealizedChore.obj
 0001:00047b77       ??0ThreadVirtualProcessor@details@Concurrency@@QAE@PAVSchedulingNode@12@PAUIVirtualProcessorRoot@2@@Z 00448b77 f   libconcrt:ThreadVirtualProcessor.obj
 0001:00047bae       ??_GThreadVirtualProcessor@details@Concurrency@@UAEPAXI@Z 00448bae f i libconcrt:ThreadVirtualProcessor.obj
 0001:00047bae       ??_EThreadVirtualProcessor@details@Concurrency@@UAEPAXI@Z 00448bae f i libconcrt:ThreadVirtualProcessor.obj
 0001:00047bd9       ??0VirtualProcessorRoot@details@Concurrency@@QAE@PAVSchedulerProxy@12@PAUSchedulerNode@12@I@Z 00448bd9 f   libconcrt:VirtualProcessorRoot.obj
 0001:00047c23       ??_EVirtualProcessorRoot@details@Concurrency@@UAEPAXI@Z 00448c23 f i libconcrt:VirtualProcessorRoot.obj
 0001:00047c23       ??_GVirtualProcessorRoot@details@Concurrency@@UAEPAXI@Z 00448c23 f i libconcrt:VirtualProcessorRoot.obj
 0001:00047c4d       ?CurrentSubscriptionLevel@VirtualProcessorRoot@details@Concurrency@@UBEIXZ 00448c4d f i libconcrt:VirtualProcessorRoot.obj
 0001:00047c55       ?GetExecutionResourceId@VirtualProcessorRoot@details@Concurrency@@UBEIXZ 00448c55 f i libconcrt:VirtualProcessorRoot.obj
 0001:00047c59       ?GetId@VirtualProcessorRoot@details@Concurrency@@UBEIXZ 00448c59 f i libconcrt:VirtualProcessorRoot.obj
 0001:00047c5d       ?Remove@VirtualProcessorRoot@details@Concurrency@@UAEXPAUIScheduler@3@@Z 00448c5d f   libconcrt:VirtualProcessorRoot.obj
 0001:00047cb5       ?ResetSubscriptionLevel@VirtualProcessorRoot@details@Concurrency@@QAEXXZ 00448cb5 f   libconcrt:VirtualProcessorRoot.obj
 0001:00047ccb       ?Subscribe@VirtualProcessorRoot@details@Concurrency@@QAEXXZ 00448ccb f   libconcrt:VirtualProcessorRoot.obj
 0001:00047cd8       ?Unsubscribe@VirtualProcessorRoot@details@Concurrency@@QAEXXZ 00448cd8 f   libconcrt:VirtualProcessorRoot.obj
 0001:00047ce5       ??0FreeVirtualProcessorRoot@details@Concurrency@@QAE@PAVSchedulerProxy@12@PAUSchedulerNode@12@I@Z 00448ce5 f   libconcrt:FreeVirtualProcessorRoot.obj
 0001:00047d18       ??8HardwareAffinity@details@Concurrency@@QAE_NABU012@@Z 00448d18 f i libconcrt:FreeVirtualProcessorRoot.obj
 0001:00047d38       ??_GFreeVirtualProcessorRoot@details@Concurrency@@UAEPAXI@Z 00448d38 f i libconcrt:FreeVirtualProcessorRoot.obj
 0001:00047d38       ??_EFreeVirtualProcessorRoot@details@Concurrency@@UAEPAXI@Z 00448d38 f i libconcrt:FreeVirtualProcessorRoot.obj
 0001:00047d62       ?AcquireActivatedContext@VirtualProcessorRoot@details@Concurrency@@QAEPAUIExecutionContext@3@XZ 00448d62 f i libconcrt:FreeVirtualProcessorRoot.obj
 0001:00047d91       ?Activate@FreeVirtualProcessorRoot@details@Concurrency@@UAEXPAUIExecutionContext@3@@Z 00448d91 f   libconcrt:FreeVirtualProcessorRoot.obj
 0001:00047e53       ?Affinitize@FreeVirtualProcessorRoot@details@Concurrency@@QAEXPAVFreeThreadProxy@23@@Z 00448e53 f   libconcrt:FreeVirtualProcessorRoot.obj
 0001:00047eba       ?Deactivate@FreeVirtualProcessorRoot@details@Concurrency@@UAE_NPAUIExecutionContext@3@@Z 00448eba f   libconcrt:FreeVirtualProcessorRoot.obj
 0001:00047f5d       ?DeleteThis@FreeVirtualProcessorRoot@details@Concurrency@@UAEXXZ 00448f5d f   libconcrt:FreeVirtualProcessorRoot.obj
 0001:00047fab       ?EnsureAllTasksVisible@FreeVirtualProcessorRoot@details@Concurrency@@UAEXPAUIExecutionContext@3@@Z 00448fab f   libconcrt:FreeVirtualProcessorRoot.obj
 0001:0004802b       ?ResetOnIdle@FreeVirtualProcessorRoot@details@Concurrency@@QAEXW4SwitchingProxyState@3@@Z 0044902b f   libconcrt:FreeVirtualProcessorRoot.obj
 0001:00048098       ?SetAffinity@FreeThreadProxy@details@Concurrency@@QAEXUHardwareAffinity@23@@Z 00449098 f i libconcrt:FreeVirtualProcessorRoot.obj
 0001:000480ce       ?SpinUntilIdle@FreeVirtualProcessorRoot@details@Concurrency@@IAEXXZ 004490ce f i libconcrt:FreeVirtualProcessorRoot.obj
 0001:000480fc       ?AssociateExecutionContext@FreeThreadProxy@details@Concurrency@@QAEXPAUIExecutionContext@3@@Z 004490fc f   libconcrt:FreeThreadProxy.obj
 0001:0004811f       ?Dispatch@FreeThreadProxy@details@Concurrency@@EAEXXZ 0044911f f   libconcrt:FreeThreadProxy.obj
 0001:000481c5       ?ReturnIdleProxy@FreeThreadProxy@details@Concurrency@@QAEXXZ 004491c5 f   libconcrt:FreeThreadProxy.obj
 0001:000481e3       ?SwitchOut@FreeThreadProxy@details@Concurrency@@UAEXW4SwitchingProxyState@3@@Z 004491e3 f   libconcrt:FreeThreadProxy.obj
 0001:00048234       ?SwitchTo@FreeThreadProxy@details@Concurrency@@UAEXPAUIExecutionContext@3@W4SwitchingProxyState@3@@Z 00449234 f   libconcrt:FreeThreadProxy.obj
 0001:000482f8       ??0ThreadProxy@details@Concurrency@@QAE@PAUIThreadProxyFactory@12@I@Z 004492f8 f   libconcrt:ThreadProxy.obj
 0001:000483cb       ??0scheduler_worker_creation_error@Concurrency@@QAE@ABV01@@Z 004493cb f i libconcrt:ThreadProxy.obj
 0001:000483e6       ??1ThreadProxy@details@Concurrency@@UAE@XZ 004493e6 f   libconcrt:ThreadProxy.obj
 0001:00048447       ??_EThreadProxy@details@Concurrency@@UAEPAXI@Z 00449447 f i libconcrt:ThreadProxy.obj
 0001:00048447       ??_GThreadProxy@details@Concurrency@@UAEPAXI@Z 00449447 f i libconcrt:ThreadProxy.obj
 0001:00048469       ?Cancel@ThreadProxy@details@Concurrency@@QAEXXZ 00449469 f   libconcrt:ThreadProxy.obj
 0001:0004847a       ?GetId@ThreadProxy@details@Concurrency@@UBEIXZ 0044947a f   libconcrt:ThreadProxy.obj
 0001:0004847e       ?ResumeExecution@ThreadProxy@details@Concurrency@@QAEXXZ 0044947e f   libconcrt:ThreadProxy.obj
 0001:00048488       ?SetPriority@ThreadProxy@details@Concurrency@@QAEXH@Z 00449488 f   libconcrt:ThreadProxy.obj
 0001:000484a0       ?SpinUntilBlocked@ThreadProxy@details@Concurrency@@QAEXXZ 004494a0 f   libconcrt:ThreadProxy.obj
 0001:000484cb       ?SuspendExecution@ThreadProxy@details@Concurrency@@QAEXXZ 004494cb f   libconcrt:ThreadProxy.obj
 0001:000484e7       ?ThreadProxyMain@ThreadProxy@details@Concurrency@@CGKPAX@Z 004494e7 f   libconcrt:ThreadProxy.obj
 0001:00048537       ??2@YAPAXI@Z               00449537 f   LIBCMT:new_scalar.obj
 0001:00048567       ??3@YAXPAXI@Z              00449567 f   LIBCMT:delete_scalar_size.obj
 0001:00048575       ??_U@YAPAXI@Z              00449575 f   LIBCMT:new_array.obj
 0001:0004857e       ??_V@YAXPAX@Z              0044957e f   LIBCMT:delete_array.obj
 0001:00048590       __alloca_probe_16          00449590 f   LIBCMT:alloca16.obj
 0001:000485a6       __alloca_probe_8           004495a6     LIBCMT:alloca16.obj
 0001:000485bc       ??_Etype_info@@UAEPAXI@Z   004495bc f i LIBCMT:std_type_info_static.obj
 0001:000485bc       ??_Gtype_info@@UAEPAXI@Z   004495bc f i LIBCMT:std_type_info_static.obj
 0001:000485df       ??3@YAXPAX@Z               004495df f   LIBCMT:delete_scalar.obj
 0001:000485e4       ??2@YAPAXIABUnothrow_t@std@@@Z 004495e4 f   LIBCMT:new_scalar_nothrow.obj
 0001:00048640       __alloca_probe             00449640 f   LIBCMT:chkstk.obj
 0001:00048640       __chkstk                   00449640 f   LIBCMT:chkstk.obj
 0001:0004866d       ??$__crt_fast_encode_pointer@PAX@@YAPAXQAX@Z 0044966d f i libvcruntime:winapi_downlevel.obj
 0001:0004866d       ??$__crt_fast_encode_pointer@PAP6AXXZ@@YAPAP6AXXZQAP6AXXZ@Z 0044966d f i LIBCMT:utility.obj
 0001:000486ce       ___scrt_acquire_startup_lock 004496ce f   LIBCMT:utility.obj
 0001:00048700       ___scrt_initialize_crt     00449700 f   LIBCMT:utility.obj
 0001:00048739       ___scrt_initialize_onexit_tables 00449739 f   LIBCMT:utility.obj
 0001:000487de       ___scrt_is_nonwritable_in_current_image 004497de f   LIBCMT:utility.obj
 0001:00048872       ___scrt_release_startup_lock 00449872 f   LIBCMT:utility.obj
 0001:0004888f       ___scrt_uninitialize_crt   0044988f f   LIBCMT:utility.obj
 0001:000488b7       __onexit                   004498b7 f   LIBCMT:utility.obj
 0001:000488f2       _atexit                    004498f2 f   LIBCMT:utility.obj
 0001:00048910       __allshl                   00449910 f   LIBCMT:llshl.obj
 0001:00048b76       _mainCRTStartup            00449b76 f   LIBCMT:exe_main.obj
 0001:00048b80       @__security_check_cookie@4 00449b80 f   LIBCMT:secchk.obj
 0001:00048ba0       __aullshr                  00449ba0 f   LIBCMT:ullshr.obj
 0001:00048bc0       __aulldiv                  00449bc0 f   LIBCMT:ulldiv.obj
 0001:00048c30       __alldiv                   00449c30 f   LIBCMT:lldiv.obj
 0001:00048cda       __EH_epilog3               00449cda f   LIBCMT:ehprolg3.obj
 0001:00048cef       __EH_epilog3_GS            00449cef f   LIBCMT:ehprolg3.obj
 0001:00048d00       __EH_prolog3               00449d00 f   LIBCMT:ehprolg3.obj
 0001:00048d34       __EH_prolog3_GS            00449d34 f   LIBCMT:ehprolg3.obj
 0001:00048d6b       __EH_prolog3_catch         00449d6b f   LIBCMT:ehprolg3.obj
 0001:00048da2       ??_M@YGXPAXIIP6EX0@Z@Z     00449da2 f   LIBCMT:ehvecdtr.obj
 0001:00048e27       ?__ArrayUnwind@@YGXPAXIIP6EX0@Z@Z 00449e27 f   LIBCMT:ehvecdtr.obj
 0001:00048ea0       ??_V@YAXPAXI@Z             00449ea0 f   LIBCMT:delete_array_size.obj
 0001:00048eb0       __allmul                   00449eb0 f   LIBCMT:llmul.obj
 0001:00048ef0       __aullrem                  00449ef0 f   LIBCMT:ullrem.obj
 0001:00048f70       __SEH_prolog4              00449f70 f   LIBCMT:sehprolg4.obj
 0001:00048fb6       __SEH_epilog4              00449fb6 f   LIBCMT:sehprolg4.obj
 0001:00048fcb       ??_L@YGXPAXIIP6EX0@Z1@Z    00449fcb f   LIBCMT:ehvecctr.obj
 0001:00049040       __ftol2_sse                0044a040 f   LIBCMT:ftol2.obj
 0001:00049049       __ftol2_pentium4           0044a049 f   LIBCMT:ftol2.obj
 0001:0004905c       __ftol2_sse_excpt          0044a05c f   LIBCMT:ftol2.obj
 0001:00049080       __ftol2                    0044a080 f   LIBCMT:ftol2.obj
 0001:000490f5       ??0bad_array_new_length@std@@QAE@ABV01@@Z 0044a0f5 f i LIBCMT:throw_bad_alloc.obj
 0001:00049110       ??0bad_array_new_length@std@@QAE@XZ 0044a110 f i LIBCMT:throw_bad_alloc.obj
 0001:00049128       ?__scrt_throw_std_bad_alloc@@YAXXZ 0044a128 f   LIBCMT:throw_bad_alloc.obj
 0001:00049145       ?__scrt_throw_std_bad_array_new_length@@YAXXZ 0044a145 f   LIBCMT:throw_bad_alloc.obj
 0001:00049162       ___isa_available_init      0044a162 f   LIBCMT:cpu_disp.obj
 0001:000492f9       ___scrt_is_ucrt_dll_in_use 0044a2f9 f   LIBCMT:ucrt_detection.obj
 0001:00049305       ___scrt_fastfail           0044a305 f   LIBCMT:utility_desktop.obj
 0001:0004941f       ___scrt_initialize_mta     0044a41f f   LIBCMT:utility_desktop.obj
 0001:00049424       ___scrt_is_managed_app     0044a424 f   LIBCMT:utility_desktop.obj
 0001:00049467       ___scrt_set_unhandled_exception_filter 0044a467 f   LIBCMT:utility_desktop.obj
 0001:00049473       ___scrt_unhandled_exception_filter@4 0044a473 f   LIBCMT:utility_desktop.obj
 0001:000494b4       __crt_debugger_hook        0044a4b4 f   LIBCMT:utility_desktop.obj
 0001:00049509       ___security_init_cookie    0044a509 f   LIBCMT:gs_support.obj
 0001:00049554       __get_startup_file_mode    0044a554 f   LIBCMT:file_mode.obj
 0001:0004955a       ?__scrt_initialize_type_info@@YAXXZ 0044a55a f   LIBCMT:tncleanup.obj
 0001:00049566       __initialize_default_precision 0044a566 f   LIBCMT:default_precision.obj
 0001:00049587       ___scrt_initialize_default_local_stdio_options 0044a587 f   LIBCMT:default_local_stdio_options.obj
 0001:000495a4       ___scrt_is_user_matherr_present 0044a5a4 f   LIBCMT:matherr_detection.obj
 0001:000495b0       ___scrt_get_dyn_tls_init_callback 0044a5b0 f   LIBCMT:dyn_tls_init.obj
 0001:000495b6       ___scrt_get_dyn_tls_dtor_callback 0044a5b6 f   LIBCMT:dyn_tls_dtor.obj
 0001:000495bc       __RTC_Initialize           0044a5bc f   LIBCMT:initsect.obj
 0001:000495e8       __RTC_Terminate            0044a5e8 f   LIBCMT:initsect.obj
 0001:00049614       ___raise_securityfailure   0044a614 f   LIBCMT:gs_report.obj
 0001:0004963c       ___report_gsfailure        0044a63c f   LIBCMT:gs_report.obj
 0001:00049735       __get_purecall_handler     0044a735 f   libvcruntime:purevirt.obj
 0001:0004974a       __purecall                 0044a74a f   libvcruntime:purevirt.obj
 0001:00049766       ___std_exception_copy      0044a766 f   libvcruntime:std_exception.obj
 0001:000497c9       ___std_exception_destroy   0044a7c9 f   libvcruntime:std_exception.obj
 0001:000497e8       __CxxThrowException@8      0044a7e8 f   libvcruntime:throw.obj
 0001:00049855       ?GetRangeOfTrysToCheck@__FrameHandler3@@SA?AU?$pair@Viterator@TryBlockMap@__FrameHandler3@@V123@@std@@AAVTryBlockMap@1@HH@Z 0044a855 f   libvcruntime:trnsctrl.obj
 0001:000498d7       ?_CallCatchBlock2@@YAPAXPAUEHRegistrationNode@@PBU_s_FuncInfo@@PAXHK@Z 0044a8d7 f   libvcruntime:trnsctrl.obj
 0001:00049935       ?_CallSETranslator@@YAHPAUEHExceptionRecord@@PAUEHRegistrationNode@@PAX2PBU_s_FuncInfo@@H1@Z 0044a935 f   libvcruntime:trnsctrl.obj
 0001:00049a10       ?_JumpToContinuation@@YGXPAXPAUEHRegistrationNode@@@Z 0044aa10 f   libvcruntime:trnsctrl.obj
 0001:00049a40       ?_UnwindNestedFrames@@YGXPAUEHRegistrationNode@@PAUEHExceptionRecord@@@Z 0044aa40 f   libvcruntime:trnsctrl.obj
 0001:00049a93       __CatchGuardHandler        0044aa93 f   libvcruntime:trnsctrl.obj
 0001:00049ac4       __CreateFrameInfo          0044aac4 f   libvcruntime:trnsctrl.obj
 0001:00049ae8       __FindAndUnlinkFrame       0044aae8 f   libvcruntime:trnsctrl.obj
 0001:00049b2d       __TranslatorGuardHandler   0044ab2d f   libvcruntime:trnsctrl.obj
 0001:00049bca       ___CxxFrameHandler3        0044abca f   libvcruntime:trnsctrl.obj
 0001:00049c00       _memcpy                    0044ac00 f   libvcruntime:memcpy.obj
 0001:0004a180       _memmove                   0044b180 f   libvcruntime:memmove.obj
 0001:0004a700       _memset                    0044b700 f   libvcruntime:memset.obj
 0001:0004a860       _memchr                    0044b860 f   libvcruntime:memchr.obj
 0001:0004a910       _strstr                    0044b910 f   libvcruntime:strstr.obj
 0001:0004ab73       ___DestructExceptionObject 0044bb73 f   libvcruntime:ehhelpers.obj
 0001:0004ac13       ?_CallMemberFunction0@@YGXQAX0@Z 0044bc13 f i libvcruntime:ehhelpers.obj
 0001:0004ac20       __IsExceptionObjectToBeDestroyed 0044bc20 f   libvcruntime:ehhelpers.obj
 0001:0004ac46       ___AdjustPointer           0044bc46 f   libvcruntime:ehhelpers.obj
 0001:0004ac6b       ___FrameUnwindFilter       0044bc6b f   libvcruntime:ehhelpers.obj
 0001:0004acb0       ___current_exception       0044bcb0 f   libvcruntime:ehhelpers.obj
 0001:0004acb9       ___processing_throw        0044bcb9 f   libvcruntime:ehhelpers.obj
 0001:0004acc2       ___std_terminate           0044bcc2 f   libvcruntime:ehhelpers.obj
 0001:0004acc7       ___uncaught_exception      0044bcc7 f   libvcruntime:uncaught_exception.obj
 0001:0004ad20       __except_handler4          0044bd20 f   libvcruntime:chandler4.obj
 0001:0004ae77       ??0__non_rtti_object@std@@QAE@ABV01@@Z 0044be77 f i libvcruntime:rtti.obj
 0001:0004ae92       ??0bad_cast@std@@QAE@ABV01@@Z 0044be92 f i libvcruntime:rtti.obj
 0001:0004aead       ??0bad_typeid@std@@QAE@ABV01@@Z 0044bead f i libvcruntime:rtti.obj
 0001:0004b26c       ?__construct_from_string_literal@__non_rtti_object@std@@SA?AV12@QBD@Z 0044c26c f i libvcruntime:rtti.obj
 0001:0004b288       ?__construct_from_string_literal@bad_cast@std@@SA?AV12@QBD@Z 0044c288 f i libvcruntime:rtti.obj
 0001:0004b2a4       ___RTDynamicCast           0044c2a4 f   libvcruntime:rtti.obj
 0001:0004b397       ___vcrt_initialize         0044c397 f   libvcruntime:initialization.obj
 0001:0004b3c0       ___vcrt_uninitialize       0044c3c0 f   libvcruntime:initialization.obj
 0001:0004b3df       ___std_type_info_compare   0044c3df f   libvcruntime:std_type_info.obj
 0001:0004b41b       ___vcrt_initialize_pure_virtual_call_handler 0044c41b f   libvcruntime:purevirt_data.obj
 0001:0004b426       ___vcrt_freefls@4          0044c426 f   libvcruntime:per_thread_data.obj
 0001:0004b442       ___vcrt_getptd             0044c442 f   libvcruntime:per_thread_data.obj
 0001:0004b450       ___vcrt_getptd_noexit      0044c450 f   libvcruntime:per_thread_data.obj
 0001:0004b4e2       ___vcrt_getptd_noinit      0044c4e2 f   libvcruntime:per_thread_data.obj
 0001:0004b519       ___vcrt_initialize_ptd     0044c519 f   libvcruntime:per_thread_data.obj
 0001:0004b54c       ___vcrt_uninitialize_ptd   0044c54c f   libvcruntime:per_thread_data.obj
 0001:0004bc5e       ??$TypeMatchHelper@$$CBU_s_HandlerType@@@@YAHPBU_s_HandlerType@@PBU_s_CatchableType@@PBU_s_ThrowInfo@@@Z 0044cc5e f i libvcruntime:frame.obj
 0001:0004bcec       ??$__InternalCxxFrameHandler@V__FrameHandler3@@@@YA?AW4_EXCEPTION_DISPOSITION@@PAUEHExceptionRecord@@PAUEHRegistrationNode@@PAU_CONTEXT@@PAXPBU_s_FuncInfo@@H1E@Z 0044ccec f i libvcruntime:frame.obj
 0001:0004bdee       ??0bad_exception@std@@QAE@ABV01@@Z 0044cdee f i libvcruntime:frame.obj
 0001:0004be09       ??0bad_exception@std@@QAE@XZ 0044ce09 f i libvcruntime:frame.obj
 0001:0004be21       ??8type_info@@QBE_NABV0@@Z 0044ce21 f i libvcruntime:frame.obj
 0001:0004c088       ?FrameUnwindToEmptyState@__FrameHandler3@@SAXPAUEHRegistrationNode@@PAXPBU_s_FuncInfo@@@Z 0044d088 f   libvcruntime:frame.obj
 0001:0004c0a0       ?FrameUnwindToState@__FrameHandler3@@SAXPAUEHRegistrationNode@@PAXPBU_s_FuncInfo@@H@Z 0044d0a0 f   libvcruntime:frame.obj
 0001:0004c222       ?_CallMemberFunction1@@YGXQAX00@Z 0044d222 f i libvcruntime:frame.obj
 0001:0004c232       ?_CallMemberFunction2@@YGXQAX00H@Z 0044d232 f i libvcruntime:frame.obj
 0001:0004c245       ?getESTypes@__FrameHandler3@@SAPBU_s_ESTypeList@@PBU_s_FuncInfo@@@Z 0044d245 f i libvcruntime:frame.obj
 0001:0004c250       __CallSettingFrame@12      0044d250 f   libvcruntime:lowhelpr.obj
 0001:0004c277       __NLG_Return               0044d277     libvcruntime:lowhelpr.obj
 0001:0004c29c       ___except_validate_context_record 0044d29c f   libvcruntime:jbcxrval.obj
 0001:0004c2cc       ___except_validate_jump_buffer 0044d2cc f   libvcruntime:jbcxrval.obj
 0001:0004c300       _strchr                    0044d300 f   libvcruntime:strchr.obj
 0001:0004c36e       ___from_strstr_to_strchr   0044d36e     libvcruntime:strchr.obj
 0001:0004c430       __local_unwind4            0044d430 f   libvcruntime:exsup4.obj
 0001:0004c508       __seh_longjmp_unwind4@4    0044d508 f   libvcruntime:exsup4.obj
 0001:0004c530       @_EH4_CallFilterFunc@8     0044d530 f   libvcruntime:exsup4.obj
 0001:0004c548       @_EH4_TransferToHandler@8  0044d548 f   libvcruntime:exsup4.obj
 0001:0004c564       @_EH4_GlobalUnwind2@8      0044d564 f   libvcruntime:exsup4.obj
 0001:0004c580       @_EH4_LocalUnwind@16       0044d580 f   libvcruntime:exsup4.obj
 0001:0004c597       ___vcrt_initialize_locks   0044d597 f   libvcruntime:locks.obj
 0001:0004c5d3       ___vcrt_uninitialize_locks 0044d5d3 f   libvcruntime:locks.obj
 0001:0004c735       ___vcrt_FlsAlloc           0044d735 f   libvcruntime:winapi_downlevel.obj
 0001:0004c770       ___vcrt_FlsFree            0044d770 f   libvcruntime:winapi_downlevel.obj
 0001:0004c7ab       ___vcrt_FlsGetValue        0044d7ab f   libvcruntime:winapi_downlevel.obj
 0001:0004c7e6       ___vcrt_FlsSetValue        0044d7e6 f   libvcruntime:winapi_downlevel.obj
 0001:0004c824       ___vcrt_InitializeCriticalSectionEx 0044d824 f   libvcruntime:winapi_downlevel.obj
 0001:0004c86b       ___vcrt_initialize_winapi_thunks 0044d86b f   libvcruntime:winapi_downlevel.obj
 0001:0004c894       ___vcrt_uninitialize_winapi_thunks 0044d894 f   libvcruntime:winapi_downlevel.obj
 0001:0004c8c6       _unexpected                0044d8c6 f   libvcruntime:unexpected.obj
 0001:0004c8e3       ?GetCurrentState@__FrameHandler3@@SAHPAUEHRegistrationNode@@PAXPBU_s_FuncInfo@@@Z 0044d8e3 f   libvcruntime:ehstate.obj
 0001:0004c900       ?SetState@__FrameHandler3@@SAXPAUEHRegistrationNode@@PBU_s_FuncInfo@@H@Z 0044d900 f   libvcruntime:ehstate.obj
 0001:0004c910       __global_unwind2           0044d910 f   libvcruntime:exsup.obj
 0001:0004c976       __local_unwind2            0044d976 f   libvcruntime:exsup.obj
 0001:0004c9fa       __abnormal_termination     0044d9fa f   libvcruntime:exsup.obj
 0001:0004ca20       __NLG_Notify1              0044da20 f   libvcruntime:exsup.obj
 0001:0004ca2c       __NLG_Notify               0044da2c f   libvcruntime:exsup.obj
 0001:0004ca43       __NLG_Dispatch2            0044da43     libvcruntime:exsup.obj
 0001:0004ca43       __NLG_Dispatch             0044da43     libvcruntime:exsup.obj
 0001:0004ca4b       __NLG_Call                 0044da4b f   libvcruntime:exsup.obj
 0001:0004ca4d       __NLG_Return2              0044da4d     libvcruntime:exsup.obj
 0001:0004ca4e       ?initialize@?$dual_state_global@PAPAD@__crt_state_management@@QAEXQAPAD@Z 0044da4e f i libucrt:environment_initialization.obj
 0001:0004ca4e       ?initialize@?$dual_state_global@P6AHI@Z@__crt_state_management@@QAEXQ6AHI@Z@Z 0044da4e f i libucrt:new_handler.obj
 0001:0004ca4e       ?initialize@?$dual_state_global@P6AXPB_W00II@Z@__crt_state_management@@QAEXQ6AXPB_W00II@Z@Z 0044da4e f i libucrt:invalid_parameter.obj
 0001:0004ca4e       ?initialize@?$dual_state_global@H@__crt_state_management@@QAEXH@Z 0044da4e f i libucrt:timeset.obj
 0001:0004ca4e       ?initialize@?$dual_state_global@P6AXH@Z@__crt_state_management@@QAEXQ6AXH@Z@Z 0044da4e f i libucrt:signal.obj
 0001:0004ca4e       ?initialize@?$dual_state_global@PAU__crt_locale_data@@@__crt_state_management@@QAEXQAU__crt_locale_data@@@Z 0044da4e f i libucrt:initialization.obj
 0001:0004ca4e       ?initialize@?$dual_state_global@P6AHPAU_exception@@@Z@__crt_state_management@@QAEXQ6AHPAU_exception@@@Z@Z 0044da4e f i libucrt:matherr.obj
 0001:0004ca4e       ?initialize@?$dual_state_global@J@__crt_state_management@@QAEXJ@Z 0044da4e f i libucrt:timeset.obj
 0001:0004ca7f       ___acrt_call_reportfault   0044da7f f   libucrt:invalid_parameter.obj
 0001:0004cbba       ___acrt_initialize_invalid_parameter_handler 0044dbba f   libucrt:invalid_parameter.obj
 0001:0004cbce       __invalid_parameter        0044dbce f   libucrt:invalid_parameter.obj
 0001:0004cc49       __invalid_parameter_noinfo 0044dc49 f   libucrt:invalid_parameter.obj
 0001:0004cc59       __invalid_parameter_noinfo_noreturn 0044dc59 f   libucrt:invalid_parameter.obj
 0001:0004cc76       __invoke_watson            0044dc76 f   libucrt:invalid_parameter.obj
 0001:0004cca9       _free                      0044dca9 f   libucrt:free.obj
 0001:0004ccae       _malloc                    0044dcae f   libucrt:malloc.obj
 0001:0004ccb9       ___acrt_initialize_stdio   0044dcb9 f   libucrt:_file.obj
 0001:0004cd81       ___acrt_iob_func           0044dd81 f   libucrt:_file.obj
 0001:0004cd91       ___acrt_uninitialize_stdio 0044dd91 f   libucrt:_file.obj
 0001:0004cddd       __lock_file                0044dddd f   libucrt:_file.obj
 0001:0004cdf1       __unlock_file              0044ddf1 f   libucrt:_file.obj
 0001:0004cec6       _fopen                     0044dec6 f   libucrt:fopen.obj
 0001:0004cedd       _fopen_s                   0044dedd f   libucrt:fopen.obj
 0001:0004cf24       __fclose_nolock            0044df24 f   libucrt:fclose.obj
 0001:0004cf9a       _fclose                    0044df9a f   libucrt:fclose.obj
 0001:0004d01a       ?LongLongSub@@YAJ_J0PA_J@Z 0044e01a f i libucrt:fseek.obj
 0001:0004d2d4       _fseek                     0044e2d4 f   libucrt:fseek.obj
 0001:0004d83b       __ftelli64_nolock          0044e83b f   libucrt:ftell.obj
 0001:0004d846       _ftell                     0044e846 f   libucrt:ftell.obj
 0001:0004d851       ??$?RV<lambda_11b4f7b0d3157825a5656a18eba1ae27>@@AAV<lambda_b51c0495177f500e782686251704ae76>@@V<lambda_cf89b47920b5017557bfe891e78aca36>@@@?$__crt_seh_guarded_call@I@@QAEI$$QAV<lambda_11b4f7b0d3157825a5656a18eba1ae27>@@AAV<lambda_b51c0495177f500e782686251704ae76>@@$$QAV<lambda_cf89b47920b5017557bfe891e78aca36>@@@Z 0044e851 f i libucrt:fwrite.obj
 0001:0004d8a2       ??$__acrt_lock_stream_and_call@V<lambda_b51c0495177f500e782686251704ae76>@@@@YAIQAU_iobuf@@$$QAV<lambda_b51c0495177f500e782686251704ae76>@@@Z 0044e8a2 f i libucrt:fwrite.obj
 0001:0004d910       __fwrite_nolock            0044e910 f   libucrt:fwrite.obj
 0001:0004da89       _fwrite                    0044ea89 f   libucrt:fwrite.obj
 0001:0004dae1       ??$?RV<lambda_db08b09ef7aa9d4f8620ce68402612bc>@@AAV<lambda_4f2c1eaeead2a5fc776db5b62ea0fb9b>@@V<lambda_3ae262bc35d4ba6a3825c4f6bcaaf95c>@@@?$__crt_seh_guarded_call@H@@QAEH$$QAV<lambda_db08b09ef7aa9d4f8620ce68402612bc>@@AAV<lambda_4f2c1eaeead2a5fc776db5b62ea0fb9b>@@$$QAV<lambda_3ae262bc35d4ba6a3825c4f6bcaaf95c>@@@Z 0044eae1 f i libucrt:output.obj
 0001:0004db32       ??$__acrt_lock_stream_and_call@V<lambda_4f2c1eaeead2a5fc776db5b62ea0fb9b>@@@@YAHQAU_iobuf@@$$QAV<lambda_4f2c1eaeead2a5fc776db5b62ea0fb9b>@@@Z 0044eb32 f i libucrt:output.obj
 0001:0004deca       ??$count@D@formatting_buffer@__crt_stdio_output@@QBEIXZ 0044eeca f i libucrt:output.obj
 0001:0004dee2       ??$ensure_buffer_is_big_enough@D@formatting_buffer@__crt_stdio_output@@QAE_NI@Z 0044eee2 f i libucrt:output.obj
 0001:0004df68       ??$is_wide_character_specifier@D@__crt_stdio_output@@YA_N_KDW4length_modifier@0@@Z 0044ef68 f i libucrt:output.obj
 0001:0004dfa8       ??$scratch_data@D@formatting_buffer@__crt_stdio_output@@QAEPADXZ 0044efa8 f i libucrt:output.obj
 0001:0004dfc6       ??$type_case_integer_parse_into_buffer@I@?$output_processor@DV?$string_output_adapter@D@__crt_stdio_output@@V?$format_validation_base@DV?$string_output_adapter@D@__crt_stdio_output@@@2@@__crt_stdio_output@@AAEXII_N@Z 0044efc6 f i libucrt:output.obj
 0001:0004dfc6       ??$type_case_integer_parse_into_buffer@I@?$output_processor@DV?$string_output_adapter@D@__crt_stdio_output@@V?$standard_base@DV?$string_output_adapter@D@__crt_stdio_output@@@2@@__crt_stdio_output@@AAEXII_N@Z 0044efc6 f i libucrt:output.obj
 0001:0004dfc6       ??$type_case_integer_parse_into_buffer@I@?$output_processor@DV?$stream_output_adapter@D@__crt_stdio_output@@V?$standard_base@DV?$stream_output_adapter@D@__crt_stdio_output@@@2@@__crt_stdio_output@@AAEXII_N@Z 0044efc6 f i libucrt:output.obj
 0001:0004e03b       ??$type_case_integer_parse_into_buffer@_K@?$output_processor@DV?$string_output_adapter@D@__crt_stdio_output@@V?$format_validation_base@DV?$string_output_adapter@D@__crt_stdio_output@@@2@@__crt_stdio_output@@AAEX_KI_N@Z 0044f03b f i libucrt:output.obj
 0001:0004e03b       ??$type_case_integer_parse_into_buffer@_K@?$output_processor@DV?$string_output_adapter@D@__crt_stdio_output@@V?$standard_base@DV?$string_output_adapter@D@__crt_stdio_output@@@2@@__crt_stdio_output@@AAEX_KI_N@Z 0044f03b f i libucrt:output.obj
 0001:0004e03b       ??$type_case_integer_parse_into_buffer@_K@?$output_processor@DV?$stream_output_adapter@D@__crt_stdio_output@@V?$standard_base@DV?$stream_output_adapter@D@__crt_stdio_output@@@2@@__crt_stdio_output@@AAEX_KI_N@Z 0044f03b f i libucrt:output.obj
 0001:0004e0c3       ??$write_multiple_characters@V?$stream_output_adapter@D@__crt_stdio_output@@D@__crt_stdio_output@@YAXABV?$stream_output_adapter@D@0@DHQAH@Z 0044f0c3 f i libucrt:output.obj
 0001:0004e0ef       ??$write_multiple_characters@V?$string_output_adapter@D@__crt_stdio_output@@D@__crt_stdio_output@@YAXABV?$string_output_adapter@D@0@DHQAH@Z 0044f0ef f i libucrt:output.obj
 0001:0004e11b       ??0?$common_data@D@__crt_stdio_output@@IAE@XZ 0044f11b f i libucrt:output.obj
 0001:0004e162       ??0?$output_adapter_data@DV?$string_output_adapter@D@__crt_stdio_output@@@__crt_stdio_output@@IAE@ABV?$string_output_adapter@D@1@_KQBDQAU__crt_locale_pointers@@QAD@Z 0044f162 f i libucrt:output.obj
 0001:0004e162       ??0?$output_adapter_data@DV?$stream_output_adapter@D@__crt_stdio_output@@@__crt_stdio_output@@IAE@ABV?$stream_output_adapter@D@1@_KQBDQAU__crt_locale_pointers@@QAD@Z 0044f162 f i libucrt:output.obj
 0001:0004e19e       ??0?$output_processor@DV?$stream_output_adapter@D@__crt_stdio_output@@V?$standard_base@DV?$stream_output_adapter@D@__crt_stdio_output@@@2@@__crt_stdio_output@@QAE@ABV?$stream_output_adapter@D@1@_KQBDQAU__crt_locale_pointers@@QAD@Z 0044f19e f i libucrt:output.obj
 0001:0004e19e       ??0?$output_processor@DV?$string_output_adapter@D@__crt_stdio_output@@V?$format_validation_base@DV?$string_output_adapter@D@__crt_stdio_output@@@2@@__crt_stdio_output@@QAE@ABV?$string_output_adapter@D@1@_KQBDQAU__crt_locale_pointers@@QAD@Z 0044f19e f i libucrt:output.obj
 0001:0004e19e       ??0?$output_processor@DV?$string_output_adapter@D@__crt_stdio_output@@V?$standard_base@DV?$string_output_adapter@D@__crt_stdio_output@@@2@@__crt_stdio_output@@QAE@ABV?$string_output_adapter@D@1@_KQBDQAU__crt_locale_pointers@@QAD@Z 0044f19e f i libucrt:output.obj
 0001:0004e1d3       ??0_LocaleUpdate@@QAE@QAU__crt_locale_pointers@@@Z 0044f1d3 f i libucrt:output.obj
 0001:0004e256       ??1formatting_buffer@__crt_stdio_output@@QAE@XZ 0044f256 f i libucrt:output.obj
 0001:0004e270       ??4?$__crt_unique_heap_ptr@DU__crt_internal_free_policy@@@@QAEAAV0@$$QAV0@@Z 0044f270 f i libucrt:output.obj
 0001:0004e351       ?crop_zeroes@__crt_stdio_output@@YAXPADQAU__crt_locale_pointers@@@Z 0044f351 f i libucrt:output.obj
 0001:0004e3a8       ?find_next_state@?$output_processor@DV?$string_output_adapter@D@__crt_stdio_output@@V?$standard_base@DV?$string_output_adapter@D@__crt_stdio_output@@@2@@__crt_stdio_output@@ABE?AW4state@2@DW432@@Z 0044f3a8 f i libucrt:output.obj
 0001:0004e3a8       ?find_next_state@?$output_processor@DV?$stream_output_adapter@D@__crt_stdio_output@@V?$standard_base@DV?$stream_output_adapter@D@__crt_stdio_output@@@2@@__crt_stdio_output@@ABE?AW4state@2@DW432@@Z 0044f3a8 f i libucrt:output.obj
 0001:0004e3da       ?find_next_state@?$output_processor@DV?$string_output_adapter@D@__crt_stdio_output@@V?$format_validation_base@DV?$string_output_adapter@D@__crt_stdio_output@@@2@@__crt_stdio_output@@ABE?AW4state@2@DW432@@Z 0044f3da f i libucrt:output.obj
 0001:0004e40f       ?force_decimal_point@__crt_stdio_output@@YAXPADQAU__crt_locale_pointers@@@Z 0044f40f f i libucrt:output.obj
 0001:0004e46b       ?parse_int_from_format_string@?$output_processor@DV?$stream_output_adapter@D@__crt_stdio_output@@V?$standard_base@DV?$stream_output_adapter@D@__crt_stdio_output@@@2@@__crt_stdio_output@@AAE_NQAH@Z 0044f46b f i libucrt:output.obj
 0001:0004e46b       ?parse_int_from_format_string@?$output_processor@DV?$string_output_adapter@D@__crt_stdio_output@@V?$standard_base@DV?$string_output_adapter@D@__crt_stdio_output@@@2@@__crt_stdio_output@@AAE_NQAH@Z 0044f46b f i libucrt:output.obj
 0001:0004e46b       ?parse_int_from_format_string@?$output_processor@DV?$string_output_adapter@D@__crt_stdio_output@@V?$format_validation_base@DV?$string_output_adapter@D@__crt_stdio_output@@@2@@__crt_stdio_output@@AAE_NQAH@Z 0044f46b f i libucrt:output.obj
 0001:0004e4c7       ?process@?$output_processor@DV?$stream_output_adapter@D@__crt_stdio_output@@V?$standard_base@DV?$stream_output_adapter@D@__crt_stdio_output@@@2@@__crt_stdio_output@@QAEHXZ 0044f4c7 f i libucrt:output.obj
 0001:0004e5e3       ?process@?$output_processor@DV?$string_output_adapter@D@__crt_stdio_output@@V?$format_validation_base@DV?$string_output_adapter@D@__crt_stdio_output@@@2@@__crt_stdio_output@@QAEHXZ 0044f5e3 f i libucrt:output.obj
 0001:0004e70b       ?process@?$output_processor@DV?$string_output_adapter@D@__crt_stdio_output@@V?$standard_base@DV?$string_output_adapter@D@__crt_stdio_output@@@2@@__crt_stdio_output@@QAEHXZ 0044f70b f i libucrt:output.obj
 0001:0004e827       ?state_case_flag@?$output_processor@DV?$string_output_adapter@D@__crt_stdio_output@@V?$standard_base@DV?$string_output_adapter@D@__crt_stdio_output@@@2@@__crt_stdio_output@@AAE_NXZ 0044f827 f i libucrt:output.obj
 0001:0004e827       ?state_case_flag@?$output_processor@DV?$string_output_adapter@D@__crt_stdio_output@@V?$format_validation_base@DV?$string_output_adapter@D@__crt_stdio_output@@@2@@__crt_stdio_output@@AAE_NXZ 0044f827 f i libucrt:output.obj
 0001:0004e827       ?state_case_flag@?$output_processor@DV?$stream_output_adapter@D@__crt_stdio_output@@V?$standard_base@DV?$stream_output_adapter@D@__crt_stdio_output@@@2@@__crt_stdio_output@@AAE_NXZ 0044f827 f i libucrt:output.obj
 0001:0004e864       ?state_case_normal@?$output_processor@DV?$stream_output_adapter@D@__crt_stdio_output@@V?$standard_base@DV?$stream_output_adapter@D@__crt_stdio_output@@@2@@__crt_stdio_output@@AAE_NXZ 0044f864 f i libucrt:output.obj
 0001:0004e883       ?state_case_normal@?$output_processor@DV?$string_output_adapter@D@__crt_stdio_output@@V?$standard_base@DV?$string_output_adapter@D@__crt_stdio_output@@@2@@__crt_stdio_output@@AAE_NXZ 0044f883 f i libucrt:output.obj
 0001:0004e883       ?state_case_normal@?$output_processor@DV?$string_output_adapter@D@__crt_stdio_output@@V?$format_validation_base@DV?$string_output_adapter@D@__crt_stdio_output@@@2@@__crt_stdio_output@@AAE_NXZ 0044f883 f i libucrt:output.obj
 0001:0004e8a2       ?state_case_normal_common@?$output_processor@DV?$stream_output_adapter@D@__crt_stdio_output@@V?$standard_base@DV?$stream_output_adapter@D@__crt_stdio_output@@@2@@__crt_stdio_output@@AAE_NXZ 0044f8a2 f i libucrt:output.obj
 0001:0004e8cc       ?state_case_normal_common@?$output_processor@DV?$string_output_adapter@D@__crt_stdio_output@@V?$format_validation_base@DV?$string_output_adapter@D@__crt_stdio_output@@@2@@__crt_stdio_output@@AAE_NXZ 0044f8cc f i libucrt:output.obj
 0001:0004e8cc       ?state_case_normal_common@?$output_processor@DV?$string_output_adapter@D@__crt_stdio_output@@V?$standard_base@DV?$string_output_adapter@D@__crt_stdio_output@@@2@@__crt_stdio_output@@AAE_NXZ 0044f8cc f i libucrt:output.obj
 0001:0004e8f6       ?state_case_normal_tchar@?$output_processor@DV?$stream_output_adapter@D@__crt_stdio_output@@V?$standard_base@DV?$stream_output_adapter@D@__crt_stdio_output@@@2@@__crt_stdio_output@@AAE_ND@Z 0044f8f6 f i libucrt:output.obj
 0001:0004e957       ?state_case_normal_tchar@?$output_processor@DV?$string_output_adapter@D@__crt_stdio_output@@V?$standard_base@DV?$string_output_adapter@D@__crt_stdio_output@@@2@@__crt_stdio_output@@AAE_ND@Z 0044f957 f i libucrt:output.obj
 0001:0004e957       ?state_case_normal_tchar@?$output_processor@DV?$string_output_adapter@D@__crt_stdio_output@@V?$format_validation_base@DV?$string_output_adapter@D@__crt_stdio_output@@@2@@__crt_stdio_output@@AAE_ND@Z 0044f957 f i libucrt:output.obj
 0001:0004e9b8       ?state_case_precision@?$output_processor@DV?$string_output_adapter@D@__crt_stdio_output@@V?$format_validation_base@DV?$string_output_adapter@D@__crt_stdio_output@@@2@@__crt_stdio_output@@AAE_NXZ 0044f9b8 f i libucrt:output.obj
 0001:0004e9b8       ?state_case_precision@?$output_processor@DV?$string_output_adapter@D@__crt_stdio_output@@V?$standard_base@DV?$string_output_adapter@D@__crt_stdio_output@@@2@@__crt_stdio_output@@AAE_NXZ 0044f9b8 f i libucrt:output.obj
 0001:0004e9b8       ?state_case_precision@?$output_processor@DV?$stream_output_adapter@D@__crt_stdio_output@@V?$standard_base@DV?$stream_output_adapter@D@__crt_stdio_output@@@2@@__crt_stdio_output@@AAE_NXZ 0044f9b8 f i libucrt:output.obj
 0001:0004e9e0       ?state_case_size@?$output_processor@DV?$stream_output_adapter@D@__crt_stdio_output@@V?$standard_base@DV?$stream_output_adapter@D@__crt_stdio_output@@@2@@__crt_stdio_output@@AAE_NXZ 0044f9e0 f i libucrt:output.obj
 0001:0004eb49       ?state_case_size@?$output_processor@DV?$string_output_adapter@D@__crt_stdio_output@@V?$format_validation_base@DV?$string_output_adapter@D@__crt_stdio_output@@@2@@__crt_stdio_output@@AAE_NXZ 0044fb49 f i libucrt:output.obj
 0001:0004eb49       ?state_case_size@?$output_processor@DV?$string_output_adapter@D@__crt_stdio_output@@V?$standard_base@DV?$string_output_adapter@D@__crt_stdio_output@@@2@@__crt_stdio_output@@AAE_NXZ 0044fb49 f i libucrt:output.obj
 0001:0004ecb2       ?state_case_type@?$output_processor@DV?$stream_output_adapter@D@__crt_stdio_output@@V?$standard_base@DV?$stream_output_adapter@D@__crt_stdio_output@@@2@@__crt_stdio_output@@AAE_NXZ 0044fcb2 f i libucrt:output.obj
 0001:0004eee1       ?state_case_type@?$output_processor@DV?$string_output_adapter@D@__crt_stdio_output@@V?$format_validation_base@DV?$string_output_adapter@D@__crt_stdio_output@@@2@@__crt_stdio_output@@AAE_NXZ 0044fee1 f i libucrt:output.obj
 0001:0004eee1       ?state_case_type@?$output_processor@DV?$string_output_adapter@D@__crt_stdio_output@@V?$standard_base@DV?$string_output_adapter@D@__crt_stdio_output@@@2@@__crt_stdio_output@@AAE_NXZ 0044fee1 f i libucrt:output.obj
 0001:0004f110       ?state_case_width@?$output_processor@DV?$stream_output_adapter@D@__crt_stdio_output@@V?$standard_base@DV?$stream_output_adapter@D@__crt_stdio_output@@@2@@__crt_stdio_output@@AAE_NXZ 00450110 f i libucrt:output.obj
 0001:0004f110       ?state_case_width@?$output_processor@DV?$string_output_adapter@D@__crt_stdio_output@@V?$format_validation_base@DV?$string_output_adapter@D@__crt_stdio_output@@@2@@__crt_stdio_output@@AAE_NXZ 00450110 f i libucrt:output.obj
 0001:0004f110       ?state_case_width@?$output_processor@DV?$string_output_adapter@D@__crt_stdio_output@@V?$standard_base@DV?$string_output_adapter@D@__crt_stdio_output@@@2@@__crt_stdio_output@@AAE_NXZ 00450110 f i libucrt:output.obj
 0001:0004f13b       ?to_integer_size@__crt_stdio_output@@YAIW4length_modifier@1@@Z 0045013b f i libucrt:output.obj
 0001:0004f197       ?type_case_Z@?$output_processor@DV?$stream_output_adapter@D@__crt_stdio_output@@V?$standard_base@DV?$stream_output_adapter@D@__crt_stdio_output@@@2@@__crt_stdio_output@@AAE_NXZ 00450197 f i libucrt:output.obj
 0001:0004f197       ?type_case_Z@?$output_processor@DV?$string_output_adapter@D@__crt_stdio_output@@V?$format_validation_base@DV?$string_output_adapter@D@__crt_stdio_output@@@2@@__crt_stdio_output@@AAE_NXZ 00450197 f i libucrt:output.obj
 0001:0004f197       ?type_case_Z@?$output_processor@DV?$string_output_adapter@D@__crt_stdio_output@@V?$standard_base@DV?$string_output_adapter@D@__crt_stdio_output@@@2@@__crt_stdio_output@@AAE_NXZ 00450197 f i libucrt:output.obj
 0001:0004f1fa       ?type_case_a@?$output_processor@DV?$string_output_adapter@D@__crt_stdio_output@@V?$format_validation_base@DV?$string_output_adapter@D@__crt_stdio_output@@@2@@__crt_stdio_output@@AAE_NXZ 004501fa f i libucrt:output.obj
 0001:0004f1fa       ?type_case_a@?$output_processor@DV?$string_output_adapter@D@__crt_stdio_output@@V?$standard_base@DV?$string_output_adapter@D@__crt_stdio_output@@@2@@__crt_stdio_output@@AAE_NXZ 004501fa f i libucrt:output.obj
 0001:0004f1fa       ?type_case_a@?$output_processor@DV?$stream_output_adapter@D@__crt_stdio_output@@V?$standard_base@DV?$stream_output_adapter@D@__crt_stdio_output@@@2@@__crt_stdio_output@@AAE_NXZ 004501fa f i libucrt:output.obj
 0001:0004f354       ?type_case_c_tchar@?$output_processor@DV?$string_output_adapter@D@__crt_stdio_output@@V?$format_validation_base@DV?$string_output_adapter@D@__crt_stdio_output@@@2@@__crt_stdio_output@@AAE_ND@Z 00450354 f i libucrt:output.obj
 0001:0004f354       ?type_case_c_tchar@?$output_processor@DV?$string_output_adapter@D@__crt_stdio_output@@V?$standard_base@DV?$string_output_adapter@D@__crt_stdio_output@@@2@@__crt_stdio_output@@AAE_ND@Z 00450354 f i libucrt:output.obj
 0001:0004f354       ?type_case_c_tchar@?$output_processor@DV?$stream_output_adapter@D@__crt_stdio_output@@V?$standard_base@DV?$stream_output_adapter@D@__crt_stdio_output@@@2@@__crt_stdio_output@@AAE_ND@Z 00450354 f i libucrt:output.obj
 0001:0004f3e4       ?type_case_integer@?$output_processor@DV?$string_output_adapter@D@__crt_stdio_output@@V?$format_validation_base@DV?$string_output_adapter@D@__crt_stdio_output@@@2@@__crt_stdio_output@@AAE_NI_N@Z 004503e4 f i libucrt:output.obj
 0001:0004f3e4       ?type_case_integer@?$output_processor@DV?$stream_output_adapter@D@__crt_stdio_output@@V?$standard_base@DV?$stream_output_adapter@D@__crt_stdio_output@@@2@@__crt_stdio_output@@AAE_NI_N@Z 004503e4 f i libucrt:output.obj
 0001:0004f3e4       ?type_case_integer@?$output_processor@DV?$string_output_adapter@D@__crt_stdio_output@@V?$standard_base@DV?$string_output_adapter@D@__crt_stdio_output@@@2@@__crt_stdio_output@@AAE_NI_N@Z 004503e4 f i libucrt:output.obj
 0001:0004f52e       ?type_case_n@?$output_processor@DV?$string_output_adapter@D@__crt_stdio_output@@V?$standard_base@DV?$string_output_adapter@D@__crt_stdio_output@@@2@@__crt_stdio_output@@AAE_NXZ 0045052e f i libucrt:output.obj
 0001:0004f52e       ?type_case_n@?$output_processor@DV?$string_output_adapter@D@__crt_stdio_output@@V?$format_validation_base@DV?$string_output_adapter@D@__crt_stdio_output@@@2@@__crt_stdio_output@@AAE_NXZ 0045052e f i libucrt:output.obj
 0001:0004f52e       ?type_case_n@?$output_processor@DV?$stream_output_adapter@D@__crt_stdio_output@@V?$standard_base@DV?$stream_output_adapter@D@__crt_stdio_output@@@2@@__crt_stdio_output@@AAE_NXZ 0045052e f i libucrt:output.obj
 0001:0004f5a2       ?type_case_o@?$output_processor@DV?$stream_output_adapter@D@__crt_stdio_output@@V?$standard_base@DV?$stream_output_adapter@D@__crt_stdio_output@@@2@@__crt_stdio_output@@AAE_NXZ 004505a2 f i libucrt:output.obj
 0001:0004f5a2       ?type_case_o@?$output_processor@DV?$string_output_adapter@D@__crt_stdio_output@@V?$standard_base@DV?$string_output_adapter@D@__crt_stdio_output@@@2@@__crt_stdio_output@@AAE_NXZ 004505a2 f i libucrt:output.obj
 0001:0004f5a2       ?type_case_o@?$output_processor@DV?$string_output_adapter@D@__crt_stdio_output@@V?$format_validation_base@DV?$string_output_adapter@D@__crt_stdio_output@@@2@@__crt_stdio_output@@AAE_NXZ 004505a2 f i libucrt:output.obj
 0001:0004f5c1       ?type_case_p@?$output_processor@DV?$string_output_adapter@D@__crt_stdio_output@@V?$format_validation_base@DV?$string_output_adapter@D@__crt_stdio_output@@@2@@__crt_stdio_output@@AAE_NXZ 004505c1 f i libucrt:output.obj
 0001:0004f5c1       ?type_case_p@?$output_processor@DV?$string_output_adapter@D@__crt_stdio_output@@V?$standard_base@DV?$string_output_adapter@D@__crt_stdio_output@@@2@@__crt_stdio_output@@AAE_NXZ 004505c1 f i libucrt:output.obj
 0001:0004f5c1       ?type_case_p@?$output_processor@DV?$stream_output_adapter@D@__crt_stdio_output@@V?$standard_base@DV?$stream_output_adapter@D@__crt_stdio_output@@@2@@__crt_stdio_output@@AAE_NXZ 004505c1 f i libucrt:output.obj
 0001:0004f5d9       ?type_case_s@?$output_processor@DV?$string_output_adapter@D@__crt_stdio_output@@V?$format_validation_base@DV?$string_output_adapter@D@__crt_stdio_output@@@2@@__crt_stdio_output@@AAE_NXZ 004505d9 f i libucrt:output.obj
 0001:0004f5d9       ?type_case_s@?$output_processor@DV?$stream_output_adapter@D@__crt_stdio_output@@V?$standard_base@DV?$stream_output_adapter@D@__crt_stdio_output@@@2@@__crt_stdio_output@@AAE_NXZ 004505d9 f i libucrt:output.obj
 0001:0004f5d9       ?type_case_s@?$output_processor@DV?$string_output_adapter@D@__crt_stdio_output@@V?$standard_base@DV?$string_output_adapter@D@__crt_stdio_output@@@2@@__crt_stdio_output@@AAE_NXZ 004505d9 f i libucrt:output.obj
 0001:0004f64c       ?validate@?$stream_output_adapter@D@__crt_stdio_output@@QBE_NXZ 0045064c f i libucrt:output.obj
 0001:0004f66d       ?validate@?$c_string_character_source@D@__crt_strtox@@QBE_NXZ 0045066d f i libucrt:strtox.obj
 0001:0004f66d       ?validate@?$string_output_adapter@D@__crt_stdio_output@@QBE_NXZ 0045066d f i libucrt:output.obj
 0001:0004f688       ?validate_and_update_state_at_end_of_format_string@?$format_validation_base@DV?$string_output_adapter@D@__crt_stdio_output@@@__crt_stdio_output@@IBE_NXZ 00450688 f i libucrt:output.obj
 0001:0004f6aa       ?validate_stream_is_ansi_if_required@?$__acrt_stdio_char_traits@D@@SA_NQAU_iobuf@@@Z 004506aa f i libucrt:output.obj
 0001:0004f72c       ?write_character@?$stream_output_adapter@D@__crt_stdio_output@@QBEXDQAH@Z 0045072c f i libucrt:output.obj
 0001:0004f769       ?write_character@?$string_output_adapter@D@__crt_stdio_output@@QBE_NDQAH@Z 00450769 f i libucrt:output.obj
 0001:0004f7ab       ?write_stored_string_tchar@?$output_processor@DV?$stream_output_adapter@D@__crt_stdio_output@@V?$standard_base@DV?$stream_output_adapter@D@__crt_stdio_output@@@2@@__crt_stdio_output@@AAE_ND@Z 004507ab f i libucrt:output.obj
 0001:0004f852       ?write_stored_string_tchar@?$output_processor@DV?$string_output_adapter@D@__crt_stdio_output@@V?$standard_base@DV?$string_output_adapter@D@__crt_stdio_output@@@2@@__crt_stdio_output@@AAE_ND@Z 00450852 f i libucrt:output.obj
 0001:0004f852       ?write_stored_string_tchar@?$output_processor@DV?$string_output_adapter@D@__crt_stdio_output@@V?$format_validation_base@DV?$string_output_adapter@D@__crt_stdio_output@@@2@@__crt_stdio_output@@AAE_ND@Z 00450852 f i libucrt:output.obj
 0001:0004f8f9       ?write_string@?$stream_output_adapter@D@__crt_stdio_output@@QBEXQBDHQAH1@Z 004508f9 f i libucrt:output.obj
 0001:0004f983       ?write_string@?$string_output_adapter@D@__crt_stdio_output@@QBEXQBDHQAH1@Z 00450983 f i libucrt:output.obj
 0001:0004fa16       ___stdio_common_vfprintf   00450a16 f   libucrt:output.obj
 0001:0004fa8d       ___stdio_common_vsprintf   00450a8d f   libucrt:output.obj
 0001:0004fab1       ___stdio_common_vsprintf_s 00450ab1 f   libucrt:output.obj
 0001:0004fad5       ??$__crt_fast_encode_pointer@P6AHPAU_exception@@@Z@@YAP6AHPAU_exception@@@ZQ6AH0@Z@Z 00450ad5 f i libucrt:matherr.obj
 0001:0004fad5       ??$__crt_fast_encode_pointer@P6AHXZ@@YAP6AHXZQ6AHXZ@Z 00450ad5 f i libucrt:onexit.obj
 0001:0004fad5       ??$__crt_fast_encode_pointer@P6GXPAXK0@Z@@YAP6GXPAXK0@ZQ6GX0K0@Z@Z 00450ad5 f i libucrt:exit.obj
 0001:0004fd0f       ___acrt_initialize_thread_local_exit_callback 00450d0f f   libucrt:exit.obj
 0001:0004fd1e       __c_exit                   00450d1e f   libucrt:exit.obj
 0001:0004fd2d       __cexit                    00450d2d f   libucrt:exit.obj
 0001:0004fd3c       __exit                     00450d3c f   libucrt:exit.obj
 0001:0004fd52       __register_thread_local_exe_atexit_callback 00450d52 f   libucrt:exit.obj
 0001:0004fd8a       _exit                      00450d8a f   libucrt:exit.obj
 0001:0004fda0       ??$is_overflow_condition@K@__crt_strtox@@YA_NIK@Z 00450da0 f i libucrt:strtox.obj
 0001:0004fdd3       ??$is_overflow_condition@_K@__crt_strtox@@YA_NI_K@Z 00450dd3 f i libucrt:strtox.obj
 0001:0004fe16       ??$make_c_string_character_source@D$$T@__crt_strtox@@YA?AV?$c_string_character_source@D@0@QBD$$T@Z 00450e16 f i libucrt:atox.obj
 0001:0004fe16       ??$make_c_string_character_source@DPAPAD@__crt_strtox@@YA?AV?$c_string_character_source@D@0@QBDQAPAD@Z 00450e16 f i libucrt:strtox.obj
 0001:0004fe31       ??$parse_integer@KV?$c_string_character_source@D@__crt_strtox@@@__crt_strtox@@YAKQAU__crt_locale_pointers@@V?$c_string_character_source@D@0@H_N@Z 00450e31 f i libucrt:strtox.obj
 0001:00050059       ??$parse_integer@_KV?$c_string_character_source@D@__crt_strtox@@@__crt_strtox@@YA_KQAU__crt_locale_pointers@@V?$c_string_character_source@D@0@H_N@Z 00451059 f i libucrt:strtox.obj
 0001:000502ff       ?unget@?$c_string_character_source@D@__crt_strtox@@QAEXD@Z 004512ff f i libucrt:strtox.obj
 0001:00050327       __chvalidchk_l             00451327 f i libucrt:strtox.obj
 0001:00050351       __ischartype_l             00451351 f i libucrt:strtox.obj
 0001:00050384       _strtol                    00451384 f   libucrt:strtox.obj
 0001:000503b0       _strtoull                  004513b0 f   libucrt:strtox.obj
 0001:000503dc       __fputc_nolock             004513dc f   libucrt:fputc.obj
 0001:00050405       _fputc                     00451405 f   libucrt:fputc.obj
 0001:00050509       ??$assemble_floating_point_ind@N@__crt_strtox@@YAXAAN@Z 00451509 f i libucrt:input.obj
 0001:00050538       ??$assemble_floating_point_infinity@N@__crt_strtox@@YAX_NAAN@Z 00451538 f i libucrt:input.obj
 0001:00050577       ??$assemble_floating_point_qnan@N@__crt_strtox@@YAX_NAAN@Z 00451577 f i libucrt:input.obj
 0001:000505b6       ??$assemble_floating_point_snan@N@__crt_strtox@@YAX_NAAN@Z 004515b6 f i libucrt:input.obj
 0001:000505fa       ??$assemble_floating_point_value_t@M@__crt_strtox@@YA?AW4SLD_STATUS@@_NH_KAAM@Z 004515fa f i libucrt:input.obj
 0001:0005062a       ??$assemble_floating_point_value_t@N@__crt_strtox@@YA?AW4SLD_STATUS@@_NH_KAAN@Z 0045162a f i libucrt:input.obj
 0001:00050689       ??$assemble_floating_point_zero@N@__crt_strtox@@YAX_NAAN@Z 00451689 f i libucrt:input.obj
 0001:00050787       ??$convert_decimal_string_to_floating_type@M@__crt_strtox@@YA?AW4SLD_STATUS@@ABUfloating_point_string@0@AAM@Z 00451787 f i libucrt:input.obj
 0001:000507aa       ??$convert_decimal_string_to_floating_type@N@__crt_strtox@@YA?AW4SLD_STATUS@@ABUfloating_point_string@0@AAN@Z 004517aa f i libucrt:input.obj
 0001:000507cd       ??$convert_hexadecimal_string_to_floating_type@M@__crt_strtox@@YA?AW4SLD_STATUS@@ABUfloating_point_string@0@AAM@Z 004517cd f i libucrt:input.obj
 0001:000507f0       ??$convert_hexadecimal_string_to_floating_type@N@__crt_strtox@@YA?AW4SLD_STATUS@@ABUfloating_point_string@0@AAN@Z 004517f0 f i libucrt:input.obj
 0001:00050813       ??$make_input_adapter_character_source@V?$string_input_adapter@D@__crt_stdio_input@@@__crt_strtox@@YA?AV?$input_adapter_character_source@V?$string_input_adapter@D@__crt_stdio_input@@@0@QAV?$string_input_adapter@D@__crt_stdio_input@@_KQA_N@Z 00451813 f i libucrt:input.obj
 0001:00050831       ??$parse_floating_point@V?$input_adapter_character_source@V?$string_input_adapter@D@__crt_stdio_input@@@__crt_strtox@@M@__crt_strtox@@YA?AW4SLD_STATUS@@QAU__crt_locale_pointers@@V?$input_adapter_character_source@V?$string_input_adapter@D@__crt_stdio_input@@@0@QAM@Z 00451831 f i libucrt:input.obj
 0001:000508ac       ??$parse_floating_point@V?$input_adapter_character_source@V?$string_input_adapter@D@__crt_stdio_input@@@__crt_strtox@@N@__crt_strtox@@YA?AW4SLD_STATUS@@QAU__crt_locale_pointers@@V?$input_adapter_character_source@V?$string_input_adapter@D@__crt_stdio_input@@@0@QAN@Z 004518ac f i libucrt:input.obj
 0001:00050927       ??$parse_floating_point_from_source@V?$input_adapter_character_source@V?$string_input_adapter@D@__crt_stdio_input@@@__crt_strtox@@@__crt_strtox@@YA?AW4floating_point_parse_result@0@QAU__crt_locale_pointers@@AAV?$input_adapter_character_source@V?$string_input_adapter@D@__crt_stdio_input@@@0@AAUfloating_point_string@0@@Z 00451927 f i libucrt:input.obj
 0001:00050d8e       ??$parse_floating_point_possible_infinity@DV?$input_adapter_character_source@V?$string_input_adapter@D@__crt_stdio_input@@@__crt_strtox@@_K@__crt_strtox@@YA?AW4floating_point_parse_result@0@AADAAV?$input_adapter_character_source@V?$string_input_adapter@D@__crt_stdio_input@@@0@_K@Z 00451d8e f i libucrt:input.obj
 0001:00050e4f       ??$parse_floating_point_possible_nan@DV?$input_adapter_character_source@V?$string_input_adapter@D@__crt_stdio_input@@@__crt_strtox@@_K@__crt_strtox@@YA?AW4floating_point_parse_result@0@AADAAV?$input_adapter_character_source@V?$string_input_adapter@D@__crt_stdio_input@@@0@_K@Z 00451e4f f i libucrt:input.obj
 0001:00050f61       ??$parse_floating_point_possible_nan_is_ind@DV?$input_adapter_character_source@V?$string_input_adapter@D@__crt_stdio_input@@@__crt_strtox@@@__crt_strtox@@YA_NAADAAV?$input_adapter_character_source@V?$string_input_adapter@D@__crt_stdio_input@@@0@@Z 00451f61 f i libucrt:input.obj
 0001:00050f9b       ??$parse_floating_point_possible_nan_is_snan@DV?$input_adapter_character_source@V?$string_input_adapter@D@__crt_stdio_input@@@__crt_strtox@@@__crt_strtox@@YA_NAADAAV?$input_adapter_character_source@V?$string_input_adapter@D@__crt_stdio_input@@@0@@Z 00451f9b f i libucrt:input.obj
 0001:00050fd5       ??$parse_floating_point_write_result@M@__crt_strtox@@YA?AW4SLD_STATUS@@W4floating_point_parse_result@0@ABUfloating_point_string@0@QAM@Z 00451fd5 f i libucrt:input.obj
 0001:000510e5       ??$parse_floating_point_write_result@N@__crt_strtox@@YA?AW4SLD_STATUS@@W4floating_point_parse_result@0@ABUfloating_point_string@0@QAN@Z 004520e5 f i libucrt:input.obj
 0001:000511e9       ??$parse_integer@_KV?$input_adapter_character_source@V?$string_input_adapter@D@__crt_stdio_input@@@__crt_strtox@@@__crt_strtox@@YA_KQAU__crt_locale_pointers@@V?$input_adapter_character_source@V?$string_input_adapter@D@__crt_stdio_input@@@0@H_N@Z 004521e9 f i libucrt:input.obj
 0001:0005149a       ??$process_floating_point_specifier_t@M@?$input_processor@DV?$string_input_adapter@D@__crt_stdio_input@@@__crt_stdio_input@@AAE_NXZ 0045249a f i libucrt:input.obj
 0001:00051502       ??$process_floating_point_specifier_t@N@?$input_processor@DV?$string_input_adapter@D@__crt_stdio_input@@@__crt_stdio_input@@AAE_NXZ 00452502 f i libucrt:input.obj
 0001:0005156a       ??$process_string_specifier_tchar@D@?$input_processor@DV?$string_input_adapter@D@__crt_stdio_input@@@__crt_stdio_input@@AAE_NW4conversion_mode@1@D@Z 0045256a f i libucrt:input.obj
 0001:000516cc       ??$process_string_specifier_tchar@_W@?$input_processor@DV?$string_input_adapter@D@__crt_stdio_input@@@__crt_stdio_input@@AAE_NW4conversion_mode@1@_W@Z 004526cc f i libucrt:input.obj
 0001:00051838       ??$skip_whitespace@Vstring_input_adapter@__crt_stdio_input@@D@__crt_stdio_input@@YAHAAV?$string_input_adapter@D@0@QAU__crt_locale_pointers@@@Z 00452838 f i libucrt:input.obj
 0001:00051867       ??$write_floating_point@M@?$input_processor@DV?$string_input_adapter@D@__crt_stdio_input@@@__crt_stdio_input@@AAE_NABM@Z 00452867 f i libucrt:input.obj
 0001:0005189e       ??$write_floating_point@N@?$input_processor@DV?$string_input_adapter@D@__crt_stdio_input@@@__crt_stdio_input@@AAE_NABN@Z 0045289e f i libucrt:input.obj
 0001:000518db       ??0?$format_string_parser@D@__crt_stdio_input@@QAE@_KQBE@Z 004528db f i libucrt:input.obj
 0001:00051925       ??0?$input_adapter_character_source@V?$string_input_adapter@D@__crt_stdio_input@@@__crt_strtox@@QAE@QAV?$string_input_adapter@D@__crt_stdio_input@@_KQA_N@Z 00452925 f i libucrt:input.obj
 0001:00051956       ??0?$input_processor@DV?$string_input_adapter@D@__crt_stdio_input@@@__crt_stdio_input@@QAE@ABV?$string_input_adapter@D@1@_KQBDQAU__crt_locale_pointers@@QAD@Z 00452956 f i libucrt:input.obj
 0001:000519c8       ?advance@?$format_string_parser@D@__crt_stdio_input@@QAE_NXZ 004529c8 f i libucrt:input.obj
 0001:00051ae8       ?as_double@floating_point_value@__crt_strtox@@QBEAANXZ 00452ae8 f i libucrt:input.obj
 0001:00051b0d       ?as_float@floating_point_value@__crt_strtox@@QBEAAMXZ 00452b0d f i libucrt:input.obj
 0001:00051b32       ?assemble_floating_point_infinity@__crt_strtox@@YAX_NABVfloating_point_value@1@@Z 00452b32 f i libucrt:input.obj
 0001:00051b6c       ?assemble_floating_point_value@__crt_strtox@@YA?AW4SLD_STATUS@@_KH_N1ABVfloating_point_value@1@@Z 00452b6c f i libucrt:input.obj
 0001:00051eb8       ?assemble_floating_point_value_from_big_integer@__crt_strtox@@YA?AW4SLD_STATUS@@ABUbig_integer@1@I_N1ABVfloating_point_value@1@@Z 00452eb8 f i libucrt:input.obj
 0001:00052046       ?assemble_floating_point_zero@__crt_strtox@@YAX_NABVfloating_point_value@1@@Z 00453046 f i libucrt:input.obj
 0001:0005207a       ?convert_decimal_string_to_floating_type_common@__crt_strtox@@YA?AW4SLD_STATUS@@ABUfloating_point_string@1@ABVfloating_point_value@1@@Z 0045307a f i libucrt:input.obj
 0001:00053e3d       ?convert_hexadecimal_string_to_floating_type_common@__crt_strtox@@YA?AW4SLD_STATUS@@ABUfloating_point_string@1@ABVfloating_point_value@1@@Z 00454e3d f i libucrt:input.obj
 0001:00053ee9       ?denormal_mantissa_mask@floating_point_value@__crt_strtox@@QBE_KXZ 00454ee9 f i libucrt:input.obj
 0001:00053f00       ?divide@__crt_strtox@@YA_KAAUbig_integer@1@ABU21@@Z 00454f00 f i libucrt:input.obj
 0001:000543ae       ?get@?$input_adapter_character_source@V?$string_input_adapter@D@__crt_stdio_input@@@__crt_strtox@@QAEDXZ 004553ae f i libucrt:input.obj
 0001:000543e8       ?get@?$string_input_adapter@D@__crt_stdio_input@@QAEHXZ 004553e8 f i libucrt:input.obj
 0001:000543fe       ?invert@?$scanset_buffer@E@__crt_stdio_input@@QAEXXZ 004553fe f i libucrt:input.obj
 0001:0005441c       ?is_character_allowed_in_string@?$input_processor@DV?$string_input_adapter@D@__crt_stdio_input@@@__crt_stdio_input@@ABE_NW4conversion_mode@2@H@Z 0045541c f i libucrt:input.obj
 0001:00054462       ?length@?$format_string_parser@D@__crt_stdio_input@@QBEIXZ 00455462 f i libucrt:input.obj
 0001:000544a3       ?normal_mantissa_mask@floating_point_value@__crt_strtox@@QBE_KXZ 004554a3 f i libucrt:input.obj
 0001:000544ba       ?process@?$input_processor@DV?$string_input_adapter@D@__crt_stdio_input@@@__crt_stdio_input@@QAEHXZ 004554ba f i libucrt:input.obj
 0001:0005453f       ?process_character_count_specifier@?$input_processor@DV?$string_input_adapter@D@__crt_stdio_input@@@__crt_stdio_input@@AAE_NXZ 0045553f f i libucrt:input.obj
 0001:00054559       ?process_conversion_specifier@?$input_processor@DV?$string_input_adapter@D@__crt_stdio_input@@@__crt_stdio_input@@AAE_NXZ 00455559 f i libucrt:input.obj
 0001:000545cd       ?process_floating_point_specifier@?$input_processor@DV?$string_input_adapter@D@__crt_stdio_input@@@__crt_stdio_input@@AAE_NXZ 004555cd f i libucrt:input.obj
 0001:000545fd       ?process_integer_specifier@?$input_processor@DV?$string_input_adapter@D@__crt_stdio_input@@@__crt_stdio_input@@AAE_NI_N@Z 004555fd f i libucrt:input.obj
 0001:00054663       ?process_literal_character@?$input_processor@DV?$string_input_adapter@D@__crt_stdio_input@@@__crt_stdio_input@@AAE_NXZ 00455663 f i libucrt:input.obj
 0001:00054699       ?process_literal_character_tchar@?$input_processor@DV?$string_input_adapter@D@__crt_stdio_input@@@__crt_stdio_input@@AAE_ND@Z 00455699 f i libucrt:input.obj
 0001:000546ef       ?process_state@?$input_processor@DV?$string_input_adapter@D@__crt_stdio_input@@@__crt_stdio_input@@AAE_NXZ 004556ef f i libucrt:input.obj
 0001:00054725       ?process_string_specifier@?$input_processor@DV?$string_input_adapter@D@__crt_stdio_input@@@__crt_stdio_input@@AAE_NW4conversion_mode@2@@Z 00455725 f i libucrt:input.obj
 0001:0005476d       ?process_whitespace@?$input_processor@DV?$string_input_adapter@D@__crt_stdio_input@@@__crt_stdio_input@@AAE_NXZ 0045576d f i libucrt:input.obj
 0001:0005478a       ?restore_state@?$input_adapter_character_source@V?$string_input_adapter@D@__crt_stdio_input@@@__crt_strtox@@QAE_N_K@Z 0045578a f i libucrt:input.obj
 0001:000547af       ?scan_conversion_specifier@?$format_string_parser@D@__crt_stdio_input@@AAE_NXZ 004557af f i libucrt:input.obj
 0001:0005491a       ?scan_optional_field_width@?$format_string_parser@D@__crt_stdio_input@@AAE_NXZ 0045591a f i libucrt:input.obj
 0001:000549b9       ?scan_optional_length_modifier@?$format_string_parser@D@__crt_stdio_input@@AAEXXZ 004559b9 f i libucrt:input.obj
 0001:00054ad9       ?scan_optional_literal_character_trail_bytes_tchar@?$format_string_parser@D@__crt_stdio_input@@AAE_ND@Z 00455ad9 f i libucrt:input.obj
 0001:00054b2e       ?scan_optional_wide_modifier@?$format_string_parser@D@__crt_stdio_input@@AAEXXZ 00455b2e f i libucrt:input.obj
 0001:00054b4c       ?scan_scanset_range@?$format_string_parser@D@__crt_stdio_input@@AAE_NXZ 00455b4c f i libucrt:input.obj
 0001:00054c53       ?set@?$scanset_buffer@E@__crt_stdio_input@@QAEXE@Z 00455c53 f i libucrt:input.obj
 0001:00054c7e       ?set_wide_for_c_s_or_scanset@?$format_string_parser@D@__crt_stdio_input@@AAEXXZ 00455c7e f i libucrt:input.obj
 0001:00054c9e       ?test@?$scanset_buffer@E@__crt_stdio_input@@QBE_NE@Z 00455c9e f i libucrt:input.obj
 0001:00054ccf       ?to_floating_point_length@__crt_stdio_input@@YAIW4length_modifier@1@@Z 00455ccf f i libucrt:input.obj
 0001:00054cf2       ?to_integer_length@__crt_stdio_input@@YAIW4length_modifier@1@@Z 00455cf2 f i libucrt:input.obj
 0001:00054d4a       ?unget@?$input_adapter_character_source@V?$string_input_adapter@D@__crt_stdio_input@@@__crt_strtox@@QAEXD@Z 00455d4a f i libucrt:input.obj
 0001:00054d8b       ?unget@?$string_input_adapter@D@__crt_stdio_input@@QAEXH@Z 00455d8b f i libucrt:input.obj
 0001:00054daa       ?validate@?$format_string_parser@D@__crt_stdio_input@@QBE_NXZ 00455daa f i libucrt:input.obj
 0001:00054dc6       ?validate@?$input_adapter_character_source@V?$string_input_adapter@D@__crt_stdio_input@@@__crt_strtox@@QBE_NXZ 00455dc6 f i libucrt:input.obj
 0001:00054de7       ?validate@?$string_input_adapter@D@__crt_stdio_input@@QAE_NXZ 00455de7 f i libucrt:input.obj
 0001:00054e09       ?write_character@?$input_processor@DV?$string_input_adapter@D@__crt_stdio_input@@@__crt_stdio_input@@AAE_NQA_WIAAPA_WAAID@Z 00455e09 f i libucrt:input.obj
 0001:00054e7a       ?write_integer@?$input_processor@DV?$string_input_adapter@D@__crt_stdio_input@@@__crt_stdio_input@@AAE_N_K_N@Z 00455e7a f i libucrt:input.obj
 0001:00054ef1       ___stdio_common_vsscanf    00455ef1 f   libucrt:input.obj
 0001:00054f96       ??$__crt_time_is_leap_year@H@@YA_NH@Z 00455f96 f i libucrt:asctime.obj
 0001:000551b8       ?__crt_time_is_day_valid@@YA_NHHH@Z 004561b8 f i libucrt:asctime.obj
 0001:000551ff       _asctime                   004561ff f   libucrt:asctime.obj
 0001:000554df       __localtime64              004564df f   libucrt:localtime.obj
 0001:00055585       __time64                   00456585 f   libucrt:time.obj
 0001:000555c7       _strcpy_s                  004565c7 f   libucrt:strcpy_s.obj
 0001:0005588e       __dupenv_s                 0045688e f   libucrt:getenv.obj
 0001:000558ac       _getenv_s                  004568ac f   libucrt:getenv.obj
 0001:000558b7       ___acrt_stdio_flush_nolock 004568b7 f   libucrt:fflush.obj
 0001:0005591d       __fflush_nolock            0045691d f   libucrt:fflush.obj
 0001:00055964       __flushall                 00456964 f   libucrt:fflush.obj
 0001:00055a45       _fflush                    00456a45 f   libucrt:fflush.obj
 0001:00055acb       __getdrive                 00456acb f   libucrt:drive.obj
 0001:00055b7a       __fread_nolock_s           00456b7a f   libucrt:fread.obj
 0001:00055d46       _fread                     00456d46 f   libucrt:fread.obj
 0001:00055d63       _fread_s                   00456d63 f   libucrt:fread.obj
 0001:000560c4       __tolower_l                004570c4 f   libucrt:tolower_toupper.obj
 0001:000560de       __toupper_l                004570de f   libucrt:tolower_toupper.obj
 0001:000560f8       _tolower                   004570f8 f   libucrt:tolower_toupper.obj
 0001:00056128       _toupper                   00457128 f   libucrt:tolower_toupper.obj
 0001:00056158       _atol                      00457158 f   libucrt:atox.obj
 0001:00056158       _atoi                      00457158 f   libucrt:atox.obj
 0001:000561e3       ___acrt_initialize_clock   004571e3 f   libucrt:clock.obj
 0001:00056249       _clock                     00457249 f   libucrt:clock.obj
 0001:000562ab       _rand                      004572ab f   libucrt:rand.obj
 0001:000562cc       _srand                     004572cc f   libucrt:rand.obj
 0001:000562de       __aligned_free             004572de f   libucrt:align.obj
 0001:000562e3       __aligned_free_base        004572e3 f   libucrt:align.obj
 0001:000562fd       __aligned_malloc           004572fd f   libucrt:align.obj
 0001:00056308       __aligned_malloc_base      00457308 f   libucrt:align.obj
 0001:0005631f       __aligned_offset_malloc_base 0045731f f   libucrt:align.obj
 0001:000563a9       _terminate                 004573a9 f   libucrt:terminate.obj
 0001:000563f0       _exp                       004573f0 f   libucrt:87ctran.obj
 0001:0005642c       __CIexp                    0045742c f   libucrt:87ctran.obj
 0001:00056467       __exp_default              00457467 f   libucrt:87ctran.obj
 0001:00056471       __CIexp_default            00457471 f   libucrt:87ctran.obj
 0001:00056480       __CIsqrt                   00457480 f   libucrt:sqrt.obj
 0001:00056494       _sqrt                      00457494     libucrt:sqrt.obj
 0001:0005653a       ___acrt_initialize_new_handler 0045753a f   libucrt:new_handler.obj
 0001:0005654e       __callnewh                 0045754e f   libucrt:new_handler.obj
 0001:00056592       __query_new_handler        00457592 f   libucrt:new_handler.obj
 0001:000565e4       __seh_filter_exe           004575e4 f   libucrt:exception_filter.obj
 0001:000569f0       ___acrt_allocate_buffer_for_argv 004579f0 f   libucrt:argv_parsing.obj
 0001:00056a45       __configure_narrow_argv    00457a45 f   libucrt:argv_parsing.obj
 0001:00056c57       ??$uninitialize@A6AXAAPAPA_W@Z@?$dual_state_global@PAPA_W@__crt_state_management@@QAEXA6AXAAPAPA_W@Z@Z 00457c57 f i libucrt:environment_initialization.obj
 0001:00056c57       ??$uninitialize@A6AXAAPAPAD@Z@?$dual_state_global@PAPAD@__crt_state_management@@QAEXA6AXAAPAPAD@Z@Z 00457c57 f i libucrt:environment_initialization.obj
 0001:00056ccd       ___dcrt_get_or_create_narrow_environment_nolock 00457ccd f   libucrt:environment_initialization.obj
 0001:00056cd2       ___dcrt_uninitialize_environments_nolock 00457cd2 f   libucrt:environment_initialization.obj
 0001:00056d09       __get_initial_narrow_environment 00457d09 f   libucrt:environment_initialization.obj
 0001:00056d1d       __initialize_narrow_environment 00457d1d f   libucrt:environment_initialization.obj
 0001:00056d22       ??$?RV<lambda_800076c951b434888f4765a74a194fcc>@@AAV<lambda_4e60a939b0d047cfe11ddc22648dfba9>@@V<lambda_6dbb1268764f43b569ce7b67e331d33a>@@@?$__crt_seh_guarded_call@H@@QAEH$$QAV<lambda_800076c951b434888f4765a74a194fcc>@@AAV<lambda_4e60a939b0d047cfe11ddc22648dfba9>@@$$QAV<lambda_6dbb1268764f43b569ce7b67e331d33a>@@@Z 00457d22 f i libucrt:onexit.obj
 0001:00056d73       ??$?RV<lambda_995298e7d72eb4c2aab26c0585b3abe5>@@AAV<lambda_275893d493268fdec8709772e3fcec0e>@@V<lambda_293819299cbf9a7022e18b56a874bb5c>@@@?$__crt_seh_guarded_call@H@@QAEH$$QAV<lambda_995298e7d72eb4c2aab26c0585b3abe5>@@AAV<lambda_275893d493268fdec8709772e3fcec0e>@@$$QAV<lambda_293819299cbf9a7022e18b56a874bb5c>@@@Z 00457d73 f i libucrt:onexit.obj
 0001:00056dc4       ??$__acrt_lock_and_call@V<lambda_275893d493268fdec8709772e3fcec0e>@@@@YAHW4__acrt_lock_id@@$$QAV<lambda_275893d493268fdec8709772e3fcec0e>@@@Z 00457dc4 f i libucrt:onexit.obj
 0001:00056dec       ??$__acrt_lock_and_call@V<lambda_4e60a939b0d047cfe11ddc22648dfba9>@@@@YAHW4__acrt_lock_id@@$$QAV<lambda_4e60a939b0d047cfe11ddc22648dfba9>@@@Z 00457dec f i libucrt:onexit.obj
 0001:00057075       __crt_atexit               00458075 f   libucrt:onexit.obj
 0001:0005708b       __execute_onexit_table     0045808b f   libucrt:onexit.obj
 0001:000570a8       __initialize_onexit_table  004580a8 f   libucrt:onexit.obj
 0001:000570e5       __register_onexit_function 004580e5 f   libucrt:onexit.obj
 0001:000571fa       ___acrt_initialize         004581fa f   libucrt:initialization.obj
 0001:0005720c       ___acrt_uninitialize       0045820c f   libucrt:initialization.obj
 0001:0005721e       __query_app_type           0045821e f   libucrt:report_runtime_error.obj
 0001:00057224       __set_app_type             00458224 f   libucrt:report_runtime_error.obj
 0001:00057233       ___acrt_has_user_matherr   00458233 f   libucrt:matherr.obj
 0001:0005724c       ___acrt_initialize_user_matherr 0045824c f   libucrt:matherr.obj
 0001:00057260       ___acrt_invoke_user_matherr 00458260 f   libucrt:matherr.obj
 0001:000572a9       ___setusermatherr          004582a9 f   libucrt:matherr.obj
 0001:000572be       __initterm                 004582be f   libucrt:initterm.obj
 0001:0005731a       __initterm_e               0045831a f   libucrt:initterm.obj
 0001:0005735f       __get_fmode                0045835f f   libucrt:setmode.obj
 0001:0005738b       __set_fmode                0045838b f   libucrt:setmode.obj
 0001:000573c8       __setmode_nolock           004583c8 f   libucrt:setmode.obj
 0001:00057499       ___acrt_initialize_command_line 00458499 f   libucrt:argv_data.obj
 0001:000574b2       ___p___argc                004584b2 f   libucrt:argv_data.obj
 0001:000574b8       ___p___argv                004584b8 f   libucrt:argv_data.obj
 0001:000574be       ___acrt_set_locale_changed 004584be f   libucrt:wsetlocale.obj
 0001:000574c9       ___acrt_uninitialize_locale 004584c9 f   libucrt:wsetlocale.obj
 0001:0005751b       __configthreadlocale       0045851b f   libucrt:wsetlocale.obj
 0001:0005757d       __query_new_mode           0045857d f   libucrt:new_mode.obj
 0001:00057583       __set_new_mode             00458583 f   libucrt:new_mode.obj
 0001:000575b2       ___p__commode              004585b2 f   libucrt:ncommode.obj
 0001:000575b8       __controlfp_s              004585b8 f   libucrt:contrlfp.obj
 0001:00057617       _abort                     00458617 f   libucrt:abort.obj
 0001:0005765a       _calloc                    0045865a f   libucrt:calloc.obj
 0001:00057665       _wcsncmp                   00458665 f   libucrt:wcsncmp.obj
 0001:000576a0       _strncmp                   004586a0 f   libucrt:strncmp.obj
 0001:00057718       ??$?RV<lambda_3518db117f0e7cdb002338c5d3c47b6c>@@AAV<lambda_b2ea41f6bbb362cd97d94c6828d90b61>@@V<lambda_abdedf541bb04549bc734292b4a045d4>@@@?$__crt_seh_guarded_call@X@@QAEX$$QAV<lambda_3518db117f0e7cdb002338c5d3c47b6c>@@AAV<lambda_b2ea41f6bbb362cd97d94c6828d90b61>@@$$QAV<lambda_abdedf541bb04549bc734292b4a045d4>@@@Z 00458718 f i libucrt:per_thread_data.obj
 0001:00057768       ??$?RV<lambda_51b6e8b1eb166f2a3faf91f424b38130>@@AAV<lambda_6250bd4b2a391816dd638c3bf72b0bcb>@@V<lambda_0b5a4a3e68152e1d9b943535f5f47bed>@@@?$__crt_seh_guarded_call@X@@QAEX$$QAV<lambda_51b6e8b1eb166f2a3faf91f424b38130>@@AAV<lambda_6250bd4b2a391816dd638c3bf72b0bcb>@@$$QAV<lambda_0b5a4a3e68152e1d9b943535f5f47bed>@@@Z 00458768 f i libucrt:per_thread_data.obj
 0001:000577c9       ??$?RV<lambda_5b71d36f03204c0beab531769a5b5694>@@AAV<lambda_be2b3da3f62db62e9dad5dc70221a656>@@V<lambda_8f9ce462984622f9bf76b59e2aaaf805>@@@?$__crt_seh_guarded_call@X@@QAEX$$QAV<lambda_5b71d36f03204c0beab531769a5b5694>@@AAV<lambda_be2b3da3f62db62e9dad5dc70221a656>@@$$QAV<lambda_8f9ce462984622f9bf76b59e2aaaf805>@@@Z 004587c9 f i libucrt:per_thread_data.obj
 0001:00057814       ??$?RV<lambda_9df27f884b057bc3edfc946cb5b7cf47>@@AAV<lambda_e69574bed617af4e071282c136b37893>@@V<lambda_cc0d902bcbbeb830f749456577db4721>@@@?$__crt_seh_guarded_call@X@@QAEX$$QAV<lambda_9df27f884b057bc3edfc946cb5b7cf47>@@AAV<lambda_e69574bed617af4e071282c136b37893>@@$$QAV<lambda_cc0d902bcbbeb830f749456577db4721>@@@Z 00458814 f i libucrt:per_thread_data.obj
 0001:0005785c       ??$__acrt_lock_and_call@V<lambda_6250bd4b2a391816dd638c3bf72b0bcb>@@@@YAXW4__acrt_lock_id@@$$QAV<lambda_6250bd4b2a391816dd638c3bf72b0bcb>@@@Z 0045885c f i libucrt:per_thread_data.obj
 0001:00057884       ??$__acrt_lock_and_call@V<lambda_b2ea41f6bbb362cd97d94c6828d90b61>@@@@YAXW4__acrt_lock_id@@$$QAV<lambda_b2ea41f6bbb362cd97d94c6828d90b61>@@@Z 00458884 f i libucrt:per_thread_data.obj
 0001:000578ac       ??$__acrt_lock_and_call@V<lambda_be2b3da3f62db62e9dad5dc70221a656>@@@@YAXW4__acrt_lock_id@@$$QAV<lambda_be2b3da3f62db62e9dad5dc70221a656>@@@Z 004588ac f i libucrt:per_thread_data.obj
 0001:000578d4       ??$__acrt_lock_and_call@V<lambda_e69574bed617af4e071282c136b37893>@@@@YAXW4__acrt_lock_id@@$$QAV<lambda_e69574bed617af4e071282c136b37893>@@@Z 004588d4 f i libucrt:per_thread_data.obj
 0001:00057a8a       ___acrt_getptd             00458a8a f   libucrt:per_thread_data.obj
 0001:00057b0e       ___acrt_getptd_noexit      00458b0e f   libucrt:per_thread_data.obj
 0001:00057b93       ___acrt_initialize_ptd     00458b93 f   libucrt:per_thread_data.obj
 0001:00057bbf       ___acrt_uninitialize_ptd   00458bbf f   libucrt:per_thread_data.obj
 0001:00057bd9       __free_base                00458bd9 f   libucrt:free_base.obj
 0001:00057c13       __malloc_base              00458c13 f   libucrt:malloc_base.obj
 0001:00057c61       ___acrt_errno_from_os_error 00458c61 f   libucrt:errno.obj
 0001:00057ca4       ___acrt_errno_map_os_error 00458ca4 f   libucrt:errno.obj
 0001:00057cc7       ___doserrno                00458cc7 f   libucrt:errno.obj
 0001:00057cda       __errno                    00458cda f   libucrt:errno.obj
 0001:00057ced       __calloc_base              00458ced f   libucrt:calloc_base.obj
 0001:00057e7b       ___acrt_AreFileApisANSI@0  00458e7b f   libucrt:winapi_thunks.obj
 0001:00057ec9       ___acrt_CompareStringEx@36 00458ec9 f   libucrt:winapi_thunks.obj
 0001:00057f3d       ___acrt_FlsAlloc@4         00458f3d f   libucrt:winapi_thunks.obj
 0001:00057f93       ___acrt_FlsFree@4          00458f93 f   libucrt:winapi_thunks.obj
 0001:00057fe9       ___acrt_FlsGetValue@4      00458fe9 f   libucrt:winapi_thunks.obj
 0001:0005803f       ___acrt_FlsSetValue@8      0045903f f   libucrt:winapi_thunks.obj
 0001:00058098       ___acrt_GetSystemTimePreciseAsFileTime@4 00459098 f   libucrt:winapi_thunks.obj
 0001:000580ee       ___acrt_InitializeCriticalSectionEx@12 004590ee f   libucrt:winapi_thunks.obj
 0001:00058150       ___acrt_LCMapStringEx@36   00459150 f   libucrt:winapi_thunks.obj
 0001:000581d8       ___acrt_LocaleNameToLCID@8 004591d8 f   libucrt:winapi_thunks.obj
 0001:00058234       ___acrt_initialize_winapi_thunks 00459234 f   libucrt:winapi_thunks.obj
 0001:0005825a       ___acrt_is_packaged_app    0045925a f   libucrt:winapi_thunks.obj
 0001:000582e1       ___acrt_uninitialize_winapi_thunks 004592e1 f   libucrt:winapi_thunks.obj
 0001:00058317       __fcloseall                00459317 f   libucrt:closeall.obj
 0001:000583b7       ___acrt_stdio_free_buffer_nolock 004593b7 f   libucrt:_freebuf.obj
 0001:00058561       ___acrt_initialize_lowio   00459561 f   libucrt:ioinit.obj
 0001:000585b7       ___acrt_uninitialize_lowio 004595b7 f   libucrt:ioinit.obj
 0001:000585e3       ?__acrt_stdio_allocate_stream@@YA?AV__crt_stdio_stream@@XZ 004595e3 f   libucrt:stream.obj
 0001:00058642       ?__acrt_stdio_free_stream@@YAXV__crt_stdio_stream@@@Z 00459642 f   libucrt:stream.obj
 0001:00058740       ??$__acrt_stdio_parse_mode@D@@YA?AU__acrt_stdio_stream_mode@@QBD@Z 00459740 f i libucrt:openfile.obj
 0001:000589f7       ?__acrt_stdio_parse_mode_D@@YA_NAAU__acrt_stdio_stream_mode@@@Z 004599f7 f i libucrt:openfile.obj
 0001:00058a12       ?__acrt_stdio_parse_mode_T@@YA_NAAU__acrt_stdio_stream_mode@@@Z 00459a12 f i libucrt:openfile.obj
 0001:00058a31       ?__acrt_stdio_parse_mode_b@@YA_NAAU__acrt_stdio_stream_mode@@@Z 00459a31 f i libucrt:openfile.obj
 0001:00058a51       ?__acrt_stdio_parse_mode_c@@YA_NAAU__acrt_stdio_stream_mode@@AA_N@Z 00459a51 f i libucrt:openfile.obj
 0001:00058a73       ?__acrt_stdio_parse_mode_n@@YA_NAAU__acrt_stdio_stream_mode@@AA_N@Z 00459a73 f i libucrt:openfile.obj
 0001:00058a95       ?__acrt_stdio_parse_mode_plus@@YA_NAAU__acrt_stdio_stream_mode@@AA_N@Z 00459a95 f i libucrt:openfile.obj
 0001:00058aca       ?__acrt_stdio_parse_mode_t@@YA_NAAU__acrt_stdio_stream_mode@@@Z 00459aca f i libucrt:openfile.obj
 0001:00058aea       __openfile                 00459aea f   libucrt:openfile.obj
 0001:00058af5       ??$?RV<lambda_123407a5e2ac06da108355a851863b7a>@@AAV<lambda_2fe9b910cf3cbf4a0ab98a02ba45b3ec>@@V<lambda_ae55bdf541ad94d75914d381c370e64d>@@@?$__crt_seh_guarded_call@H@@QAEH$$QAV<lambda_123407a5e2ac06da108355a851863b7a>@@AAV<lambda_2fe9b910cf3cbf4a0ab98a02ba45b3ec>@@$$QAV<lambda_ae55bdf541ad94d75914d381c370e64d>@@@Z 00459af5 f i libucrt:close.obj
 0001:00058b77       ??$__acrt_lowio_lock_fh_and_call@V<lambda_2fe9b910cf3cbf4a0ab98a02ba45b3ec>@@@@YAHH$$QAV<lambda_2fe9b910cf3cbf4a0ab98a02ba45b3ec>@@@Z 00459b77 f i libucrt:close.obj
 0001:00058b9f       __close                    00459b9f f   libucrt:close.obj
 0001:00058c1e       __close_nolock             00459c1e f   libucrt:close.obj
 0001:00058cba       __fileno                   00459cba f   libucrt:fileno.obj
 0001:00058e63       __lseeki64                 00459e63 f   libucrt:lseek.obj
 0001:00058e7e       __lseeki64_nolock          00459e7e f   libucrt:lseek.obj
 0001:00059381       __read                     0045a381 f   libucrt:read.obj
 0001:00059494       __read_nolock              0045a494 f   libucrt:read.obj
 0001:00059dd9       __write                    0045add9 f   libucrt:write.obj
 0001:00059ec4       __write_nolock             0045aec4 f   libucrt:write.obj
 0001:0005a2ad       ___acrt_stdio_flush_and_write_narrow_nolock 0045b2ad f   libucrt:_flsbuf.obj
 0001:0005a2b8       ___acrt_stdio_begin_temporary_buffering_nolock 0045b2b8 f   libucrt:_sftbuf.obj
 0001:0005a36d       ___acrt_stdio_end_temporary_buffering_nolock 0045b36d f   libucrt:_sftbuf.obj
 0001:0005a3a6       __isdigit_l                0045b3a6 f i libucrt:_ctype.obj
 0001:0005a3de       __isspace_l                0045b3de f i libucrt:_ctype.obj
 0001:0005a416       _isdigit                   0045b416 f i libucrt:_ctype.obj
 0001:0005a443       _isspace                   0045b443 f i libucrt:_ctype.obj
 0001:0005a470       __mbtowc_l                 0045b470 f   libucrt:mbtowc.obj
 0001:0005a56a       _mbtowc                    0045b56a f   libucrt:mbtowc.obj
 0001:0005a584       __wctomb_s_l               0045b584 f   libucrt:wctomb.obj
 0001:0005a6a5       _wctomb_s                  0045b6a5 f   libucrt:wctomb.obj
 0001:0005a6c2       _strnlen                   0045b6c2 f   libucrt:strnlen.obj
 0001:0005a7e9       _wcsnlen                   0045b7e9 f   libucrt:strnlen.obj
 0001:0005a9a0       ___acrt_update_locale_info 0045b9a0 f   libucrt:locale_update.obj
 0001:0005a9cd       ___acrt_update_multibyte_info 0045b9cd f   libucrt:locale_update.obj
 0001:0005a9fa       ?__acrt_fp_classify@@YA?AW4__acrt_fp_class@@ABN@Z 0045b9fa f i libucrt:cvt.obj
 0001:0005aa66       ?__acrt_fp_is_negative@@YA_NABN@Z 0045ba66 f i libucrt:cvt.obj
 0001:0005b2c5       ___acrt_fp_format          0045c2c5 f   libucrt:cvt.obj
 0001:0005b40f       __get_printf_count_output  0045c40f f   libucrt:printf_count_output.obj
 0001:0005b424       ___acrt_initialize_locks   0045c424 f   libucrt:locks.obj
 0001:0005b465       ___acrt_lock               0045c465 f   libucrt:locks.obj
 0001:0005b47c       ___acrt_uninitialize_locks 0045c47c f   libucrt:locks.obj
 0001:0005b4ad       ___acrt_unlock             0045c4ad f   libucrt:locks.obj
 0001:0005b4c4       ___pctype_func             0045c4c4 f   libucrt:ctype.obj
 0001:0005b4ea       __isctype_l                0045c4ea f   libucrt:isctype.obj
 0001:0005b5bc       _fegetround                0045c5bc f   libucrt:fegetround.obj
 0001:0005b5c7       ___acrt_initialize_timeset 0045c5c7 f   libucrt:timeset.obj
 0001:0005b5fe       ___daylight                0045c5fe f   libucrt:timeset.obj
 0001:0005b604       ___dstbias                 0045c604 f   libucrt:timeset.obj
 0001:0005b60a       ___timezone                0045c60a f   libucrt:timeset.obj
 0001:0005b610       ___tzname                  0045c610 f   libucrt:timeset.obj
 0001:0005b616       __get_daylight             0045c616 f   libucrt:timeset.obj
 0001:0005b642       __get_dstbias              0045c642 f   libucrt:timeset.obj
 0001:0005b66e       __get_timezone             0045c66e f   libucrt:timeset.obj
 0001:0005b69a       ??$__crt_time_elapsed_leap_years@H@@YAHH@Z 0045c69a f i libucrt:gmtime.obj
 0001:0005b8c5       ___getgmtimebuf            0045c8c5 f   libucrt:gmtime.obj
 0001:0005b903       __gmtime64_s               0045c903 f   libucrt:gmtime.obj
 0001:0005c055       ___tzset                   0045d055 f   libucrt:tzset.obj
 0001:0005c0a6       __isindst                  0045d0a6 f   libucrt:tzset.obj
 0001:0005c0f0       __strnicoll                0045d0f0 f   libucrt:strnicol.obj
 0001:0005c119       __strnicoll_l              0045d119 f   libucrt:strnicol.obj
 0001:0005c1e3       ??$?RV<lambda_61cee617f5178ae960314fd4d05640a0>@@AAV<lambda_6978c1fb23f02e42e1d9e99668cc68aa>@@V<lambda_9cd88cf8ad10232537feb2133f08c833>@@@?$__crt_seh_guarded_call@H@@QAEH$$QAV<lambda_61cee617f5178ae960314fd4d05640a0>@@AAV<lambda_6978c1fb23f02e42e1d9e99668cc68aa>@@$$QAV<lambda_9cd88cf8ad10232537feb2133f08c833>@@@Z 0045d1e3 f i libucrt:commit.obj
 0001:0005c27b       ??$__acrt_lowio_lock_fh_and_call@V<lambda_6978c1fb23f02e42e1d9e99668cc68aa>@@@@YAHH$$QAV<lambda_6978c1fb23f02e42e1d9e99668cc68aa>@@@Z 0045d27b f i libucrt:commit.obj
 0001:0005c2a3       __commit                   0045d2a3 f   libucrt:commit.obj
 0001:0005c493       ___acrt_stdio_refill_and_read_narrow_nolock 0045d493 f   libucrt:_filbuf.obj
 0001:0005c49e       __isleadbyte_l             0045d49e f i libucrt:_wctype.obj
 0001:0005c6f4       ___acrt_LCMapStringA       0045d6f4 f   libucrt:lcmapstringa.obj
 0001:0005c73f       __freea_crt                0045d73f f i libucrt:lcmapstringa.obj
 0001:0005c75f       __msize                    0045d75f f   libucrt:msize.obj
 0001:0005c792       ___acrt_initialize_sse2    0045d792 f   libucrt:mathfcns.obj
 0001:0005c7b0       __CIexp_pentium4           0045d7b0 f   libucrt:exp_pentium4.obj
 0001:0005c7c8       __exp_pentium4             0045d7c8     libucrt:exp_pentium4.obj
 0001:0005ca81       __fFEXP                    0045da81     libucrt:87tran.obj
 0001:0005cad8       __rtinfpopse               0045dad8     libucrt:87tran.obj
 0001:0005cada       __rtinfnpopse              0045dada     libucrt:87tran.obj
 0001:0005caea       __fFLN                     0045daea     libucrt:87tran.obj
 0001:0005cb9f       __rtinfpop                 0045db9f     libucrt:87tran.obj
 0001:0005cba1       __rtinfnpop                0045dba1     libucrt:87tran.obj
 0001:0005cbbe       __ffexpm1                  0045dbbe     libucrt:87tran.obj
 0001:0005cc70       __cintrindisp2             0045dc70 f   libucrt:87cdisp.obj
 0001:0005ccb4       __cintrindisp1             0045dcb4 f   libucrt:87cdisp.obj
 0001:0005ccf7       __ctrandisp2               0045dcf7 f   libucrt:87cdisp.obj
 0001:0005ce86       __ctrandisp1               0045de86 f   libucrt:87cdisp.obj
 0001:0005ceb9       __fload                    0045deb9 f   libucrt:87cdisp.obj
 0001:0005cf00       __trandisp1                0045df00 f   libucrt:87disp.obj
 0001:0005cf67       __trandisp2                0045df67 f   libucrt:87disp.obj
 0001:0005cff3       __rttospopde               0045dff3     libucrt:87disp.obj
 0001:0005cff8       __rttospop                 0045dff8     libucrt:87disp.obj
 0001:0005cffa       __rtnospop                 0045dffa     libucrt:87disp.obj
 0001:0005cffc       __rttosnpop                0045dffc     libucrt:87disp.obj
 0001:0005cffd       __rtnospopde               0045dffd     libucrt:87disp.obj
 0001:0005d004       __rtzeropop                0045e004     libucrt:87disp.obj
 0001:0005d006       __rtzeronpop               0045e006     libucrt:87disp.obj
 0001:0005d00b       __rtzerospop               0045e00b     libucrt:87disp.obj
 0001:0005d018       __rtonepop                 0045e018     libucrt:87disp.obj
 0001:0005d01a       __rtonenpop                0045e01a     libucrt:87disp.obj
 0001:0005d01f       __tosnan1                  0045e01f     libucrt:87disp.obj
 0001:0005d04a       __nosnan2                  0045e04a     libucrt:87disp.obj
 0001:0005d04c       __tosnan2                  0045e04c     libucrt:87disp.obj
 0001:0005d074       __nan2                     0045e074     libucrt:87disp.obj
 0001:0005d0b3       __rtindfpop                0045e0b3     libucrt:87disp.obj
 0001:0005d0b5       __rtindfnpop               0045e0b5     libucrt:87disp.obj
 0001:0005d0c6       __rttosnpopde              0045e0c6     libucrt:87disp.obj
 0001:0005d0d0       __rtatan2inf               0045e0d0     libucrt:87disp.obj
 0001:0005d0ed       __rtchsifneg               0045e0ed     libucrt:87disp.obj
 0001:0005d100       __startTwoArgErrorHandling 0045e100 f   libucrt:genexcep.obj
 0001:0005d117       __startOneArgErrorHandling 0045e117 f   libucrt:genexcep.obj
 0001:0005d160       __twoToTOS                 0045e160 f   libucrt:common.obj
 0001:0005d175       __load_CW                  0045e175 f   libucrt:common.obj
 0001:0005d18c       __convertTOStoQNaN         0045e18c f   libucrt:common.obj
 0001:0005d1a5       __fload_withFB             0045e1a5 f   libucrt:common.obj
 0001:0005d1e8       __checkTOS_withFB          0045e1e8 f   libucrt:common.obj
 0001:0005d1fe       __fast_exit                0045e1fe f   libucrt:common.obj
 0001:0005d20b       __math_exit                0045e20b f   libucrt:common.obj
 0001:0005d235       __check_overflow_exit      0045e235 f   libucrt:common.obj
 0001:0005d249       __check_range_exit         0045e249 f   libucrt:common.obj
 0001:0005d6ae       ??1?$argument_list@D@?A0xb0e4b824@@QAE@XZ 0045e6ae f i libucrt:argv_wildcards.obj
 0001:0005d6d3       ?append@?$argument_list@D@?A0xb0e4b824@@QAEHQAD@Z 0045e6d3 f i libucrt:argv_wildcards.obj
 0001:0005d708       ?expand_if_necessary@?$argument_list@D@?A0xb0e4b824@@AAEHXZ 0045e708 f i libucrt:argv_wildcards.obj
 0001:0005d78f       ___acrt_expand_narrow_argv_wildcards 0045e78f f   libucrt:argv_wildcards.obj
 0001:0005d79a       ??$?RV<lambda_978dc153c237d78434369da87b74ff60>@@AAV<lambda_ad1ced32f4ac17aa236e5ef05d6b3b7c>@@V<lambda_4a8533e2866a575feecb8298ce776b0d>@@@?$__crt_seh_guarded_call@X@@QAEX$$QAV<lambda_978dc153c237d78434369da87b74ff60>@@AAV<lambda_ad1ced32f4ac17aa236e5ef05d6b3b7c>@@$$QAV<lambda_4a8533e2866a575feecb8298ce776b0d>@@@Z 0045e79a f i libucrt:mbctype.obj
 0001:0005d7dd       ??$__acrt_lock_and_call@V<lambda_ad1ced32f4ac17aa236e5ef05d6b3b7c>@@@@YAXW4__acrt_lock_id@@$$QAV<lambda_ad1ced32f4ac17aa236e5ef05d6b3b7c>@@@Z 0045e7dd f i libucrt:mbctype.obj
 0001:0005dc74       ___acrt_initialize_multibyte 0045ec74 f   libucrt:mbctype.obj
 0001:0005dc92       ___acrt_update_thread_multibyte_data 0045ec92 f   libucrt:mbctype.obj
 0001:0005dd34       __setmbcp_nolock           0045ed34 f   libucrt:mbctype.obj
 0001:0005df7e       __ismbblead                0045ef7e f   libucrt:ismbbyte.obj
 0001:0005dfcd       ___dcrt_get_narrow_environment_from_os 0045efcd f   libucrt:get_environment_from_os.obj
 0001:0005e390       ___dcrt_set_variable_in_narrow_environment_nolock 0045f390 f   libucrt:setenv.obj
 0001:0005e39b       __recalloc                 0045f39b f   libucrt:recalloc.obj
 0001:0005e3a6       __recalloc_base            0045f3a6 f   libucrt:recalloc.obj
 0001:0005e413       ___acrt_initialize_heap    0045f413 f   libucrt:heap_handle.obj
 0001:0005e424       ___acrt_uninitialize_heap  0045f424 f   libucrt:heap_handle.obj
 0001:0005e42e       ___acrt_execute_initializers 0045f42e f   libucrt:shared_initialization.obj
 0001:0005e4b1       ___acrt_execute_uninitializers 0045f4b1 f   libucrt:shared_initialization.obj
 0001:0005e4fe       ??$?RV<lambda_a048d3beccc847880fc8490e18b82769>@@AAV<lambda_ec61778202f4f5fc7e7711acc23c3bca>@@V<lambda_f7496a158712204296dd6628a163878e>@@@?$__crt_seh_guarded_call@P6AXH@Z@@QAEP6AXH@Z$$QAV<lambda_a048d3beccc847880fc8490e18b82769>@@AAV<lambda_ec61778202f4f5fc7e7711acc23c3bca>@@$$QAV<lambda_f7496a158712204296dd6628a163878e>@@@Z 0045f4fe f i libucrt:signal.obj
 0001:0005e558       ??$__acrt_lock_and_call@V<lambda_ec61778202f4f5fc7e7711acc23c3bca>@@@@YAP6AXH@ZW4__acrt_lock_id@@$$QAV<lambda_ec61778202f4f5fc7e7711acc23c3bca>@@@Z 0045f558 f i libucrt:signal.obj
 0001:0005e5ea       ___acrt_get_sigabrt_handler 0045f5ea f   libucrt:signal.obj
 0001:0005e601       ___acrt_initialize_signal_handlers 0045f601 f   libucrt:signal.obj
 0001:0005e63c       ___fpecode                 0045f63c f   libucrt:signal.obj
 0001:0005e645       _raise                     0045f645 f   libucrt:signal.obj
 0001:0005e84d       ___acrt_lowio_create_handle_array 0045f84d f   libucrt:osfinfo.obj
 0001:0005e8c7       ___acrt_lowio_destroy_handle_array 0045f8c7 f   libucrt:osfinfo.obj
 0001:0005e8fc       ___acrt_lowio_ensure_fh_exists 0045f8fc f   libucrt:osfinfo.obj
 0001:0005e994       ___acrt_lowio_lock_fh      0045f994 f   libucrt:osfinfo.obj
 0001:0005e9b7       ___acrt_lowio_set_os_handle 0045f9b7 f   libucrt:osfinfo.obj
 0001:0005ea4b       ___acrt_lowio_unlock_fh    0045fa4b f   libucrt:osfinfo.obj
 0001:0005ea6e       __alloc_osfhnd             0045fa6e f   libucrt:osfinfo.obj
 0001:0005eb80       __free_osfhnd              0045fb80 f   libucrt:osfinfo.obj
 0001:0005ec11       __get_osfhandle            0045fc11 f   libucrt:osfinfo.obj
 0001:0005ec7b       ____lc_codepage_func       0045fc7b f   libucrt:initctype.obj
 0001:0005eca2       ___acrt_locale_free_monetary 0045fca2 f   libucrt:initmon.obj
 0001:0005eda0       ___acrt_locale_free_numeric 0045fda0 f   libucrt:initnum.obj
 0001:0005ee45       ___acrt_locale_free_time   0045fe45 f   libucrt:inittime.obj
 0001:0005ef29       ___acrt_GetStringTypeA     0045ff29 f   libucrt:getstringtypea.obj
 0001:0005f046       ___acrt_add_locale_ref     00460046 f   libucrt:locale_refcounting.obj
 0001:0005f0c3       ___acrt_free_locale        004600c3 f   libucrt:locale_refcounting.obj
 0001:0005f20d       ___acrt_locale_add_lc_time_reference 0046020d f   libucrt:locale_refcounting.obj
 0001:0005f236       ___acrt_locale_free_lc_time_if_unreferenced 00460236 f   libucrt:locale_refcounting.obj
 0001:0005f266       ___acrt_locale_release_lc_time_reference 00460266 f   libucrt:locale_refcounting.obj
 0001:0005f28f       ___acrt_release_locale_ref 0046028f f   libucrt:locale_refcounting.obj
 0001:0005f310       ___acrt_update_thread_locale_data 00460310 f   libucrt:locale_refcounting.obj
 0001:0005f387       __updatetlocinfoEx_nolock  00460387 f   libucrt:locale_refcounting.obj
 0001:0005f482       __clearfp                  00460482 f   libucrt:ieee87.obj
 0001:0005f560       __control87                00460560 f   libucrt:ieee87.obj
 0001:0005f9b7       ___acrt_DownlevelLocaleNameToLCID 004609b7 f   libucrt:lcidtoname_downlevel.obj
 0001:0005f9e3       __strnicmp                 004609e3 f   libucrt:strnicmp.obj
 0001:0005fa4f       __strnicmp_l               00460a4f f   libucrt:strnicmp.obj
 0001:000600e0       __sopen_nolock             004610e0 f   libucrt:open.obj
 0001:00060131       __sopen_s                  00461131 f   libucrt:open.obj
 0001:00060151       __wsopen_nolock            00461151 f   libucrt:open.obj
 0001:0006047a       __isatty                   0046147a f   libucrt:isatty.obj
 0001:000604d0       __putwch_nolock            004614d0 f   libucrt:putwch.obj
 0001:00060515       ___acrt_stdio_allocate_buffer_nolock 00461515 f   libucrt:_getbuf.obj
 0001:00060572       ___acrt_fp_strflt_to_string 00461572 f   libucrt:_fptostr.obj
 0001:0006062e       ??0scoped_fp_state_reset@?A0x48fbfdd4@@QAE@XZ 0046162e f i libucrt:cfout.obj
 0001:00060658       ___acrt_fltout             00461658 f   libucrt:cfout.obj
 0001:00061c97       __getfpcontrolword         00462c97 f   libucrt:_fenvutils.obj
 0001:00061cda       __getfpstatusword          00462cda f   libucrt:_fenvutils.obj
 0001:00061d82       __setfpcontrolword         00462d82 f   libucrt:_fenvutils.obj
 0001:00061e02       __setfpstatusword          00462e02 f   libucrt:_fenvutils.obj
 0001:00061f33       _strncpy_s                 00462f33 f   libucrt:strncpy_s.obj
 0001:000621e6       ___acrt_CompareStringA     004631e6 f   libucrt:comparestringa.obj
 0001:0006222e       ___strncnt                 0046322e f   libucrt:strncnt.obj
 0001:0006224a       ___libm_error_support      0046324a f   libucrt:libm_error.obj
 0001:00062462       __d_inttype                00463462 f   libucrt:powhlp.obj
 0001:000624cc       __powhlp                   004634cc f   libucrt:powhlp.obj
 0001:000625f7       __87except                 004635f7 f   libucrt:87except.obj
 0001:000627f0       _qsort                     004637f0 f   libucrt:qsort.obj
 0001:00062b90       _strpbrk                   00463b90 f   libucrt:strpbrk.obj
 0001:00062bd0       __mbsdec                   00463bd0 f   libucrt:mbsdec.obj
 0001:00062be7       __mbsdec_l                 00463be7 f   libucrt:mbsdec.obj
 0001:00062c83       __realloc_base             00463c83 f   libucrt:realloc_base.obj
 0001:00062cec       ___set_fpsr_sse2           00463cec f   libucrt:fpctrl.obj
 0001:00062d62       __clrfp                    00463d62 f   libucrt:fpctrl.obj
 0001:00062d75       __ctrlfp                   00463d75 f   libucrt:fpctrl.obj
 0001:00062da1       __set_statfp               00463da1 f   libucrt:fpctrl.obj
 0001:00062dfc       __statfp                   00463dfc f   libucrt:fpctrl.obj
 0001:00062e10       ___ascii_strnicmp          00463e10 f   libucrt:_strnicm.obj
 0001:00062e71       ___acrt_copy_path_to_wide_string 00463e71 f   libucrt:string_utilities.obj
 0001:00062f38       __chsize_nolock            00463f38 f   libucrt:chsize.obj
 0001:000630c9       ___dcrt_lowio_initialize_console_output 004640c9 f   libucrt:initcon.obj
 0001:000630e8       ___dcrt_terminate_console_output 004640e8 f   libucrt:initcon.obj
 0001:000630ff       _fegetenv                  004640ff f   libucrt:fegetenv.obj
 0001:0006311c       _fesetenv                  0046411c f   libucrt:fesetenv.obj
 0001:00063165       _feholdexcept              00464165 f   libucrt:feholdexcept.obj
 0001:000631c0       _log10                     004641c0 f   libucrt:log10.obj
 0001:00063200       __CIlog10                  00464200 f   libucrt:log10.obj
 0001:0006323b       __CIlog10_default          0046423b f   libucrt:log10.obj
 0001:0006324f       __log10_default            0046424f     libucrt:log10.obj
 0001:00063310       _ceil                      00464310 f   libucrt:ceil_pentium4.obj
 0001:00063350       __ceil_pentium4            00464350 f   libucrt:ceil_pentium4.obj
 0001:0006342d       __frnd                     0046442d f   libucrt:frnd.obj
 0001:00063443       __fpclass                  00464443 f   libucrt:ieeemisc.obj
 0001:000634e7       __decomp                   004644e7 f   libucrt:util.obj
 0001:000635bb       __set_exp                  004645bb f   libucrt:util.obj
 0001:000635ea       __sptype                   004645ea f   libucrt:util.obj
 0001:00063648       __errcode                  00464648 f   libucrt:fpexcept.obj
 0001:0006367c       __except1                  0046467c f   libucrt:fpexcept.obj
 0001:0006374a       __handle_exc               0046474a f   libucrt:fpexcept.obj
 0001:0006392a       __raise_exc                0046492a f   libucrt:fpexcept.obj
 0001:0006394d       __raise_exc_ex             0046494d f   libucrt:fpexcept.obj
 0001:00063c3e       __set_errno_from_matherr   00464c3e f   libucrt:fpexcept.obj
 0001:00063c6d       __umatherr                 00464c6d f   libucrt:fpexcept.obj
 0001:00063d10       __CIlog10_pentium4         00464d10 f   libucrt:log10_pentium4.obj
 0001:00063d28       __log10_pentium4           00464d28     libucrt:log10_pentium4.obj
 0001:00063fa0       __ceil_default             00464fa0 f   libucrt:ceil.obj
 0001:00064059       _IsProcessorFeaturePresent@4 00465059 f   kernel32:KERNEL32.dll
 0001:00064409       ___crtAcquireSRWLockExclusive 00465409 f   libcpmt:winapisupp.obj
 0001:00064429       ___crtCloseThreadpoolTimer 00465429 f   libcpmt:winapisupp.obj
 0001:0006444b       ___crtCloseThreadpoolWait  0046544b f   libcpmt:winapisupp.obj
 0001:0006446d       ___crtCreateEventExW       0046546d f   libcpmt:winapisupp.obj
 0001:000644b3       ___crtCreateSemaphoreExW   004654b3 f   libcpmt:winapisupp.obj
 0001:0006450b       ___crtCreateThreadpoolTimer 0046550b f   libcpmt:winapisupp.obj
 0001:00064537       ___crtCreateThreadpoolWait 00465537 f   libcpmt:winapisupp.obj
 0001:00064563       ___crtFlushProcessWriteBuffers 00465563 f   libcpmt:winapisupp.obj
 0001:0006457e       ___crtFreeLibraryWhenCallbackReturns 0046557e f   libcpmt:winapisupp.obj
 0001:000645a3       ___crtGetCurrentProcessorNumber 004655a3 f   libcpmt:winapisupp.obj
 0001:000645c2       ___crtGetSystemTimePreciseAsFileTime 004655c2 f   libcpmt:winapisupp.obj
 0001:000645ec       ___crtGetTickCount64       004655ec f   libcpmt:winapisupp.obj
 0001:00064611       ___crtInitOnceExecuteOnce  00465611 f   libcpmt:winapisupp.obj
 0001:0006469f       ___crtInitializeConditionVariable 0046569f f   libcpmt:winapisupp.obj
 0001:000646bf       ___crtInitializeCriticalSectionEx 004656bf f   libcpmt:winapisupp.obj
 0001:000646f8       ___crtInitializeSRWLock    004656f8 f   libcpmt:winapisupp.obj
 0001:00064718       ___crtReleaseSRWLockExclusive 00465718 f   libcpmt:winapisupp.obj
 0001:00064738       ___crtSetThreadpoolTimer   00465738 f   libcpmt:winapisupp.obj
 0001:00064763       ___crtSetThreadpoolWait    00465763 f   libcpmt:winapisupp.obj
 0001:0006478b       ___crtSleepConditionVariableCS 0046578b f   libcpmt:winapisupp.obj
 0001:000647b1       ___crtSleepConditionVariableSRW 004657b1 f   libcpmt:winapisupp.obj
 0001:000647da       ___crtTryAcquireSRWLockExclusive 004657da f   libcpmt:winapisupp.obj
 0001:000647fa       ___crtWaitForThreadpoolTimerCallbacks 004657fa f   libcpmt:winapisupp.obj
 0001:0006481f       ___crtWakeAllConditionVariable 0046581f f   libcpmt:winapisupp.obj
 0001:0006483f       ___crtWakeConditionVariable 0046583f f   libcpmt:winapisupp.obj
 0001:0006485f       ??0stl_critical_section_vista@details@Concurrency@@QAE@XZ 0046585f f i libcpmt:mutex.obj
 0001:0006487f       ??0stl_critical_section_win7@details@Concurrency@@QAE@XZ 0046587f f i libcpmt:mutex.obj
 0001:00064896       ?create_stl_critical_section@details@Concurrency@@YAXPAVstl_critical_section_interface@12@@Z 00465896 f i libcpmt:mutex.obj
 0001:000648e8       ?destroy@stl_critical_section_concrt@details@Concurrency@@UAEXXZ 004658e8 f i libcpmt:mutex.obj
 0001:000648f0       ?destroy@stl_critical_section_vista@details@Concurrency@@UAEXXZ 004658f0 f i libcpmt:mutex.obj
 0001:000648fb       ?lock@stl_critical_section_concrt@details@Concurrency@@UAEXXZ 004658fb f i libcpmt:mutex.obj
 0001:00064903       ?lock@stl_critical_section_vista@details@Concurrency@@UAEXXZ 00465903 f i libcpmt:mutex.obj
 0001:0006490e       ?lock@stl_critical_section_win7@details@Concurrency@@UAEXXZ 0046590e f i libcpmt:mutex.obj
 0001:00064aa3       ?try_lock@stl_critical_section_concrt@details@Concurrency@@UAE_NXZ 00465aa3 f i libcpmt:mutex.obj
 0001:00064aab       ?try_lock@stl_critical_section_vista@details@Concurrency@@UAE_NXZ 00465aab f i libcpmt:mutex.obj
 0001:00064abb       ?try_lock@stl_critical_section_win7@details@Concurrency@@UAE_NXZ 00465abb f i libcpmt:mutex.obj
 0001:00064acb       ?try_lock_for@stl_critical_section_concrt@details@Concurrency@@UAE_NI@Z 00465acb f i libcpmt:mutex.obj
 0001:00064ad7       ?try_lock_for@stl_critical_section_vista@details@Concurrency@@UAE_NI@Z 00465ad7 f i libcpmt:mutex.obj
 0001:00064ae9       ?try_lock_for@stl_critical_section_win7@details@Concurrency@@UAE_NI@Z 00465ae9 f i libcpmt:mutex.obj
 0001:00064afb       ?unlock@stl_critical_section_concrt@details@Concurrency@@UAEXXZ 00465afb f i libcpmt:mutex.obj
 0001:00064b03       ?unlock@stl_critical_section_vista@details@Concurrency@@UAEXXZ 00465b03 f i libcpmt:mutex.obj
 0001:00064b0e       ?unlock@stl_critical_section_win7@details@Concurrency@@UAEXXZ 00465b0e f i libcpmt:mutex.obj
 0001:00064b19       __Mtx_clear_owner          00465b19 f   libcpmt:mutex.obj
 0001:00064b28       __Mtx_destroy_in_situ      00465b28 f   libcpmt:mutex.obj
 0001:00064b47       __Mtx_getconcrtcs          00465b47 f   libcpmt:mutex.obj
 0001:00064b52       __Mtx_init_in_situ         00465b52 f   libcpmt:mutex.obj
 0001:00064b73       __Mtx_lock                 00465b73 f   libcpmt:mutex.obj
 0001:00064b84       __Mtx_reset_owner          00465b84 f   libcpmt:mutex.obj
 0001:00064b98       __Mtx_unlock               00465b98 f   libcpmt:mutex.obj
 0001:00064bc3       ??0stl_condition_variable_vista@details@Concurrency@@QAE@XZ 00465bc3 f i libcpmt:cond.obj
 0001:00064bda       ??0stl_condition_variable_win7@details@Concurrency@@QAE@XZ 00465bda f i libcpmt:cond.obj
 0001:00064bf1       ?create_stl_condition_variable@details@Concurrency@@YAXPAVstl_condition_variable_interface@12@@Z 00465bf1 f i libcpmt:cond.obj
 0001:00064c43       ?destroy@stl_condition_variable_concrt@details@Concurrency@@UAEXXZ 00465c43 f i libcpmt:cond.obj
 0001:00064d13       ?notify_all@stl_condition_variable_concrt@details@Concurrency@@UAEXXZ 00465d13 f i libcpmt:cond.obj
 0001:00064d1b       ?notify_all@stl_condition_variable_win7@details@Concurrency@@UAEXXZ 00465d1b f i libcpmt:cond.obj
 0001:00064d1b       ?notify_all@stl_condition_variable_vista@details@Concurrency@@UAEXXZ 00465d1b f i libcpmt:cond.obj
 0001:00064d26       ?notify_one@stl_condition_variable_concrt@details@Concurrency@@UAEXXZ 00465d26 f i libcpmt:cond.obj
 0001:00064d2e       ?notify_one@stl_condition_variable_vista@details@Concurrency@@UAEXXZ 00465d2e f i libcpmt:cond.obj
 0001:00064d2e       ?notify_one@stl_condition_variable_win7@details@Concurrency@@UAEXXZ 00465d2e f i libcpmt:cond.obj
 0001:00064d39       ?wait@stl_condition_variable_concrt@details@Concurrency@@UAEXPAVstl_critical_section_interface@23@@Z 00465d39 f i libcpmt:cond.obj
 0001:00064d4f       ?wait@stl_condition_variable_vista@details@Concurrency@@UAEXPAVstl_critical_section_interface@23@@Z 00465d4f f i libcpmt:cond.obj
 0001:00064d6a       ?wait@stl_condition_variable_win7@details@Concurrency@@UAEXPAVstl_critical_section_interface@23@@Z 00465d6a f i libcpmt:cond.obj
 0001:00064d85       ?wait_for@stl_condition_variable_concrt@details@Concurrency@@UAE_NPAVstl_critical_section_interface@23@I@Z 00465d85 f i libcpmt:cond.obj
 0001:00064d9e       ?wait_for@stl_condition_variable_vista@details@Concurrency@@UAE_NPAVstl_critical_section_interface@23@I@Z 00465d9e f i libcpmt:cond.obj
 0001:00064dc0       ?wait_for@stl_condition_variable_win7@details@Concurrency@@UAE_NPAVstl_critical_section_interface@23@I@Z 00465dc0 f i libcpmt:cond.obj
 0001:00064de4       __Cnd_broadcast            00465de4 f   libcpmt:cond.obj
 0001:00064e03       __Cnd_destroy_in_situ      00465e03 f   libcpmt:cond.obj
 0001:00064e20       __Cnd_init_in_situ         00465e20 f   libcpmt:cond.obj
 0001:00064e25       __Cnd_wait                 00465e25 f   libcpmt:cond.obj
 0001:00064e3a       ??$_Allocate@$07U_Default_allocate_traits@std@@$0A@@std@@YAPAXI@Z 00465e3a f i libcpmt:thread0.obj
 0001:00064e60       ??$_Allocate_manually_vector_aligned@U_Default_allocate_traits@std@@@std@@YAPAXI@Z 00465e60 f i libcpmt:thread0.obj
 0001:00064e8d       ??$_Immortalize@V_Generic_error_category@std@@@std@@YAAAV_Generic_error_category@0@XZ 00465e8d f i libcpmt:thread0.obj
 0001:00064eb4       ??$_Immortalize_impl@V_Generic_error_category@std@@@std@@YGHPAX0PAPAX@Z 00465eb4 f i libcpmt:thread0.obj
 0001:00064ece       ??0?$basic_string@DU?$char_traits@D@std@@V?$allocator@D@2@@std@@QAE@$$QAV01@@Z 00465ece f i libcpmt:thread0.obj
 0001:00064eff       ??0_System_error@std@@IAE@Verror_code@1@ABV?$basic_string@DU?$char_traits@D@std@@V?$allocator@D@2@@1@@Z 00465eff f i libcpmt:thread0.obj
 0001:00064f70       ??0_System_error@std@@QAE@ABV01@@Z 00465f70 f i libcpmt:thread0.obj
 0001:00064f9a       ??0runtime_error@std@@QAE@ABV?$basic_string@DU?$char_traits@D@std@@V?$allocator@D@2@@1@@Z 00465f9a f i libcpmt:thread0.obj
 0001:00064fc2       ??0system_error@std@@QAE@ABV01@@Z 00465fc2 f i libcpmt:thread0.obj
 0001:00064fdd       ??0system_error@std@@QAE@HABVerror_category@1@PBD@Z 00465fdd f i libcpmt:thread0.obj
 0001:00065045       ??8std@@YA_NABVerror_condition@0@0@Z 00466045 f i libcpmt:thread0.obj
 0001:0006506c       ??_G_Generic_error_category@std@@UAEPAXI@Z 0046606c f i libcpmt:thread0.obj
 0001:0006506c       ??_E_Generic_error_category@std@@UAEPAXI@Z 0046606c f i libcpmt:thread0.obj
 0001:00065089       ??_E_System_error@std@@UAEPAXI@Z 00466089 f i libcpmt:thread0.obj
 0001:00065089       ??_G_System_error@std@@UAEPAXI@Z 00466089 f i libcpmt:thread0.obj
 0001:00065089       ??_Gsystem_error@std@@UAEPAXI@Z 00466089 f i libcpmt:thread0.obj
 0001:00065089       ??_Esystem_error@std@@UAEPAXI@Z 00466089 f i libcpmt:thread0.obj
 0001:000650b6       ?_Construct_lv_contents@?$basic_string@DU?$char_traits@D@std@@V?$allocator@D@2@@std@@QAEXABV12@@Z 004660b6 f i libcpmt:thread0.obj
 0001:0006511e       ?_Makestr@_System_error@std@@CA?AV?$basic_string@DU?$char_traits@D@std@@V?$allocator@D@2@@2@Verror_code@2@V32@@Z 0046611e f i libcpmt:thread0.obj
 0001:0006518f       ?_Throw_C_error@std@@YAXH@Z 0046618f f   libcpmt:thread0.obj
 0001:000651bc       ?_Throw_Cpp_error@std@@YAXH@Z 004661bc f   libcpmt:thread0.obj
 0001:000651f1       ?default_error_condition@error_category@std@@UBE?AVerror_condition@2@H@Z 004661f1 f i libcpmt:thread0.obj
 0001:00065203       ?equivalent@error_category@std@@UBE_NABVerror_code@2@H@Z 00466203 f i libcpmt:thread0.obj
 0001:00065227       ?equivalent@error_category@std@@UBE_NHABVerror_condition@2@@Z 00466227 f i libcpmt:thread0.obj
 0001:00065259       ?generic_category@std@@YAABVerror_category@1@XZ 00466259 f i libcpmt:thread0.obj
 0001:0006525e       ?message@_Generic_error_category@std@@UBE?AV?$basic_string@DU?$char_traits@D@std@@V?$allocator@D@2@@2@H@Z 0046625e f i libcpmt:thread0.obj
 0001:0006527a       ?message@error_code@std@@QBE?AV?$basic_string@DU?$char_traits@D@std@@V?$allocator@D@2@@2@XZ 0046627a f i libcpmt:thread0.obj
 0001:000652a1       ?name@_Generic_error_category@std@@UBEPBDXZ 004662a1 f i libcpmt:thread0.obj
 0001:000652a7       ??$?0AAPAUEHExceptionRecord@@_N@?$_Ref_count_obj@V__ExceptionPtr@@@std@@QAE@AAPAUEHExceptionRecord@@$$QA_N@Z 004662a7 f i libcpmt:excptptr.obj
 0001:000652d7       ??$?0AAPAUEHExceptionRecord@@_N@?$_Ref_count_obj_alloc@V__ExceptionPtr@@U?$_StaticAllocator@H@@@std@@QAE@ABU?$_StaticAllocator@H@@AAPAUEHExceptionRecord@@$$QA_N@Z 004662d7 f i libcpmt:excptptr.obj
 0001:00065318       ??$?CV__ExceptionPtr@@$0A@@?$shared_ptr@V__ExceptionPtr@@@std@@QBEPAV__ExceptionPtr@@XZ 00466318 f i libcpmt:excptptr.obj
 0001:0006531b       ??$_Copy_construct_from@V__ExceptionPtr@@@?$_Ptr_base@V__ExceptionPtr@@@std@@IAEXABV?$shared_ptr@V__ExceptionPtr@@@1@@Z 0046631b f i libcpmt:excptptr.obj
 0001:0006533a       ??$allocate_shared@V__ExceptionPtr@@U?$_StaticAllocator@H@@AAPAUEHExceptionRecord@@_N@std@@YA?AV?$shared_ptr@V__ExceptionPtr@@@0@ABU?$_StaticAllocator@H@@AAPAUEHExceptionRecord@@$$QA_N@Z 0046633a f i libcpmt:excptptr.obj
 0001:0006537f       ??$make_shared@V__ExceptionPtr@@AAPAUEHExceptionRecord@@_N@std@@YA?AV?$shared_ptr@V__ExceptionPtr@@@0@AAPAUEHExceptionRecord@@$$QA_N@Z 0046637f f i libcpmt:excptptr.obj
 0001:000653bf       ??0__ExceptionPtr@@QAE@PBUEHExceptionRecord@@_N@Z 004663bf f   libcpmt:excptptr.obj
 0001:000654db       ??1__ExceptionPtr@@QAE@XZ  004664db f   libcpmt:excptptr.obj
 0001:0006559a       ??_G?$_Ref_count_obj@V__ExceptionPtr@@@std@@UAEPAXI@Z 0046659a f i libcpmt:excptptr.obj
 0001:0006559a       ??_E?$_Ref_count_obj@V__ExceptionPtr@@@std@@UAEPAXI@Z 0046659a f i libcpmt:excptptr.obj
 0001:0006559a       ??_G?$_Ref_count_obj_alloc@V__ExceptionPtr@@U?$_StaticAllocator@H@@@std@@UAEPAXI@Z 0046659a f i libcpmt:excptptr.obj
 0001:0006559a       ??_E?$_Ref_count_obj_alloc@V__ExceptionPtr@@U?$_StaticAllocator@H@@@std@@UAEPAXI@Z 0046659a f i libcpmt:excptptr.obj
 0001:000655b7       ??_G?$shared_ptr@V__ExceptionPtr@@@std@@QAEPAXI@Z 004665b7 f i libcpmt:excptptr.obj
 0001:000655e0       ?_BadAllocException@__ExceptionPtr@@SAABV?$shared_ptr@V__ExceptionPtr@@@std@@XZ 004665e0 f   libcpmt:excptptr.obj
 0001:00065607       ?_CallCopyCtor@__ExceptionPtr@@ABEXPAX0IQBU_s_CatchableType@@@Z 00466607 f   libcpmt:excptptr.obj
 0001:0006569c       ?_CurrentException@__ExceptionPtr@@SA?AV?$shared_ptr@V__ExceptionPtr@@@std@@XZ 0046669c f   libcpmt:excptptr.obj
 0001:0006572a       ?_Decref@_Ref_count_base@std@@QAEXXZ 0046672a f i libcpmt:excptptr.obj
 0001:00065753       ?_Decwref@_Ref_count_base@std@@QAEXXZ 00466753 f i libcpmt:excptptr.obj
 0001:00065775       ?_Delete_this@?$_Ref_count_obj@V__ExceptionPtr@@@std@@EAEXXZ 00466775 f i libcpmt:excptptr.obj
 0001:00065793       ?_Delete_this@?$_Ref_count_obj_alloc@V__ExceptionPtr@@U?$_StaticAllocator@H@@@std@@EAEXXZ 00466793 f i libcpmt:excptptr.obj
 0001:000657ad       ?_Destroy@?$_Ref_count_obj_alloc@V__ExceptionPtr@@U?$_StaticAllocator@H@@@std@@EAEXXZ 004667ad f i libcpmt:excptptr.obj
 0001:000657ad       ?_Destroy@?$_Ref_count_obj@V__ExceptionPtr@@@std@@EAEXXZ 004667ad f i libcpmt:excptptr.obj
 0001:000657b5       ?_Get_deleter@_Ref_count_base@std@@UBEPAXABVtype_info@@@Z 004667b5 f i libcpmt:excptptr.obj
 0001:000657ba       ?_InitBadAllocException@__ExceptionPtr@@CA?AV?$shared_ptr@V__ExceptionPtr@@@std@@XZ 004667ba f   libcpmt:excptptr.obj
 0001:00065824       ?_PlacementInitBadAllocException@__ExceptionPtr@@CGHPAX0PAPAX@Z 00466824 f i libcpmt:excptptr.obj
 0001:00065861       ?_PopulateExceptionRecord@__ExceptionPtr@@SAPAUEHExceptionRecord@@AAU2@PBXPBU_s_ThrowInfo@@@Z 00466861 f   libcpmt:excptptr.obj
 0001:000658bb       ?_RethrowException@__ExceptionPtr@@QBEXXZ 004668bb f   libcpmt:excptptr.obj
 0001:000659e3       ?__ExceptionPtrCopy@@YAXPAXPBX@Z 004669e3 f   libcpmt:excptptr.obj
 0001:000659fa       ?__ExceptionPtrCreate@@YAXPAX@Z 004669fa f   libcpmt:excptptr.obj
 0001:00065a09       ?__ExceptionPtrCurrentException@@YAXPAX@Z 00466a09 f   libcpmt:excptptr.obj
 0001:00065a34       ?__ExceptionPtrDestroy@@YAXPAX@Z 00466a34 f   libcpmt:excptptr.obj
 0001:00065a43       ?__ExceptionPtrRethrow@@YAXPBX@Z 00466a43 f   libcpmt:excptptr.obj
 0001:00065a55       ?align@std@@YAPAXIIAAPAXAAI@Z 00466a55 f i libcpmt:excptptr.obj
 0001:00065a90       __Xtime_diff_to_millis2    00466a90 f   libcpmt:xtime.obj
 0001:00065ad0       __Xtime_get_ticks          00466ad0 f   libcpmt:xtime.obj
 0001:00065baa       _xtime_get                 00466baa f   libcpmt:xtime.obj
 0001:00065bef       ?_Execute_once@std@@YAHAAUonce_flag@1@P6GHPAX1PAPAX@Z1@Z 00466bef f   libcpmt:xonce.obj
 0001:00065c07       ?_Syserror_map@std@@YAPBDH@Z 00466c07 f   libcpmt:syserror.obj
 0001:00065c30       __FindPESection            00466c30 f   LIBCMT:pesect.obj
 0001:00065c80       __IsNonwritableInCurrentImage 00466c80 f   LIBCMT:pesect.obj
 0001:00065d40       __ValidateImageBase        00466d40 f   LIBCMT:pesect.obj
 0001:00065d80       __aulldvrm                 00466d80 f   LIBCMT:ulldvrm.obj
 0001:00065e20       __SEH_prolog4_GS           00466e20 f   LIBCMT:sehprolg4gs.obj
 0001:00065e69       __SEH_epilog4_GS           00466e69 f   LIBCMT:sehprolg4gs.obj
 0001:00065e80       __allrem                   00466e80 f   LIBCMT:llrem.obj
 0001:00065f40       __alldvrm                  00466f40 f   LIBCMT:lldvrm.obj
 0001:00066020       _strrchr                   00467020 f   libvcruntime:strrchr.obj
 0002:00000000       __imp__InitCommonControlsEx@4 00469000     comctl32:COMCTL32.dll
 0002:00000004       \177COMCTL32_NULL_THUNK_DATA 00469004     comctl32:COMCTL32.dll
 0002:00000008       __imp__SetEndOfFile@4      00469008     kernel32:KERNEL32.dll
 0002:0000000c       __imp__DecodePointer@4     0046900c     kernel32:KERNEL32.dll
 0002:00000010       __imp__WriteConsoleW@20    00469010     kernel32:KERNEL32.dll
 0002:00000014       __imp__ReadProcessMemory@20 00469014     kernel32:KERNEL32.dll
 0002:00000018       __imp__ResumeThread@4      00469018     kernel32:KERNEL32.dll
 0002:0000001c       __imp__WaitForDebugEvent@8 0046901c     kernel32:KERNEL32.dll
 0002:00000020       __imp__ContinueDebugEvent@12 00469020     kernel32:KERNEL32.dll
 0002:00000024       __imp__DebugActiveProcess@4 00469024     kernel32:KERNEL32.dll
 0002:00000028       __imp__CloseHandle@4       00469028     kernel32:KERNEL32.dll
 0002:0000002c       __imp__CreateProcessA@40   0046902c     kernel32:KERNEL32.dll
 0002:00000030       __imp__GetTempPathA@8      00469030     kernel32:KERNEL32.dll
 0002:00000034       __imp__GetTempFileNameA@16 00469034     kernel32:KERNEL32.dll
 0002:00000038       __imp__GetCurrentProcess@0 00469038     kernel32:KERNEL32.dll
 0002:0000003c       __imp__GetLastError@0      0046903c     kernel32:KERNEL32.dll
 0002:00000040       __imp__WaitForSingleObject@8 00469040     kernel32:KERNEL32.dll
 0002:00000044       __imp__GetTickCount@0      00469044     kernel32:KERNEL32.dll
 0002:00000048       __imp__GetModuleFileNameA@12 00469048     kernel32:KERNEL32.dll
 0002:0000004c       __imp__GetCommandLineA@0   0046904c     kernel32:KERNEL32.dll
 0002:00000050       __imp__GetFullPathNameA@16 00469050     kernel32:KERNEL32.dll
 0002:00000054       __imp__SetPriorityClass@8  00469054     kernel32:KERNEL32.dll
 0002:00000058       __imp__GetCurrentProcessId@0 00469058     kernel32:KERNEL32.dll
 0002:0000005c       __imp__ExitProcess@4       0046905c     kernel32:KERNEL32.dll
 0002:00000060       __imp__SetUnhandledExceptionFilter@4 00469060     kernel32:KERNEL32.dll
 0002:00000064       __imp__GetCurrentThreadId@0 00469064     kernel32:KERNEL32.dll
 0002:00000068       __imp__InitializeCriticalSection@4 00469068     kernel32:KERNEL32.dll
 0002:0000006c       __imp__EnterCriticalSection@4 0046906c     kernel32:KERNEL32.dll
 0002:00000070       __imp__CreateFileA@28      00469070     kernel32:KERNEL32.dll
 0002:00000074       __imp__WideCharToMultiByte@32 00469074     kernel32:KERNEL32.dll
 0002:00000078       __imp__CreateThread@24     00469078     kernel32:KERNEL32.dll
 0002:0000007c       __imp__Sleep@4             0046907c     kernel32:KERNEL32.dll
 0002:00000080       __imp__GetModuleHandleA@4  00469080     kernel32:KERNEL32.dll
 0002:00000084       __imp__CreateFileW@28      00469084     kernel32:KERNEL32.dll
 0002:00000088       __imp__SetStdHandle@8      00469088     kernel32:KERNEL32.dll
 0002:0000008c       __imp__GetProcessHeap@0    0046908c     kernel32:KERNEL32.dll
 0002:00000090       __imp__SetEnvironmentVariableA@8 00469090     kernel32:KERNEL32.dll
 0002:00000094       __imp__FreeEnvironmentStringsW@4 00469094     kernel32:KERNEL32.dll
 0002:00000098       __imp__GetEnvironmentStringsW@0 00469098     kernel32:KERNEL32.dll
 0002:0000009c       __imp__GetCPInfo@8         0046909c     kernel32:KERNEL32.dll
 0002:000000a0       __imp__GetOEMCP@0          004690a0     kernel32:KERNEL32.dll
 0002:000000a4       __imp__IsValidCodePage@4   004690a4     kernel32:KERNEL32.dll
 0002:000000a8       __imp__IsProcessorFeaturePresent@4 004690a8     kernel32:KERNEL32.dll
 0002:000000ac       __imp__LeaveCriticalSection@4 004690ac     kernel32:KERNEL32.dll
 0002:000000b0       __imp__TryEnterCriticalSection@4 004690b0     kernel32:KERNEL32.dll
 0002:000000b4       __imp__DeleteCriticalSection@4 004690b4     kernel32:KERNEL32.dll
 0002:000000b8       __imp__EncodePointer@4     004690b8     kernel32:KERNEL32.dll
 0002:000000bc       __imp__GetCurrentThread@0  004690bc     kernel32:KERNEL32.dll
 0002:000000c0       __imp__GetThreadTimes@20   004690c0     kernel32:KERNEL32.dll
 0002:000000c4       __imp__FreeLibrary@4       004690c4     kernel32:KERNEL32.dll
 0002:000000c8       __imp__FreeLibraryAndExitThread@8 004690c8     kernel32:KERNEL32.dll
 0002:000000cc       __imp__GetModuleFileNameW@12 004690cc     kernel32:KERNEL32.dll
 0002:000000d0       __imp__LoadLibraryExW@12   004690d0     kernel32:KERNEL32.dll
 0002:000000d4       __imp__InterlockedPopEntrySList@4 004690d4     kernel32:KERNEL32.dll
 0002:000000d8       __imp__InterlockedPushEntrySList@8 004690d8     kernel32:KERNEL32.dll
 0002:000000dc       __imp__InterlockedFlushSList@4 004690dc     kernel32:KERNEL32.dll
 0002:000000e0       __imp__QueryDepthSList@4   004690e0     kernel32:KERNEL32.dll
 0002:000000e4       __imp__SetLastError@4      004690e4     kernel32:KERNEL32.dll
 0002:000000e8       __imp__GetProcAddress@8    004690e8     kernel32:KERNEL32.dll
 0002:000000ec       __imp__LoadLibraryW@4      004690ec     kernel32:KERNEL32.dll
 0002:000000f0       __imp__SetEvent@4          004690f0     kernel32:KERNEL32.dll
 0002:000000f4       __imp__WaitForSingleObjectEx@12 004690f4     kernel32:KERNEL32.dll
 0002:000000f8       __imp__SignalObjectAndWait@16 004690f8     kernel32:KERNEL32.dll
 0002:000000fc       __imp__SwitchToThread@0    004690fc     kernel32:KERNEL32.dll
 0002:00000100       __imp__SetThreadPriority@8 00469100     kernel32:KERNEL32.dll
 0002:00000104       __imp__GetThreadPriority@4 00469104     kernel32:KERNEL32.dll
 0002:00000108       __imp__TlsAlloc@0          00469108     kernel32:KERNEL32.dll
 0002:0000010c       __imp__TlsGetValue@4       0046910c     kernel32:KERNEL32.dll
 0002:00000110       __imp__TlsSetValue@8       00469110     kernel32:KERNEL32.dll
 0002:00000114       __imp__TlsFree@4           00469114     kernel32:KERNEL32.dll
 0002:00000118       __imp__GetLogicalProcessorInformation@8 00469118     kernel32:KERNEL32.dll
 0002:0000011c       __imp__CreateTimerQueueTimer@28 0046911c     kernel32:KERNEL32.dll
 0002:00000120       __imp__ChangeTimerQueueTimer@16 00469120     kernel32:KERNEL32.dll
 0002:00000124       __imp__DeleteTimerQueueTimer@12 00469124     kernel32:KERNEL32.dll
 0002:00000128       __imp__GetModuleHandleW@4  00469128     kernel32:KERNEL32.dll
 0002:0000012c       __imp__GetNumaHighestNodeNumber@4 0046912c     kernel32:KERNEL32.dll
 0002:00000130       __imp__GetProcessAffinityMask@12 00469130     kernel32:KERNEL32.dll
 0002:00000134       __imp__SetThreadAffinityMask@8 00469134     kernel32:KERNEL32.dll
 0002:00000138       __imp__RegisterWaitForSingleObject@24 00469138     kernel32:KERNEL32.dll
 0002:0000013c       __imp__UnregisterWait@4    0046913c     kernel32:KERNEL32.dll
 0002:00000140       __imp__DuplicateHandle@28  00469140     kernel32:KERNEL32.dll
 0002:00000144       __imp__ReleaseSemaphore@12 00469144     kernel32:KERNEL32.dll
 0002:00000148       __imp__InitializeSListHead@4 00469148     kernel32:KERNEL32.dll
 0002:0000014c       __imp__UnregisterWaitEx@8  0046914c     kernel32:KERNEL32.dll
 0002:00000150       __imp__GetVersionExW@4     00469150     kernel32:KERNEL32.dll
 0002:00000154       __imp__VirtualAlloc@16     00469154     kernel32:KERNEL32.dll
 0002:00000158       __imp__VirtualProtect@16   00469158     kernel32:KERNEL32.dll
 0002:0000015c       __imp__VirtualFree@12      0046915c     kernel32:KERNEL32.dll
 0002:00000160       __imp__CreateTimerQueue@0  00469160     kernel32:KERNEL32.dll
 0002:00000164       __imp__CreateEventW@16     00469164     kernel32:KERNEL32.dll
 0002:00000168       __imp__IsDebuggerPresent@0 00469168     kernel32:KERNEL32.dll
 0002:0000016c       __imp__UnhandledExceptionFilter@4 0046916c     kernel32:KERNEL32.dll
 0002:00000170       __imp__GetStartupInfoW@4   00469170     kernel32:KERNEL32.dll
 0002:00000174       __imp__QueryPerformanceCounter@4 00469174     kernel32:KERNEL32.dll
 0002:00000178       __imp__GetSystemTimeAsFileTime@4 00469178     kernel32:KERNEL32.dll
 0002:0000017c       __imp__TerminateProcess@8  0046917c     kernel32:KERNEL32.dll
 0002:00000180       __imp__RaiseException@16   00469180     kernel32:KERNEL32.dll
 0002:00000184       __imp__RtlUnwind@16        00469184     kernel32:KERNEL32.dll
 0002:00000188       __imp__InitializeCriticalSectionAndSpinCount@8 00469188     kernel32:KERNEL32.dll
 0002:0000018c       __imp__ReadFile@20         0046918c     kernel32:KERNEL32.dll
 0002:00000190       __imp__GetModuleHandleExW@12 00469190     kernel32:KERNEL32.dll
 0002:00000194       __imp__GetCurrentDirectoryW@8 00469194     kernel32:KERNEL32.dll
 0002:00000198       __imp__QueryPerformanceFrequency@4 00469198     kernel32:KERNEL32.dll
 0002:0000019c       __imp__MultiByteToWideChar@24 0046919c     kernel32:KERNEL32.dll
 0002:000001a0       __imp__GetStdHandle@4      004691a0     kernel32:KERNEL32.dll
 0002:000001a4       __imp__WriteFile@20        004691a4     kernel32:KERNEL32.dll
 0002:000001a8       __imp__GetCommandLineW@0   004691a8     kernel32:KERNEL32.dll
 0002:000001ac       __imp__GetACP@0            004691ac     kernel32:KERNEL32.dll
 0002:000001b0       __imp__HeapFree@12         004691b0     kernel32:KERNEL32.dll
 0002:000001b4       __imp__HeapAlloc@12        004691b4     kernel32:KERNEL32.dll
 0002:000001b8       __imp__CompareStringW@24   004691b8     kernel32:KERNEL32.dll
 0002:000001bc       __imp__LCMapStringW@24     004691bc     kernel32:KERNEL32.dll
 0002:000001c0       __imp__GetFileType@4       004691c0     kernel32:KERNEL32.dll
 0002:000001c4       __imp__SetFilePointerEx@20 004691c4     kernel32:KERNEL32.dll
 0002:000001c8       __imp__GetConsoleMode@8    004691c8     kernel32:KERNEL32.dll
 0002:000001cc       __imp__ReadConsoleW@20     004691cc     kernel32:KERNEL32.dll
 0002:000001d0       __imp__GetConsoleCP@0      004691d0     kernel32:KERNEL32.dll
 0002:000001d4       __imp__GetStringTypeW@16   004691d4     kernel32:KERNEL32.dll
 0002:000001d8       __imp__GetTimeZoneInformation@4 004691d8     kernel32:KERNEL32.dll
 0002:000001dc       __imp__FlushFileBuffers@4  004691dc     kernel32:KERNEL32.dll
 0002:000001e0       __imp__HeapReAlloc@16      004691e0     kernel32:KERNEL32.dll
 0002:000001e4       __imp__HeapSize@12         004691e4     kernel32:KERNEL32.dll
 0002:000001e8       __imp__FindClose@4         004691e8     kernel32:KERNEL32.dll
 0002:000001ec       __imp__FindFirstFileExA@24 004691ec     kernel32:KERNEL32.dll
 0002:000001f0       __imp__FindNextFileA@8     004691f0     kernel32:KERNEL32.dll
 0002:000001f4       \177KERNEL32_NULL_THUNK_DATA 004691f4     kernel32:KERNEL32.dll
 0002:000001f8       __imp__GetDesktopWindow@0  004691f8     user32:USER32.dll
 0002:000001fc       __imp__GetWindowRect@8     004691fc     user32:USER32.dll
 0002:00000200       __imp__SetWindowTextA@8    00469200     user32:USER32.dll
 0002:00000204       __imp__GetSystemMetrics@4  00469204     user32:USER32.dll
 0002:00000208       __imp__SystemParametersInfoA@16 00469208     user32:USER32.dll
 0002:0000020c       __imp__EndDialog@8         0046920c     user32:USER32.dll
 0002:00000210       __imp__DialogBoxParamA@20  00469210     user32:USER32.dll
 0002:00000214       __imp__SetWindowPos@28     00469214     user32:USER32.dll
 0002:00000218       __imp__SendMessageA@16     00469218     user32:USER32.dll
 0002:0000021c       __imp__GetDlgItem@8        0046921c     user32:USER32.dll
 0002:00000220       \177USER32_NULL_THUNK_DATA 00469220     user32:USER32.dll
 0002:00000224       __imp__UnDecorateSymbolName@16 00469224     Dbghelp:dbghelp.dll
 0002:00000228       __imp__MiniDumpWriteDump@28 00469228     Dbghelp:dbghelp.dll
 0002:0000022c       \177dbghelp_NULL_THUNK_DATA 0046922c     Dbghelp:dbghelp.dll
 0002:00000230       ___guard_check_icall_fptr  00469230     LIBCMT:guard_support.obj
 0002:00000234       ___xc_a                    00469234     LIBCMT:initializers.obj
 0002:00000254       ___xc_z                    00469254     LIBCMT:initializers.obj
 0002:00000258       ___xi_a                    00469258     LIBCMT:initializers.obj
 0002:00000264       ___acrt_stdio_initializer  00469264     libucrt:stdio_initializer.obj
 0002:00000268       ___acrt_clock_initializer  00469268     libucrt:clock_initializer.obj
 0002:0000026c       ___acrt_timeset_initializer 0046926c     libucrt:timeset_initializer.obj
 0002:00000270       ___acrt_tran_sse2_initializer 00469270     libucrt:sse2_initializer.obj
 0002:00000274       ___acrt_multibyte_initializer 00469274     libucrt:multibyte_initializer.obj
 0002:0000027c       ___xi_z                    0046927c     LIBCMT:initializers.obj
 0002:00000280       ___xp_a                    00469280     LIBCMT:initializers.obj
 0002:00000288       ___acrt_locale_terminator  00469288     libucrt:locale_initializer.obj
 0002:0000028c       ___dcrt_console_output_terminator 0046928c     libucrt:console_output_initializer.obj
 0002:00000290       ___acrt_stdio_terminator   00469290     libucrt:stdio_initializer.obj
 0002:00000294       ___xp_z                    00469294     LIBCMT:initializers.obj
 0002:00000298       ___xt_a                    00469298     LIBCMT:initializers.obj
 0002:0000029c       ___xt_z                    0046929c     LIBCMT:initializers.obj
 0002:000002a4       ??_C@_0BC@EOODALEL@Unknown?5exception@ 004692a4     Crinkler.obj
 0002:000002b8       ??_C@_0P@GHFPNOJB@bad?5allocation@ 004692b8     Crinkler.obj
 0002:000002c7       ??_C@_00CNPNBAHC@@         004692c7     Crinkler.obj
 0002:000002c8       ??_7ProgressBar@@6B@       004692c8     Crinkler.obj
 0002:000002e0       ??_7ConsoleProgressBar@@6B@ 004692e0     Crinkler.obj
 0002:000002f8       ??_7WindowProgressBar@@6B@ 004692f8     Crinkler.obj
 0002:00000310       ??_7CompositeProgressBar@@6B@ 00469310     Crinkler.obj
 0002:00000328       ??_7_UnrealizedChore@details@Concurrency@@6B@ 00469328     Crinkler.obj
 0002:00000330       ??_C@_0EO@IIGPOHCI@?6label?5name?5?5?5?5?5?5?5?5?5?5?5?5?5?5?5?5?5?5?5?5@ 00469330     Crinkler.obj
 0002:00000380       ??_C@_09GCOFNFBD@?6?$CF?938?438s@ 00469380     Crinkler.obj
 0002:0000038c       ??_C@_0L@EJPFMDN@?5?5?$CF?936?436s@ 0046938c     Crinkler.obj
 0002:00000398       ??_C@_0N@IFGPEODL@?5?5?5?5?$CF?934?434s@ 00469398     Crinkler.obj
 0002:000003a8       ??_C@_0P@MKLNNCLH@?5?5?5?5?5?5?$CF?932?432s@ 004693a8     Crinkler.obj
 0002:000003b8       ??_C@_0BG@KFLHGOHD@?5?$CF9d?5?$CF8?42f?5?$CF9d?5?$CF8?42f?6@ 004693b8     Crinkler.obj
 0002:000003d0       ??_C@_0BD@KKHBGNDD@?5?$CF9d?5?5?5?5?5?5?5?5?5?5?$CF9d?6@ 004693d0     Crinkler.obj
 0002:000003e4       ??_C@_0DD@LEHFPLCL@Input?5file?5is?5not?5a?5Crinkler?5co@ 004693e4     Crinkler.obj
 0002:00000418       ??_C@_0DC@IODJPMBD@No?5functions?5were?5imported?5from@ 00469418     Crinkler.obj
 0002:0000044c       ??_C@_0BG@DDBEBGFF@Unsupported?5file?5type@ 0046944c     Crinkler.obj
 0002:00000464       ??_C@_01IDAFKMJL@_@        00469464     Crinkler.obj
 0002:00000468       ??_C@_06HOGKBANE@__imp_@   00469468     Crinkler.obj
 0002:00000470       ??_C@_06EGGDDPIF@msvcrt@   00469470     Crinkler.obj
 0002:00000478       ??_C@_07OKPPBOMK@runtime@  00469478     Crinkler.obj
 0002:00000480       ??_C@_0P@IFCHICC@mainCRTStartup@ 00469480     Crinkler.obj
 0002:00000490       ??_C@_0BC@EOMPAEPF@WinMainCRTStartup@ 00469490     Crinkler.obj
 0002:000004a4       ??_C@_0DG@PPIGIGJC@Cannot?5find?5entry?5point?5?8?$CFs?8?4?5S@ 004694a4     Crinkler.obj
 0002:000004dc       ??_C@_0DE@MIMMHEBG@Entry?5point?5not?5at?5start?5of?5sec@ 004694dc     Crinkler.obj
 0002:00000510       ??_C@_0EF@MFKDHEAK@Cannot?5create?5integer?5symbol?5?8?$CF@ 00469510     Crinkler.obj
 0002:00000558       ??_C@_0FA@JCIGHBGI@Uninitialized?5hunk?5?8?$CFs?8?5forced?5@ 00469558     Crinkler.obj
 0002:000005a8       ??_C@_0DI@CNEFPJKN@Cannot?5find?5symbol?5?8?$CFs?8?5to?5be?5e@ 004695a8     Crinkler.obj
 0002:000005e0       ??_C@_0BG@CEHDACLH@__imp__LoadLibraryA?$EA4@ 004695e0     Crinkler.obj
 0002:000005f8       ??_C@_0BG@OOEFHEAN@__imp__MessageBoxA?$EA16@ 004695f8     Crinkler.obj
 0002:00000610       ??_C@_0BG@HEPCMGPN@__DynamicInitializers@ 00469610     Crinkler.obj
 0002:00000628       ??_C@_0BA@FDKAKDDE@Crinkler?5import@ 00469628     Crinkler.obj
 0002:00000638       ??_C@_0DC@FIIPFMOE@DLL?5fallback?5cannot?5be?5used?5wit@ 00469638     Crinkler.obj
 0002:0000066c       ??_C@_06FEMFHOOG@models@   0046966c     Crinkler.obj
 0002:00000674       ??_C@_07OPDAKGAH@_Models@  00469674     Crinkler.obj
 0002:0000067c       ??_C@_0BL@IFJFKOOO@Optimizing?5hash?5table?5size@ 0046967c     Crinkler.obj
 0002:00000698       ??_C@_0BE@GNEDJFBJ@Reestimating?5models@ 00469698     Crinkler.obj
 0002:000006ac       ??_C@_0BC@BCDNBDNA@Estimating?5models@ 004696ac     Crinkler.obj
 0002:000006c0       ??_C@_0CC@KFFHMKOA@?6Estimated?5compressed?5size?3?5?$CF?42@ 004696c0     Crinkler.obj
 0002:000006e4       ??_C@_0BN@FJLNKGNE@Reestimating?5models?5for?5code@ 004696e4     Crinkler.obj
 0002:00000704       ??_C@_0BL@JOKOILPI@Estimating?5models?5for?5code@ 00469704     Crinkler.obj
 0002:00000720       ??_C@_08IBBAJKND@Models?3?5@ 00469720     Crinkler.obj
 0002:0000072c       ??_C@_0CJ@IKNHIIL@Estimated?5compressed?5size?5of?5co@ 0046972c     Crinkler.obj
 0002:00000758       ??_C@_0BN@HDAIGLID@Reestimating?5models?5for?5data@ 00469758     Crinkler.obj
 0002:00000778       ??_C@_0BL@LEBLEGKP@Estimating?5models?5for?5data@ 00469778     Crinkler.obj
 0002:00000794       ??_C@_0CJ@FEABGKOG@Estimated?5compressed?5size?5of?5da@ 00469794     Crinkler.obj
 0002:000007c0       ??_C@_0CG@HNCOFNOM@?6Ideal?5compressed?5size?5of?5code?3@ 004697c0     Crinkler.obj
 0002:000007e8       ??_C@_0CF@OKKLKMEF@Ideal?5compressed?5size?5of?5data?3?5@ 004697e8     Crinkler.obj
 0002:00000810       ??_C@_0CD@IJLCADMF@Ideal?5compressed?5total?5size?3?5?$CF?4@ 00469810     Crinkler.obj
 0002:0000083c       ??_C@_0N@MGHBILEJ@_SaturatePtr@ 0046983c     Crinkler.obj
 0002:0000084c       ??_C@_0BE@NNIAIJGH@_SaturateAdjust1Ptr@ 0046984c     Crinkler.obj
 0002:00000860       ??_C@_0BE@JKCAPDLH@_SaturateAdjust2Ptr@ 00469860     Crinkler.obj
 0002:00000874       ??_C@_0P@OPAMMGEP@_HashTableSize@ 00469874     Crinkler.obj
 0002:00000884       ??_C@_0O@OJGJCEJN@_UnpackedData@ 00469884     Crinkler.obj
 0002:00000894       ??_C@_0L@FFEALDGL@_ImageBase@ 00469894     Crinkler.obj
 0002:000008a0       ??_C@_0L@JGPOMPEN@_ModelMask@ 004698a0     Crinkler.obj
 0002:000008ac       ??_C@_0BI@GHKIELLA@_VirtualSizeHighBytePtr@ 004698ac     Crinkler.obj
 0002:000008c4       ??_C@_0O@JBGLDBBJ@_BaseProbPtr0@ 004698c4     Crinkler.obj
 0002:000008d4       ??_C@_0O@IIHAAAFI@_BaseProbPtr1@ 004698d4     Crinkler.obj
 0002:000008e4       ??_C@_0BA@LINMPMMD@_BoostFactorPtr@ 004698e4     Crinkler.obj
 0002:000008f4       ??_C@_0BG@DHCAILAC@_DepackEndPositionPtr@ 004698f4     Crinkler.obj
 0002:0000090c       ??_C@_0N@LHGLKDGG@_VirtualSize@ 0046990c     Crinkler.obj
 0002:0000091c       ??_C@_0N@CJIELOOC@_BaseProbPtr@ 0046991c     Crinkler.obj
 0002:0000092c       ??_C@_0O@JDOFCFPM@_ModelSkipPtr@ 0046992c     Crinkler.obj
 0002:0000093c       ??_C@_0BD@ILPGCFPF@_ExportTableRVAPtr@ 0046993c     Crinkler.obj
 0002:00000950       ??_C@_0BM@MAJEAMPE@_NumberOfDataDirectoriesPtr@ 00469950     Crinkler.obj
 0002:0000096c       ??_C@_0BC@PHINPHPA@_SubsystemTypePtr@ 0046996c     Crinkler.obj
 0002:00000980       ??_C@_0BC@HOOJKFJG@_LinkerVersionPtr@ 00469980     Crinkler.obj
 0002:00000994       ??_C@_0N@ICHFCMMK@_SpareNopPtr@ 00469994     Crinkler.obj
 0002:000009a4       ??_C@_0BE@OLEHLOAM@_CharacteristicsPtr@ 004699a4     Crinkler.obj
 0002:00000a08       ??_C@_02GMLFBBN@wb@        00469a08     Crinkler.obj
 0002:00000a0c       ??_C@_0BN@MCNEOMMD@Cannot?5open?5?8?$CFs?8?5for?5writing@ 00469a0c     Crinkler.obj
 0002:00000a30       ??_C@_0FI@NJAHGNDF@File?5compressed?5using?5a?5pre?91?44@ 00469a30     Crinkler.obj
 0002:00000a88       ??_C@_0DO@FOPHLFC@File?5compressed?5or?5recompressed@ 00469a88     Crinkler.obj
 0002:00000ac8       ??_C@_0EI@DEFEKIEP@Only?5files?5compressed?5using?5Cri@ 00469ac8     Crinkler.obj
 0002:00000b10       ??_C@_0BI@OKGMBMBC@Original?5file?5size?3?5?$CFd?6@ 00469b10     Crinkler.obj
 0002:00000b28       ??_C@_03IPHJCBHH@YES@      00469b28     Crinkler.obj
 0002:00000b2c       ??_C@_02NFLNFON@NO@        00469b2c     Crinkler.obj
 0002:00000b30       ??_C@_0BK@PBNIFJCJ@Original?5Tiny?5Header?3?5?$CFs?6@ 00469b30     Crinkler.obj
 0002:00000b4c       ??_C@_0BL@POODLHIC@Original?5Virtual?5size?3?5?$CFd?6@ 00469b4c     Crinkler.obj
 0002:00000b68       ??_C@_07PCJELJIA@CONSOLE@  00469b68     Crinkler.obj
 0002:00000b70       ??_C@_07LHJOABLP@WINDOWS@  00469b70     Crinkler.obj
 0002:00000b78       ??_C@_0BN@INIKNHFJ@Original?5Subsystem?5type?3?5?$CFs?6@ 00469b78     Crinkler.obj
 0002:00000b98       ??_C@_0CC@JOKGDBN@Original?5Large?5address?5aware?3?5?$CF@ 00469b98     Crinkler.obj
 0002:00000bbc       ??_C@_07HIMJODOE@INSTANT@  00469bbc     Crinkler.obj
 0002:00000bc4       ??_C@_09JMLMCKLI@FAST?1SLOW@ 00469bc4     Crinkler.obj
 0002:00000bd0       ??_C@_0BD@HHJOLBIO@FAST?1SLOW?1VERYSLOW@ 00469bd0     Crinkler.obj
 0002:00000be4       ??_C@_0BP@PHKHPGPG@Original?5Compression?5mode?3?5?$CFs?6@ 00469be4     Crinkler.obj
 0002:00000c04       ??_C@_0CA@OGCPPCPK@Original?5Saturate?5counters?3?5?$CFs?6@ 00469c04     Crinkler.obj
 0002:00000c24       ??_C@_0BI@LBFLFGMO@Original?5Hash?5size?3?5?$CFd?6@ 00469c24     Crinkler.obj
 0002:00000c3c       ??_C@_0BA@NNKFBPCH@Total?5size?3?5?$CFd?6@ 00469c3c     Crinkler.obj
 0002:00000c4c       ??_C@_01EEMJAFIK@?6@       00469c4c     Crinkler.obj
 0002:00000c50       ??_C@_0P@JOJJMKAP@Code?5size?3?5?$CFd?6@ 00469c50     Crinkler.obj
 0002:00000c60       ??_C@_0P@HJACANDA@Data?5size?3?5?$CFd?6@ 00469c60     Crinkler.obj
 0002:00000c70       ??_C@_0CI@KPJIGMFP@Failed?5to?5write?5to?5temporary?5fi@ 00469c70     Crinkler.obj
 0002:00000c98       ??_C@_0EI@NCGMDOCI@Program?5was?5been?5unresponsive?5f@ 00469c98     Crinkler.obj
 0002:00000ce0       ??_C@_0BP@LNKNKJE@Failed?5to?5read?5process?5memory?6@ 00469ce0     Crinkler.obj
 0002:00000d00       ??_C@_0DA@NFHCLMBL@Call?5transformation?5code?5succes@ 00469d00     Crinkler.obj
 0002:00000d30       ??_C@_0DC@MHPCDMEN@Call?5transformation?5code?5does?5n@ 00469d30     Crinkler.obj
 0002:00000d64       ??_C@_0CD@ICCCFOGO@Import?5code?5successfully?5patche@ 00469d64     Crinkler.obj
 0002:00000d88       ??_C@_0CF@NLLOGFPK@Import?5code?5does?5not?5need?5patch@ 00469d88     Crinkler.obj
 0002:00000db0       ??_C@_0CG@HODDPGIK@Cannot?5find?5old?5import?5code?5to?5@ 00469db0     Crinkler.obj
 0002:00000dd8       ??_C@_0BA@MLAJHKNA@crinkler?5header@ 00469dd8     Crinkler.obj
 0002:00000de8       ??_C@_07LFLIHBIB@_header@  00469de8     Crinkler.obj
 0002:00000df0       ??_C@_0N@JCFBFJEN@_DepackEntry@ 00469df0     Crinkler.obj
 0002:00000e00       ??_C@_06IENGEGME@linked@   00469e00     Crinkler.obj
 0002:00000e08       ??_C@_0BC@MDEKNPLM@Original?5Exports?3@ 00469e08     Crinkler.obj
 0002:00000e1c       ??_C@_06LFKKDFDG@?5NONE?6@ 00469e1c     Crinkler.obj
 0002:00000e24       ??_C@_0BD@POLNKHED@Resulting?5Exports?3@ 00469e24     Crinkler.obj
 0002:00000e38       ??_C@_0BD@DOBHADI@?6Recompressing?4?4?4?6@ 00469e38     Crinkler.obj
 0002:00000e4c       ??_C@_0CA@LJCOCBA@Real?5compressed?5total?5size?3?5?$CFd?6@ 00469e4c     Crinkler.obj
 0002:00000e6c       ??_C@_0DM@LILMGLD@Real?5compressed?5total?5size?3?5?$CFd?6@ 00469e6c     Crinkler.obj
 0002:00000ea8       ??_C@_08KJPILKIK@HashHunk@ 00469ea8     Crinkler.obj
 0002:00000eb4       ??_C@_0BC@PJLJMEGM@?6Output?5file?3?5?$CFs?6@ 00469eb4     Crinkler.obj
 0002:00000ec8       ??_C@_0BG@GMCEEDPD@Final?5file?5size?3?5?$CFd?6?6@ 00469ec8     Crinkler.obj
 0002:00000ee0       ??_C@_07JBHCGDOG@CRT$XCU@  00469ee0     Crinkler.obj
 0002:00000ee8       ??_C@_0BK@HIDPJJNF@dynamic?5initializer?5calls@ 00469ee8     Crinkler.obj
 0002:00000f04       ??_C@_01LKDEMHDF@s@        00469f04     Crinkler.obj
 0002:00000f08       ??_C@_0CF@POMNDHLE@?6Included?5?$CFd?5dynamic?5initialize@ 00469f08     Crinkler.obj
 0002:00000f30       ??_C@_02JDPG@rb@           00469f30     Crinkler.obj
 0002:00000f34       ??_C@_0CI@HJBACJIM@Forced?5alignment?5of?5?$CFd?5code?5hun@ 00469f34     Crinkler.obj
 0002:00000f5c       ??_C@_0BJ@EIILJABG@?5?$CIincluding?5entry?5point?$CJ@ 00469f5c     Crinkler.obj
 0002:00000f78       ??_C@_02MIICKFIN@?4?6@     00469f78     Crinkler.obj
 0002:00000f7c       ??_C@_07PFJDOKIE@_Import@  00469f7c     Crinkler.obj
 0002:00000f84       ??_C@_0N@FBKGGDDM@___ImageBase@ 00469f84     Crinkler.obj
 0002:00000f94       ??_C@_0O@KPKOFKBN@_HashShiftPtr@ 00469f94     Crinkler.obj
 0002:00000fa4       ??_C@_0BC@IAIHMGGJ@_MaxNameLengthPtr@ 00469fa4     Crinkler.obj
 0002:00000fb8       ??_C@_0BF@CBKPDHJG@?6Truncating?5floats?3?6@ 00469fb8     Crinkler.obj
 0002:00000fd0       ??_C@_0BG@LKKDCDLE@?6Read?5reuse?5file?3?5?$CFs?6@ 00469fd0     Crinkler.obj
 0002:00000fe8       ??_C@_0O@HNBJOJF@_HeaderHashes@ 00469fe8     Crinkler.obj
 0002:00000ff8       ??_C@_0CG@IGLAPLGA@?6File?5size?5with?5reuse?5parameter@ 00469ff8     Crinkler.obj
 0002:00001020       ??_C@_0CB@BMJKADLA@?6Uncompressed?5size?5of?5code?3?5?$CF5d@ 0046a020     Crinkler.obj
 0002:00001044       ??_C@_0CA@GBJEKFBE@Uncompressed?5size?5of?5data?3?5?$CF5d?6@ 0046a044     Crinkler.obj
 0002:00001064       ??_C@_0BE@DENNAEKC@Final?5file?5size?3?5?$CFd@ 0046a064     Crinkler.obj
 0002:00001078       ??_C@_0BE@PMPKMAM@?5?$CIprevious?5size?5?$CFd?$CJ@ 0046a078     Crinkler.obj
 0002:0000108c       ??_C@_0N@FCELNGHN@?5?$CIno?5change?$CJ@ 0046a08c     Crinkler.obj
 0002:0000109c       ??_C@_02PHMGELLB@?6?6@     0046a09c     Crinkler.obj
 0002:000010a0       ??_C@_0BJ@JNGAPOKG@Writing?5reuse?5file?3?5?$CFs?6?6@ 0046a0a0     Crinkler.obj
 0002:000010bc       ??_C@_0BN@EFGNPIFL@Overwriting?5reuse?5file?3?5?$CFs?6?6@ 0046a0bc     Crinkler.obj
 0002:000010e0       ??_C@_0EG@JOHGKJDL@Size?5not?5better?5than?5with?5reuse@ 0046a0e0     Crinkler.obj
 0002:00001128       ??_C@_0FD@EJBLHGJD@Output?5file?5too?5big?4?5Crinkler?5d@ 0046a128     Crinkler.obj
 0002:0000117c       ??_C@_0BA@IJGCHEFD@compressed?5data@ 0046a17c     Crinkler.obj
 0002:0000118c       ??_C@_0M@CPCNJFIA@_PackedData@ 0046a18c     Crinkler.obj
 0002:00001198       ??_C@_0L@NIOIKHIB@_HashTable@ 0046a198     Crinkler.obj
 0002:000011a4       ??_C@_05FPBGKCKL@final@    0046a1a4     Crinkler.obj
 0002:000011ac       ??_C@_0N@EKLEAHGF@_ExportTable@ 0046a1ac     Crinkler.obj
 0002:000011bc       ??_C@_0P@HPLAJKBO@?5?1SUBSYSTEM?3?$CFs@ 0046a1bc     Crinkler.obj
 0002:000011cc       ??_C@_0BE@HCHGHOKI@?5?1LARGEADDRESSAWARE@ 0046a1cc     Crinkler.obj
 0002:000011e0       ??_C@_0L@CHNHABH@?5?1ENTRY?3?$CFs@ 0046a1e0     Crinkler.obj
 0002:000011ec       ??_C@_0N@HIOJGKBK@?5?1TINYHEADER@ 0046a1ec     Crinkler.obj
 0002:000011fc       ??_C@_0N@PHHPMIID@?5?1TINYIMPORT@ 0046a1fc     Crinkler.obj
 0002:0000120c       ??_C@_0O@MNHGNOHL@?5?1COMPMODE?3?$CFs@ 0046a20c     Crinkler.obj
 0002:0000121c       ??_C@_0L@OEDOMGG@?5?1SATURATE@ 0046a21c     Crinkler.obj
 0002:00001228       ??_C@_0O@PGFDPBBP@?5?1HASHSIZE?3?$CFd@ 0046a228     Crinkler.obj
 0002:00001238       ??_C@_0P@HCOJIDEC@?5?1HASHTRIES?3?$CFd@ 0046a238     Crinkler.obj
 0002:00001248       ??_C@_0BA@OGNPFEHM@?5?1ORDERTRIES?3?$CFd@ 0046a248     Crinkler.obj
 0002:00001258       ??_C@_0L@CGFJGHCI@?5?1RANGE?3?$CFs@ 0046a258     Crinkler.obj
 0002:00001264       ??_C@_0BD@LHKPLLM@?5?1REPLACEDLL?3?$CFs?$DN?$CFs@ 0046a264     Crinkler.obj
 0002:00001278       ??_C@_0BE@JJMGDLCM@?5?1FALLBACKDLL?3?$CFs?$DN?$CFs@ 0046a278     Crinkler.obj
 0002:0000128c       ??_C@_0P@ICOBEDKN@?5?1UNSAFEIMPORT@ 0046a28c     Crinkler.obj
 0002:0000129c       ??_C@_0BC@KBCEAEFB@?5?1TRANSFORM?3CALLS@ 0046a29c     Crinkler.obj
 0002:000012b0       ??_C@_0BE@CPKHJPNM@?5?1TRUNCATEFLOATS?3?$CFd@ 0046a2b0     Crinkler.obj
 0002:000012c4       ??_C@_0BF@FFKAOPNO@?5?1OVERRIDEALIGNMENTS@ 0046a2c4     Crinkler.obj
 0002:000012dc       ??_C@_03HODKBCIO@?3?$CFd@  0046a2dc     Crinkler.obj
 0002:000012e0       ??_C@_0O@LKIDOONL@?5?1UNALIGNCODE@ 0046a2e0     Crinkler.obj
 0002:000012f0       ??_C@_0BB@FDEOEGKP@?5?1NOINITIALIZERS@ 0046a2f0     Crinkler.obj
 0002:00001304       ??_C@_0BD@CPKCLFBM@?5?1EXPORT?3?$CFs?$DN0x?$CF08X@ 0046a304     Crinkler.obj
 0002:00001318       ??_C@_0M@PGNEDGKJ@?5?1EXPORT?3?$CFs@ 0046a318     Crinkler.obj
 0002:00001324       ??_C@_0P@OGNOGPOD@?5?1EXPORT?3?$CFs?$DN?$CFs@ 0046a324     Crinkler.obj
 0002:00001334       ??_C@_0BD@OLBABOEK@vector?$DMT?$DO?5too?5long@ 0046a334     Crinkler.obj
 0002:00001348       ??_C@_0BG@EOMJEIFA@vector?$DMbool?$DO?5too?5long@ 0046a348     Crinkler.obj
 0002:00001360       ??_C@_0BA@JFNIOLAK@string?5too?5long@ 0046a360     Crinkler.obj
 0002:00001388       ??_C@_0BE@JONHPENG@map?1set?$DMT?$DO?5too?5long@ 0046a388     Crinkler.obj
 0002:000013e4       ??_C@_05EJCIBGJD@_Step@    0046a3e4     Crinkler.obj
 0002:000013f8       __real@3a000000            0046a3f8     Crinkler.obj
 0002:00001400       ??_C@_0BM@BGFMAAGJ@Reused?5hunk?5not?5present?3?5?$CFs@ 0046a400     ExplicitHunkSorter.obj
 0002:0000141c       ??_C@_0CD@CGKKNKBF@Hunk?5not?5present?5in?5reuse?5file?3@ 0046a41c     ExplicitHunkSorter.obj
 0002:00001440       ??_C@_0BB@MOGOBHAF@list?$DMT?$DO?5too?5long@ 0046a440     ExplicitHunkSorter.obj
 0002:00001460       __xmm@41f00000000000000000000000000000 0046a460     ExplicitHunkSorter.obj
 0002:00001474       ??_C@_0DA@HEBHBJLH@error?3?5illegal?5numeric?5value?5fo@ 0046a474     Export.obj
 0002:000014a4       ??_C@_07KCLLBNKA@Exports@  0046a4a4     Export.obj
 0002:000014ac       ??_C@_06NOPGBFOL@EXPORT@   0046a4ac     Export.obj
 0002:000014b4       ??_C@_07FLMNHPPG@exports@  0046a4b4     Export.obj
 0002:000014bc       ??_C@_0BB@OIHPIFOC@_ExportAddresses@ 0046a4bc     Export.obj
 0002:000014d0       ??_C@_0N@KDNDLIJG@_ExportNames@ 0046a4d0     Export.obj
 0002:000014e0       ??_C@_0BA@JDHIBPDI@_ExportOrdinals@ 0046a4e0     Export.obj
 0002:000014f0       ??_C@_0N@JKOCNDDI@_ExportName_@ 0046a4f0     Export.obj
 0002:00001500       ??_C@_0P@ILNLDLO@?5?5?$CFs?5?$DN?50x?$CF08X?6@ 0046a500     Export.obj
 0002:00001510       ??_C@_05LDOEBFOB@?5?5?$CFs?6@ 0046a510     Export.obj
 0002:00001518       ??_C@_0M@OJMEEIGH@?5?5?$CFs?5?9?$DO?5?$CFs?6@ 0046a518     Export.obj
 0002:00001528       ??_C@_0OBN@DFIKOIND@?$DM?$CBDOCTYPE?5HTML?5PUBLIC?5?$CC?9?1?1W3C?1?1@ 0046a528     HtmlReport.obj
 0002:00002348       ??_C@_0CLD@IKIOGOKJ@?$DMa?5id?$DN?8state_1?8?5href?$DN?8?$CD?8?5onclic@ 0046b348     HtmlReport.obj
 0002:00002600       ??_C@_0FH@MFJAHDAH@?$DM?1table?$DO?$DMp?$DO?$DMa?5href?$DN?8http?3?1?1crin@ 0046b600     HtmlReport.obj
 0002:00002660       ??_C@_03NKBOLEBK@0?41@     0046b660     HtmlReport.obj
 0002:00002664       ??_C@_03LOHCHBBO@0?45@     0046b664     HtmlReport.obj
 0002:00002668       ??_C@_01HIHLOKLC@1@        0046b668     HtmlReport.obj
 0002:0000266c       ??_C@_01FDFGLJHB@2@        0046b66c     HtmlReport.obj
 0002:00002670       ??_C@_01EKENIIDA@3@        0046b670     HtmlReport.obj
 0002:00002674       ??_C@_01BMBHCPLG@5@        0046b674     HtmlReport.obj
 0002:00002678       ??_C@_01COCBENDE@7@        0046b678     HtmlReport.obj
 0002:0000267c       ??_C@_01LAKCGALK@9@        0046b67c     HtmlReport.obj
 0002:00002680       ??_C@_02MIGHPNDL@12@       0046b680     HtmlReport.obj
 0002:00002684       ??_C@_08MCGACOPD@a?5lot?5of@ 0046b684     HtmlReport.obj
 0002:00002690       ??_C@_0BA@JEHJMEOJ@?$DMtd?$DO?$CGnbsp?$DL?$DM?1td?$DO@ 0046b690     HtmlReport.obj
 0002:000026a0       ??_C@_0DK@EAHBJDLG@?$DMtd?5title?$DN?8?$CF?42f?5bits?8?5style?$DN?8co@ 0046b6a0     HtmlReport.obj
 0002:000026dc       ??_C@_0DG@NMHIJMPK@?$DMtd?5title?$DN?8?$CF?42f?5bits?8?5style?$DN?8co@ 0046b6dc     HtmlReport.obj
 0002:00002714       ??_C@_0BG@JOBHPHPA@?$DMtd?$DO?$CGnbsp?$DL?$CGnbsp?$DL?$DM?1td?$DO@ 0046b714     HtmlReport.obj
 0002:0000272c       ??_C@_04KNINFIGH@?$DM?1a?$DO@ 0046b72c     HtmlReport.obj
 0002:00002734       ??_C@_04CDCBNPCK@?$CC?$CJ?8?$DO@ 0046b734     HtmlReport.obj
 0002:0000273c       ??_C@_0BN@FPCCAHJI@?8?5onclick?$DN?8recursiveExpand?$CI?$CC@ 0046b73c     HtmlReport.obj
 0002:0000275c       ??_C@_0L@LNIEBLFF@?$DMa?5href?$DN?8?$CD@ 0046b75c     HtmlReport.obj
 0002:00002768       ??_C@_07NIOOBAEF@?$CFs?$CL0x?$CFX@ 0046b768     HtmlReport.obj
 0002:00002770       ??_C@_07OLHPDFI@?$CFs?90x?$CFX@ 0046b770     HtmlReport.obj
 0002:00002778       ??_C@_02DKCKIIND@?$CFs@    0046b778     HtmlReport.obj
 0002:0000277c       ??_C@_02EMFKHFLK@?$CFX@    0046b77c     HtmlReport.obj
 0002:00002780       ??_C@_0P@PAANNPDA@?$DMp?$DO?$DMb?$DOOptions?3@ 0046b780     HtmlReport.obj
 0002:00002790       ??_C@_08FKEIAKLO@?$DM?1b?$DO?$DM?1p?$DO@ 0046b790     HtmlReport.obj
 0002:0000279c       ??_C@_0CD@PFGMPAEH@?$DMp?$DO?$DMb?$DOOutput?5file?5size?3?5?$CFd?$DM?1b?$DO?$DM@ 0046b79c     HtmlReport.obj
 0002:000027c0       ??_C@_0EO@HFODHDHN@?$DMp?$DO?$DMtable?$DO?$DMtr?$DO?$DMtd?5rowspan?$DN?82?8?$DO?$DM@ 0046b7c0     HtmlReport.obj
 0002:00002810       ??_C@_0CI@NBHHEKNB@?$DMtd?5bgcolor?$DN?8?$CD?$CF?46X?8?5colspan?$DN?82?8@ 0046b810     HtmlReport.obj
 0002:00002838       ??_C@_0BL@FKOPMDP@Less?5than?5?$CFs?5bits?5per?5byte@ 0046b838     HtmlReport.obj
 0002:00002854       ??_C@_0BL@EBJMDMMO@More?5than?5?$CFs?5bits?5per?5byte@ 0046b854     HtmlReport.obj
 0002:00002870       ??_C@_0CA@PIJKGMCH@Between?5?$CFs?5and?5?$CFs?5bits?5per?5byte@ 0046b870     HtmlReport.obj
 0002:00002890       ??_C@_0CA@KMIBAPHP@?8?$DO?$CGnbsp?$DL?$CGnbsp?$DL?$CGnbsp?$DL?$CGnbsp?$DL?$DM?1td?$DO@ 0046b890     HtmlReport.obj
 0002:000028b0       ??_C@_0CP@LADILKBG@?$DM?1tr?$DO?6?$DMtr?$DO?$DMtd?5colspan?$DN?82?8?5align@ 0046b8b0     HtmlReport.obj
 0002:000028e0       ??_C@_0CH@MBBKKJKK@?$DMtd?5colspan?$DN?82?8?5align?$DN?8center?8?$DO@ 0046b8e0     HtmlReport.obj
 0002:00002908       ??_C@_0BM@OOGBFKFJ@?$DMtd?$DO?$DM?1td?$DO?$DM?1tr?$DO?$DM?1table?$DO?$DM?1p?$DO?6@ 0046b908     HtmlReport.obj
 0002:00002924       ??_C@_0BD@IKLPMKPF@section_symbol_row@ 0046b924     HtmlReport.obj
 0002:00002938       ??_C@_01JLIPDDHJ@?3@       0046b938     HtmlReport.obj
 0002:0000293c       ??_C@_0BG@FDBOGFJO@oldsection_symbol_row@ 0046b93c     HtmlReport.obj
 0002:00002954       ??_C@_0BC@KPNHDKPL@public_symbol_row@ 0046b954     HtmlReport.obj
 0002:00002968       ??_C@_0BD@FCCCJELP@private_symbol_row@ 0046b968     HtmlReport.obj
 0002:00002980       ??_C@_0ED@LDIMPCFG@?$DMtr?$DO?$DMtd?5nowrap?5colspan?$DN?85?8?$DO?$DMdiv@ 0046b980     HtmlReport.obj
 0002:000029c4       ??_C@_05GLLHPCBI@?$CFc_?$CFd@ 0046b9c4     HtmlReport.obj
 0002:000029cc       ??_C@_0DH@BMGAPFG@?$DMtr?5class?$DN?8?$CFs_expandable?8?5oncli@ 0046b9cc     HtmlReport.obj
 0002:00002a04       ??_C@_0BA@HOIGAIHL@?$DMtr?5class?$DN?8?$CFs?8?$DO@ 0046ba04     HtmlReport.obj
 0002:00002a14       ??_C@_02HMHJGNPF@?8?$DO@   0046ba14     HtmlReport.obj
 0002:00002a18       ??_C@_07LEMCJFAN@?$DMa?5id?$DN?8@ 0046ba18     HtmlReport.obj
 0002:00002a20       ??_C@_06ODLOODK@?$CGnbsp?$DL@ 0046ba20     HtmlReport.obj
 0002:00002a28       ??_C@_01JOAMLHOP@?9@       0046ba28     HtmlReport.obj
 0002:00002a30       ??_C@_0EF@GMIFKEKK@?$DMth?5nowrap?5class?$DN?8c1?8?$DO?$CFs?$CF?48X?$CGnb@ 0046ba30     HtmlReport.obj
 0002:00002a78       ??_C@_0BO@KCLIEMLL@?$DMth?5nowrap?5class?$DN?8c3?8?$DO?$CFd?$DM?1th?$DO@ 0046ba78     HtmlReport.obj
 0002:00002a98       ??_C@_0EB@LHMNKFEC@?$DMth?5nowrap?5class?$DN?8c4?8?$DO?$CF?42f?$DM?1th?$DO@ 0046ba98     HtmlReport.obj
 0002:00002ae0       ??_C@_0ED@ENNALMDA@?$DMth?5nowrap?5class?$DN?8c4?8?$DO?$CGnbsp?$DL?$DM?1t@ 0046bae0     HtmlReport.obj
 0002:00002b28       ??_C@_0GE@PNKOMJMJ@?$DMth?5nowrap?5class?$DN?8c3?8?$DO?$CGnbsp?$DL?$DM?1t@ 0046bb28     HtmlReport.obj
 0002:00002b8c       ??_C@_05IMPJLBNH@?$DM?1tr?$DO@ 0046bb8c     HtmlReport.obj
 0002:00002b94       ??_C@_0BJ@EEDKFDKK@?$DM?1table?$DO?$DM?1div?$DO?$DM?1td?$DO?$DM?1tr?$DO@ 0046bb94     HtmlReport.obj
 0002:00002bb0       ??_C@_0EB@CHMDPCFL@?$DMtr?$DO?$DMtd?5nowrap?5colspan?$DN?85?8?$DO?$DMdiv@ 0046bbb0     HtmlReport.obj
 0002:00002bf4       ??_C@_0DE@JEIFIKMJ@?$DMtr?$DO?$DMtd?5nowrap?5colspan?$DN?85?8?$DO?$DMtab@ 0046bbf4     HtmlReport.obj
 0002:00002c28       ??_C@_04KPOBMNON@?$DMtr?$DO@ 0046bc28     HtmlReport.obj
 0002:00002c30       ??_C@_0DB@HMJBJNKD@?$DMtd?5nowrap?5class?$DN?8address?8?$DO?$CGnbs@ 0046bc30     HtmlReport.obj
 0002:00002c64       ??_C@_0DO@MBOEJFHP@?$DMtd?5nowrap?5colspan?$DN4?5class?$DN?8hex@ 0046bc64     HtmlReport.obj
 0002:00002ca4       ??_C@_0DH@OCLFEJIJ@?$DMtd?5nowrap?5title?$DN?8?$CF?42f?5bytes?8?5s@ 0046bca4     HtmlReport.obj
 0002:00002cdc       ??_C@_0BI@EJINHDDI@?$DM?1td?$DO?$DM?1tr?$DO?$DM?1table?$DO?$DM?1tr?$DO@ 0046bcdc     HtmlReport.obj
 0002:00002cf4       ??_C@_0DF@KHEGNKLP@?$DMtr?$DO?$DMtd?5nowrap?5class?$DN?8address?8?$DO@ 0046bcf4     HtmlReport.obj
 0002:00002d30       ??_C@_0EC@HPPEEHFH@?$DMtd?5title?$DN?8?$CF?42f?5bytes?8?5style?$DN?8c@ 0046bd30     HtmlReport.obj
 0002:00002d74       ??_C@_0BI@IJIGDMON@?$DM?1tr?$DO?$DM?1table?$DO?$DM?1td?$DO?$DM?1tr?$DO@ 0046bd74     HtmlReport.obj
 0002:00002d8c       ??_C@_06MAIPDONP@?$DM?1div?$DO@ 0046bd8c     HtmlReport.obj
 0002:00002d94       ??_C@_0BF@CABLKGGA@?$DM?1table?$DO?$CFs?$DM?1td?$DO?$DM?1tr?$DO@ 0046bd94     HtmlReport.obj
 0002:00002dac       ??_C@_0BN@CBFFAIMI@Cannot?5open?5file?5for?5writing@ 0046bdac     HtmlReport.obj
 0002:00002dcc       ??_C@_0BI@CFPLBAOH@invalid?5string?5position@ 0046bdcc     HtmlReport.obj
 0002:00002de4       __real@3b800000            0046bde4     HtmlReport.obj
 0002:00002de8       __real@42c80000            0046bde8     HtmlReport.obj
 0002:00002df0       ??_C@_02LMMGGCAJ@?3?5@     0046bdf0     Hunk.obj
 0002:00002df4       ??_C@_06DJFHFKB@__RTC_@    0046bdf4     Hunk.obj
 0002:00002dfc       ??_C@_0DI@KKLFJPNN@Disable?5?8Basic?5Runtime?5Checks?8?5@ 0046bdfc     Hunk.obj
 0002:00002e34       ??_C@_0BC@IBCJPMOM@__security_cookie@ 0046be34     Hunk.obj
 0002:00002e48       ??_C@_0DJ@PKOCGDPL@Disable?5?8Buffer?5Security?5Check?8@ 0046be48     Hunk.obj
 0002:00002e84       ??_C@_0BD@IDIIECKB@_crt_debugger_hook@ 0046be84     Hunk.obj
 0002:00002e98       ??_C@_0BN@EPFFOKHI@Define?5your?5own?5entry?5point?4@ 0046be98     Hunk.obj
 0002:00002eb8       ??_C@_06DCDKBOGN@__ftol@   0046beb8     Hunk.obj
 0002:00002ec0       ??_C@_0HE@NMINBAG@Suppress?5_ftol?5calls?5with?5the?5?1@ 0046bec0     Hunk.obj
 0002:00002f34       ??_C@_05DNADIBKB@__Cxx@    0046bf34     Hunk.obj
 0002:00002f3c       ??_C@_0BG@IPKNANKA@Don?8t?5use?5exceptions?4@ 0046bf3c     Hunk.obj
 0002:00002f54       ??_C@_0BI@CGHOEJPD@__imp_?$DP?$DP1exception?$EAstd?$EA@ 0046bf54     Hunk.obj
 0002:00002f6c       ??_C@_0P@CEGKDJBK@Don?8t?5use?5STL?4@ 0046bf6c     Hunk.obj
 0002:00002f7c       ??_C@_08GDBMFOGK@__alloca@ 0046bf7c     Hunk.obj
 0002:00002f88       ??_C@_08CEHLGEBN@__chkstk@ 0046bf88     Hunk.obj
 0002:00002f98       ??_C@_0FI@JKGMJPKK@Avoid?5declaring?5large?5arrays?5or@ 0046bf98     Hunk.obj
 0002:00002ff0       ??_C@_0CF@JMLMFMKL@Cannot?5find?5symbol?5?8?$CFs?8?4?6?5?$CK?5HIN@ 0046bff0     Hunk.obj
 0002:00003018       ??_C@_0BI@LMOJBKB@Cannot?5find?5symbol?5?8?$CFs?8@ 0046c018     Hunk.obj
 0002:00003030       ??_C@_04NBFCGMPH@root@     0046c030     Hunk.obj
 0002:00003038       ??_C@_0O@LFGBEDLC@Code?5sections@ 0046c038     Hunk.obj
 0002:00003048       ??_C@_0O@JGILHLLM@Data?5sections@ 0046c048     Hunk.obj
 0002:00003058       ??_C@_0BH@PGJNBNHN@Uninitialized?5sections@ 0046c058     Hunk.obj
 0002:00003070       ??_C@_06CIPIPFKB@?4dummy@  0046c070     Hunk.obj
 0002:00003078       ??_C@_03ELJPOBCB@tf_@      0046c078     Hunk.obj
 0002:0000307c       ??_C@_02JDNIPIGD@NA@       0046c07c     Hunk.obj
 0002:00003080       ??_C@_05CNONOOAN@tf?$CFd_@ 0046c080     Hunk.obj
 0002:00003088       ??_C@_0M@IJPGLJFH@__real?$EA?$CF16X@ 0046c088     Hunk.obj
 0002:00003094       ??_C@_04BANGNJGK@?$EA3NA@  0046c094     Hunk.obj
 0002:0000309c       ??_C@_0L@LEINBDPJ@__real?$EA?$CF8X@ 0046c09c     Hunk.obj
 0002:000030a8       ??_C@_04BCJAGHDD@?$EA3MA@  0046c0a8     Hunk.obj
 0002:000030b0       ??_C@_0DM@GLGIKEKA@?$CFs?$FL?$CFd?$FN?3?5?$CFf?5?$CI0x?$CF?48X?$CF?48X?564?5bits?$CJ@ 0046c0b0     Hunk.obj
 0002:000030ec       ??_C@_0DE@CPBAGIEP@?$CFs?$FL?$CFd?$FN?3?5?$CFf?5?$CI0x?$CF?48X?532?5bits?$CJ?5?9?$DO?5@ 0046c0ec     Hunk.obj
 0002:00003120       ??_C@_05NJJHCOAI@?$CFd_?$CFd@ 0046c120     Hunk.obj
 0002:00003128       ??_C@_0ED@KIJAKNE@Alignment?5label?5?8?$CFs?8?5outside?5le@ 0046c128     Hunk.obj
 0002:0000316c       ??_C@_0CO@JEOJGHOD@More?5than?5one?5alignment?5label?5i@ 0046c16c     Hunk.obj
 0002:0000319c       ??_C@_0DA@LMFIEOPJ@Alignment?5of?5section?5?8?$CFs?8?5overr@ 0046c19c     Hunk.obj
 0002:000031cc       ??_C@_05GAKFMAOJ@?5?$CL?5?$CFd@ 0046c1cc     Hunk.obj
 0002:000031d4       ??_C@_05OPOFDFEJ@?5?9?5?$CFd@ 0046c1d4     Hunk.obj
 0002:000031dc       ??_C@_0DJ@BDDGBENG@Alignment?5of?5section?5?8?$CFs?8?5overr@ 0046c1dc     Hunk.obj
 0002:00003218       ??_C@_0CB@PLFDACII@Virtual?5size?5overflows?52GB?5limi@ 0046c218     HunkList.obj
 0002:0000323c       ??_C@_0BC@KBDMBKEH@deque?$DMT?$DO?5too?5long@ 0046c23c     HunkList.obj
 0002:00003250       ??_C@_0CE@FLAJPMKA@Import?5?8?$CFs?8?5cannot?5be?5found?5in?5@ 0046c250     ImportHandler.obj
 0002:00003278       ??_C@_0HI@KGGMDAPG@Missing?5export?5table?5in?5?8?$CFs?8?6?6I@ 0046c278     ImportHandler.obj
 0002:000032f0       ??_C@_08PNLNEKOB@kernel32@ 0046c2f0     ImportHandler.obj
 0002:000032fc       ??_C@_06KMMDPPA@user32@    0046c2fc     ImportHandler.obj
 0002:00003304       ??_C@_0BM@MGJPOFFD@Could?5not?5find?5?8?$CFs?8?5in?5?8?$CFs?8@ 0046c304     ImportHandler.obj
 0002:00003320       ??_C@_01LFCBOECM@?4@       0046c320     ImportHandler.obj
 0002:00003328       ??_C@_0EF@ODLJMPNK@Import?5?8?$CFs?8?5from?5?8?$CFs?8?5uses?5forw@ 0046c328     ImportHandler.obj
 0002:00003370       ??_C@_0CN@CLANFMML@?6?9Imports?9?9?9?9?9?9?9?9?9?9?9?9?9?9?9?9?9?9?9?9?9?9@ 0046c370     ImportHandler.obj
 0002:000033a0       ??_C@_0P@FMEPPHNH@ImportListHunk@ 0046c3a0     ImportHandler.obj
 0002:000033b0       ??_C@_0BE@CKOBAAGC@Cyclic?5DLL?5fallback@ 0046c3b0     ImportHandler.obj
 0002:000033c4       ??_C@_03OFAPEBGM@?$CFs?6@  0046c3c4     ImportHandler.obj
 0002:000033c8       ??_C@_0BF@EFOAIGPG@?5?5ordinal?5range?5?$HL?6?5?5@ 0046c3c8     ImportHandler.obj
 0002:000033e0       ??_C@_0BO@NHPKOMKC@?5?5?$CFs?5?$CIordinal?5?$CFd?0?5hash?5?$CF08X?$CJ?6@ 0046c3e0     ImportHandler.obj
 0002:00003400       ??_C@_0BF@INBHFGBP@?5?5?5?5?$CFs?5?$CIordinal?5?$CFd?$CJ?6@ 0046c400     ImportHandler.obj
 0002:00003418       ??_C@_04POOIJLFB@?5?5?$HN?6@ 0046c418     ImportHandler.obj
 0002:00003420       ??_C@_0CP@CAGGDINB@No?5functions?5were?5imported?5from@ 0046c420     ImportHandler.obj
 0002:00003450       ??_C@_0DC@ENPNKFEL@No?5functions?5were?5imported?5from@ 0046c450     ImportHandler.obj
 0002:00003484       ??_C@_0M@JHDMMMGK@_ImportList@ 0046c484     ImportHandler.obj
 0002:00003490       ??_C@_0BA@EEJPNIEJ@crinkler?5import@ 0046c490     ImportHandler.obj
 0002:000034a0       ??_C@_04IEKGFKDD@?4bss@    0046c4a0     ImportHandler.obj
 0002:000034a8       ??_C@_08EDJIBDPO@DllNames@ 0046c4a8     ImportHandler.obj
 0002:000034b4       ??_C@_05LDKNOBJL@?4data@   0046c4b4     ImportHandler.obj
 0002:000034bc       ??_C@_09DIMPOJCJ@_DLLNames@ 0046c4bc     ImportHandler.obj
 0002:000034c8       ??_C@_0DJ@BAPKNBKF@Kernel32?5needs?5to?5be?5linked?5for@ 0046c4c8     ImportHandler.obj
 0002:00003504       ??_C@_0CM@KNMIMJFD@Could?5not?5find?5collision?9free?5h@ 0046c504     ImportHandler.obj
 0002:00003530       ??_C@_0BA@KLDDALIO@_HashMultiplier@ 0046c530     ImportHandler.obj
 0002:00003540       ??_C@_0BD@JLCPCPCI@?5?5?$CFs?5?$CIordinal?5?$CFd?$CJ?6@ 0046c540     ImportHandler.obj
 0002:00003558       ??_C@_0BGP@BIBPFOA@?6Note?3?5Programs?5linked?5using?5th@ 0046c558     ImportHandler.obj
 0002:000036c8       ??_C@_0FN@LHLFECAA@Link?9time?5code?5generation?5is?5no@ 0046c6c8     LTCGLoader.obj
 0002:00003728       ??_7Transform@@6B@         0046c728     main.obj
 0002:00003734       ??_7IdentityTransform@@6B@ 0046c734     main.obj
 0002:00003740       ??_C@_03MPPIHBHJ@OFF@      0046c740     main.obj
 0002:00003744       ??_C@_05BNMCNACD@WRITE@    0046c744     main.obj
 0002:0000374c       ??_C@_07OBMGNIJM@IMPROVE@  0046c74c     main.obj
 0002:00003754       ??_C@_06EHLBLHOB@STABLE@   0046c754     main.obj
 0002:0000375c       ??_7CmdParam@@6B@          0046c75c     main.obj
 0002:00003768       ??_7CallTransform@@6B@     0046c768     main.obj
 0002:00003774       ??_C@_01KDCPPGHE@r@        0046c774     main.obj
 0002:00003778       ??_C@_01KICIPPFI@?2@       0046c778     main.obj
 0002:0000377c       ??_C@_01ICJEACDI@?$DL@     0046c77c     main.obj
 0002:00003780       ??_C@_08MEDCHDM@SYSWOW64@  0046c780     main.obj
 0002:0000378c       ??_C@_04HGBGCCEA@?4DLL@    0046c78c     main.obj
 0002:00003794       ??_C@_04HBHDLLBA@PATH@     0046c794     main.obj
 0002:0000379c       ??_C@_0BF@MOPLNHCG@Cannot?5find?5DLL?5?8?$CFs?8@ 0046c79c     main.obj
 0002:000037b4       ??_C@_0CD@PMIBFDPD@Launching?5default?5linker?5at?5?8?$CFs@ 0046c7b4     main.obj
 0002:000037d8       ??_C@_0CP@FFMLIGOI@Failed?5to?5launch?5default?5linker@ 0046c7d8     main.obj
 0002:00003808       ??_C@_0CI@HMJCGCDA@Cannot?5find?5default?5linker?5?8?$CFs?8@ 0046c808     main.obj
 0002:00003830       ??_C@_0L@FCHOOCIF@size?5in?5mb@ 0046c830     main.obj
 0002:0000383c       ??_C@_0CA@LDLACMBJ@number?5of?5megabytes?5for?5hashing@ 0046c83c     main.obj
 0002:0000385c       ??_C@_08BNDHEBJM@HASHSIZE@ 0046c85c     main.obj
 0002:00003868       ??_C@_0BI@CICDDLBO@number?5of?5hashing?5tries@ 0046c868     main.obj
 0002:00003880       ??_C@_09CAKLIIOD@HASHTRIES@ 0046c880     main.obj
 0002:0000388c       ??_C@_0CD@NCCNPDGM@number?5of?5section?5reordering?5tr@ 0046c88c     main.obj
 0002:000038b0       ??_C@_0L@OOHHBDBC@ORDERTRIES@ 0046c8b0     main.obj
 0002:000038bc       ??_C@_04MLOLHOPP@bits@     0046c8bc     main.obj
 0002:000038c4       ??_C@_0BB@BKBGAGED@truncates?5floats@ 0046c8c4     main.obj
 0002:000038d8       ??_C@_0P@LCDKPBJ@TRUNCATEFLOATS@ 0046c8d8     main.obj
 0002:000038e8       ??_C@_0CP@GJFGKOMD@override?5section?5alignments?5usi@ 0046c8e8     main.obj
 0002:00003918       ??_C@_0BD@DPAHOGMI@OVERRIDEALIGNMENTS@ 0046c918     main.obj
 0002:0000392c       ??_C@_0CG@CFCOMBPD@force?5alignment?5of?5code?5section@ 0046c92c     main.obj
 0002:00003954       ??_C@_0M@EJIHLHGL@UNALIGNCODE@ 0046c954     main.obj
 0002:00003960       ??_C@_0CK@BKBAGIBO@Do?5not?5implicitly?5link?5to?5runti@ 0046c960     main.obj
 0002:0000398c       ??_C@_0N@LIIALNB@NODEFAULTLIB@ 0046c98c     main.obj
 0002:0000399c       ??_C@_06OJHAJCPM@symbol@   0046c99c     main.obj
 0002:000039a4       ??_C@_0BH@LKAIGBLI@name?5of?5the?5entrypoint@ 0046c9a4     main.obj
 0002:000039bc       ??_C@_05LGEFKHJN@ENTRY@    0046c9bc     main.obj
 0002:000039c4       ??_C@_07INJEBCIE@out?4exe@ 0046c9c4     main.obj
 0002:000039cc       ??_C@_08BABJIOEM@filename@ 0046c9cc     main.obj
 0002:000039d8       ??_C@_0BA@GMKDMLLC@output?5filename@ 0046c9d8     main.obj
 0002:000039e8       ??_C@_03KJGMBMID@OUT@      0046c9e8     main.obj
 0002:000039ec       ??_C@_0BF@EDFELLKN@report?5html?5filename@ 0046c9ec     main.obj
 0002:00003a04       ??_C@_06MDMHKGOO@REPORT@   0046ca04     main.obj
 0002:00003a0c       ??_C@_0BE@BOAJNIMO@reuse?5html?5filename@ 0046ca0c     main.obj
 0002:00003a20       ??_C@_05IAEPPEKA@REUSE@    0046ca20     main.obj
 0002:00003a28       ??_C@_0BC@MDKBPKAJ@select?5reuse?5mode@ 0046ca28     main.obj
 0002:00003a3c       ??_C@_09PMHGFICM@REUSEMODE@ 0046ca3c     main.obj
 0002:00003a48       ??_C@_0BB@NLHGIGJH@enables?5Crinkler@ 0046ca48     main.obj
 0002:00003a5c       ??_C@_08NBGIFLO@CRINKLER@  0046ca5c     main.obj
 0002:00003a68       ??_C@_0BL@KDMHAFCC@recompress?5a?5Crinkler?5file@ 0046ca68     main.obj
 0002:00003a84       ??_C@_0L@ODLMLPAF@RECOMPRESS@ 0046ca84     main.obj
 0002:00003a90       ??_C@_0BK@BICCGAJK@crash?5if?5a?5DLL?5is?5missing@ 0046ca90     main.obj
 0002:00003aac       ??_C@_0N@EJHDPEHI@UNSAFEIMPORT@ 0046caac     main.obj
 0002:00003abc       ??_C@_0BO@DEOBMNFN@show?5a?5graphical?5progress?5bar@ 0046cabc     main.obj
 0002:00003adc       ??_C@_0M@PEFHCMCO@PROGRESSGUI@ 0046cadc     main.obj
 0002:00003ae8       ??_C@_0BA@NPLEEBJB@use?5tiny?5header@ 0046cae8     main.obj
 0002:00003af8       ??_C@_0L@MFMBJCAI@TINYHEADER@ 0046caf8     main.obj
 0002:00003b04       ??_C@_0BA@FACCODAI@use?5tiny?5import@ 0046cb04     main.obj
 0002:00003b14       ??_C@_0L@EKFHDAJB@TINYIMPORT@ 0046cb14     main.obj
 0002:00003b20       ??_C@_0BB@FPDDHNCG@select?5subsystem@ 0046cb20     main.obj
 0002:00003b34       ??_C@_09CMMNJCPD@SUBSYSTEM@ 0046cb34     main.obj
 0002:00003b40       ??_C@_0BL@LPDGJFAG@allow?5addresses?5beyond?52gb@ 0046cb40     main.obj
 0002:00003b5c       ??_C@_0BC@GFFPJKLJ@LARGEADDRESSAWARE@ 0046cb5c     main.obj
 0002:00003b70       ??_C@_06IOJAGNKJ@NORMAL@   0046cb70     main.obj
 0002:00003b78       ??_C@_0M@MJCADJFN@BELOWNORMAL@ 0046cb78     main.obj
 0002:00003b84       ??_C@_04IMMGDCFE@IDLE@     0046cb84     main.obj
 0002:00003b8c       ??_C@_0BA@OOKOELKN@select?5priority@ 0046cb8c     main.obj
 0002:00003b9c       ??_C@_08PHDJDNOC@PRIORITY@ 0046cb9c     main.obj
 0002:00003ba8       ??_C@_08MGEFONHF@VERYSLOW@ 0046cba8     main.obj
 0002:00003bb4       ??_C@_04BJJAFLBC@SLOW@     0046cbb4     main.obj
 0002:00003bbc       ??_C@_04HNOLJCOK@FAST@     0046cbbc     main.obj
 0002:00003bc4       ??_C@_0BB@JFOBKLLA@compression?5mode@ 0046cbc4     main.obj
 0002:00003bd8       ??_C@_08LOIPFCFD@COMPMODE@ 0046cbd8     main.obj
 0002:00003be4       ??_C@_06FAOOKADE@MODELS@   0046cbe4     main.obj
 0002:00003bec       ??_C@_07MENJGFFE@IMPORTS@  0046cbec     main.obj
 0002:00003bf4       ??_C@_06EDNDDPFA@LABELS@   0046cbf4     main.obj
 0002:00003bfc       ??_C@_05IJDJACGD@print@    0046cbfc     main.obj
 0002:00003c04       ??_C@_05ECKPOFCN@PRINT@    0046cc04     main.obj
 0002:00003c0c       ??_C@_05JLLGMKNB@CALLS@    0046cc0c     main.obj
 0002:00003c14       ??_C@_0BH@JCEMALDI@select?5transformations@ 0046cc14     main.obj
 0002:00003c2c       ??_C@_09LFBMEAFB@TRANSFORM@ 0046cc2c     main.obj
 0002:00003c38       ??_C@_0CP@CCJMKAEL@saturate?5counters?5?$CIfor?5highly?5r@ 0046cc38     main.obj
 0002:00003c68       ??_C@_08LLAHJOKO@SATURATE@ 0046cc68     main.obj
 0002:00003c74       ??_C@_04EACGPHON@dirs@     0046cc74     main.obj
 0002:00003c7c       ??_C@_0CH@KGGELHMF@adds?5a?5path?5to?5the?5library?5sear@ 0046cc7c     main.obj
 0002:00003ca4       ??_C@_07DPECNPAL@LIBPATH@  0046cca4     main.obj
 0002:00003cac       ??_C@_07EBPJLM@dllname@    0046ccac     main.obj
 0002:00003cb4       ??_C@_0CB@PGGCGOFL@use?5range?5importing?5for?5this?5dl@ 0046ccb4     main.obj
 0002:00003cd8       ??_C@_05OJPIIJFC@RANGE@    0046ccd8     main.obj
 0002:00003ce0       ??_C@_0O@HGBBJMIA@oldDLL?$DNnewDLL@ 0046cce0     main.obj
 0002:00003cf0       ??_C@_0BL@ILMDFAPN@replace?5a?5dll?5with?5another@ 0046ccf0     main.obj
 0002:00003d0c       ??_C@_0L@KMABKDH@REPLACEDLL@ 0046cd0c     main.obj
 0002:00003d18       ??_C@_0BC@CPKOELLF@firstDLL?$DNotherDLL@ 0046cd18     main.obj
 0002:00003d2c       ??_C@_0CP@LAEPPGIA@try?5opening?5another?5dll?5if?5the?5@ 0046cd2c     main.obj
 0002:00003d5c       ??_C@_0M@OOIDOLJC@FALLBACKDLL@ 0046cd5c     main.obj
 0002:00003d68       ??_C@_0BB@CCMAINCA@name?$DNvalue?1label@ 0046cd68     main.obj
 0002:00003d7c       ??_C@_0BF@JPNNMKBM@export?5value?5by?5name@ 0046cd7c     main.obj
 0002:00003d94       ??_C@_0BP@BBKNDHHC@remove?5exports?5from?5executable@ 0046cd94     main.obj
 0002:00003db4       ??_C@_0N@HHNEGJKM@STRIPEXPORTS@ 0046cdb4     main.obj
 0002:00003dc4       ??_C@_0CA@LGJAJNGP@do?5not?5run?5dynamic?5initializers@ 0046cdc4     main.obj
 0002:00003de4       ??_C@_0P@PKAEJKEI@NOINITIALIZERS@ 0046cde4     main.obj
 0002:00003df4       ??_C@_0BC@MJACHCBK@list?5of?5filenames@ 0046cdf4     main.obj
 0002:00003e08       ??_C@_05PENKCLCM@FILES@    0046ce08     main.obj
 0002:00003e10       ??_C@_0EO@NCNFJNGO@Crinkler?52?43?5?$CIJul?521?52020?$CJ?5?$CIc?$CJ?5@ 0046ce10     main.obj
 0002:00003e60       ??_C@_09LGMDKBDL@?1CRINKLER@ 0046ce60     main.obj
 0002:00003e6c       ??_C@_0N@EFOANEIK@CRINKLER?4EXE@ 0046ce6c     main.obj
 0002:00003e7c       ??_C@_0M@JJELIMAP@?1RECOMPRESS@ 0046ce7c     main.obj
 0002:00003e88       ??_C@_07EKNIKJFJ@?$CKdummy?$CK@ 0046ce88     main.obj
 0002:00003e90       ??_C@_0DH@OCOFFDMA@Crinkler?5recompression?5takes?5ex@ 0046ce90     main.obj
 0002:00003ec8       ??_C@_0M@BKKINIEH@Source?3?5?$CFs?6@ 0046cec8     main.obj
 0002:00003ed4       ??_C@_0M@DPALJIHE@Target?3?5?$CFs?6@ 0046ced4     main.obj
 0002:00003ee0       ??_C@_0CJ@CMMFFNNK@Subsystem?5type?3?5Inherited?5from?5@ 0046cee0     main.obj
 0002:00003f0c       ??_C@_0BE@FFGCEKON@Subsystem?5type?3?5?$CFs?6@ 0046cf0c     main.obj
 0002:00003f20       ??_C@_0CO@FNGBFOEK@Large?5address?5aware?3?5Inherited?5@ 0046cf20     main.obj
 0002:00003f50       ??_C@_0BJ@ENJHDKLP@Large?5address?5aware?3?5?$CFs?6@ 0046cf50     main.obj
 0002:00003f6c       ??_C@_0DC@COMOFJIP@Compression?5mode?3?5Models?5inheri@ 0046cf6c     main.obj
 0002:00003fa0       ??_C@_0BG@PJLAKKFL@Compression?5mode?3?5?$CFs?6@ 0046cfa0     main.obj
 0002:00003fb8       ??_C@_0CM@GHLEEMDO@Saturate?5counters?3?5Inherited?5fr@ 0046cfb8     main.obj
 0002:00003fe4       ??_C@_0BH@EOEGDKPD@Saturate?5counters?3?5?$CFs?6@ 0046cfe4     main.obj
 0002:00003ffc       ??_C@_0CE@FEDGELOP@Hash?5size?3?5Inherited?5from?5origi@ 0046cffc     main.obj
 0002:00004020       ??_C@_0BC@IDEHGKPJ@Hash?5size?3?5?$CFd?5MB?6@ 0046d020     main.obj
 0002:00004034       ??_C@_0BA@CANCPPLG@Hash?5tries?3?5?$CFd?6@ 0046d034     main.obj
 0002:00004044       ??_C@_04OKGDLNCL@NONE@     0046d044     main.obj
 0002:0000404c       ??_C@_0M@KJLMAEAB@Report?3?5?$CFs?6@ 0046d04c     main.obj
 0002:00004058       ??_C@_0P@EFMGCAGH@Replace?5DLLs?3?5@ 0046d058     main.obj
 0002:00004068       ??_C@_02KEGNLNML@?0?5@     0046d068     main.obj
 0002:0000406c       ??_C@_08DHHJCFN@?$CFs?5?9?$DO?5?$CFs@ 0046d06c     main.obj
 0002:00004078       ??_C@_0EK@JCGIPFDA@In?5recompression?0?5a?5DLL?5can?5onl@ 0046d078     main.obj
 0002:000040c4       ??_C@_09HBHJDGGP@Exports?3?5@ 0046d0c4     main.obj
 0002:000040d0       ??_C@_0M@EKKKJBFI@Strip?5away?6@ 0046d0d0     main.obj
 0002:000040dc       ??_C@_0BE@OOHGPPMD@Keep?5from?5original?6@ 0046d0dc     main.obj
 0002:000040f0       ??_C@_0BH@CMDCKGDH@Strip?5and?5replace?5by?3?6@ 0046d0f0     main.obj
 0002:00004108       ??_C@_0BJ@ECIKKGFA@Keep?5and?5supplement?5by?3?6@ 0046d108     main.obj
 0002:00004124       ??_C@_0DN@EMGFAOFL@Export?5stripping?5can?5only?5be?5pe@ 0046d124     main.obj
 0002:00004164       ??_C@_0CP@NFGOFBDF@Transforms?5are?5not?5supported?5wi@ 0046d164     main.obj
 0002:00004194       ??_C@_0BF@LDGAIPPM@Tiny?5compressor?3?5?$CFs?6@ 0046d194     main.obj
 0002:000041ac       ??_C@_0BB@EBNBECOF@Tiny?5import?3?5?$CFs?6@ 0046d1ac     main.obj
 0002:000041c0       ??_C@_0BB@LIEGOFBN@Order?5tries?3?5?$CFd?6@ 0046d1c0     main.obj
 0002:000041d4       ??_C@_0BA@HODJNJO@Reuse?5mode?3?5?$CFs?6@ 0046d1d4     main.obj
 0002:000041e4       ??_C@_0BA@FPPMAEFG@Reuse?5file?3?5?$CFs?6@ 0046d1e4     main.obj
 0002:000041f4       ??_C@_0CF@NFOCDHEA@Reuse?5mode?3?5OFF?5?$CIno?5file?5specif@ 0046d1f4     main.obj
 0002:0000421c       ??_C@_0BA@JIMHENII@Transforms?3?5?$CFs?6@ 0046d21c     main.obj
 0002:0000422c       ??_C@_0BA@HPIDNEIO@Fallback?5DLLs?3?5@ 0046d22c     main.obj
 0002:0000423c       ??_C@_0N@GEJOHKAJ@Range?5DLLs?3?5@ 0046d23c     main.obj
 0002:0000424c       ??_C@_08PDNNMGIM@Exports?3@ 0046d24c     main.obj
 0002:00004258       ??_C@_02KCAFKDJ@?$DP?3@    0046d258     main.obj
 0002:0000425c       ??_C@_03LCHNFMKO@LIB@      0046d25c     main.obj
 0002:00004260       ??_C@_0BH@GJNDOEMB@Cannot?5open?5file?5?8?$CFs?8?6@ 0046d260     main.obj
 0002:00004278       ??_C@_0P@EGIKPAOL@Loading?5?$CFs?4?4?4?6@ 0046d278     main.obj
 0002:00004288       ??_C@_0N@MGJADCGC@Linking?4?4?4?6?6@ 0046d288     main.obj
 0002:00004298       ??_C@_0BG@MNCKNEOD@time?5spent?3?5?$CFdm?$CF02ds?6@ 0046d298     main.obj
 0002:000042b0       ??_C@_08CIGKLNEF@?5?$CFx?3?$CFd?$CFn@ 0046d2b0     Reuse.obj
 0002:000042bc       ??_C@_0O@KJDGMLOA@?$CD?5Code?5models@ 0046d2bc     Reuse.obj
 0002:000042cc       ??_C@_0O@PFJKNJIN@?$CD?5Data?5models@ 0046d2cc     Reuse.obj
 0002:000042dc       ??_C@_0BA@DOFDIADB@?$CD?5Code?5sections@ 0046d2dc     Reuse.obj
 0002:000042ec       ??_C@_0BA@BNLJLIDP@?$CD?5Data?5sections@ 0046d2ec     Reuse.obj
 0002:000042fc       ??_C@_0BJ@BGOHDBED@?$CD?5Uninitialized?5sections@ 0046d2fc     Reuse.obj
 0002:00004318       ??_C@_0BC@JPHNLAJO@?$CD?5Hash?5table?5size@ 0046d318     Reuse.obj
 0002:0000432c       ??_C@_0BL@IKFBKLJI@Unknown?5reuse?5file?5tag?3?5?$CFs@ 0046d32c     Reuse.obj
 0002:00004348       ??_C@_03EBJOKFHF@?5?$CFd@  0046d348     Reuse.obj
 0002:0000434c       ??_C@_01NOFIACDB@w@        0046d34c     Reuse.obj
 0002:00004350       ??_C@_04EINJHBMM@?6?$CFs?6@ 0046d350     Reuse.obj
 0002:00004358       ??_C@_03PMGGPEJJ@?$CFd?6@  0046d358     Reuse.obj
 0002:0000435c       ??_C@_0BG@PGNNGALE@?6?$CFs?3?5warning?5LNK?3?5?$CFs?6@ 0046d35c     Log.obj
 0002:00004374       ??_C@_0BF@DBAAIJEK@?6?$CFs?3?5error?5LNK?3?5?$CFs?6?6@ 0046d374     Log.obj
 0002:0000438c       ??_C@_0BD@IMHGKAID@?6?$CFs?3?5error?5LNK?3?5?$CFs@ 0046d38c     Log.obj
 0002:000043a0       ??_C@_0BC@BADGLCAK@dump?$CF04d_mini?4dmp@ 0046d3a0     MiniDump.obj
 0002:000043b4       ??_C@_0BC@HOCFIICJ@dump?$CF04d_full?4dmp@ 0046d3b4     MiniDump.obj
 0002:000043c8       ??_C@_0DP@BPGMONP@?6Oops?$CB?5Crinkler?5has?5crashed?4?6Du@ 0046d3c8     MiniDump.obj
 0002:00004408       ??_C@_04OEDFLLKD@?$CC?$CFs?$CC@ 0046d408     CmdLineInterface.obj
 0002:00004410       ??_C@_0CD@LGKDAJJK@error?3?5argument?5must?5be?5non?9emp@ 0046d410     CmdLineInterface.obj
 0002:00004434       ??_C@_0DN@HCBPNOCD@error?3?5error?5parsing?5token?3?5?8?$CFs@ 0046d434     CmdLineInterface.obj
 0002:00004478       ??_C@_0EJ@CGCGONPG@error?3?5error?5parsing?5token?3?5?8?$CFs@ 0046d478     CmdLineInterface.obj
 0002:000044c4       ??_C@_0DI@LJKDAEPJ@error?3?5parameter?5cannot?5be?5defi@ 0046d4c4     CmdLineInterface.obj
 0002:000044fc       ??_C@_0CE@MJPNPCMK@error?3?5cannot?5parse?5token?5?8?$CFs?8?3@ 0046d4fc     CmdLineInterface.obj
 0002:00004520       ??_C@_0CA@IJDPKHAC@Ignoring?5unknown?5argument?5?8?$CFs?8?6@ 0046d520     CmdLineInterface.obj
 0002:00004540       ??_C@_04LOAOMKLI@?$CFs?6?6@ 0046d540     CmdLineInterface.obj
 0002:00004548       ??_C@_0O@IGHNBNGC@?5?5?5options?3?6?6@ 0046d548     CmdLineInterface.obj
 0002:00004558       ??_C@_09BKMLAGIN@?5?5?5?5?5?5?$CFs?6@ 0046d558     CmdLineInterface.obj
 0002:00004564       ??_C@_07LFFNHEBN@?$CFs?$FL?3?$CFs?$FN@ 0046d564     CmdParam.obj
 0002:0000456c       ??_C@_05CCMOGDN@?$CFs?3?$CFs@ 0046d56c     CmdParam.obj
 0002:00004574       ??_C@_08FEPILOB@?1?$CF?924s?$CFs@ 0046d574     CmdParam.obj
 0002:00004580       ??_7CmdParamFlags@@6B@     0046d580     CmdParamFlags.obj
 0002:0000458c       ??_C@_01HCONENDN@?$HL@     0046d58c     CmdParamFlags.obj
 0002:00004590       ??_C@_01DNKMNLPK@?$HM@     0046d590     CmdParamFlags.obj
 0002:00004594       ??_C@_0BE@LHFMHEMF@unknown?5argument?5?$CFs@ 0046d594     CmdParamFlags.obj
 0002:000045a8       ??_7CmdParamInt@@6B@       0046d5a8     CmdParamInt.obj
 0002:000045b4       ??_C@_04PEOOHEKN@?$CFd?$CFc@ 0046d5b4     CmdParamInt.obj
 0002:000045bc       ??_C@_0DA@BNKHLCAG@argument?5is?5not?5within?5the?5lega@ 0046d5bc     CmdParamInt.obj
 0002:000045ec       ??_C@_0BK@HJCFFFKP@expected?5integer?5argument@ 0046d5ec     CmdParamInt.obj
 0002:00004608       ??_7CmdParamMultiAssign@@6B@ 0046d608     CmdParamMultiAssign.obj
 0002:00004614       ??_C@_0BN@MOMEBLFE@identifier?5must?5be?5non?5empty@ 0046d614     CmdParamMultiAssign.obj
 0002:00004634       ??_C@_0BP@BLCEBHPL@argument?5must?5be?5an?5assignment@ 0046d634     CmdParamMultiAssign.obj
 0002:00004654       ??_C@_0CN@CDCELBAI@argument?5must?5contain?5exactly?5o@ 0046d654     CmdParamMultiAssign.obj
 0002:00004684       ??_7CmdParamString@@6B@    0046d684     CmdParamString.obj
 0002:00004690       ??_7CmdParamSwitch@@6B@    0046d690     CmdParamSwitch.obj
 0002:0000469c       ??_7HunkLoader@@6B@        0046d69c     CoffLibraryLoader.obj
 0002:000046a8       ??_7CoffObjectLoader@@6B@  0046d6a8     CoffLibraryLoader.obj
 0002:000046b4       ??_C@_0BB@JBINBAHL@?1?5?5?5?5?5?5?5?5?5?5?5?5?5?5?5@ 0046d6b4     CoffLibraryLoader.obj
 0002:000046c8       ??_C@_05LJNAGFEK@?$CFs?$HM?$CFd@ 0046d6c8     CoffLibraryLoader.obj
 0002:000046d0       ??_C@_09LGGENLMM@stub_for_@ 0046d6d0     CoffLibraryLoader.obj
 0002:000046dc       ??_C@_0BA@OBIGDAID@c?$FL?$CFs?$FN?$CBconstants@ 0046d6dc     CoffObjectLoader.obj
 0002:000046ec       ??_C@_0N@EKICPMOH@h?$FL?$CFs?$FN?$CI?$CFd?$CJ?$CB?$CFs@ 0046d6ec     CoffObjectLoader.obj
 0002:000046fc       ??_C@_0N@PGOCCEEK@l?$FL?$CFs?$CI?$CFd?$CJ?$FN?$CB?$CFs@ 0046d6fc     CoffObjectLoader.obj
 0002:0000470c       ??_C@_08FJCEIGBA@u?$FL?$CFs?$FN?$CB?$CFs@ 0046d70c     CoffObjectLoader.obj
 0002:00004718       ??_7MultiLoader@@6B@       0046d718     MultiLoader.obj
 0002:00004724       ??_7CoffLibraryLoader@@6B@ 0046d724     MultiLoader.obj
 0002:00004730       ??_7LTCGLoader@@6B@        0046d730     MultiLoader.obj
 0002:0000473c       ??_C@_0BK@NNAEOHAJ@?6?6Reordering?5sections?4?4?4?6@ 0046d73c     EmpiricalHunkSorter.obj
 0002:00004758       ??_C@_0BP@NOOIOFJD@?5?5Iteration?3?5?$CF5d?5?5Size?3?5?$CF5?42f?6@ 0046d758     EmpiricalHunkSorter.obj
 0002:00004778       ??_C@_0DG@BGBNNDBG@?5?5Iteration?3?5?$CF5d?5?5Code?3?5?$CF?42f?5?5D@ 0046d778     EmpiricalHunkSorter.obj
 0002:000047b0       ??_C@_0BE@DIGLOIJK@Reordering?5sections@ 0046d7b0     EmpiricalHunkSorter.obj
 0002:000047c4       ??_C@_0BG@EFLFEGCA@Time?5spent?3?5?$CFdm?$CF02ds?6@ 0046d7c4     EmpiricalHunkSorter.obj
 0002:000047dc       ??_C@_0BB@JECAAK@call?5detransform@ 0046d7dc     CallTransform.obj
 0002:000047f0       ??_C@_0BD@JCJENKGJ@call?5detransformer@ 0046d7f0     CallTransform.obj
 0002:00004804       ??_C@_0L@FLDFHIOH@_CallTrans@ 0046d804     CallTransform.obj
 0002:00004810       ??_C@_0BI@FBALKNOI@?6Calls?5transformed?3?5?$CFd?6@ 0046d810     CallTransform.obj
 0002:00004828       ??_C@_0P@DHLDHFFF@_CallTransSize@ 0046d828     CallTransform.obj
 0002:00004838       ??_C@_0CL@DLNPOEHI@No?5calls?5?9?5call?5transformation?5@ 0046d838     CallTransform.obj
 0002:00004864       ??_C@_04KHMCCJKM@Stub@     0046d864     Transform.obj
 0002:0000486c       ??_C@_08PHGBCJAH@?6?$HM?9?9?5?$CFs?5@ 0046d86c     ConsoleProgressBar.obj
 0002:00004878       ??_C@_02KHLKFPFD@?$HM?6@   0046d878     ConsoleProgressBar.obj
 0002:0000487c       ??_C@_0M@PIHHDJKD@?5?$CF3dm?$CF02ds?6@ 0046d87c     ConsoleProgressBar.obj
 0002:00004888       ??_C@_09DMMGBKDP@?$CFd?$CF?$CF?5?9?5?$CFs@ 0046d888     WindowProgressBar.obj
 0002:00004894       ??_C@_09PLNDHFIO@?$CF3dm?$CF02ds@ 0046d894     WindowProgressBar.obj
 0002:000048a0       ??_C@_01CLKCMJKC@?5@       0046d8a0     Compressor:ModelList.obj
 0002:000048a4       ??_C@_09IEIKHJKM@?$CFs?$CF02X?3?$CFd@ 0046d8a4     Compressor:ModelList.obj
 0002:000048b0       ??_C@_0CO@LGBKBLBJ@Models?3?5?$CF08X?5?5?5Boost?3?5?$CFd?5?5BaseP@ 0046d8b0     Compressor:ModelList.obj
 0002:000048f0       __xmm@711705110d0b071303171d1f25292b2f 0046d8f0     Compressor:CompressionStream.obj
 0002:00004900       ??_C@_07NFANNNEC@UNKNOWN@  0046d900     Compressor:Compressor.obj
 0002:0000490c       ??_7?$_Func_impl_no_alloc@P6A_JXZ_J$$V@std@@6B@ 0046d90c     Compressor:CompressionStateEvaluator.obj
 0002:00004930       __xmm@007fffff007fffff007fffff007fffff 0046d930     Compressor:CompressionStateEvaluator.obj
 0002:00004940       __xmm@3e230a963e230a963e230a963e230a96 0046d940     Compressor:CompressionStateEvaluator.obj
 0002:00004950       __xmm@3f8000003f8000003f8000003f800000 0046d950     Compressor:CompressionStateEvaluator.obj
 0002:00004960       __xmm@3fb620733fb620733fb620733fb62073 0046d960     Compressor:CompressionStateEvaluator.obj
 0002:00004970       __xmm@45800000458000004580000045800000 0046d970     Compressor:CompressionStateEvaluator.obj
 0002:00004980       __xmm@bf15038cbf15038cbf15038cbf15038c 0046d980     Compressor:CompressionStateEvaluator.obj
 0002:00004994       ??_7exception@std@@6B@     0046d994     libcpmt:xthrow.obj
 0002:000049a0       ??_7bad_alloc@std@@6B@     0046d9a0     libcpmt:xthrow.obj
 0002:000049ac       ??_7logic_error@std@@6B@   0046d9ac     libcpmt:xthrow.obj
 0002:000049b8       ??_7invalid_argument@std@@6B@ 0046d9b8     libcpmt:xthrow.obj
 0002:000049c4       ??_7length_error@std@@6B@  0046d9c4     libcpmt:xthrow.obj
 0002:000049d0       ??_7out_of_range@std@@6B@  0046d9d0     libcpmt:xthrow.obj
 0002:000049dc       ??_7runtime_error@std@@6B@ 0046d9dc     libcpmt:xthrow.obj
 0002:000049e8       ??_7bad_function_call@std@@6B@ 0046d9e8     libcpmt:xthrow.obj
 0002:000049f0       ??_C@_0BC@DPJNKNAF@bad?5function?5call@ 0046d9f0     libcpmt:xthrow.obj
 0002:00004a08       ?s_bucketSizes@SubAllocator@details@Concurrency@@0QBHB 0046da08     libconcrt:SubAllocator.obj
 0002:00004b88       ?GranularityShift@SubAllocator@details@Concurrency@@0HB 0046db88     libconcrt:SubAllocator.obj
 0002:00004b8c       ?MaxAllocationSize@SubAllocator@details@Concurrency@@0HB 0046db8c     libconcrt:SubAllocator.obj
 0002:00004b94       ??_7improper_lock@Concurrency@@6B@ 0046db94     libconcrt:rtlocks.obj
 0002:00004b9c       ??_C@_0BD@BAGHDICJ@Lock?5already?5taken@ 0046db9c     libconcrt:rtlocks.obj
 0002:00004bb4       ??_7scheduler_resource_allocation_error@Concurrency@@6B@ 0046dbb4     libconcrt:utils.obj
 0002:00004bc0       ?_Upper@?1??_Memory_order_upper_bound@std@@YA?AW4memory_order@2@W432@0@Z@4QAY05$$CBW432@A 0046dbc0     libconcrt:Chores.obj
 0002:00004c54       ??_7_Interruption_exception@details@Concurrency@@6B@ 0046dc54     libconcrt:Chores.obj
 0002:00004c60       ??_7missing_wait@Concurrency@@6B@ 0046dc60     libconcrt:Chores.obj
 0002:00004c6c       ??_7_RefCounter@details@Concurrency@@6B@ 0046dc6c     libconcrt:Chores.obj
 0002:00004c78       ??_7_CancellationTokenRegistration@details@Concurrency@@6B@ 0046dc78     libconcrt:Chores.obj
 0002:00004c88       ??_7CancellationTokenRegistration_TaskProc@details@Concurrency@@6B@ 0046dc88     libconcrt:Chores.obj
 0002:00004c98       ??_7invalid_multiple_scheduling@Concurrency@@6B@ 0046dc98     libconcrt:TaskCollection.obj
 0002:00004ca4       ??_7?$_MallocaArrayHolder@PAVevent@Concurrency@@@details@Concurrency@@6B@ 0046dca4     libconcrt:TaskCollection.obj
 0002:00004cac       ??_7Context@Concurrency@@6B@ 0046dcac     libconcrt:ContextBase.obj
 0002:00004cc8       ??_7ContextBase@details@Concurrency@@6B@ 0046dcc8     libconcrt:ContextBase.obj
 0002:00004d10       ?ConcRT_ProviderGuid@Concurrency@@3U_GUID@@B 0046dd10     libconcrt:Trace.obj
 0002:00004d20       ?ConcRTEventGuid@Concurrency@@3U_GUID@@B 0046dd20     libconcrt:Trace.obj
 0002:00004d30       ?SchedulerEventGuid@Concurrency@@3U_GUID@@B 0046dd30     libconcrt:Trace.obj
 0002:00004d40       ?ScheduleGroupEventGuid@Concurrency@@3U_GUID@@B 0046dd40     libconcrt:Trace.obj
 0002:00004d50       ?ContextEventGuid@Concurrency@@3U_GUID@@B 0046dd50     libconcrt:Trace.obj
 0002:00004d60       ?ChoreEventGuid@Concurrency@@3U_GUID@@B 0046dd60     libconcrt:Trace.obj
 0002:00004d70       ?VirtualProcessorEventGuid@Concurrency@@3U_GUID@@B 0046dd70     libconcrt:Trace.obj
 0002:00004d80       ?LockEventGuid@Concurrency@@3U_GUID@@B 0046dd80     libconcrt:Trace.obj
 0002:00004d90       ?ResourceManagerEventGuid@Concurrency@@3U_GUID@@B 0046dd90     libconcrt:Trace.obj
 0002:00004da0       ?PPLParallelInvokeEventGuid@Concurrency@@3U_GUID@@B 0046dda0     libconcrt:Trace.obj
 0002:00004db0       ?PPLParallelForEventGuid@Concurrency@@3U_GUID@@B 0046ddb0     libconcrt:Trace.obj
 0002:00004dc0       ?PPLParallelForeachEventGuid@Concurrency@@3U_GUID@@B 0046ddc0     libconcrt:Trace.obj
 0002:00004dd0       ?AgentEventGuid@Concurrency@@3U_GUID@@B 0046ddd0     libconcrt:Trace.obj
 0002:00004de0       ??_C@_1BK@JHLNAEJL@?$AAa?$AAd?$AAv?$AAa?$AAp?$AAi?$AA3?$AA2?$AA?4?$AAd?$AAl?$AAl@ 0046dde0     libconcrt:Trace.obj
 0002:00004dfc       ??_C@_0BE@FKJMGMF@RegisterTraceGuidsW@ 0046ddfc     libconcrt:Trace.obj
 0002:00004e10       ??_C@_0BF@OFMMALCC@UnregisterTraceGuids@ 0046de10     libconcrt:Trace.obj
 0002:00004e28       ??_C@_0L@EOLEDHLE@TraceEvent@ 0046de28     libconcrt:Trace.obj
 0002:00004e34       ??_C@_0BF@OFCGPMKL@GetTraceLoggerHandle@ 0046de34     libconcrt:Trace.obj
 0002:00004e4c       ??_C@_0BE@JCHMKLLJ@GetTraceEnableLevel@ 0046de4c     libconcrt:Trace.obj
 0002:00004e60       ??_C@_0BE@DNOHFPHI@GetTraceEnableFlags@ 0046de60     libconcrt:Trace.obj
 0002:00004e90       ??_C@_1BK@MGMFAEKH@?$AAk?$AAe?$AAr?$AAn?$AAe?$AAl?$AA3?$AA2?$AA?4?$AAd?$AAl?$AAl@ 0046de90     libconcrt:Platform.obj
 0002:00004eac       ??_C@_0BH@CJPDKMEB@SetThreadGroupAffinity@ 0046deac     libconcrt:Platform.obj
 0002:00004ec4       ??_C@_0BH@CINNILJO@GetThreadGroupAffinity@ 0046dec4     libconcrt:Platform.obj
 0002:00004edc       ??_C@_0BM@JLHMEGJA@GetCurrentProcessorNumberEx@ 0046dedc     libconcrt:Platform.obj
 0002:00004ef8       ??_C@_0CB@HOJBBPPI@GetLogicalProcessorInformationE@ 0046def8     libconcrt:Platform.obj
 0002:00004f1c       ?s_maxExternalAllocators@SchedulerBase@details@Concurrency@@0HB 0046df1c     libconcrt:SchedulerBase.obj
 0002:00004f20       ?s_allocatorFreePoolLimit@SchedulerBase@details@Concurrency@@0HB 0046df20     libconcrt:SchedulerBase.obj
 0002:00004f28       ??_7improper_scheduler_attach@Concurrency@@6B@ 0046df28     libconcrt:SchedulerBase.obj
 0002:00004f34       ??_7improper_scheduler_reference@Concurrency@@6B@ 0046df34     libconcrt:SchedulerBase.obj
 0002:00004f40       ??_7ScheduleGroup@Concurrency@@6B@ 0046df40     libconcrt:SchedulerBase.obj
 0002:00004f58       ??_7Scheduler@Concurrency@@6B@ 0046df58     libconcrt:SchedulerBase.obj
 0002:00004f90       ??_7_Chore@details@Concurrency@@6B@ 0046df90     libconcrt:SchedulerBase.obj
 0002:00004f98       ??_7RealizedChore@details@Concurrency@@6B@ 0046df98     libconcrt:SchedulerBase.obj
 0002:00004fa0       ??_7SchedulerBase@details@Concurrency@@6B@ 0046dfa0     libconcrt:SchedulerBase.obj
 0002:00005004       ??_7CacheLocalScheduleGroupSegment@details@Concurrency@@6B@ 0046e004     libconcrt:SchedulerBase.obj
 0002:00005018       ??_7CacheLocalScheduleGroup@details@Concurrency@@6B@ 0046e018     libconcrt:SchedulerBase.obj
 0002:00005044       ??_7FairScheduleGroupSegment@details@Concurrency@@6B@ 0046e044     libconcrt:SchedulerBase.obj
 0002:00005058       ??_7FairScheduleGroup@details@Concurrency@@6B@ 0046e058     libconcrt:SchedulerBase.obj
 0002:00005080       ??_C@_0M@IAPOLKMH@eventObject@ 0046e080     libconcrt:SchedulerBase.obj
 0002:0000508c       ??_C@_0BI@PMOAFEOC@ppVirtualProcessorRoots@ 0046e08c     libconcrt:SchedulerBase.obj
 0002:000050a4       ??_C@_05IOMEMJEC@count@    0046e0a4     libconcrt:SchedulerBase.obj
 0002:000050b0       ??_7scheduler_worker_creation_error@Concurrency@@6B@ 0046e0b0     libconcrt:Exceptions.obj
 0002:000050bc       ??_7unsupported_os@Concurrency@@6B@ 0046e0bc     libconcrt:Exceptions.obj
 0002:000050c8       ??_7context_unblock_unbalanced@Concurrency@@6B@ 0046e0c8     libconcrt:Exceptions.obj
 0002:000050d4       ??_7context_self_unblock@Concurrency@@6B@ 0046e0d4     libconcrt:Exceptions.obj
 0002:000050e0       ??_7invalid_scheduler_policy_key@Concurrency@@6B@ 0046e0e0     libconcrt:Exceptions.obj
 0002:000050ec       ??_7invalid_scheduler_policy_value@Concurrency@@6B@ 0046e0ec     libconcrt:Exceptions.obj
 0002:000050f8       ??_7invalid_scheduler_policy_thread_specification@Concurrency@@6B@ 0046e0f8     libconcrt:Exceptions.obj
 0002:00005104       ??_7nested_scheduler_missing_detach@Concurrency@@6B@ 0046e104     libconcrt:Exceptions.obj
 0002:00005110       ??_7invalid_oversubscribe_operation@Concurrency@@6B@ 0046e110     libconcrt:Exceptions.obj
 0002:0000511c       ??_7invalid_operation@Concurrency@@6B@ 0046e11c     libconcrt:ResourceManager.obj
 0002:00005128       ??_7TopologyObject@GlobalCore@details@Concurrency@@6B@ 0046e128     libconcrt:ResourceManager.obj
 0002:00005134       ??_7TopologyObject@GlobalNode@details@Concurrency@@6B@ 0046e134     libconcrt:ResourceManager.obj
 0002:0000514c       ??_7ResourceManager@details@Concurrency@@6B@ 0046e14c     libconcrt:ResourceManager.obj
 0002:00005164       ??_C@_0L@HKFDMHB@pScheduler@ 0046e164     libconcrt:ResourceManager.obj
 0002:00005170       ??_C@_07CPCPJPKL@version@  0046e170     libconcrt:ResourceManager.obj
 0002:00005178       __real@0000000000000000    0046e178     libconcrt:ResourceManager.obj
 0002:00005180       __real@3e7ad7f29abcaf48    0046e180     libconcrt:ResourceManager.obj
 0002:00005188       __real@3ff0000000000000    0046e188     libconcrt:ResourceManager.obj
 0002:00005190       __real@41f0000000000000    0046e190     libconcrt:ResourceManager.obj
 0002:0000519c       ??_7WaitBlock@details@Concurrency@@6B@ 0046e19c     libconcrt:event.obj
 0002:000051b4       ??_7SingleWaitBlock@details@Concurrency@@6B@ 0046e1b4     libconcrt:event.obj
 0002:000051cc       ??_7MultiWaitBlock@details@Concurrency@@6B@ 0046e1cc     libconcrt:event.obj
 0002:000051e8       ??_7WaitAllBlock@details@Concurrency@@6B@ 0046e1e8     libconcrt:event.obj
 0002:00005204       ??_7WaitAnyBlock@details@Concurrency@@6B@ 0046e204     libconcrt:event.obj
 0002:00005220       ??_7TimedSingleWaitBlock@details@Concurrency@@6B@ 0046e220     libconcrt:event.obj
 0002:00005238       ??_7?$_MallocaArrayHolder@PAVContext@Concurrency@@@details@Concurrency@@6B@ 0046e238     libconcrt:event.obj
 0002:0000523c       ??_C@_07CAAEJHLA@pEvents@  0046e23c     libconcrt:event.obj
 0002:00005248       ??_7ScheduleGroupSegmentBase@details@Concurrency@@6B@ 0046e248     libconcrt:ScheduleGroupBase.obj
 0002:0000525c       ??_7ScheduleGroupBase@details@Concurrency@@6B@ 0046e25c     libconcrt:ScheduleGroupBase.obj
 0002:00005284       ??_C@_04MGCDEED@proc@      0046e284     libconcrt:ScheduleGroupBase.obj
 0002:0000528c       ??_C@_0O@JJAHDPNG@SchedulerKind@ 0046e28c     libconcrt:SchedulerPolicyBase.obj
 0002:0000529c       ??_C@_0P@CGAHIHHE@MaxConcurrency@ 0046e29c     libconcrt:SchedulerPolicyBase.obj
 0002:000052ac       ??_C@_0P@BLMOAEF@MinConcurrency@ 0046e2ac     libconcrt:SchedulerPolicyBase.obj
 0002:000052bc       ??_C@_0BN@GKPFKNNF@TargetOversubscriptionFactor@ 0046e2bc     libconcrt:SchedulerPolicyBase.obj
 0002:000052dc       ??_C@_0BG@PCMPEOIE@LocalContextCacheSize@ 0046e2dc     libconcrt:SchedulerPolicyBase.obj
 0002:000052f4       ??_C@_0BB@OPLJNNNB@ContextStackSize@ 0046e2f4     libconcrt:SchedulerPolicyBase.obj
 0002:00005308       ??_C@_0BA@CHGPFLBM@ContextPriority@ 0046e308     libconcrt:SchedulerPolicyBase.obj
 0002:00005318       ??_C@_0BD@HMLGOEAM@SchedulingProtocol@ 0046e318     libconcrt:SchedulerPolicyBase.obj
 0002:0000532c       ??_C@_0BI@PEDMDBKL@DynamicProgressFeedback@ 0046e32c     libconcrt:SchedulerPolicyBase.obj
 0002:00005344       ??_C@_0BE@EBKJEJDK@WinRTInitialization@ 0046e344     libconcrt:SchedulerPolicyBase.obj
 0002:00005358       ??_C@_0BE@OJPKBKLL@MaxPolicyElementKey@ 0046e358     libconcrt:SchedulerPolicyBase.obj
 0002:00005370       ??_7VirtualProcessor@details@Concurrency@@6B@ 0046e370     libconcrt:VirtualProcessor.obj
 0002:00005398       ??_7IExecutionContext@Concurrency@@6B@ 0046e398     libconcrt:InternalContextBase.obj
 0002:000053b0       ??_7InternalContextBase@details@Concurrency@@6BIExecutionContext@2@@ 0046e3b0     libconcrt:InternalContextBase.obj
 0002:000053d8       ??_7InternalContextBase@details@Concurrency@@6BContextBase@12@@ 0046e3d8     libconcrt:InternalContextBase.obj
 0002:00005420       ??_C@_0N@FACDCNDA@pThreadProxy@ 0046e420     libconcrt:InternalContextBase.obj
 0002:00005434       ??_7ExternalContextBase@details@Concurrency@@6B@ 0046e434     libconcrt:ExternalContextBase.obj
