 Crinkler

 Timestamp is 69a19ccf (Fri Feb 27 14:31:59 2026)

 Preferred load address is 00400000

 Start         Length     Name                   Class
 0001:00000000 00000180H .text$di                CODE
 0001:00000180 00082300H .text$mn                CODE
 0001:00082480 00001290H .text$x                 CODE
 0001:00083710 0000009aH .text$yd                CODE
 0002:00000000 000002b4H .idata$5                DATA
 0002:000002b4 00000008H .00cfg                  DATA
 0002:000002bc 00000004H .CRT$XCA                DATA
 0002:000002c0 00000004H .CRT$XCAA               DATA
 0002:000002c4 00000014H .CRT$XCC                DATA
 0002:000002d8 00000008H .CRT$XCL                DATA
 0002:000002e0 00000018H .CRT$XCU                DATA
 0002:000002f8 00000004H .CRT$XCZ                DATA
 0002:000002fc 00000004H .CRT$XIA                DATA
 0002:00000300 00000004H .CRT$XIAA               DATA
 0002:00000304 00000004H .CRT$XIAC               DATA
 0002:00000308 0000001cH .CRT$XIC                DATA
 0002:00000324 00000004H .CRT$XIZ                DATA
 0002:00000328 00000004H .CRT$XPA                DATA
 0002:0000032c 00000004H .CRT$XPB                DATA
 0002:00000330 00000008H .CRT$XPX                DATA
 0002:00000338 00000004H .CRT$XPXA               DATA
 0002:0000033c 00000004H .CRT$XPZ                DATA
 0002:00000340 00000004H .CRT$XTA                DATA
 0002:00000344 0000001cH .CRT$XTZ                DATA
 0002:00000348 00000000H .gfids$y                DATA
 0002:00000348 00000000H .giats$y                DATA
 0002:00000360 00032020H .rdata                  DATA
 0002:00032380 00000000H .rdata$CastGuardVftablesA DATA
 0002:00032380 00000000H .rdata$CastGuardVftablesC DATA
 0002:00032380 00001b90H .rdata$r                DATA
 0002:00033f10 00001170H .rdata$voltmd           DATA
 0002:00035080 000003f8H .rdata$zzzdbg           DATA
 0002:00035478 00000004H .rtc$IAA                DATA
 0002:0003547c 00000004H .rtc$IZZ                DATA
 0002:00035480 00000004H .rtc$TAA                DATA
 0002:00035484 00000004H .rtc$TZZ                DATA
 0002:00035488 0000217cH .xdata$x                DATA
 0002:00037604 00000000H .edata                  DATA
 0002:00037604 00000050H .idata$2                DATA
 0002:00037654 00000014H .idata$3                DATA
 0002:00037668 000002b4H .idata$4                DATA
 0002:0003791c 00000d3aH .idata$6                DATA
 0003:00000000 0002eb90H .data                   DATA
 0003:0002eb90 000012c8H .data$r                 DATA
 0003:0002fe58 00000e28H .data$rs                DATA
 0003:00030c80 00046c98H .bss                    DATA
 0004:00000000 00008000H logtable                DATA
 0005:00000000 00000080H .fptable                DATA
 0006:00000000 00000100H .rsrc$01                DATA
 0006:00000100 000001b0H .rsrc$02                DATA

  Address         Publics by Value              Rva+Base       Lib:Object

 0000:00000000       ___AbsoluteZero            00000000     <absolute>
 0000:00000000       ___arm64x_extra_rfe_table  00000000     <absolute>
 0000:00000000       ___arm64x_extra_rfe_table_size 00000000     <absolute>
 0000:00000000       ___arm64x_native_entrypoint 00000000     <absolute>
 0000:00000000       ___arm64x_redirection_metadata 00000000     <absolute>
 0000:00000000       ___arm64x_redirection_metadata_count 00000000     <absolute>
 0000:00000000       ___dynamic_value_reloc_table 00000000     <absolute>
 0000:00000000       ___enclave_config          00000000     <absolute>
 0000:00000000       ___guard_check_icall_a64n_fptr 00000000     <absolute>
 0000:00000000       ___guard_eh_cont_count     00000000     <absolute>
 0000:00000000       ___guard_eh_cont_table     00000000     <absolute>
 0000:00000000       ___guard_fids_count        00000000     <absolute>
 0000:00000000       ___guard_fids_table        00000000     <absolute>
 0000:00000000       ___guard_iat_count         00000000     <absolute>
 0000:00000000       ___guard_iat_table         00000000     <absolute>
 0000:00000000       ___guard_longjmp_count     00000000     <absolute>
 0000:00000000       ___guard_longjmp_table     00000000     <absolute>
 0000:00000000       ___hybrid_auxiliary_delayload_iat 00000000     <absolute>
 0000:00000000       ___hybrid_auxiliary_delayload_iat_copy 00000000     <absolute>
 0000:00000000       ___hybrid_auxiliary_iat    00000000     <absolute>
 0000:00000000       ___hybrid_auxiliary_iat_copy 00000000     <absolute>
 0000:00000000       ___hybrid_code_map         00000000     <absolute>
 0000:00000000       ___hybrid_code_map_count   00000000     <absolute>
 0000:00000000       ___hybrid_image_info_bitfield 00000000     <absolute>
 0000:00000000       ___safe_se_handler_count   00000000     <absolute>
 0000:00000000       ___safe_se_handler_table   00000000     <absolute>
 0000:00000000       ___x64_code_ranges_to_entry_points 00000000     <absolute>
 0000:00000000       ___x64_code_ranges_to_entry_points_count 00000000     <absolute>
 0000:00000000       __except_list              00000000     <absolute>
 0000:00000100       ___guard_flags             00000100     <absolute>
 0000:00000000       ___ImageBase               00400000     <linker-defined>
 0001:00000180       ??$?RD@_Precision_checker@std@@SA_KD@Z 00401180 f i Crinkler.obj
 0001:00000180       ??$?RM@_Precision_checker@std@@SA_KM@Z 00401180 f i Crinkler.obj
 0001:00000180       ??$?RN@_Precision_checker@std@@SA_KN@Z 00401180 f i Crinkler.obj
 0001:00000180       ??$?RO@_Precision_checker@std@@SA_KO@Z 00401180 f i Crinkler.obj
 0001:00000180       ??$?RPBD@_Precision_checker@std@@SA_KQBD@Z 00401180 f i Crinkler.obj
 0001:00000180       ??$?RPBX@_Precision_checker@std@@SA_KQBX@Z 00401180 f i Crinkler.obj
 0001:00000180       ??$?RUmonostate@std@@@_Precision_checker@std@@SA_KUmonostate@1@@Z 00401180 f i Crinkler.obj
 0001:00000180       ??$?RV?$basic_string_view@DU?$char_traits@D@std@@@std@@@_Precision_checker@std@@SA_KV?$basic_string_view@DU?$char_traits@D@std@@@1@@Z 00401180 f i Crinkler.obj
 0001:00000180       ??$?RVhandle@?$basic_format_arg@V?$basic_format_context@V?$back_insert_iterator@V?$_Fmt_buffer@D@std@@@std@@D@std@@@std@@@_Precision_checker@std@@SA_KVhandle@?$basic_format_arg@V?$basic_format_context@V?$back_insert_iterator@V?$_Fmt_buffer@D@std@@@std@@D@std@@@1@@Z 00401180 f i Crinkler.obj
 0001:00000180       ??$?R_N@_Precision_checker@std@@SA_K_N@Z 00401180 f i Crinkler.obj
 0001:00000190       ??$?RD@_Width_checker@std@@SA_KD@Z 00401190 f i Crinkler.obj
 0001:00000190       ??$?RM@_Width_checker@std@@SA_KM@Z 00401190 f i Crinkler.obj
 0001:00000190       ??$?RN@_Width_checker@std@@SA_KN@Z 00401190 f i Crinkler.obj
 0001:00000190       ??$?RO@_Width_checker@std@@SA_KO@Z 00401190 f i Crinkler.obj
 0001:00000190       ??$?RPBD@_Width_checker@std@@SA_KQBD@Z 00401190 f i Crinkler.obj
 0001:00000190       ??$?RPBX@_Width_checker@std@@SA_KQBX@Z 00401190 f i Crinkler.obj
 0001:00000190       ??$?RUmonostate@std@@@_Width_checker@std@@SA_KUmonostate@1@@Z 00401190 f i Crinkler.obj
 0001:00000190       ??$?RV?$basic_string_view@DU?$char_traits@D@std@@@std@@@_Width_checker@std@@SA_KV?$basic_string_view@DU?$char_traits@D@std@@@1@@Z 00401190 f i Crinkler.obj
 0001:00000190       ??$?RVhandle@?$basic_format_arg@V?$basic_format_context@V?$back_insert_iterator@V?$_Fmt_buffer@D@std@@@std@@D@std@@@std@@@_Width_checker@std@@SA_KVhandle@?$basic_format_arg@V?$basic_format_context@V?$back_insert_iterator@V?$_Fmt_buffer@D@std@@@std@@D@std@@@1@@Z 00401190 f i Crinkler.obj
 0001:00000190       ??$?R_N@_Width_checker@std@@SA_K_N@Z 00401190 f i Crinkler.obj
 0001:000001a0       ??$?RDV?$back_insert_iterator@V?$_Fmt_buffer@D@std@@@std@@@_Fill_n_fn@ranges@std@@SA?AV?$back_insert_iterator@V?$_Fmt_buffer@D@std@@@2@V32@HABD@Z 004011a0 f i Crinkler.obj
 0001:000001f0       ??$?RH@?$_Arg_formatter@V?$back_insert_iterator@V?$_Fmt_buffer@D@std@@@std@@D@std@@QAE?AV?$back_insert_iterator@V?$_Fmt_buffer@D@std@@@1@H@Z 004011f0 f i Crinkler.obj
 0001:00000220       ??$?RH@_Precision_checker@std@@SA_KH@Z 00401220 f i Crinkler.obj
 0001:00000240       ??$?RH@_Width_checker@std@@SA_KH@Z 00401240 f i Crinkler.obj
 0001:00000260       ??$?__MDU?$char_traits@D@std@@V?$allocator@D@1@@std@@YA?AUstrong_ordering@0@ABV?$basic_string@DU?$char_traits@D@std@@V?$allocator@D@2@@0@0@Z 00401260 f i Crinkler.obj
 0001:00000300       ??$_Allocate_manually_vector_aligned@U_Default_allocate_traits@std@@@std@@YAPAXI@Z 00401300 f i Crinkler.obj
 0001:00000340       ??$_Atomic_address_as@DU?$_Atomic_padded@_N@std@@@std@@YAPCDAAU?$_Atomic_padded@_N@0@@Z 00401340 f i Crinkler.obj
 0001:00000340       ??$_Atomic_address_as@DU?$_Atomic_padded@_N@std@@@std@@YAPDDABU?$_Atomic_padded@_N@0@@Z 00401340 f i Crinkler.obj
 0001:00000340       ??$_Atomic_address_as@HU?$_Atomic_padded@H@std@@@std@@YAPDHABU?$_Atomic_padded@H@0@@Z 00401340 f i Crinkler.obj
 0001:00000340       ??$_Atomic_address_as@JU?$_Atomic_padded@H@std@@@std@@YAPCJAAU?$_Atomic_padded@H@0@@Z 00401340 f i Crinkler.obj
 0001:00000350       ??$_Atomic_reinterpret_as@D_N@std@@YADAB_N@Z 00401350 f i Crinkler.obj
 0001:00000360       ??$_Construct@$00PBD@?$basic_string@DU?$char_traits@D@std@@V?$allocator@D@2@@std@@AAEXQBDI@Z 00401360 f i Crinkler.obj
 0001:00000420       ??$_Copy_backward_memmove@PADPAD@std@@YAPADPAD00@Z 00401420 f i Crinkler.obj
 0001:00000420       ??$_Copy_backward_memmove@PAPAVHunk@@PAPAV1@@std@@YAPAPAVHunk@@PAPAV1@00@Z 00401420 f i ImportHandler.obj
 0001:00000420       ??$_Copy_backward_memmove@PAPAVPart@@PAPAV1@@std@@YAPAPAVPart@@PAPAV1@00@Z 00401420 f i PartList.obj
 0001:00000420       ??$_Copy_backward_memmove@PAPAVSymbol@@PAPAV1@@std@@YAPAPAVSymbol@@PAPAV1@00@Z 00401420 f i Hunk.obj
 0001:00000440       ??$_Copy_memmove@PADPAD@std@@YAPADPAD00@Z 00401440 f i Crinkler.obj
 0001:00000440       ??$_Copy_memmove@PAEPAE@std@@YAPAEPAE00@Z 00401440 f i Hunk.obj
 0001:00000440       ??$_Copy_memmove@PBDPAD@std@@YAPADPBD0PAD@Z 00401440 f i Crinkler.obj
 0001:00000440       ??$_Copy_memmove@PBDPAE@std@@YAPAEPBD0PAE@Z 00401440 f i Hunk.obj
 0001:00000460       ??$_Copy_memmove@PAHPAH@std@@YAPAHPAH00@Z 00401460 f i Crinkler.obj
 0001:00000460       ??$_Copy_memmove@PAIPAI@std@@YAPAIPAI00@Z 00401460 f i ImportHandler.obj
 0001:00000460       ??$_Copy_memmove@PAPAPAVHunk@@PAPAPAV1@@std@@YAPAPAPAVHunk@@PAPAPAV1@00@Z 00401460 f i PartList.obj
 0001:00000460       ??$_Copy_memmove@PAPAUCompressionReportRecord@@PAPAU1@@std@@YAPAPAUCompressionReportRecord@@PAPAU1@00@Z 00401460 f i Hunk.obj
 0001:00000460       ??$_Copy_memmove@PAPAVCmdParam@@PAPAV1@@std@@YAPAPAVCmdParam@@PAPAV1@00@Z 00401460 f i CmdLineInterface.obj
 0001:00000460       ??$_Copy_memmove@PAPAVHunk@@PAPAV1@@std@@YAPAPAVHunk@@PAPAV1@00@Z 00401460 f i Crinkler.obj
 0001:00000460       ??$_Copy_memmove@PAPAVHunkLoader@@PAPAV1@@std@@YAPAPAVHunkLoader@@PAPAV1@00@Z 00401460 f i MultiLoader.obj
 0001:00000460       ??$_Copy_memmove@PAPAVPart@@PAPAV1@@std@@YAPAPAVPart@@PAPAV1@00@Z 00401460 f i PartList.obj
 0001:00000460       ??$_Copy_memmove@PAPAVProgressBar@@PAPAV1@@std@@YAPAPAVProgressBar@@PAPAV1@00@Z 00401460 f i CompositeProgressBar.obj
 0001:00000460       ??$_Copy_memmove@PAPAVSymbol@@PAPAV1@@std@@YAPAPAVSymbol@@PAPAV1@00@Z 00401460 f i Crinkler.obj
 0001:00000480       ??$_Copy_memmove_n@PADPAD@std@@YAPADPADI0@Z 00401480 f i Crinkler.obj
 0001:00000480       ??$_Copy_memmove_n@PBDPAD@std@@YAPADPBDIPAD@Z 00401480 f i Crinkler.obj
 0001:000004a0       ??$_Copy_memmove_tail@PAD@std@@YAPADQBDQADII@Z 004014a0 f i Crinkler.obj
 0001:000004a0       ??$_Copy_memmove_tail@PAE@std@@YAPAEQBDQAEII@Z 004014a0 f i Hunk.obj
 0001:000004a0       ??$_Copy_memmove_tail@PAH@std@@YAPAHQBDQAHII@Z 004014a0 f i Crinkler.obj
 0001:000004a0       ??$_Copy_memmove_tail@PAI@std@@YAPAIQBDQAIII@Z 004014a0 f i ImportHandler.obj
 0001:000004a0       ??$_Copy_memmove_tail@PAPAPAVHunk@@@std@@YAPAPAPAVHunk@@QBDQAPAPAV1@II@Z 004014a0 f i PartList.obj
 0001:000004a0       ??$_Copy_memmove_tail@PAPAUCompressionReportRecord@@@std@@YAPAPAUCompressionReportRecord@@QBDQAPAU1@II@Z 004014a0 f i Hunk.obj
 0001:000004a0       ??$_Copy_memmove_tail@PAPAVCmdParam@@@std@@YAPAPAVCmdParam@@QBDQAPAV1@II@Z 004014a0 f i CmdLineInterface.obj
 0001:000004a0       ??$_Copy_memmove_tail@PAPAVHunk@@@std@@YAPAPAVHunk@@QBDQAPAV1@II@Z 004014a0 f i Crinkler.obj
 0001:000004a0       ??$_Copy_memmove_tail@PAPAVHunkLoader@@@std@@YAPAPAVHunkLoader@@QBDQAPAV1@II@Z 004014a0 f i MultiLoader.obj
 0001:000004a0       ??$_Copy_memmove_tail@PAPAVPart@@@std@@YAPAPAVPart@@QBDQAPAV1@II@Z 004014a0 f i PartList.obj
 0001:000004a0       ??$_Copy_memmove_tail@PAPAVProgressBar@@@std@@YAPAPAVProgressBar@@QBDQAPAV1@II@Z 004014a0 f i CompositeProgressBar.obj
 0001:000004a0       ??$_Copy_memmove_tail@PAPAVSymbol@@@std@@YAPAPAVSymbol@@QBDQAPAV1@II@Z 004014a0 f i Crinkler.obj
 0001:000004a0       ??$_Copy_memmove_tail@PAU?$pair@PADH@std@@@std@@YAPAU?$pair@PADH@0@QBDQAU10@II@Z 004014a0 f i Export.obj
 0001:000004c0       ??$_Copy_unchecked@PBDPBDV?$back_insert_iterator@V?$_Fmt_buffer@D@std@@@std@@@ranges@std@@YA?AU?$in_out_result@PBDV?$back_insert_iterator@V?$_Fmt_buffer@D@std@@@std@@@01@PBD0V?$back_insert_iterator@V?$_Fmt_buffer@D@std@@@1@@Z 004014c0 f i Crinkler.obj
 0001:00000510       ??$_Destroy_range@V?$allocator@UHashBits@@@std@@@std@@YAXPAUHashBits@@QAU1@AAV?$allocator@UHashBits@@@0@@Z 00401510 f i Crinkler.obj
 0001:00000550       ??$_Emplace_one_at_back@ABH@?$vector@HV?$allocator@H@std@@@std@@AAEAAHABH@Z 00401550 f i Crinkler.obj
 0001:00000550       ??$_Emplace_one_at_back@H@?$vector@HV?$allocator@H@std@@@std@@AAEAAH$$QAH@Z 00401550 f i Crinkler.obj
 0001:00000550       ??$_Emplace_one_at_back@PAVPart@@@?$vector@PAVPart@@V?$allocator@PAVPart@@@std@@@std@@AAEAAPAVPart@@$$QAPAV2@@Z 00401550 f i PartList.obj
 0001:00000670       ??$_Emplace_reallocate@ABQAUCompressionReportRecord@@@?$vector@PAUCompressionReportRecord@@V?$allocator@PAUCompressionReportRecord@@@std@@@std@@AAEPAPAUCompressionReportRecord@@QAPAU2@ABQAU2@@Z 00401670 f i Hunk.obj
 0001:00000670       ??$_Emplace_reallocate@ABQAVCmdParam@@@?$vector@PAVCmdParam@@V?$allocator@PAVCmdParam@@@std@@@std@@AAEPAPAVCmdParam@@QAPAV2@ABQAV2@@Z 00401670 f i CmdLineInterface.obj
 0001:00000670       ??$_Emplace_reallocate@ABQAVHunk@@@?$vector@PAVHunk@@V?$allocator@PAVHunk@@@std@@@std@@AAEPAPAVHunk@@QAPAV2@ABQAV2@@Z 00401670 f i Crinkler.obj
 0001:00000670       ??$_Emplace_reallocate@ABQAVProgressBar@@@?$vector@PAVProgressBar@@V?$allocator@PAVProgressBar@@@std@@@std@@AAEPAPAVProgressBar@@QAPAV2@ABQAV2@@Z 00401670 f i CompositeProgressBar.obj
 0001:00000670       ??$_Emplace_reallocate@ABQAVSymbol@@@?$vector@PAVSymbol@@V?$allocator@PAVSymbol@@@std@@@std@@AAEPAPAVSymbol@@QAPAV2@ABQAV2@@Z 00401670 f i Hunk.obj
 0001:00000670       ??$_Emplace_reallocate@I@?$vector@IV?$allocator@I@std@@@std@@AAEPAIQAI$$QAI@Z 00401670 f i ImportHandler.obj
 0001:00000670       ??$_Emplace_reallocate@PAVHunkLoader@@@?$vector@PAVHunkLoader@@V?$allocator@PAVHunkLoader@@@std@@@std@@AAEPAPAVHunkLoader@@QAPAV2@$$QAPAV2@@Z 00401670 f i MultiLoader.obj
 0001:00000670       ??$_Emplace_reallocate@PAVSymbol@@@?$vector@PAVSymbol@@V?$allocator@PAVSymbol@@@std@@@std@@AAEPAPAVSymbol@@QAPAV2@$$QAPAV2@@Z 00401670 f i Crinkler.obj
 0001:000007c0       ??$_Erase_tree@V?$allocator@U?$_Tree_node@U?$pair@$$CBV?$basic_string@DU?$char_traits@D@std@@V?$allocator@D@2@@std@@H@std@@PAX@std@@@std@@@?$_Tree_val@U?$_Tree_simple_types@U?$pair@$$CBV?$basic_string@DU?$char_traits@D@std@@V?$allocator@D@2@@std@@H@std@@@std@@@std@@QAEXAAV?$allocator@U?$_Tree_node@U?$pair@$$CBV?$basic_string@DU?$char_traits@D@std@@V?$allocator@D@2@@std@@H@std@@PAX@std@@@1@PAU?$_Tree_node@U?$pair@$$CBV?$basic_string@DU?$char_traits@D@std@@V?$allocator@D@2@@std@@H@std@@PAX@1@@Z 004017c0 f i HtmlReport.obj
 0001:000007c0       ??$_Erase_tree@V?$allocator@U?$_Tree_node@U?$pair@$$CBV?$basic_string@DU?$char_traits@D@std@@V?$allocator@D@2@@std@@PAVMemoryFile@@@std@@PAX@std@@@std@@@?$_Tree_val@U?$_Tree_simple_types@U?$pair@$$CBV?$basic_string@DU?$char_traits@D@std@@V?$allocator@D@2@@std@@PAVMemoryFile@@@std@@@std@@@std@@QAEXAAV?$allocator@U?$_Tree_node@U?$pair@$$CBV?$basic_string@DU?$char_traits@D@std@@V?$allocator@D@2@@std@@PAVMemoryFile@@@std@@PAX@std@@@1@PAU?$_Tree_node@U?$pair@$$CBV?$basic_string@DU?$char_traits@D@std@@V?$allocator@D@2@@std@@PAVMemoryFile@@@std@@PAX@1@@Z 004017c0 f i main.obj
 0001:000007c0       ??$_Erase_tree@V?$allocator@U?$_Tree_node@U?$pair@$$CBV?$basic_string@DU?$char_traits@D@std@@V?$allocator@D@2@@std@@PAVModelList4k@@@std@@PAX@std@@@std@@@?$_Tree_val@U?$_Tree_simple_types@U?$pair@$$CBV?$basic_string@DU?$char_traits@D@std@@V?$allocator@D@2@@std@@PAVModelList4k@@@std@@@std@@@std@@QAEXAAV?$allocator@U?$_Tree_node@U?$pair@$$CBV?$basic_string@DU?$char_traits@D@std@@V?$allocator@D@2@@std@@PAVModelList4k@@@std@@PAX@std@@@1@PAU?$_Tree_node@U?$pair@$$CBV?$basic_string@DU?$char_traits@D@std@@V?$allocator@D@2@@std@@PAVModelList4k@@@std@@PAX@1@@Z 004017c0 f i Reuse.obj
 0001:000007c0       ??$_Erase_tree@V?$allocator@U?$_Tree_node@U?$pair@$$CBV?$basic_string@DU?$char_traits@D@std@@V?$allocator@D@2@@std@@PAVSymbol@@@std@@PAX@std@@@std@@@?$_Tree_val@U?$_Tree_simple_types@U?$pair@$$CBV?$basic_string@DU?$char_traits@D@std@@V?$allocator@D@2@@std@@PAVSymbol@@@std@@@std@@@std@@QAEXAAV?$allocator@U?$_Tree_node@U?$pair@$$CBV?$basic_string@DU?$char_traits@D@std@@V?$allocator@D@2@@std@@PAVSymbol@@@std@@PAX@std@@@1@PAU?$_Tree_node@U?$pair@$$CBV?$basic_string@DU?$char_traits@D@std@@V?$allocator@D@2@@std@@PAVSymbol@@@std@@PAX@1@@Z 004017c0 f i Crinkler.obj
 0001:00000810       ??$_Erase_tree@V?$allocator@U?$_Tree_node@U?$pair@$$CBV?$basic_string@DU?$char_traits@D@std@@V?$allocator@D@2@@std@@V12@@std@@PAX@std@@@std@@@?$_Tree_val@U?$_Tree_simple_types@U?$pair@$$CBV?$basic_string@DU?$char_traits@D@std@@V?$allocator@D@2@@std@@V12@@std@@@std@@@std@@QAEXAAV?$allocator@U?$_Tree_node@U?$pair@$$CBV?$basic_string@DU?$char_traits@D@std@@V?$allocator@D@2@@std@@V12@@std@@PAX@std@@@1@PAU?$_Tree_node@U?$pair@$$CBV?$basic_string@DU?$char_traits@D@std@@V?$allocator@D@2@@std@@V12@@std@@PAX@1@@Z 00401810 f i Crinkler.obj
 0001:00000870       ??$_Erase_tree@V?$allocator@U?$_Tree_node@V?$basic_string@DU?$char_traits@D@std@@V?$allocator@D@2@@std@@PAX@std@@@std@@@?$_Tree_val@U?$_Tree_simple_types@V?$basic_string@DU?$char_traits@D@std@@V?$allocator@D@2@@std@@@std@@@std@@QAEXAAV?$allocator@U?$_Tree_node@V?$basic_string@DU?$char_traits@D@std@@V?$allocator@D@2@@std@@PAX@std@@@1@PAU?$_Tree_node@V?$basic_string@DU?$char_traits@D@std@@V?$allocator@D@2@@std@@PAX@1@@Z 00401870 f i Crinkler.obj
 0001:000008c0       ??$_Erase_tree@V?$allocator@U?$_Tree_node@VExport@@PAX@std@@@std@@@?$_Tree_val@U?$_Tree_simple_types@VExport@@@std@@@std@@QAEXAAV?$allocator@U?$_Tree_node@VExport@@PAX@std@@@1@PAU?$_Tree_node@VExport@@PAX@1@@Z 004018c0 f i Crinkler.obj
 0001:00000920       ??$_Fill_memset@PADD@std@@YAXPADDI@Z 00401920 f i Crinkler.obj
 0001:00000920       ??$_Fill_memset@PAEE@std@@YAXPAEEI@Z 00401920 f i Crinkler.obj
 0001:00000930       ??$_Find_lower_bound@V?$basic_string@DU?$char_traits@D@std@@V?$allocator@D@2@@std@@@?$_Tree@V?$_Tmap_traits@V?$basic_string@DU?$char_traits@D@std@@V?$allocator@D@2@@std@@V12@U?$less@V?$basic_string@DU?$char_traits@D@std@@V?$allocator@D@2@@std@@@2@V?$allocator@U?$pair@$$CBV?$basic_string@DU?$char_traits@D@std@@V?$allocator@D@2@@std@@V12@@std@@@2@$0A@@std@@@std@@IBE?AU?$_Tree_find_result@PAU?$_Tree_node@U?$pair@$$CBV?$basic_string@DU?$char_traits@D@std@@V?$allocator@D@2@@std@@V12@@std@@PAX@std@@@1@ABV?$basic_string@DU?$char_traits@D@std@@V?$allocator@D@2@@1@@Z 00401930 f i Crinkler.obj
 0001:00000930       ??$_Find_lower_bound@V?$basic_string@DU?$char_traits@D@std@@V?$allocator@D@2@@std@@@?$_Tree@V?$_Tset_traits@V?$basic_string@DU?$char_traits@D@std@@V?$allocator@D@2@@std@@U?$less@V?$basic_string@DU?$char_traits@D@std@@V?$allocator@D@2@@std@@@2@V?$allocator@V?$basic_string@DU?$char_traits@D@std@@V?$allocator@D@2@@std@@@2@$0A@@std@@@std@@IBE?AU?$_Tree_find_result@PAU?$_Tree_node@V?$basic_string@DU?$char_traits@D@std@@V?$allocator@D@2@@std@@PAX@std@@@1@ABV?$basic_string@DU?$char_traits@D@std@@V?$allocator@D@2@@1@@Z 00401930 f i Crinkler.obj
 0001:00000930       ??$_Find_lower_bound@VExport@@@?$_Tree@V?$_Tset_traits@VExport@@U?$less@VExport@@@std@@V?$allocator@VExport@@@3@$0A@@std@@@std@@IBE?AU?$_Tree_find_result@PAU?$_Tree_node@VExport@@PAX@std@@@1@ABVExport@@@Z 00401930 f i Crinkler.obj
 0001:00000990       ??$_Find_vectorized@$$CBDD@std@@YAPBDQBD0D@Z 00401990 f i Crinkler.obj
 0001:00000990       ??$_Find_vectorized@DD@std@@YAPADQAD0D@Z 00401990 f i Crinkler.obj
 0001:000009b0       ??$_Floating_to_chars@$00M@std@@YA?AUto_chars_result@0@PADQADMW4chars_format@0@H@Z 004019b0 f i Crinkler.obj
 0001:00000aa0       ??$_Floating_to_chars@$00N@std@@YA?AUto_chars_result@0@PADQADNW4chars_format@0@H@Z 00401aa0 f i Crinkler.obj
 0001:00000bb0       ??$_Floating_to_chars@$01M@std@@YA?AUto_chars_result@0@PADQADMW4chars_format@0@H@Z 00401bb0 f i Crinkler.obj
 0001:00000cf0       ??$_Floating_to_chars@$01N@std@@YA?AUto_chars_result@0@PADQADNW4chars_format@0@H@Z 00401cf0 f i Crinkler.obj
 0001:00000e50       ??$_Floating_to_chars@$0A@M@std@@YA?AUto_chars_result@0@PADQADMW4chars_format@0@H@Z 00401e50 f i Crinkler.obj
 0001:00000f20       ??$_Floating_to_chars@$0A@N@std@@YA?AUto_chars_result@0@PADQADNW4chars_format@0@H@Z 00401f20 f i Crinkler.obj
 0001:00001020       ??$_Floating_to_chars_fixed_precision@M@std@@YA?AUto_chars_result@0@QAD0MH@Z 00402020 f i Crinkler.obj
 0001:00001080       ??$_Floating_to_chars_fixed_precision@N@std@@YA?AUto_chars_result@0@QAD0NH@Z 00402080 f i Crinkler.obj
 0001:000010e0       ??$_Floating_to_chars_general_precision@M@std@@YA?AUto_chars_result@0@PADQADMH@Z 004020e0 f i Crinkler.obj
 0001:000012e0       ??$_Floating_to_chars_general_precision@N@std@@YA?AUto_chars_result@0@PADQADNH@Z 004022e0 f i Crinkler.obj
 0001:000015a0       ??$_Floating_to_chars_hex_precision@M@std@@YA?AUto_chars_result@0@PADQADMH@Z 004025a0 f i Crinkler.obj
 0001:00001760       ??$_Floating_to_chars_hex_precision@N@std@@YA?AUto_chars_result@0@PADQADNH@Z 00402760 f i Crinkler.obj
 0001:000019b0       ??$_Floating_to_chars_hex_shortest@M@std@@YA?AUto_chars_result@0@PADQADM@Z 004029b0 f i Crinkler.obj
 0001:00001af0       ??$_Floating_to_chars_hex_shortest@N@std@@YA?AUto_chars_result@0@PADQADN@Z 00402af0 f i Crinkler.obj
 0001:00001c90       ??$_Floating_to_chars_ryu@M@std@@YA?AUto_chars_result@0@QAD0MW4chars_format@0@@Z 00402c90 f i Crinkler.obj
 0001:00001cc0       ??$_Floating_to_chars_ryu@N@std@@YA?AUto_chars_result@0@QAD0NW4chars_format@0@@Z 00402cc0 f i Crinkler.obj
 0001:00001cf0       ??$_Floating_to_chars_scientific_precision@M@std@@YA?AUto_chars_result@0@QAD0MH@Z 00402cf0 f i Crinkler.obj
 0001:00001d40       ??$_Floating_to_chars_scientific_precision@N@std@@YA?AUto_chars_result@0@QAD0NH@Z 00402d40 f i Crinkler.obj
 0001:00001d80       ??$_Fmt_write@DV?$back_insert_iterator@V?$_Fmt_buffer@D@std@@@std@@@std@@YA?AV?$back_insert_iterator@V?$_Fmt_buffer@D@std@@@0@V10@D@Z 00402d80 f i Crinkler.obj
 0001:00001dc0       ??$_Fmt_write@DV?$back_insert_iterator@V?$_Fmt_buffer@D@std@@@std@@@std@@YA?AV?$back_insert_iterator@V?$_Fmt_buffer@D@std@@@0@V10@DU?$_Basic_format_specs@D@0@V_Lazy_locale@0@@Z 00402dc0 f i Crinkler.obj
 0001:00001e30       ??$_Fmt_write@DV?$back_insert_iterator@V?$_Fmt_buffer@D@std@@@std@@@std@@YA?AV?$back_insert_iterator@V?$_Fmt_buffer@D@std@@@0@V10@PBD@Z 00402e30 f i Crinkler.obj
 0001:00001e90       ??$_Fmt_write@DV?$back_insert_iterator@V?$_Fmt_buffer@D@std@@@std@@@std@@YA?AV?$back_insert_iterator@V?$_Fmt_buffer@D@std@@@0@V10@PBDABU?$_Basic_format_specs@D@0@V_Lazy_locale@0@@Z 00402e90 f i Crinkler.obj
 0001:00001ed0       ??$_Fmt_write@DV?$back_insert_iterator@V?$_Fmt_buffer@D@std@@@std@@@std@@YA?AV?$back_insert_iterator@V?$_Fmt_buffer@D@std@@@0@V10@QBX@Z 00402ed0 f i Crinkler.obj
 0001:00001f80       ??$_Fmt_write@DV?$back_insert_iterator@V?$_Fmt_buffer@D@std@@@std@@@std@@YA?AV?$back_insert_iterator@V?$_Fmt_buffer@D@std@@@0@V10@QBXABU?$_Basic_format_specs@D@0@V_Lazy_locale@0@@Z 00402f80 f i Crinkler.obj
 0001:000020d0       ??$_Fmt_write@DV?$back_insert_iterator@V?$_Fmt_buffer@D@std@@@std@@@std@@YA?AV?$back_insert_iterator@V?$_Fmt_buffer@D@std@@@0@V10@Umonostate@0@@Z 004030d0 f i Crinkler.obj
 0001:000020d0       ??$_Fmt_write@DV?$back_insert_iterator@V?$_Fmt_buffer@D@std@@@std@@@std@@YA?AV?$back_insert_iterator@V?$_Fmt_buffer@D@std@@@0@V10@Umonostate@0@ABU?$_Basic_format_specs@D@0@V_Lazy_locale@0@@Z 004030d0 f i Crinkler.obj
 0001:000020e0       ??$_Fmt_write@DV?$back_insert_iterator@V?$_Fmt_buffer@D@std@@@std@@@std@@YA?AV?$back_insert_iterator@V?$_Fmt_buffer@D@std@@@0@V10@V?$basic_string_view@DU?$char_traits@D@std@@@0@@Z 004030e0 f i Crinkler.obj
 0001:00002100       ??$_Fmt_write@DV?$back_insert_iterator@V?$_Fmt_buffer@D@std@@@std@@@std@@YA?AV?$back_insert_iterator@V?$_Fmt_buffer@D@std@@@0@V10@V?$basic_string_view@DU?$char_traits@D@std@@@0@ABU?$_Basic_format_specs@D@0@V_Lazy_locale@0@@Z 00403100 f i Crinkler.obj
 0001:00002190       ??$_Fmt_write@DV?$back_insert_iterator@V?$_Fmt_buffer@D@std@@@std@@@std@@YA?AV?$back_insert_iterator@V?$_Fmt_buffer@D@std@@@0@V10@_N@Z 00403190 f i Crinkler.obj
 0001:000021c0       ??$_Fmt_write@DV?$back_insert_iterator@V?$_Fmt_buffer@D@std@@@std@@@std@@YA?AV?$back_insert_iterator@V?$_Fmt_buffer@D@std@@@0@V10@_NU?$_Basic_format_specs@D@0@V_Lazy_locale@0@@Z 004031c0 f i Crinkler.obj
 0001:000023c0       ??$_Fmt_write@DV?$back_insert_iterator@V?$_Fmt_buffer@D@std@@@std@@H@std@@YA?AV?$back_insert_iterator@V?$_Fmt_buffer@D@std@@@0@V10@H@Z 004033c0 f i Crinkler.obj
 0001:00002470       ??$_Fmt_write@DV?$back_insert_iterator@V?$_Fmt_buffer@D@std@@@std@@H@std@@YA?AV?$back_insert_iterator@V?$_Fmt_buffer@D@std@@@0@V10@HABU?$_Basic_format_specs@D@0@V_Lazy_locale@0@@Z 00403470 f i Crinkler.obj
 0001:000024b0       ??$_Fmt_write@DV?$back_insert_iterator@V?$_Fmt_buffer@D@std@@@std@@I@std@@YA?AV?$back_insert_iterator@V?$_Fmt_buffer@D@std@@@0@V10@I@Z 004034b0 f i Crinkler.obj
 0001:00002540       ??$_Fmt_write@DV?$back_insert_iterator@V?$_Fmt_buffer@D@std@@@std@@I@std@@YA?AV?$back_insert_iterator@V?$_Fmt_buffer@D@std@@@0@V10@IABU?$_Basic_format_specs@D@0@V_Lazy_locale@0@@Z 00403540 f i Crinkler.obj
 0001:00002580       ??$_Fmt_write@DV?$back_insert_iterator@V?$_Fmt_buffer@D@std@@@std@@M@std@@YA?AV?$back_insert_iterator@V?$_Fmt_buffer@D@std@@@0@V10@M@Z 00403580 f i Crinkler.obj
 0001:00002620       ??$_Fmt_write@DV?$back_insert_iterator@V?$_Fmt_buffer@D@std@@@std@@M@std@@YA?AV?$back_insert_iterator@V?$_Fmt_buffer@D@std@@@0@V10@MABU?$_Basic_format_specs@D@0@V_Lazy_locale@0@@Z 00403620 f i Crinkler.obj
 0001:00002d10       ??$_Fmt_write@DV?$back_insert_iterator@V?$_Fmt_buffer@D@std@@@std@@N@std@@YA?AV?$back_insert_iterator@V?$_Fmt_buffer@D@std@@@0@V10@N@Z 00403d10 f i Crinkler.obj
 0001:00002d10       ??$_Fmt_write@DV?$back_insert_iterator@V?$_Fmt_buffer@D@std@@@std@@O@std@@YA?AV?$back_insert_iterator@V?$_Fmt_buffer@D@std@@@0@V10@O@Z 00403d10 f i Crinkler.obj
 0001:00002db0       ??$_Fmt_write@DV?$back_insert_iterator@V?$_Fmt_buffer@D@std@@@std@@N@std@@YA?AV?$back_insert_iterator@V?$_Fmt_buffer@D@std@@@0@V10@NABU?$_Basic_format_specs@D@0@V_Lazy_locale@0@@Z 00403db0 f i Crinkler.obj
 0001:00002db0       ??$_Fmt_write@DV?$back_insert_iterator@V?$_Fmt_buffer@D@std@@@std@@O@std@@YA?AV?$back_insert_iterator@V?$_Fmt_buffer@D@std@@@0@V10@OABU?$_Basic_format_specs@D@0@V_Lazy_locale@0@@Z 00403db0 f i Crinkler.obj
 0001:000034a0       ??$_Fmt_write@DV?$back_insert_iterator@V?$_Fmt_buffer@D@std@@@std@@_J@std@@YA?AV?$back_insert_iterator@V?$_Fmt_buffer@D@std@@@0@V10@_J@Z 004044a0 f i Crinkler.obj
 0001:000034e0       ??$_Fmt_write@DV?$back_insert_iterator@V?$_Fmt_buffer@D@std@@@std@@_J@std@@YA?AV?$back_insert_iterator@V?$_Fmt_buffer@D@std@@@0@V10@_JABU?$_Basic_format_specs@D@0@V_Lazy_locale@0@@Z 004044e0 f i Crinkler.obj
 0001:00003520       ??$_Fmt_write@DV?$back_insert_iterator@V?$_Fmt_buffer@D@std@@@std@@_K@std@@YA?AV?$back_insert_iterator@V?$_Fmt_buffer@D@std@@@0@V10@_K@Z 00404520 f i Crinkler.obj
 0001:00003560       ??$_Fmt_write@DV?$back_insert_iterator@V?$_Fmt_buffer@D@std@@@std@@_K@std@@YA?AV?$back_insert_iterator@V?$_Fmt_buffer@D@std@@@0@V10@_KABU?$_Basic_format_specs@D@0@V_Lazy_locale@0@@Z 00404560 f i Crinkler.obj
 0001:000035a0       ??$_Format_to_it@DV?$back_insert_iterator@V?$vector@DV?$allocator@D@std@@@std@@@std@@V?$basic_format_context@V?$back_insert_iterator@V?$_Fmt_buffer@D@std@@@std@@D@2@@std@@YA?AV?$back_insert_iterator@V?$vector@DV?$allocator@D@std@@@std@@@0@V10@V?$basic_string_view@DU?$char_traits@D@std@@@0@V?$basic_format_args@V?$basic_format_context@V?$back_insert_iterator@V?$_Fmt_buffer@D@std@@@std@@D@std@@@0@V_Lazy_locale@0@@Z 004045a0 f i Crinkler.obj
 0001:00003710       ??$_Get_arg@V?$basic_format_context@V?$back_insert_iterator@V?$_Fmt_buffer@D@std@@@std@@D@std@@@std@@YA?AV?$basic_format_arg@V?$basic_format_context@V?$back_insert_iterator@V?$_Fmt_buffer@D@std@@@std@@D@std@@@0@ABV?$basic_format_context@V?$back_insert_iterator@V?$_Fmt_buffer@D@std@@@std@@D@0@I@Z 00404710 f i Crinkler.obj
 0001:000038b0       ??$_Insert_counted_range@PBD@?$vector@DV?$allocator@D@std@@@std@@AAEXV?$_Vector_const_iterator@V?$_Vector_val@U?$_Simple_types@D@std@@@std@@@1@PBDI@Z 004048b0 f i Crinkler.obj
 0001:00003b40       ??$_Integer_to_chars@H@std@@YA?AUto_chars_result@0@PADQADHH@Z 00404b40 f i Crinkler.obj
 0001:00003cd0       ??$_Integer_to_chars@_J@std@@YA?AUto_chars_result@0@PADQAD_JH@Z 00404cd0 f i Crinkler.obj
 0001:00003fe0       ??$_Integer_to_chars@_K@std@@YA?AUto_chars_result@0@PADQAD_KH@Z 00404fe0 f i Crinkler.obj
 0001:00004350       ??$_Large_integer_to_chars@D@std@@YA?AU?$pair@PADW4errc@std@@@0@QAD0IH@Z 00405350 f i Crinkler.obj
 0001:000044f0       ??$_Maklocchr@D@std@@YADDPADABU_Cvtvec@@@Z 004054f0 f i Crinkler.obj
 0001:00004500       ??$_Maklocstr@D@std@@YAPADPBDPADABU_Cvtvec@@@Z 00405500 f i Crinkler.obj
 0001:00004550       ??$_Measure_string_prefix@D@std@@YAPBDV?$basic_string_view@DU?$char_traits@D@std@@@0@AAH@Z 00405550 f i Crinkler.obj
 0001:000046a0       ??$_Move_unchecked@PADPAD@std@@YAPADPAD00@Z 004056a0 f i Crinkler.obj
 0001:000046b0       ??$_On_type@D@?$_Specs_checker@V?$_Specs_handler@V?$basic_format_parse_context@D@std@@V?$basic_format_context@V?$back_insert_iterator@V?$_Fmt_buffer@D@std@@@std@@D@2@@std@@@std@@QAEXD@Z 004056b0 f i Crinkler.obj
 0001:00004bd0       ??$_Parse_arg_id@DAAU?$_Id_adapter@D@std@@@std@@YAPBDPBD0AAU?$_Id_adapter@D@0@@Z 00405bd0 f i Crinkler.obj
 0001:00004c80       ??$_Parse_arg_id@DU?$_Precision_adapter@DAAV?$_Specs_checker@V?$_Specs_handler@V?$basic_format_parse_context@D@std@@V?$basic_format_context@V?$back_insert_iterator@V?$_Fmt_buffer@D@std@@@std@@D@2@@std@@@std@@@std@@@std@@YAPBDPBD0$$QAU?$_Precision_adapter@DAAV?$_Specs_checker@V?$_Specs_handler@V?$basic_format_parse_context@D@std@@V?$basic_format_context@V?$back_insert_iterator@V?$_Fmt_buffer@D@std@@@std@@D@2@@std@@@std@@@0@@Z 00405c80 f i Crinkler.obj
 0001:00004e00       ??$_Parse_format_specs@DAAV?$_Specs_checker@V?$_Specs_handler@V?$basic_format_parse_context@D@std@@V?$basic_format_context@V?$back_insert_iterator@V?$_Fmt_buffer@D@std@@@std@@D@2@@std@@@std@@@std@@YAPBDPBD0AAV?$_Specs_checker@V?$_Specs_handler@V?$basic_format_parse_context@D@std@@V?$basic_format_context@V?$back_insert_iterator@V?$_Fmt_buffer@D@std@@@std@@D@2@@std@@@0@@Z 00405e00 f i Crinkler.obj
 0001:000050b0       ??$_Parse_nonnegative_integer@D@std@@YAPBDPBD0AAI@Z 004060b0 f i Crinkler.obj
 0001:00005110       ??$_Parse_replacement_field@DAAU?$_Format_handler@D@std@@@std@@YAPBDPBD0AAU?$_Format_handler@D@0@@Z 00406110 f i Crinkler.obj
 0001:000052f0       ??$_Parse_width@DAAV?$_Specs_checker@V?$_Specs_handler@V?$basic_format_parse_context@D@std@@V?$basic_format_context@V?$back_insert_iterator@V?$_Fmt_buffer@D@std@@@std@@D@2@@std@@@std@@@std@@YAPBDPBD0AAV?$_Specs_checker@V?$_Specs_handler@V?$basic_format_parse_context@D@std@@V?$basic_format_context@V?$back_insert_iterator@V?$_Fmt_buffer@D@std@@@std@@D@2@@std@@@0@@Z 004062f0 f i Crinkler.obj
 0001:00005480       ??$_Search_vectorized@$$CBD$$CBD@std@@YAPBDQBD00I@Z 00406480 f i HtmlReport.obj
 0001:00005480       ??$_Search_vectorized@E$$CBE@std@@YAPAEQAE0QBEI@Z 00406480 f i Crinkler.obj
 0001:000054a0       ?AllowGeneralFetchOfReservedContexts@SchedulerBase@details@Concurrency@@MAE_NXZ 004064a0 f   libconcrt:SchedulerBase.obj
 0001:000054a0       ?SweepWaitNode@SingleWaitBlock@details@Concurrency@@UAE_NXZ 004064a0 f   libconcrt:event.obj
 0001:000054a0       ___acrt_uninitialize_command_line 004064a0 f   libucrt:argv_data.obj
 0001:000054a0       __should_initialize_environment 004064a0 f   LIBCMT:env_mode.obj
 0001:000054b0       ??$_Uninitialized_copy_n@PBDV?$allocator@D@std@@@std@@YAPADPBDIPADAAV?$allocator@D@0@@Z 004064b0 f i Crinkler.obj
 0001:000054d0       ??$_Uninitialized_move@PADV?$allocator@D@std@@@std@@YAPADQAD0PADAAV?$allocator@D@0@@Z 004064d0 f i Crinkler.obj
 0001:00005500       ??$_Visit@U?$_Arg_formatter@V?$back_insert_iterator@V?$_Fmt_buffer@D@std@@@std@@D@std@@@?$basic_format_arg@V?$basic_format_context@V?$back_insert_iterator@V?$_Fmt_buffer@D@std@@@std@@D@std@@@std@@QAE?A_T$$QAU?$_Arg_formatter@V?$back_insert_iterator@V?$_Fmt_buffer@D@std@@@std@@D@1@@Z 00406500 f i Crinkler.obj
 0001:000057a0       ??$_Widen_and_copy@DV?$back_insert_iterator@V?$_Fmt_buffer@D@std@@@std@@@std@@YA?AV?$back_insert_iterator@V?$_Fmt_buffer@D@std@@@0@PBDQBDV10@@Z 004067a0 f i Crinkler.obj
 0001:000057f0       ??$_Write_aligned@V?$back_insert_iterator@V?$_Fmt_buffer@D@std@@@std@@U?$_Basic_format_specs@D@2@AAV<lambda_1>@?1???$_Fmt_write@DV?$back_insert_iterator@V?$_Fmt_buffer@D@std@@@std@@@2@YA?AV12@V12@QBXABU32@V_Lazy_locale@2@@Z@@std@@YA?AV?$back_insert_iterator@V?$_Fmt_buffer@D@std@@@0@V10@HABU?$_Basic_format_specs@D@0@W4_Fmt_align@0@AAV<lambda_1>@?1???$_Fmt_write@DV?$back_insert_iterator@V?$_Fmt_buffer@D@std@@@std@@@0@YA?AV10@0QBX1V_Lazy_locale@0@@Z@@Z 004067f0 f i Crinkler.obj
 0001:000058d0       ??$_Write_aligned@V?$back_insert_iterator@V?$_Fmt_buffer@D@std@@@std@@U?$_Basic_format_specs@D@2@AAV<lambda_1>@?1???$_Fmt_write@DV?$back_insert_iterator@V?$_Fmt_buffer@D@std@@@std@@M@2@YA?AV12@V12@MABU32@V_Lazy_locale@2@@Z@@std@@YA?AV?$back_insert_iterator@V?$_Fmt_buffer@D@std@@@0@V10@HABU?$_Basic_format_specs@D@0@W4_Fmt_align@0@AAV<lambda_1>@?1???$_Fmt_write@DV?$back_insert_iterator@V?$_Fmt_buffer@D@std@@@std@@M@0@YA?AV10@0M1V_Lazy_locale@0@@Z@@Z 004068d0 f i Crinkler.obj
 0001:000058d0       ??$_Write_aligned@V?$back_insert_iterator@V?$_Fmt_buffer@D@std@@@std@@U?$_Basic_format_specs@D@2@AAV<lambda_1>@?1???$_Fmt_write@DV?$back_insert_iterator@V?$_Fmt_buffer@D@std@@@std@@N@2@YA?AV12@V12@NABU32@V_Lazy_locale@2@@Z@@std@@YA?AV?$back_insert_iterator@V?$_Fmt_buffer@D@std@@@0@V10@HABU?$_Basic_format_specs@D@0@W4_Fmt_align@0@AAV<lambda_1>@?1???$_Fmt_write@DV?$back_insert_iterator@V?$_Fmt_buffer@D@std@@@std@@N@0@YA?AV10@0N1V_Lazy_locale@0@@Z@@Z 004068d0 f i Crinkler.obj
 0001:000058d0       ??$_Write_aligned@V?$back_insert_iterator@V?$_Fmt_buffer@D@std@@@std@@U?$_Basic_format_specs@D@2@AAV<lambda_1>@?1???$_Fmt_write@DV?$back_insert_iterator@V?$_Fmt_buffer@D@std@@@std@@O@2@YA?AV12@V12@OABU32@V_Lazy_locale@2@@Z@@std@@YA?AV?$back_insert_iterator@V?$_Fmt_buffer@D@std@@@0@V10@HABU?$_Basic_format_specs@D@0@W4_Fmt_align@0@AAV<lambda_1>@?1???$_Fmt_write@DV?$back_insert_iterator@V?$_Fmt_buffer@D@std@@@std@@O@0@YA?AV10@0O1V_Lazy_locale@0@@Z@@Z 004068d0 f i Crinkler.obj
 0001:000059b0       ??$_Write_aligned@V?$back_insert_iterator@V?$_Fmt_buffer@D@std@@@std@@U?$_Basic_format_specs@D@2@AAV<lambda_1>@?1???$_Write_integral@DV?$back_insert_iterator@V?$_Fmt_buffer@D@std@@@std@@E@2@YA?AV12@V12@EU32@V_Lazy_locale@2@@Z@@std@@YA?AV?$back_insert_iterator@V?$_Fmt_buffer@D@std@@@0@V10@HABU?$_Basic_format_specs@D@0@W4_Fmt_align@0@AAV<lambda_1>@?1???$_Write_integral@DV?$back_insert_iterator@V?$_Fmt_buffer@D@std@@@std@@E@0@YA?AV10@0EU20@V_Lazy_locale@0@@Z@@Z 004069b0 f i Crinkler.obj
 0001:000059b0       ??$_Write_aligned@V?$back_insert_iterator@V?$_Fmt_buffer@D@std@@@std@@U?$_Basic_format_specs@D@2@AAV<lambda_1>@?1???$_Write_integral@DV?$back_insert_iterator@V?$_Fmt_buffer@D@std@@@std@@I@2@YA?AV12@V12@IU32@V_Lazy_locale@2@@Z@@std@@YA?AV?$back_insert_iterator@V?$_Fmt_buffer@D@std@@@0@V10@HABU?$_Basic_format_specs@D@0@W4_Fmt_align@0@AAV<lambda_1>@?1???$_Write_integral@DV?$back_insert_iterator@V?$_Fmt_buffer@D@std@@@std@@I@0@YA?AV10@0IU20@V_Lazy_locale@0@@Z@@Z 004069b0 f i Crinkler.obj
 0001:000059b0       ??$_Write_aligned@V?$back_insert_iterator@V?$_Fmt_buffer@D@std@@@std@@U?$_Basic_format_specs@D@2@AAV<lambda_1>@?1???$_Write_integral@DV?$back_insert_iterator@V?$_Fmt_buffer@D@std@@@std@@_K@2@YA?AV12@V12@_KU32@V_Lazy_locale@2@@Z@@std@@YA?AV?$back_insert_iterator@V?$_Fmt_buffer@D@std@@@0@V10@HABU?$_Basic_format_specs@D@0@W4_Fmt_align@0@AAV<lambda_1>@?1???$_Write_integral@DV?$back_insert_iterator@V?$_Fmt_buffer@D@std@@@std@@_K@0@YA?AV10@0_KU20@V_Lazy_locale@0@@Z@@Z 004069b0 f i Crinkler.obj
 0001:00005a90       ??$_Write_aligned@V?$back_insert_iterator@V?$_Fmt_buffer@D@std@@@std@@U?$_Basic_format_specs@D@2@AAV<lambda_1>@?1???$_Write_integral@DV?$back_insert_iterator@V?$_Fmt_buffer@D@std@@@std@@H@2@YA?AV12@V12@HU32@V_Lazy_locale@2@@Z@@std@@YA?AV?$back_insert_iterator@V?$_Fmt_buffer@D@std@@@0@V10@HABU?$_Basic_format_specs@D@0@W4_Fmt_align@0@AAV<lambda_1>@?1???$_Write_integral@DV?$back_insert_iterator@V?$_Fmt_buffer@D@std@@@std@@H@0@YA?AV10@0HU20@V_Lazy_locale@0@@Z@@Z 00406a90 f i Crinkler.obj
 0001:00005b70       ??$_Write_aligned@V?$back_insert_iterator@V?$_Fmt_buffer@D@std@@@std@@U?$_Basic_format_specs@D@2@AAV<lambda_1>@?1???$_Write_integral@DV?$back_insert_iterator@V?$_Fmt_buffer@D@std@@@std@@_J@2@YA?AV12@V12@_JU32@V_Lazy_locale@2@@Z@@std@@YA?AV?$back_insert_iterator@V?$_Fmt_buffer@D@std@@@0@V10@HABU?$_Basic_format_specs@D@0@W4_Fmt_align@0@AAV<lambda_1>@?1???$_Write_integral@DV?$back_insert_iterator@V?$_Fmt_buffer@D@std@@@std@@_J@0@YA?AV10@0_JU20@V_Lazy_locale@0@@Z@@Z 00406b70 f i Crinkler.obj
 0001:00005c50       ??$_Write_aligned@V?$back_insert_iterator@V?$_Fmt_buffer@D@std@@@std@@U?$_Basic_format_specs@D@2@V<lambda_1>@?1???$_Fmt_write@DV?$back_insert_iterator@V?$_Fmt_buffer@D@std@@@std@@@2@YA?AV12@V12@V?$basic_string_view@DU?$char_traits@D@std@@@2@ABU32@V_Lazy_locale@2@@Z@@std@@YA?AV?$back_insert_iterator@V?$_Fmt_buffer@D@std@@@0@V10@HABU?$_Basic_format_specs@D@0@W4_Fmt_align@0@$$QAV<lambda_1>@?1???$_Fmt_write@DV?$back_insert_iterator@V?$_Fmt_buffer@D@std@@@std@@@0@YA?AV10@0V?$basic_string_view@DU?$char_traits@D@std@@@0@1V_Lazy_locale@0@@Z@@Z 00406c50 f i Crinkler.obj
 0001:00005d40       ??$_Write_integral@DV?$back_insert_iterator@V?$_Fmt_buffer@D@std@@@std@@E@std@@YA?AV?$back_insert_iterator@V?$_Fmt_buffer@D@std@@@0@V10@EU?$_Basic_format_specs@D@0@V_Lazy_locale@0@@Z 00406d40 f i Crinkler.obj
 0001:00006300       ??$_Write_integral@DV?$back_insert_iterator@V?$_Fmt_buffer@D@std@@@std@@H@std@@YA?AV?$back_insert_iterator@V?$_Fmt_buffer@D@std@@@0@V10@HU?$_Basic_format_specs@D@0@V_Lazy_locale@0@@Z 00407300 f i Crinkler.obj
 0001:00006770       ??$_Write_integral@DV?$back_insert_iterator@V?$_Fmt_buffer@D@std@@@std@@I@std@@YA?AV?$back_insert_iterator@V?$_Fmt_buffer@D@std@@@0@V10@IU?$_Basic_format_specs@D@0@V_Lazy_locale@0@@Z 00407770 f i Crinkler.obj
 0001:00006bb0       ??$_Write_integral@DV?$back_insert_iterator@V?$_Fmt_buffer@D@std@@@std@@_J@std@@YA?AV?$back_insert_iterator@V?$_Fmt_buffer@D@std@@@0@V10@_JU?$_Basic_format_specs@D@0@V_Lazy_locale@0@@Z 00407bb0 f i Crinkler.obj
 0001:00007040       ??$_Write_integral@DV?$back_insert_iterator@V?$_Fmt_buffer@D@std@@@std@@_K@std@@YA?AV?$back_insert_iterator@V?$_Fmt_buffer@D@std@@@0@V10@_KU?$_Basic_format_specs@D@0@V_Lazy_locale@0@@Z 00408040 f i Crinkler.obj
 0001:00007490       ??$_Write_separated_integer@DV?$back_insert_iterator@V?$_Fmt_buffer@D@std@@@std@@@std@@YA?AV?$back_insert_iterator@V?$_Fmt_buffer@D@std@@@0@PBDQBDV?$basic_string_view@DU?$char_traits@D@std@@@0@DHV10@@Z 00408490 f i Crinkler.obj
 0001:00007570       ??$_Write_sign@V?$back_insert_iterator@V?$_Fmt_buffer@D@std@@@std@@@std@@YA?AV?$back_insert_iterator@V?$_Fmt_buffer@D@std@@@0@V10@W4_Fmt_sign@0@_N@Z 00408570 f i Crinkler.obj
 0001:00007610       ??$_Zero_range@PAD@std@@YAPADQAD0@Z 00408610 f i Export.obj
 0001:00007610       ??$_Zero_range@PAE@std@@YAPAEQAE0@Z 00408610 f i Hunk.obj
 0001:00007610       ??$_Zero_range@PAH@std@@YAPAHQAH0@Z 00408610 f i Crinkler.obj
 0001:00007610       ??$_Zero_range@PAI@std@@YAPAIQAI0@Z 00408610 f i ImportHandler.obj
 0001:00007610       ??$_Zero_range@PAPAPAVHunk@@@std@@YAPAPAPAVHunk@@QAPAPAV1@0@Z 00408610 f i PartList.obj
 0001:00007610       ??$_Zero_range@PAPAVHunk@@@std@@YAPAPAVHunk@@QAPAV1@0@Z 00408610 f i CoffObjectLoader.obj
 0001:00007610       ??$_Zero_range@PAPAVModelList4k@@@std@@YAPAPAVModelList4k@@QAPAV1@0@Z 00408610 f i Crinkler.obj
 0001:00007610       ??$_Zero_range@PAPBD@std@@YAPAPBDQAPBD0@Z 00408610 f i CoffLibraryLoader.obj
 0001:00007630       ??$__append_c_digits@D@std@@YAXIIQAD@Z 00408630 f i Crinkler.obj
 0001:000076b0       ??$__append_n_digits@D@std@@YAXIIQAD@Z 004086b0 f i Crinkler.obj
 0001:00007770       ??$__append_nine_digits@D@std@@YAXIQAD@Z 00408770 f i Crinkler.obj
 0001:000077f0       ??$__d2fixed_buffered_n@D@std@@YA?AU?$pair@PADW4errc@std@@@0@PADQADNI@Z 004087f0 f i Crinkler.obj
 0001:00007c80       ??$__d2s_buffered_n@D@std@@YA?AU?$pair@PADW4errc@std@@@0@QAD0NW4chars_format@0@@Z 00408c80 f i Crinkler.obj
 0001:00007ec0       ??$__f2s_buffered_n@D@std@@YA?AU?$pair@PADW4errc@std@@@0@QAD0MW4chars_format@0@@Z 00408ec0 f i Crinkler.obj
 0001:00007fa0       ??$__to_chars@D@std@@YA?AU?$pair@PADW4errc@std@@@0@QAD0U__floating_decimal_32@0@W4chars_format@0@II@Z 00408fa0 f i Crinkler.obj
 0001:00008320       ??$__to_chars@D@std@@YA?AU?$pair@PADW4errc@std@@@0@QAD0U__floating_decimal_64@0@W4chars_format@0@N@Z 00409320 f i Crinkler.obj
 0001:000089c0       ??$fill_n@PADHD@std@@YAPADPADHABD@Z 004099c0 f i Crinkler.obj
 0001:000089f0       ??$fill_n@PADID@std@@YAPADPADIABD@Z 004099f0 f i Crinkler.obj
 0001:00008a20       ??$format_to@V?$back_insert_iterator@V?$vector@DV?$allocator@D@std@@@std@@@std@@$$V@std@@YA?AV?$back_insert_iterator@V?$vector@DV?$allocator@D@std@@@std@@@0@V10@U?$basic_format_string@D$$V@0@@Z 00409a20 f i Crinkler.obj
 0001:00008a60       ??$format_to@V?$back_insert_iterator@V?$vector@DV?$allocator@D@std@@@std@@@std@@AAH@std@@YA?AV?$back_insert_iterator@V?$vector@DV?$allocator@D@std@@@std@@@0@V10@U?$basic_format_string@DAAH@0@AAH@Z 00409a60 f i Crinkler.obj
 0001:00008a60       ??$format_to@V?$back_insert_iterator@V?$vector@DV?$allocator@D@std@@@std@@@std@@ABH@std@@YA?AV?$back_insert_iterator@V?$vector@DV?$allocator@D@std@@@std@@@0@V10@U?$basic_format_string@DABH@0@ABH@Z 00409a60 f i HtmlReport.obj
 0001:00008a60       ??$format_to@V?$back_insert_iterator@V?$vector@DV?$allocator@D@std@@@std@@@std@@H@std@@YA?AV?$back_insert_iterator@V?$vector@DV?$allocator@D@std@@@std@@@0@V10@U?$basic_format_string@DH@0@$$QAH@Z 00409a60 f i Crinkler.obj
 0001:00008aa0       ??$format_to@V?$back_insert_iterator@V?$vector@DV?$allocator@D@std@@@std@@@std@@AAV?$basic_string@DU?$char_traits@D@std@@V?$allocator@D@2@@2@@std@@YA?AV?$back_insert_iterator@V?$vector@DV?$allocator@D@std@@@std@@@0@V10@U?$basic_format_string@DAAV?$basic_string@DU?$char_traits@D@std@@V?$allocator@D@2@@std@@@0@AAV?$basic_string@DU?$char_traits@D@std@@V?$allocator@D@2@@0@@Z 00409aa0 f i Crinkler.obj
 0001:00008aa0       ??$format_to@V?$back_insert_iterator@V?$vector@DV?$allocator@D@std@@@std@@@std@@ABV?$basic_string@DU?$char_traits@D@std@@V?$allocator@D@2@@2@@std@@YA?AV?$back_insert_iterator@V?$vector@DV?$allocator@D@std@@@std@@@0@V10@U?$basic_format_string@DABV?$basic_string@DU?$char_traits@D@std@@V?$allocator@D@2@@std@@@0@ABV?$basic_string@DU?$char_traits@D@std@@V?$allocator@D@2@@0@@Z 00409aa0 f i Crinkler.obj
 0001:00008ae0       ??$format_to@V?$back_insert_iterator@V?$vector@DV?$allocator@D@std@@@std@@@std@@AAY07$$CBD@std@@YA?AV?$back_insert_iterator@V?$vector@DV?$allocator@D@std@@@std@@@0@V10@U?$basic_format_string@DAAY07$$CBD@0@AAY07$$CBD@Z 00409ae0 f i Crinkler.obj
 0001:00008b20       ??$format_to@V?$back_insert_iterator@V?$vector@DV?$allocator@D@std@@@std@@@std@@AAV?$basic_string@DU?$char_traits@D@std@@V?$allocator@D@2@@2@AAV32@@std@@YA?AV?$back_insert_iterator@V?$vector@DV?$allocator@D@std@@@std@@@0@V10@U?$basic_format_string@DAAV?$basic_string@DU?$char_traits@D@std@@V?$allocator@D@2@@std@@AAV12@@0@AAV?$basic_string@DU?$char_traits@D@std@@V?$allocator@D@2@@0@2@Z 00409b20 f i HtmlReport.obj
 0001:00008b20       ??$format_to@V?$back_insert_iterator@V?$vector@DV?$allocator@D@std@@@std@@@std@@ABV?$basic_string@DU?$char_traits@D@std@@V?$allocator@D@2@@2@ABV32@@std@@YA?AV?$back_insert_iterator@V?$vector@DV?$allocator@D@std@@@std@@@0@V10@U?$basic_format_string@DABV?$basic_string@DU?$char_traits@D@std@@V?$allocator@D@2@@std@@ABV12@@0@ABV?$basic_string@DU?$char_traits@D@std@@V?$allocator@D@2@@0@2@Z 00409b20 f i Crinkler.obj
 0001:00008b70       ??$format_to@V?$back_insert_iterator@V?$vector@DV?$allocator@D@std@@@std@@@std@@AAV?$basic_string@DU?$char_traits@D@std@@V?$allocator@D@2@@2@AAH@std@@YA?AV?$back_insert_iterator@V?$vector@DV?$allocator@D@std@@@std@@@0@V10@U?$basic_format_string@DAAV?$basic_string@DU?$char_traits@D@std@@V?$allocator@D@2@@std@@AAH@0@AAV?$basic_string@DU?$char_traits@D@std@@V?$allocator@D@2@@0@AAH@Z 00409b70 f i HtmlReport.obj
 0001:00008b70       ??$format_to@V?$back_insert_iterator@V?$vector@DV?$allocator@D@std@@@std@@@std@@ABV?$basic_string@DU?$char_traits@D@std@@V?$allocator@D@2@@2@H@std@@YA?AV?$back_insert_iterator@V?$vector@DV?$allocator@D@std@@@std@@@0@V10@U?$basic_format_string@DABV?$basic_string@DU?$char_traits@D@std@@V?$allocator@D@2@@std@@H@0@ABV?$basic_string@DU?$char_traits@D@std@@V?$allocator@D@2@@0@$$QAH@Z 00409b70 f i Crinkler.obj
 0001:00008bc0       ??$format_to@V?$back_insert_iterator@V?$vector@DV?$allocator@D@std@@@std@@@std@@AAPBD@std@@YA?AV?$back_insert_iterator@V?$vector@DV?$allocator@D@std@@@std@@@0@V10@U?$basic_format_string@DAAPBD@0@AAPBD@Z 00409bc0 f i HtmlReport.obj
 0001:00008bc0       ??$format_to@V?$back_insert_iterator@V?$vector@DV?$allocator@D@std@@@std@@@std@@PBD@std@@YA?AV?$back_insert_iterator@V?$vector@DV?$allocator@D@std@@@std@@@0@V10@U?$basic_format_string@DPBD@0@$$QAPBD@Z 00409bc0 f i Crinkler.obj
 0001:00008c00       ??$make_format_args@V?$basic_format_context@V?$back_insert_iterator@V?$_Fmt_buffer@D@std@@@std@@D@std@@$$BY07$$CBD@std@@YA?A_PAAY07$$CBD@Z 00409c00 f i Crinkler.obj
 0001:00008c20       ??$make_format_args@V?$basic_format_context@V?$back_insert_iterator@V?$_Fmt_buffer@D@std@@@std@@D@std@@$$CBV?$basic_string@DU?$char_traits@D@std@@V?$allocator@D@2@@2@$$CBV32@@std@@YA?A_PABV?$basic_string@DU?$char_traits@D@std@@V?$allocator@D@2@@0@0@Z 00409c20 f i Crinkler.obj
 0001:00008c20       ??$make_format_args@V?$basic_format_context@V?$back_insert_iterator@V?$_Fmt_buffer@D@std@@@std@@D@std@@V?$basic_string@DU?$char_traits@D@std@@V?$allocator@D@2@@2@V32@@std@@YA?A_PAAV?$basic_string@DU?$char_traits@D@std@@V?$allocator@D@2@@0@0@Z 00409c20 f i HtmlReport.obj
 0001:00008c80       ??$make_format_args@V?$basic_format_context@V?$back_insert_iterator@V?$_Fmt_buffer@D@std@@@std@@D@std@@$$CBV?$basic_string@DU?$char_traits@D@std@@V?$allocator@D@2@@2@@std@@YA?A_PABV?$basic_string@DU?$char_traits@D@std@@V?$allocator@D@2@@0@@Z 00409c80 f i Crinkler.obj
 0001:00008c80       ??$make_format_args@V?$basic_format_context@V?$back_insert_iterator@V?$_Fmt_buffer@D@std@@@std@@D@std@@V?$basic_string@DU?$char_traits@D@std@@V?$allocator@D@2@@2@@std@@YA?A_PAAV?$basic_string@DU?$char_traits@D@std@@V?$allocator@D@2@@0@@Z 00409c80 f i Crinkler.obj
 0001:00008cb0       ??$make_format_args@V?$basic_format_context@V?$back_insert_iterator@V?$_Fmt_buffer@D@std@@@std@@D@std@@$$CBV?$basic_string@DU?$char_traits@D@std@@V?$allocator@D@2@@2@H@std@@YA?A_PABV?$basic_string@DU?$char_traits@D@std@@V?$allocator@D@2@@0@AAH@Z 00409cb0 f i Crinkler.obj
 0001:00008cb0       ??$make_format_args@V?$basic_format_context@V?$back_insert_iterator@V?$_Fmt_buffer@D@std@@@std@@D@std@@V?$basic_string@DU?$char_traits@D@std@@V?$allocator@D@2@@2@H@std@@YA?A_PAAV?$basic_string@DU?$char_traits@D@std@@V?$allocator@D@2@@0@AAH@Z 00409cb0 f i HtmlReport.obj
 0001:00008d00       ??$make_format_args@V?$basic_format_context@V?$back_insert_iterator@V?$_Fmt_buffer@D@std@@@std@@D@std@@$$CBH@std@@YA?A_PABH@Z 00409d00 f i HtmlReport.obj
 0001:00008d00       ??$make_format_args@V?$basic_format_context@V?$back_insert_iterator@V?$_Fmt_buffer@D@std@@@std@@D@std@@H@std@@YA?A_PAAH@Z 00409d00 f i Crinkler.obj
 0001:00008d20       ??$make_format_args@V?$basic_format_context@V?$back_insert_iterator@V?$_Fmt_buffer@D@std@@@std@@D@std@@PBD@std@@YA?A_PAAPBD@Z 00409d20 f i Crinkler.obj
 0001:00008da0       ??$upper_bound@PBII@std@@YAPBIPBI0ABI@Z 00409da0 f i Crinkler.obj
 0001:00008df0       ??$use_facet@V?$numpunct@D@std@@@std@@YAABV?$numpunct@D@0@ABVlocale@0@@Z 00409df0 f i Crinkler.obj
 0001:00009020       ??$vformat_to@V?$back_insert_iterator@V?$vector@DV?$allocator@D@std@@@std@@@std@@@std@@YA?AV?$back_insert_iterator@V?$vector@DV?$allocator@D@std@@@std@@@0@V10@V?$basic_string_view@DU?$char_traits@D@std@@@0@V?$basic_format_args@V?$basic_format_context@V?$back_insert_iterator@V?$_Fmt_buffer@D@std@@@std@@D@std@@@0@@Z 0040a020 f i Crinkler.obj
 0001:00009050       ??$visit_format_arg@U?$_Arg_formatter@V?$back_insert_iterator@V?$_Fmt_buffer@D@std@@@std@@D@std@@V?$basic_format_context@V?$back_insert_iterator@V?$_Fmt_buffer@D@std@@@std@@D@2@@std@@YA?A_T$$QAU?$_Arg_formatter@V?$back_insert_iterator@V?$_Fmt_buffer@D@std@@@std@@D@0@V?$basic_format_arg@V?$basic_format_context@V?$back_insert_iterator@V?$_Fmt_buffer@D@std@@@std@@D@std@@@0@@Z 0040a050 f i Crinkler.obj
 0001:00009070       ??$visit_format_arg@U?$_Default_arg_formatter@V?$back_insert_iterator@V?$_Fmt_buffer@D@std@@@std@@D@std@@V?$basic_format_context@V?$back_insert_iterator@V?$_Fmt_buffer@D@std@@@std@@D@2@@std@@YA?A_T$$QAU?$_Default_arg_formatter@V?$back_insert_iterator@V?$_Fmt_buffer@D@std@@@std@@D@0@V?$basic_format_arg@V?$basic_format_context@V?$back_insert_iterator@V?$_Fmt_buffer@D@std@@@std@@D@std@@@0@@Z 0040a070 f i Crinkler.obj
 0001:000092d0       ??$visit_format_arg@V_Precision_checker@std@@V?$basic_format_context@V?$back_insert_iterator@V?$_Fmt_buffer@D@std@@@std@@D@2@@std@@YA?A_T$$QAV_Precision_checker@0@V?$basic_format_arg@V?$basic_format_context@V?$back_insert_iterator@V?$_Fmt_buffer@D@std@@@std@@D@std@@@0@@Z 0040a2d0 f i Crinkler.obj
 0001:000093f0       ??$visit_format_arg@V_Width_checker@std@@V?$basic_format_context@V?$back_insert_iterator@V?$_Fmt_buffer@D@std@@@std@@D@2@@std@@YA?A_T$$QAV_Width_checker@0@V?$basic_format_arg@V?$basic_format_context@V?$back_insert_iterator@V?$_Fmt_buffer@D@std@@@std@@D@std@@@0@@Z 0040a3f0 f i Crinkler.obj
 0001:00009510       ??0?$basic_string@DU?$char_traits@D@std@@V?$allocator@D@2@@std@@QAE@ABV01@@Z 0040a510 f i Crinkler.obj
 0001:00009630       ??0?$vector@HV?$allocator@H@std@@@std@@QAE@IABV?$allocator@H@1@@Z 0040a630 f i Crinkler.obj
 0001:00009630       ??0?$vector@PAVModelList4k@@V?$allocator@PAVModelList4k@@@std@@@std@@QAE@IABV?$allocator@PAVModelList4k@@@1@@Z 0040a630 f i Crinkler.obj
 0001:000096b0       ??0Crinkler@@QAE@XZ        0040a6b0 f   Crinkler.obj
 0001:00009970       ??0Part@@QAE@PBD_N@Z       0040a970 f i Crinkler.obj
 0001:00009a10       ??0_UnrealizedChore@details@Concurrency@@QAE@XZ 0040aa10 f i Crinkler.obj
 0001:00009a40       ??0bad_alloc@std@@QAE@ABV01@@Z 0040aa40 f i Crinkler.obj
 0001:00009a70       ??0bad_alloc@std@@QAE@XZ   0040aa70 f i Crinkler.obj
 0001:00009a90       ??0bad_array_new_length@std@@QAE@ABV01@@Z 0040aa90 f i Crinkler.obj
 0001:00009ac0       ??0bad_array_new_length@std@@QAE@XZ 0040aac0 f i Crinkler.obj
 0001:00009ae0       ??0bad_cast@std@@QAE@ABV01@@Z 0040aae0 f i Crinkler.obj
 0001:00009b10       ??0exception@std@@QAE@ABV01@@Z 0040ab10 f i Crinkler.obj
 0001:00009b40       ??0format_error@std@@QAE@ABV01@@Z 0040ab40 f i Crinkler.obj
 0001:00009b70       ??0format_error@std@@QAE@PBD@Z 0040ab70 f i Crinkler.obj
 0001:00009bb0       ??0invalid_argument@std@@QAE@ABV01@@Z 0040abb0 f i Crinkler.obj
 0001:00009be0       ??0invalid_argument@std@@QAE@PBD@Z 0040abe0 f i Crinkler.obj
 0001:00009c20       ??0logic_error@std@@QAE@ABV01@@Z 0040ac20 f i Crinkler.obj
 0001:00009c50       ??0runtime_error@std@@QAE@ABV01@@Z 0040ac50 f i Crinkler.obj
 0001:00009c80       ??0structured_task_group@Concurrency@@QAE@XZ 0040ac80 f i Crinkler.obj
 0001:00009d80       ??1?$vector@PAVCmdParam@@V?$allocator@PAVCmdParam@@@std@@@std@@QAE@XZ 0040ad80 f i CmdLineInterface.obj
 0001:00009d80       ??1?$vector@PAVHunk@@V?$allocator@PAVHunk@@@std@@@std@@QAE@XZ 0040ad80 f i Crinkler.obj
 0001:00009d80       ??1?$vector@PAVPart@@V?$allocator@PAVPart@@@std@@@std@@QAE@XZ 0040ad80 f i PartList.obj
 0001:00009d80       ??1?$vector@PAVProgressBar@@V?$allocator@PAVProgressBar@@@std@@@std@@QAE@XZ 0040ad80 f i Crinkler.obj
 0001:00009d80       ??1?$vector@PAVSymbol@@V?$allocator@PAVSymbol@@@std@@@std@@QAE@XZ 0040ad80 f i Hunk.obj
 0001:00009d80       ?_Tidy@?$vector@HV?$allocator@H@std@@@std@@AAEXXZ 0040ad80 f i Crinkler.obj
 0001:00009d80       ?_Tidy@?$vector@IV?$allocator@I@std@@@std@@AAEXXZ 0040ad80 f i Crinkler.obj
 0001:00009d80       ?_Tidy@?$vector@PAVModelList4k@@V?$allocator@PAVModelList4k@@@std@@@std@@AAEXXZ 0040ad80 f i Crinkler.obj
 0001:00009d80       ?_Tidy@?$vector@PBDV?$allocator@PBD@std@@@std@@AAEXXZ 0040ad80 f i CoffLibraryLoader.obj
 0001:00009de0       ??1?$vector@V?$basic_string@DU?$char_traits@D@std@@V?$allocator@D@2@@std@@V?$allocator@V?$basic_string@DU?$char_traits@D@std@@V?$allocator@D@2@@std@@@2@@std@@QAE@XZ 0040ade0 f i Crinkler.obj
 0001:00009de0       ?_Tidy@?$vector@V?$basic_string@DU?$char_traits@D@std@@V?$allocator@D@2@@std@@V?$allocator@V?$basic_string@DU?$char_traits@D@std@@V?$allocator@D@2@@std@@@2@@std@@AAEXXZ 0040ade0 f i ImportHandler.obj
 0001:00009e70       ??1Crinkler@@QAE@XZ        0040ae70 f   Crinkler.obj
 0001:00009f50       ??1_Locinfo@std@@QAE@XZ    0040af50 f i Crinkler.obj
 0001:00009ff0       ??1_Interruption_exception@details@Concurrency@@UAE@XZ 0040aff0 f i libconcrt:Chores.obj
 0001:00009ff0       ??1__non_rtti_object@std@@UAE@XZ 0040aff0 f i libvcruntime:rtti.obj
 0001:00009ff0       ??1bad_alloc@std@@UAE@XZ   0040aff0 f i Crinkler.obj
 0001:00009ff0       ??1bad_array_new_length@std@@UAE@XZ 0040aff0 f i Crinkler.obj
 0001:00009ff0       ??1bad_cast@std@@UAE@XZ    0040aff0 f i Crinkler.obj
 0001:00009ff0       ??1bad_exception@std@@UAE@XZ 0040aff0 f i libvcruntime:frame.obj
 0001:00009ff0       ??1bad_function_call@std@@UAE@XZ 0040aff0 f i libcpmt:xthrow.obj
 0001:00009ff0       ??1context_self_unblock@Concurrency@@UAE@XZ 0040aff0 f i libconcrt:Exceptions.obj
 0001:00009ff0       ??1context_unblock_unbalanced@Concurrency@@UAE@XZ 0040aff0 f i libconcrt:Exceptions.obj
 0001:00009ff0       ??1format_error@std@@UAE@XZ 0040aff0 f i Crinkler.obj
 0001:00009ff0       ??1improper_lock@Concurrency@@UAE@XZ 0040aff0 f i libconcrt:rtlocks.obj
 0001:00009ff0       ??1improper_scheduler_attach@Concurrency@@UAE@XZ 0040aff0 f i libconcrt:SchedulerBase.obj
 0001:00009ff0       ??1improper_scheduler_reference@Concurrency@@UAE@XZ 0040aff0 f i libconcrt:SchedulerBase.obj
 0001:00009ff0       ??1invalid_argument@std@@UAE@XZ 0040aff0 f i Crinkler.obj
 0001:00009ff0       ??1invalid_multiple_scheduling@Concurrency@@UAE@XZ 0040aff0 f i libconcrt:TaskCollection.obj
 0001:00009ff0       ??1invalid_operation@Concurrency@@UAE@XZ 0040aff0 f i libconcrt:ResourceManager.obj
 0001:00009ff0       ??1invalid_oversubscribe_operation@Concurrency@@UAE@XZ 0040aff0 f i libconcrt:Exceptions.obj
 0001:00009ff0       ??1invalid_scheduler_policy_key@Concurrency@@UAE@XZ 0040aff0 f i libconcrt:Exceptions.obj
 0001:00009ff0       ??1invalid_scheduler_policy_thread_specification@Concurrency@@UAE@XZ 0040aff0 f i libconcrt:Exceptions.obj
 0001:00009ff0       ??1invalid_scheduler_policy_value@Concurrency@@UAE@XZ 0040aff0 f i libconcrt:Exceptions.obj
 0001:00009ff0       ??1length_error@std@@UAE@XZ 0040aff0 f i libcpmt:xthrow.obj
 0001:00009ff0       ??1missing_wait@Concurrency@@UAE@XZ 0040aff0 f i libconcrt:Chores.obj
 0001:00009ff0       ??1nested_scheduler_missing_detach@Concurrency@@UAE@XZ 0040aff0 f i libconcrt:Exceptions.obj
 0001:00009ff0       ??1out_of_range@std@@UAE@XZ 0040aff0 f i libcpmt:xthrow.obj
 0001:00009ff0       ??1runtime_error@std@@UAE@XZ 0040aff0 f i Crinkler.obj
 0001:00009ff0       ??1scheduler_resource_allocation_error@Concurrency@@UAE@XZ 0040aff0 f i libconcrt:utils.obj
 0001:00009ff0       ??1scheduler_worker_creation_error@Concurrency@@UAE@XZ 0040aff0 f i libconcrt:Exceptions.obj
 0001:00009ff0       ??1system_error@std@@UAE@XZ 0040aff0 f i HtmlReport.obj
 0001:0000a010       ??E?$_Grapheme_break_property_iterator@D@std@@QAEAAV01@XZ 0040b010 f i Crinkler.obj
 0001:0000a290       ??R<lambda_1>@?1???$_Fmt_write@DV?$back_insert_iterator@V?$_Fmt_buffer@D@std@@@std@@@std@@YA?AV?$back_insert_iterator@V?$_Fmt_buffer@D@std@@@1@V21@QBXABU?$_Basic_format_specs@D@1@V_Lazy_locale@1@@Z@QBE@0@Z 0040b290 f i Crinkler.obj
 0001:0000a340       ??R<lambda_1>@?1???$_Fmt_write@DV?$back_insert_iterator@V?$_Fmt_buffer@D@std@@@std@@M@std@@YA?AV?$back_insert_iterator@V?$_Fmt_buffer@D@std@@@1@V21@MABU?$_Basic_format_specs@D@1@V_Lazy_locale@1@@Z@QBE@0@Z 0040b340 f i Crinkler.obj
 0001:0000a340       ??R<lambda_1>@?1???$_Fmt_write@DV?$back_insert_iterator@V?$_Fmt_buffer@D@std@@@std@@N@std@@YA?AV?$back_insert_iterator@V?$_Fmt_buffer@D@std@@@1@V21@NABU?$_Basic_format_specs@D@1@V_Lazy_locale@1@@Z@QBE@0@Z 0040b340 f i Crinkler.obj
 0001:0000a340       ??R<lambda_1>@?1???$_Fmt_write@DV?$back_insert_iterator@V?$_Fmt_buffer@D@std@@@std@@O@std@@YA?AV?$back_insert_iterator@V?$_Fmt_buffer@D@std@@@1@V21@OABU?$_Basic_format_specs@D@1@V_Lazy_locale@1@@Z@QBE@0@Z 0040b340 f i Crinkler.obj
 0001:0000a5a0       ??R<lambda_1>@?1???$_Write_integral@DV?$back_insert_iterator@V?$_Fmt_buffer@D@std@@@std@@E@std@@YA?AV?$back_insert_iterator@V?$_Fmt_buffer@D@std@@@1@V21@EU?$_Basic_format_specs@D@1@V_Lazy_locale@1@@Z@QBE@0@Z 0040b5a0 f i Crinkler.obj
 0001:0000a5a0       ??R<lambda_1>@?1???$_Write_integral@DV?$back_insert_iterator@V?$_Fmt_buffer@D@std@@@std@@I@std@@YA?AV?$back_insert_iterator@V?$_Fmt_buffer@D@std@@@1@V21@IU?$_Basic_format_specs@D@1@V_Lazy_locale@1@@Z@QBE@0@Z 0040b5a0 f i Crinkler.obj
 0001:0000a5a0       ??R<lambda_1>@?1???$_Write_integral@DV?$back_insert_iterator@V?$_Fmt_buffer@D@std@@@std@@_K@std@@YA?AV?$back_insert_iterator@V?$_Fmt_buffer@D@std@@@1@V21@_KU?$_Basic_format_specs@D@1@V_Lazy_locale@1@@Z@QBE@0@Z 0040b5a0 f i Crinkler.obj
 0001:0000a6e0       ??R<lambda_1>@?1???$_Write_integral@DV?$back_insert_iterator@V?$_Fmt_buffer@D@std@@@std@@H@std@@YA?AV?$back_insert_iterator@V?$_Fmt_buffer@D@std@@@1@V21@HU?$_Basic_format_specs@D@1@V_Lazy_locale@1@@Z@QBE@0@Z 0040b6e0 f i Crinkler.obj
 0001:0000a830       ??R<lambda_1>@?1???$_Write_integral@DV?$back_insert_iterator@V?$_Fmt_buffer@D@std@@@std@@_J@std@@YA?AV?$back_insert_iterator@V?$_Fmt_buffer@D@std@@@1@V21@_JU?$_Basic_format_specs@D@1@V_Lazy_locale@1@@Z@QBE@0@Z 0040b830 f i Crinkler.obj
 0001:0000b050       ??R?$_Arg_formatter@V?$back_insert_iterator@V?$_Fmt_buffer@D@std@@@std@@D@std@@QAE?AV?$back_insert_iterator@V?$_Fmt_buffer@D@std@@@1@Vhandle@?$basic_format_arg@V?$basic_format_context@V?$back_insert_iterator@V?$_Fmt_buffer@D@std@@@std@@D@std@@@1@@Z 0040c050 f i Crinkler.obj
 0001:0000b530       ??_E?$numpunct@D@std@@MAEPAXI@Z 0040c530 f i Crinkler.obj
 0001:0000b530       ??_G?$numpunct@D@std@@MAEPAXI@Z 0040c530 f i Crinkler.obj
 0001:0000b5d0       ??_ECompositeProgressBar@@UAEPAXI@Z 0040c5d0 f i Crinkler.obj
 0001:0000b5d0       ??_GCompositeProgressBar@@UAEPAXI@Z 0040c5d0 f i Crinkler.obj
 0001:0000b600       ??_GCompressionReportRecord@@QAEPAXI@Z 0040c600 f i Crinkler.obj
 0001:0000b6b0       ??_EConsoleProgressBar@@UAEPAXI@Z 0040c6b0 f i Crinkler.obj
 0001:0000b6b0       ??_GConsoleProgressBar@@UAEPAXI@Z 0040c6b0 f i Crinkler.obj
 0001:0000b6e0       ??_EProgressBar@@UAEPAXI@Z 0040c6e0 f i Crinkler.obj
 0001:0000b6e0       ??_GProgressBar@@UAEPAXI@Z 0040c6e0 f i Crinkler.obj
 0001:0000b710       ??_GReuse@@QAEPAXI@Z       0040c710 f i Crinkler.obj
 0001:0000b7c0       ??_EWindowProgressBar@@UAEPAXI@Z 0040c7c0 f i Crinkler.obj
 0001:0000b7c0       ??_GWindowProgressBar@@UAEPAXI@Z 0040c7c0 f i Crinkler.obj
 0001:0000b7f0       ??_E_Chore@details@Concurrency@@MAEPAXI@Z 0040c7f0 f i Crinkler.obj
 0001:0000b7f0       ??_G_Chore@details@Concurrency@@MAEPAXI@Z 0040c7f0 f i Crinkler.obj
 0001:0000b820       ??_E_Facet_base@std@@UAEPAXI@Z 0040c820 f i Crinkler.obj
 0001:0000b820       ??_G_Facet_base@std@@UAEPAXI@Z 0040c820 f i Crinkler.obj
 0001:0000b850       ??_E_UnrealizedChore@details@Concurrency@@UAEPAXI@Z 0040c850 f i Crinkler.obj
 0001:0000b850       ??_G_UnrealizedChore@details@Concurrency@@UAEPAXI@Z 0040c850 f i Crinkler.obj
 0001:0000b890       ??_Ebad_alloc@std@@UAEPAXI@Z 0040c890 f i Crinkler.obj
 0001:0000b890       ??_Ebad_array_new_length@std@@UAEPAXI@Z 0040c890 f i Crinkler.obj
 0001:0000b890       ??_Ebad_cast@std@@UAEPAXI@Z 0040c890 f i Crinkler.obj
 0001:0000b890       ??_Eexception@std@@UAEPAXI@Z 0040c890 f i Crinkler.obj
 0001:0000b890       ??_Eformat_error@std@@UAEPAXI@Z 0040c890 f i Crinkler.obj
 0001:0000b890       ??_Einvalid_argument@std@@UAEPAXI@Z 0040c890 f i Crinkler.obj
 0001:0000b890       ??_Elogic_error@std@@UAEPAXI@Z 0040c890 f i Crinkler.obj
 0001:0000b890       ??_Eruntime_error@std@@UAEPAXI@Z 0040c890 f i Crinkler.obj
 0001:0000b890       ??_Gbad_alloc@std@@UAEPAXI@Z 0040c890 f i Crinkler.obj
 0001:0000b890       ??_Gbad_array_new_length@std@@UAEPAXI@Z 0040c890 f i Crinkler.obj
 0001:0000b890       ??_Gbad_cast@std@@UAEPAXI@Z 0040c890 f i Crinkler.obj
 0001:0000b890       ??_Gexception@std@@UAEPAXI@Z 0040c890 f i Crinkler.obj
 0001:0000b890       ??_Gformat_error@std@@UAEPAXI@Z 0040c890 f i Crinkler.obj
 0001:0000b890       ??_Ginvalid_argument@std@@UAEPAXI@Z 0040c890 f i Crinkler.obj
 0001:0000b890       ??_Glogic_error@std@@UAEPAXI@Z 0040c890 f i Crinkler.obj
 0001:0000b890       ??_Gruntime_error@std@@UAEPAXI@Z 0040c890 f i Crinkler.obj
 0001:0000b8c0       ??_H@YGXPAXIIP6EPAX0@Z@Z   0040c8c0 f i Crinkler.obj
 0001:0000b8f0       ?AddExport@Crinkler@@QAEXVExport@@@Z 0040c8f0 f i Crinkler.obj
 0001:0000bac0       ?AddRuntimeLibrary@Crinkler@@QAEXXZ 0040cac0 f   Crinkler.obj
 0001:0000bb20       ?CompressParts4k@Crinkler@@AAEHAAVPartList@@PAVHunk@@PAEHHPAH@Z 0040cb20 f   Crinkler.obj
 0001:0000bbe0       ?CreateDynamicInitializerHunk@Crinkler@@AAEPAVHunk@@XZ 0040cbe0 f   Crinkler.obj
 0001:0000be70       ?CreateModelHunk4k@Crinkler@@AAEPAVHunk@@AAVPartList@@@Z 0040ce70 f   Crinkler.obj
 0001:0000bf80       ??1critical_section@Concurrency@@QAE@XZ 0040cf80 f i libconcrt:rtlocks.obj
 0001:0000bf80       ?Deinit@ProgressBar@@UAEXXZ 0040cf80 f i Crinkler.obj
 0001:0000bf80       ?Destroy@WaitAnyBlock@details@Concurrency@@UAEXXZ 0040cf80 f i libconcrt:event.obj
 0001:0000bf80       ?EndTask@ConsoleProgressBar@@UAEXXZ 0040cf80 f i ConsoleProgressBar.obj
 0001:0000bf80       ?EndTask@WindowProgressBar@@UAEXXZ 0040cf80 f i WindowProgressBar.obj
 0001:0000bf80       ?Init@ProgressBar@@UAEXXZ  0040cf80 f i Crinkler.obj
 0001:0000bf80       ?NotifyAffinitizedWork@FairScheduleGroupSegment@details@Concurrency@@UAEXXZ 0040cf80 f i libconcrt:SchedulerBase.obj
 0001:0000bf80       ?RMAwaken@InternalContextBase@details@Concurrency@@EAEXXZ 0040cf80 f i libconcrt:InternalContextBase.obj
 0001:0000bf80       ?__empty_global_delete@@YAXPAXI@Z 0040cf80 f i Crinkler.obj
 0001:0000bf80       ?__global_delete@@YAXPAXI@Z 0040cf80 f i Crinkler.obj
 0001:0000bf80       @_guard_check_icall_nop@4  0040cf80 f i LIBCMT:guard_support.obj
 0001:0000bf80       __initialize_denormal_control 0040cf80 f i LIBCMT:denormal_control.obj
 0001:0000bf80       __initialize_invalid_parameter_handler 0040cf80 f i LIBCMT:invalid_parameter_handler.obj
 0001:0000bf90       ?DeinitProgressBar@Crinkler@@AAEXXZ 0040cf90 f   Crinkler.obj
 0001:0000bfa0       ?EstimateModels@Crinkler@@AAEHAAVPartList@@PAVHunk@@_N2@Z 0040cfa0 f   Crinkler.obj
 0001:0000c2b0       ?EvaluatePartsSize4k@Crinkler@@AAEHAAVPartList@@PAVHunk@@@Z 0040d2b0 f   Crinkler.obj
 0001:0000c420       ?FinalLink@Crinkler@@AAEPAVHunk@@AAVPartList@@PAV2@111PAEHH@Z 0040d420 f   Crinkler.obj
 0001:0000c630       ?FindEntryPoint@Crinkler@@AAEPAVSymbol@@XZ 0040d630 f   Crinkler.obj
 0001:0000c6f0       ?FindSymbol@SymbolMap@@QBEPAVSymbol@@ABV?$basic_string@DU?$char_traits@D@std@@V?$allocator@D@2@@std@@@Z 0040d6f0 f i Crinkler.obj
 0001:0000c760       ?GetEntrySymbolName@Crinkler@@ABE?AV?$basic_string@DU?$char_traits@D@std@@V?$allocator@D@2@@std@@XZ 0040d760 f   Crinkler.obj
 0001:0000c830       ?InitProgressBar@Crinkler@@AAEXXZ 0040d830 f   Crinkler.obj
 0001:0000c880       ?Link@Crinkler@@QAEXPBD@Z  0040d880 f   Crinkler.obj
 0001:0000d740       ?Load@Crinkler@@QAEXPBD@Z  0040e740 f   Crinkler.obj
 0001:0000d770       ?Load@Crinkler@@QAEXPBDH0@Z 0040e770 f   Crinkler.obj
 0001:0000d790       ?LoadImportCode@Crinkler@@AAEX_N000@Z 0040e790 f   Crinkler.obj
 0001:0000d8d0       ?OptimizeHashsize@Crinkler@@AAEHAAVPartList@@PAVHunk@@HH@Z 0040e8d0 f   Crinkler.obj
 0001:0000e090       ?OverrideAlignments@Crinkler@@AAEXAAVPart@@@Z 0040f090 f   Crinkler.obj
 0001:0000e100       ?PrintOptions@Crinkler@@QAEXV?$back_insert_iterator@V?$vector@DV?$allocator@D@std@@@std@@@std@@@Z 0040f100 f   Crinkler.obj
 0001:0000e680       ?Recompress@Crinkler@@QAEXPBD0@Z 0040f680 f   Crinkler.obj
 0001:0000fd40       ?RemoveUnreferencedHunks@Crinkler@@AAEXPAVHunk@@@Z 00410d40 f   Crinkler.obj
 0001:00010210       ?ReplaceDlls@Crinkler@@AAEXAAVPart@@@Z 00411210 f   Crinkler.obj
 0001:000103b0       ?SetHeaderConstants1k@Crinkler@@AAEXPAVHunk@@0HHHIH@Z 004113b0 f   Crinkler.obj
 0001:000104b0       ?SetHeaderConstants4k@Crinkler@@AAEXPAVHunk@@0AAVPartList@@HHH@Z 004114b0 f   Crinkler.obj
 0001:000105f0       ?SetHeaderConstantsCommon@Crinkler@@AAEXPAVHunk@@H@Z 004115f0 f   Crinkler.obj
 0001:000106c0       ?SetHeaderSaturation@Crinkler@@AAEXPAVHunk@@@Z 004116c0 f   Crinkler.obj
 0001:00010860       ?_Change_array@?$vector@HV?$allocator@H@std@@@std@@AAEXQAHII@Z 00411860 f i Crinkler.obj
 0001:00010860       ?_Change_array@?$vector@IV?$allocator@I@std@@@std@@AAEXQAIII@Z 00411860 f i Compressor:CompressionStream.obj
 0001:00010860       ?_Change_array@?$vector@PAVPart@@V?$allocator@PAVPart@@@std@@@std@@AAEXQAPAVPart@@II@Z 00411860 f i PartList.obj
 0001:00010aa0       ?_Count_separators@std@@YAHIV?$basic_string_view@DU?$char_traits@D@std@@@1@@Z 00411aa0 f i Crinkler.obj
 0001:00010af0       ?_Deallocate_for_capacity@?$basic_string@DU?$char_traits@D@std@@V?$allocator@D@2@@std@@CAXAAV?$allocator@D@2@QADI@Z 00411af0 f i Crinkler.obj
 0001:00010b30       ?_Decode_utf@std@@YA?AU?$_Decode_result@D@1@PBD0AA_U@Z 00411b30 f i Crinkler.obj
 0001:00010cd0       ?_Decref@facet@locale@std@@UAEPAV_Facet_base@3@XZ 00411cd0 f i Crinkler.obj
 0001:00010cf0       ?_Delete_this@?$_Func_impl_no_alloc@P6A_JXZ_J$$V@std@@EAEX_N@Z 00411cf0 f   Compressor:CompressionStateEvaluator.obj
 0001:00011170       ?_Get@?$_Func_impl_no_alloc@P6A_JXZ_J$$V@std@@EBEPBXXZ 00412170 f   Compressor:CompressionStateEvaluator.obj
 0001:00011180       ?_Grow@?$_Fmt_iterator_buffer@V?$back_insert_iterator@V?$vector@DV?$allocator@D@std@@@std@@@std@@DU_Fmt_buffer_traits@2@@std@@EAEXI@Z 00412180 f i Crinkler.obj
 0001:000111c0       ?_Incref@facet@locale@std@@UAEXXZ 004121c0 f i Crinkler.obj
 0001:000111d0       ?_Insert_node@?$_Tree_val@U?$_Tree_simple_types@U?$pair@$$CBHH@std@@@std@@@std@@QAEPAU?$_Tree_node@U?$pair@$$CBHH@std@@PAX@2@U?$_Tree_id@PAU?$_Tree_node@U?$pair@$$CBHH@std@@PAX@std@@@2@QAU32@@Z 004121d0 f i Export.obj
 0001:000111d0       ?_Insert_node@?$_Tree_val@U?$_Tree_simple_types@U?$pair@$$CBHPAVSymbol@@@std@@@std@@@std@@QAEPAU?$_Tree_node@U?$pair@$$CBHPAVSymbol@@@std@@PAX@2@U?$_Tree_id@PAU?$_Tree_node@U?$pair@$$CBHPAVSymbol@@@std@@PAX@std@@@2@QAU32@@Z 004121d0 f i Hunk.obj
 0001:000111d0       ?_Insert_node@?$_Tree_val@U?$_Tree_simple_types@U?$pair@$$CBV?$basic_string@DU?$char_traits@D@std@@V?$allocator@D@2@@std@@H@std@@@std@@@std@@QAEPAU?$_Tree_node@U?$pair@$$CBV?$basic_string@DU?$char_traits@D@std@@V?$allocator@D@2@@std@@H@std@@PAX@2@U?$_Tree_id@PAU?$_Tree_node@U?$pair@$$CBV?$basic_string@DU?$char_traits@D@std@@V?$allocator@D@2@@std@@H@std@@PAX@std@@@2@QAU32@@Z 004121d0 f i CmdParamFlags.obj
 0001:000111d0       ?_Insert_node@?$_Tree_val@U?$_Tree_simple_types@U?$pair@$$CBV?$basic_string@DU?$char_traits@D@std@@V?$allocator@D@2@@std@@PAVMemoryFile@@@std@@@std@@@std@@QAEPAU?$_Tree_node@U?$pair@$$CBV?$basic_string@DU?$char_traits@D@std@@V?$allocator@D@2@@std@@PAVMemoryFile@@@std@@PAX@2@U?$_Tree_id@PAU?$_Tree_node@U?$pair@$$CBV?$basic_string@DU?$char_traits@D@std@@V?$allocator@D@2@@std@@PAVMemoryFile@@@std@@PAX@std@@@2@QAU32@@Z 004121d0 f i main.obj
 0001:000111d0       ?_Insert_node@?$_Tree_val@U?$_Tree_simple_types@U?$pair@$$CBV?$basic_string@DU?$char_traits@D@std@@V?$allocator@D@2@@std@@PAVModelList4k@@@std@@@std@@@std@@QAEPAU?$_Tree_node@U?$pair@$$CBV?$basic_string@DU?$char_traits@D@std@@V?$allocator@D@2@@std@@PAVModelList4k@@@std@@PAX@2@U?$_Tree_id@PAU?$_Tree_node@U?$pair@$$CBV?$basic_string@DU?$char_traits@D@std@@V?$allocator@D@2@@std@@PAVModelList4k@@@std@@PAX@std@@@2@QAU32@@Z 004121d0 f i Reuse.obj
 0001:000111d0       ?_Insert_node@?$_Tree_val@U?$_Tree_simple_types@U?$pair@$$CBV?$basic_string@DU?$char_traits@D@std@@V?$allocator@D@2@@std@@PAVSymbol@@@std@@@std@@@std@@QAEPAU?$_Tree_node@U?$pair@$$CBV?$basic_string@DU?$char_traits@D@std@@V?$allocator@D@2@@std@@PAVSymbol@@@std@@PAX@2@U?$_Tree_id@PAU?$_Tree_node@U?$pair@$$CBV?$basic_string@DU?$char_traits@D@std@@V?$allocator@D@2@@std@@PAVSymbol@@@std@@PAX@std@@@2@QAU32@@Z 004121d0 f i Hunk.obj
 0001:000111d0       ?_Insert_node@?$_Tree_val@U?$_Tree_simple_types@U?$pair@$$CBV?$basic_string@DU?$char_traits@D@std@@V?$allocator@D@2@@std@@V12@@std@@@std@@@std@@QAEPAU?$_Tree_node@U?$pair@$$CBV?$basic_string@DU?$char_traits@D@std@@V?$allocator@D@2@@std@@V12@@std@@PAX@2@U?$_Tree_id@PAU?$_Tree_node@U?$pair@$$CBV?$basic_string@DU?$char_traits@D@std@@V?$allocator@D@2@@std@@V12@@std@@PAX@std@@@2@QAU32@@Z 004121d0 f i HtmlReport.obj
 0001:000111d0       ?_Insert_node@?$_Tree_val@U?$_Tree_simple_types@V?$basic_string@DU?$char_traits@D@std@@V?$allocator@D@2@@std@@@std@@@std@@QAEPAU?$_Tree_node@V?$basic_string@DU?$char_traits@D@std@@V?$allocator@D@2@@std@@PAX@2@U?$_Tree_id@PAU?$_Tree_node@V?$basic_string@DU?$char_traits@D@std@@V?$allocator@D@2@@std@@PAX@std@@@2@QAU32@@Z 004121d0 f i Crinkler.obj
 0001:000111d0       ?_Insert_node@?$_Tree_val@U?$_Tree_simple_types@VExport@@@std@@@std@@QAEPAU?$_Tree_node@VExport@@PAX@2@U?$_Tree_id@PAU?$_Tree_node@VExport@@PAX@std@@@2@QAU32@@Z 004121d0 f i Crinkler.obj
 0001:000113c0       ?_On_replacement_field@?$_Format_handler@D@std@@QAEXIPBD@Z 004123c0 f i Crinkler.obj
 0001:00011440       ?_On_sign@?$_Specs_checker@V?$_Specs_handler@V?$basic_format_parse_context@D@std@@V?$basic_format_context@V?$back_insert_iterator@V?$_Fmt_buffer@D@std@@@std@@D@2@@std@@@std@@QAEXW4_Fmt_sign@2@@Z 00412440 f i Crinkler.obj
 0001:00011470       ?_Reset@?$_SpinWait@$00@details@Concurrency@@IAEXXZ 00412470 f i Crinkler.obj
 0001:000114a0       ?_SpinOnce@?$_SpinWait@$00@details@Concurrency@@QAE_NXZ 004124a0 f i Crinkler.obj
 0001:00011630       ?_Throw_bad_array_new_length@std@@YAXXZ 00412630 f i Crinkler.obj
 0001:00011650       ?_Throw_format_error@std@@YAXPBD@Z 00412650 f i Crinkler.obj
 0001:00011670       ?_Throw_tree_length_error@std@@YAXXZ 00412670 f i Crinkler.obj
 0001:00011680       ??1?$vector@DV?$allocator@D@std@@@std@@QAE@XZ 00412680 f i ImportHandler.obj
 0001:00011680       ?_Tidy@?$vector@DV?$allocator@D@std@@@std@@AAEXXZ 00412680 f i Export.obj
 0001:00011680       ?_Tidy@?$vector@EV?$allocator@E@std@@@std@@AAEXXZ 00412680 f i Crinkler.obj
 0001:000116e0       ?_Tidy@?$vector@UHashBits@@V?$allocator@UHashBits@@@std@@@std@@AAEXXZ 004126e0 f i Crinkler.obj
 0001:00011760       ?_Tidy@?$vector@UTinyHashEntry@@V?$allocator@UTinyHashEntry@@@std@@@std@@AAEXXZ 00412760 f i Crinkler.obj
 0001:000117c0       ??1?$basic_string@DU?$char_traits@D@std@@V?$allocator@D@2@@std@@QAE@XZ 004127c0 f i Export.obj
 0001:000117c0       ?_Tidy_deallocate@?$basic_string@DU?$char_traits@D@std@@V?$allocator@D@2@@std@@AAEXXZ 004127c0 f i Crinkler.obj
 0001:00011820       ?_Xlen_string@std@@YAXXZ   00412820 f i Crinkler.obj
 0001:00011830       ?_Xlength@?$vector@DV?$allocator@D@std@@@std@@CAXXZ 00412830 f i Crinkler.obj
 0001:00011830       ?_Xlength@?$vector@EV?$allocator@E@std@@@std@@CAXXZ 00412830 f i Crinkler.obj
 0001:00011830       ?_Xlength@?$vector@HV?$allocator@H@std@@@std@@CAXXZ 00412830 f i Crinkler.obj
 0001:00011830       ?_Xlength@?$vector@IV?$allocator@I@std@@@std@@CAXXZ 00412830 f i ImportHandler.obj
 0001:00011830       ?_Xlength@?$vector@PAUCompressionReportRecord@@V?$allocator@PAUCompressionReportRecord@@@std@@@std@@CAXXZ 00412830 f i Hunk.obj
 0001:00011830       ?_Xlength@?$vector@PAVCmdParam@@V?$allocator@PAVCmdParam@@@std@@@std@@CAXXZ 00412830 f i CmdLineInterface.obj
 0001:00011830       ?_Xlength@?$vector@PAVHunk@@V?$allocator@PAVHunk@@@std@@@std@@CAXXZ 00412830 f i Crinkler.obj
 0001:00011830       ?_Xlength@?$vector@PAVHunkLoader@@V?$allocator@PAVHunkLoader@@@std@@@std@@CAXXZ 00412830 f i MultiLoader.obj
 0001:00011830       ?_Xlength@?$vector@PAVModelList4k@@V?$allocator@PAVModelList4k@@@std@@@std@@CAXXZ 00412830 f i Crinkler.obj
 0001:00011830       ?_Xlength@?$vector@PAVPart@@V?$allocator@PAVPart@@@std@@@std@@CAXXZ 00412830 f i PartList.obj
 0001:00011830       ?_Xlength@?$vector@PAVProgressBar@@V?$allocator@PAVProgressBar@@@std@@@std@@CAXXZ 00412830 f i CompositeProgressBar.obj
 0001:00011830       ?_Xlength@?$vector@PAVSymbol@@V?$allocator@PAVSymbol@@@std@@@std@@CAXXZ 00412830 f i Crinkler.obj
 0001:00011830       ?_Xlength@?$vector@PBDV?$allocator@PBD@std@@@std@@CAXXZ 00412830 f i CoffLibraryLoader.obj
 0001:00011830       ?_Xlength@?$vector@U?$pair@PADH@std@@V?$allocator@U?$pair@PADH@std@@@2@@std@@CAXXZ 00412830 f i Export.obj
 0001:00011830       ?_Xlength@?$vector@U?$pair@V?$basic_string@DU?$char_traits@D@std@@V?$allocator@D@2@@std@@V12@@std@@V?$allocator@U?$pair@V?$basic_string@DU?$char_traits@D@std@@V?$allocator@D@2@@std@@V12@@std@@@2@@std@@CAXXZ 00412830 f i CmdParamMultiAssign.obj
 0001:00011830       ?_Xlength@?$vector@UHashBits@@V?$allocator@UHashBits@@@std@@@std@@CAXXZ 00412830 f i Crinkler.obj
 0001:00011830       ?_Xlength@?$vector@URelocation@@V?$allocator@URelocation@@@std@@@std@@CAXXZ 00412830 f i Hunk.obj
 0001:00011830       ?_Xlength@?$vector@UTinyHashEntry@@V?$allocator@UTinyHashEntry@@@std@@@std@@CAXXZ 00412830 f i Crinkler.obj
 0001:00011830       ?_Xlength@?$vector@V?$basic_string@DU?$char_traits@D@std@@V?$allocator@D@2@@std@@V?$allocator@V?$basic_string@DU?$char_traits@D@std@@V?$allocator@D@2@@std@@@2@@std@@CAXXZ 00412830 f i ImportHandler.obj
 0001:00011830       ?_Xlength@?$vector@V?$vector@PAVHunk@@V?$allocator@PAVHunk@@@std@@@std@@V?$allocator@V?$vector@PAVHunk@@V?$allocator@PAVHunk@@@std@@@std@@@2@@std@@CAXXZ 00412830 f i Reuse.obj
 0001:00011830       ?_Xlength@?$vector@VReusePart@@V?$allocator@VReusePart@@@std@@@std@@CAXXZ 00412830 f i Reuse.obj
 0001:00011840       ?__append_d_digits@std@@YAXIIQAD@Z 00412840 f i Crinkler.obj
 0001:00011910       ?__d2d@std@@YA?AU__floating_decimal_64@1@_KI@Z 00412910 f i Crinkler.obj
 0001:00012bf0       ?__d2exp_buffered_n@std@@YA?AUto_chars_result@1@PADQADNI@Z 00413bf0 f i Crinkler.obj
 0001:000132a0       ?__decimalLength9@std@@YAII@Z 004142a0 f i Crinkler.obj
 0001:00013310       ?__div100@std@@YA_K_K@Z    00414310 f i Crinkler.obj
 0001:00013370       ?__div1e8@std@@YA_K_K@Z    00414370 f i Crinkler.obj
 0001:000133c0       ?__f2d@std@@YA?AU__floating_decimal_32@1@II@Z 004143c0 f i Crinkler.obj
 0001:00013970       ?__mulPow5InvDivPow2@std@@YAIIIH@Z 00414970 f i Crinkler.obj
 0001:000139c0       ?__mulPow5divPow2@std@@YAIIIH@Z 004149c0 f i Crinkler.obj
 0001:00013a10       ?__mulShift_mod1e9@std@@YAI_KQB_KH@Z 00414a10 f i Crinkler.obj
 0001:00013ce0       ?__multipleOfPowerOf2@std@@YA_N_KI@Z 00414ce0 f i Crinkler.obj
 0001:00013d20       ?__multipleOfPowerOf5@std@@YA_NII@Z 00414d20 f i Crinkler.obj
 0001:00013d60       ?__multipleOfPowerOf5@std@@YA_N_KI@Z 00414d60 f i Crinkler.obj
 0001:00013e20       ?append@?$basic_string@DU?$char_traits@D@std@@V?$allocator@D@2@@std@@QAEAAV12@QBDI@Z 00414e20 f i Crinkler.obj
 0001:00013f80       ?assign@?$basic_string@DU?$char_traits@D@std@@V?$allocator@D@2@@std@@QAEAAV12@QBDI@Z 00414f80 f i Crinkler.obj
 0001:00014070       ?do_decimal_point@?$numpunct@D@std@@MBEDXZ 00415070 f i Crinkler.obj
 0001:00014080       ?do_falsename@?$numpunct@D@std@@MBE?AV?$basic_string@DU?$char_traits@D@std@@V?$allocator@D@2@@2@XZ 00415080 f i Crinkler.obj
 0001:000140c0       ?do_grouping@?$numpunct@D@std@@MBE?AV?$basic_string@DU?$char_traits@D@std@@V?$allocator@D@2@@2@XZ 004150c0 f i Crinkler.obj
 0001:00014100       ?do_thousands_sep@?$numpunct@D@std@@MBEDXZ 00415100 f i Crinkler.obj
 0001:00014110       ?do_truename@?$numpunct@D@std@@MBE?AV?$basic_string@DU?$char_traits@D@std@@V?$allocator@D@2@@2@XZ 00415110 f i Crinkler.obj
 0001:00014150       ?local@?$combinable@V?$vector@UTinyHashEntry@@V?$allocator@UTinyHashEntry@@@std@@@std@@@Concurrency@@QAEAAV?$vector@UTinyHashEntry@@V?$allocator@UTinyHashEntry@@@std@@@std@@XZ 00415150 f i Crinkler.obj
 0001:00014270       ?to_chars@std@@YA?AUto_chars_result@1@QAD0IH@Z 00415270 f i Crinkler.obj
 0001:000143e0       ?what@exception@std@@UBEPBDXZ 004153e0 f i Crinkler.obj
 0001:000143f0       ___local_stdio_printf_options 004153f0 f i Crinkler.obj
 0001:00014400       _printf                    00415400 f i Crinkler.obj
 0001:00014430       _sprintf                   00415430 f i Crinkler.obj
 0001:000147b0       ??$_Buffered_rotate_unchecked@PAU?$pair@PADH@std@@@std@@YAPAU?$pair@PADH@0@QAU10@00HH0H@Z 004157b0 f i Export.obj
 0001:00014900       ??$_Copy_memmove@PAU?$pair@PADH@std@@PAU12@@std@@YAPAU?$pair@PADH@0@PAU10@00@Z 00415900 f i Export.obj
 0001:00014920       ??$_Emplace_reallocate@AAPADAAH@?$vector@U?$pair@PADH@std@@V?$allocator@U?$pair@PADH@std@@@2@@std@@AAEPAU?$pair@PADH@1@QAU21@AAPADAAH@Z 00415920 f i Export.obj
 0001:00014a70       ??$_Erase_tree@V?$allocator@U?$_Tree_node@U?$pair@$$CBHH@std@@PAX@std@@@std@@@?$_Tree_val@U?$_Tree_simple_types@U?$pair@$$CBHH@std@@@std@@@std@@QAEXAAV?$allocator@U?$_Tree_node@U?$pair@$$CBHH@std@@PAX@std@@@1@PAU?$_Tree_node@U?$pair@$$CBHH@std@@PAX@1@@Z 00415a70 f i Export.obj
 0001:00014a70       ??$_Erase_tree@V?$allocator@U?$_Tree_node@U?$pair@$$CBHPAVSymbol@@@std@@PAX@std@@@std@@@?$_Tree_val@U?$_Tree_simple_types@U?$pair@$$CBHPAVSymbol@@@std@@@std@@@std@@QAEXAAV?$allocator@U?$_Tree_node@U?$pair@$$CBHPAVSymbol@@@std@@PAX@std@@@1@PAU?$_Tree_node@U?$pair@$$CBHPAVSymbol@@@std@@PAX@1@@Z 00415a70 f i HtmlReport.obj
 0001:00014ab0       ??$_Get_temporary_buffer@U?$pair@PADH@std@@@std@@YA?AU?$pair@PAU?$pair@PADH@std@@H@0@H@Z 00415ab0 f i Export.obj
 0001:00014e90       ??$_Move_backward_unchecked@PAU?$pair@PADH@std@@PAU12@@std@@YAPAU?$pair@PADH@0@PAU10@00@Z 00415e90 f i Export.obj
 0001:00014ec0       ??$_Move_unchecked@PAU?$pair@PADH@std@@PAU12@@std@@YAPAU?$pair@PADH@0@PAU10@00@Z 00415ec0 f i Export.obj
 0001:00014ef0       ??$_Return_temporary_buffer@U?$pair@PADH@std@@@std@@YAXQAU?$pair@PADH@0@@Z 00415ef0 f i Export.obj
 0001:00014ef0       ??_V@YAXPAX@Z              00415ef0 f i LIBCMT:delete_array.obj
 0001:00014f00       ??$_Rotate_one_left@PAU?$pair@PADH@std@@@std@@YAXPAU?$pair@PADH@0@00@Z 00415f00 f i Export.obj
 0001:00014f40       ??$_Rotate_one_right@PAU?$pair@PADH@std@@@std@@YAXPAU?$pair@PADH@0@00@Z 00415f40 f i Export.obj
 0001:000150f0       ??$_Uninitialized_move_unchecked@PAU?$pair@PADH@std@@PAU12@@std@@YAPAU?$pair@PADH@0@PAU10@QAU10@0@Z 004160f0 f i Export.obj
 0001:00015100       ??$reverse@PAU?$pair@PADH@std@@@std@@YAXQAU?$pair@PADH@0@0@Z 00416100 f i Export.obj
 0001:00015210       ??0?$basic_string@DU?$char_traits@D@std@@V?$allocator@D@2@@std@@QAE@QBD@Z 00416210 f i Export.obj
 0001:00015250       ??0Export@@QAE@V?$basic_string@DU?$char_traits@D@std@@V?$allocator@D@2@@std@@0@Z 00416250 f   Export.obj
 0001:00015300       ??0Export@@QAE@V?$basic_string@DU?$char_traits@D@std@@V?$allocator@D@2@@std@@H@Z 00416300 f   Export.obj
 0001:00015380       ??0Relocation@@QAE@$$QAU0@@Z 00416380 f i Export.obj
 0001:00015410       ??1?$_Tree@V?$_Tmap_traits@HHU?$less@H@std@@V?$allocator@U?$pair@$$CBHH@std@@@2@$0A@@std@@@std@@QAE@XZ 00416410 f i Export.obj
 0001:00015410       ??1?$_Tree@V?$_Tmap_traits@HPAVSymbol@@U?$less@H@std@@V?$allocator@U?$pair@$$CBHPAVSymbol@@@std@@@3@$0A@@std@@@std@@QAE@XZ 00416410 f i Hunk.obj
 0001:00015450       ?CreateExportTable@@YAPAVHunk@@ABV?$set@VExport@@U?$less@VExport@@@std@@V?$allocator@VExport@@@3@@std@@@Z 00416450 f   Export.obj
 0001:000163c0       ?ParseExport@@YA?AVExport@@ABV?$basic_string@DU?$char_traits@D@std@@V?$allocator@D@2@@std@@0@Z 004173c0 f   Export.obj
 0001:00016470       ?PrintExports@@YAXABV?$set@VExport@@U?$less@VExport@@@std@@V?$allocator@VExport@@@3@@std@@@Z 00417470 f   Export.obj
 0001:000165b0       ?StripExports@@YA?AV?$set@VExport@@U?$less@VExport@@@std@@V?$allocator@VExport@@@3@@std@@PAVHunk@@H@Z 004175b0 f   Export.obj
 0001:00016ad0       ?FixHeader04@@YAXPAD@Z     00417ad0 f   Fix.obj
 0001:00016c10       ?FixHeader10@@YAXPAD@Z     00417c10 f   Fix.obj
 0001:00016c30       ??$?HDU?$char_traits@D@std@@V?$allocator@D@1@@std@@YA?AV?$basic_string@DU?$char_traits@D@std@@V?$allocator@D@2@@0@$$QAV10@0@Z 00417c30 f i HtmlReport.obj
 0001:00016c50       ??$?HDU?$char_traits@D@std@@V?$allocator@D@1@@std@@YA?AV?$basic_string@DU?$char_traits@D@std@@V?$allocator@D@2@@0@$$QAV10@QBD@Z 00417c50 f i HtmlReport.obj
 0001:00016cc0       ??$_Construct@$00PB_W@?$basic_string@_WU?$char_traits@_W@std@@V?$allocator@_W@2@@std@@AAEXQB_WI@Z 00417cc0 f i HtmlReport.obj
 0001:00016d90       ??$_Convert_Source_to_wide@PBDU_Normal_conversion@filesystem@std@@@filesystem@std@@YA?AV?$basic_string@_WU?$char_traits@_W@std@@V?$allocator@_W@2@@1@ABQBDU_Normal_conversion@01@@Z 00417d90 f i HtmlReport.obj
 0001:00016dc0       ??$_Convert_Source_to_wide@V?$basic_string_view@_WU?$char_traits@_W@std@@@std@@U_Normal_conversion@filesystem@2@@filesystem@std@@YA?AV?$basic_string@_WU?$char_traits@_W@std@@V?$allocator@_W@2@@1@ABV?$basic_string_view@_WU?$char_traits@_W@std@@@1@U_Normal_conversion@01@@Z 00417dc0 f i HtmlReport.obj
 0001:00016df0       ??$_Convert_stringoid_to_wide@U_Normal_conversion@filesystem@std@@@filesystem@std@@YA?AV?$basic_string@_WU?$char_traits@_W@std@@V?$allocator@_W@2@@1@V?$basic_string_view@DU?$char_traits@D@std@@@1@U_Normal_conversion@01@@Z 00417df0 f i HtmlReport.obj
 0001:00016e90       ??$_Convert_stringoid_to_wide@U_Normal_conversion@filesystem@std@@@filesystem@std@@YA?AV?$basic_string@_WU?$char_traits@_W@std@@V?$allocator@_W@2@@1@V?$basic_string_view@_WU?$char_traits@_W@std@@@1@U_Normal_conversion@01@@Z 00417e90 f i HtmlReport.obj
 0001:00016ec0       ??$_Convert_wide_to@U?$char_traits@D@std@@V?$allocator@D@2@D@filesystem@std@@YA?AV?$basic_string@DU?$char_traits@D@std@@V?$allocator@D@2@@1@V?$basic_string_view@_WU?$char_traits@_W@std@@@1@ABV?$allocator@D@1@@Z 00417ec0 f i HtmlReport.obj
 0001:00016ef0       ??$_Convert_wide_to_narrow@U?$char_traits@D@std@@V?$allocator@D@2@@std@@YA?AV?$basic_string@DU?$char_traits@D@std@@V?$allocator@D@2@@0@W4__std_code_page@@V?$basic_string_view@_WU?$char_traits@_W@std@@@0@ABV?$allocator@D@0@@Z 00417ef0 f i HtmlReport.obj
 0001:00016fa0       ??$_Copy_nodes@$0A@@?$_Tree@V?$_Tmap_traits@HPAVSymbol@@U?$less@H@std@@V?$allocator@U?$pair@$$CBHPAVSymbol@@@std@@@3@$0A@@std@@@std@@IAEPAU?$_Tree_node@U?$pair@$$CBHPAVSymbol@@@std@@PAX@1@PAU21@0@Z 00417fa0 f i HtmlReport.obj
 0001:00017010       ??$_Erase_head@V?$allocator@U?$_Tree_node@U?$pair@$$CBHPAVSymbol@@@std@@PAX@std@@@std@@@?$_Tree_val@U?$_Tree_simple_types@U?$pair@$$CBHPAVSymbol@@@std@@@std@@@std@@QAEXAAV?$allocator@U?$_Tree_node@U?$pair@$$CBHPAVSymbol@@@std@@PAX@std@@@1@@Z 00418010 f i HtmlReport.obj
 0001:00017060       ??$_Find_vectorized@$$CB_W_W@std@@YAPB_WQB_W0_W@Z 00418060 f i HtmlReport.obj
 0001:00017080       ??$_Format_to_it@DV?$back_insert_iterator@V?$basic_string@DU?$char_traits@D@std@@V?$allocator@D@2@@std@@@std@@V?$basic_format_context@V?$back_insert_iterator@V?$_Fmt_buffer@D@std@@@std@@D@2@@std@@YA?AV?$back_insert_iterator@V?$basic_string@DU?$char_traits@D@std@@V?$allocator@D@2@@std@@@0@V10@V?$basic_string_view@DU?$char_traits@D@std@@@0@V?$basic_format_args@V?$basic_format_context@V?$back_insert_iterator@V?$_Fmt_buffer@D@std@@@std@@D@std@@@0@V_Lazy_locale@0@@Z 00418080 f i HtmlReport.obj
 0001:000171a0       ??$_Immortalize_memcpy_image@V_Generic_error_category@std@@@std@@YAABV_Generic_error_category@0@XZ 004181a0 f i HtmlReport.obj
 0001:000171a0       ?generic_category@std@@YAABVerror_category@1@XZ 004181a0 f i libcpmt:thread0.obj
 0001:000171b0       ??$_Immortalize_memcpy_image@V_System_error_category@std@@@std@@YAABV_System_error_category@0@XZ 004181b0 f i HtmlReport.obj
 0001:000171c0       ??$_Parse_format_string@DAAU?$_Format_handler@D@std@@@std@@YAXV?$basic_string_view@DU?$char_traits@D@std@@@0@AAU?$_Format_handler@D@0@@Z 004181c0 f i HtmlReport.obj
 0001:00017260       ??$_Reallocate_grow_by@V<lambda_1>@?1??append@?$basic_string@_WU?$char_traits@_W@std@@V?$allocator@_W@2@@std@@QAEAAV34@I_W@Z@I_W@?$basic_string@_WU?$char_traits@_W@std@@V?$allocator@_W@2@@std@@AAEAAV01@IV<lambda_1>@?1??append@01@QAEAAV01@I_W@Z@I_W@Z 00418260 f i HtmlReport.obj
 0001:000173b0       ??$_Reallocate_grow_by@V<lambda_1>@?1??insert@?$basic_string@DU?$char_traits@D@std@@V?$allocator@D@2@@std@@QAEAAV34@IQBDI@Z@IPBDI@?$basic_string@DU?$char_traits@D@std@@V?$allocator@D@2@@std@@AAEAAV01@IV<lambda_1>@?1??insert@01@QAEAAV01@IQBDI@Z@IPBDI@Z 004183b0 f i HtmlReport.obj
 0001:000174f0       ??$_Stringoid_from_Source@PBD@filesystem@std@@YA?A_PABQBD@Z 004184f0 f i HtmlReport.obj
 0001:00017510       ??$_Stringoid_from_Source@_WU?$char_traits@_W@std@@@filesystem@std@@YA?A_PABV?$basic_string_view@_WU?$char_traits@_W@std@@@1@@Z 00418510 f i HtmlReport.obj
 0001:00017530       ??$_Traits_compare@U?$char_traits@D@std@@@std@@YAHQBDI0I@Z 00418530 f i HtmlReport.obj
 0001:000175c0       ??$_Traits_equal@U?$char_traits@D@std@@@std@@YA_NQBDI0I@Z 004185c0 f i HtmlReport.obj
 0001:00017640       ??$find_if@PB_WU_Is_slash_oper@filesystem@std@@@std@@YAPB_WPB_WQB_WU_Is_slash_oper@filesystem@0@@Z 00418640 f i HtmlReport.obj
 0001:00017670       ??$format@AADH@std@@YA?AV?$basic_string@DU?$char_traits@D@std@@V?$allocator@D@2@@0@U?$basic_format_string@DAADH@0@AAD$$QAH@Z 00418670 f i HtmlReport.obj
 0001:000176c0       ??$format@AAV?$basic_string@DU?$char_traits@D@std@@V?$allocator@D@2@@std@@AAH@std@@YA?AV?$basic_string@DU?$char_traits@D@std@@V?$allocator@D@2@@0@U?$basic_format_string@DAAV?$basic_string@DU?$char_traits@D@std@@V?$allocator@D@2@@std@@AAH@0@AAV10@AAH@Z 004186c0 f i HtmlReport.obj
 0001:000176c0       ??$format@AAV?$basic_string@DU?$char_traits@D@std@@V?$allocator@D@2@@std@@H@std@@YA?AV?$basic_string@DU?$char_traits@D@std@@V?$allocator@D@2@@0@U?$basic_format_string@DAAV?$basic_string@DU?$char_traits@D@std@@V?$allocator@D@2@@std@@H@0@AAV10@$$QAH@Z 004186c0 f i HtmlReport.obj
 0001:00017710       ??$format_to@V?$back_insert_iterator@V?$vector@DV?$allocator@D@std@@@std@@@std@@AAHAAI@std@@YA?AV?$back_insert_iterator@V?$vector@DV?$allocator@D@std@@@std@@@0@V10@U?$basic_format_string@DAAHAAI@0@AAHAAI@Z 00418710 f i HtmlReport.obj
 0001:00017760       ??$format_to@V?$back_insert_iterator@V?$vector@DV?$allocator@D@std@@@std@@@std@@AAHAAIAAHAAI@std@@YA?AV?$back_insert_iterator@V?$vector@DV?$allocator@D@std@@@std@@@0@V10@U?$basic_format_string@DAAHAAIAAHAAI@0@AAHAAI23@Z 00418760 f i HtmlReport.obj
 0001:000177b0       ??$format_to@V?$back_insert_iterator@V?$vector@DV?$allocator@D@std@@@std@@@std@@AAPBDAAPBD@std@@YA?AV?$back_insert_iterator@V?$vector@DV?$allocator@D@std@@@std@@@0@V10@U?$basic_format_string@DAAPBDAAPBD@0@AAPBD2@Z 004187b0 f i HtmlReport.obj
 0001:00017800       ??$format_to@V?$back_insert_iterator@V?$vector@DV?$allocator@D@std@@@std@@@std@@AAPBDAAY0N@$$CBDPAD@std@@YA?AV?$back_insert_iterator@V?$vector@DV?$allocator@D@std@@@std@@@0@V10@U?$basic_format_string@DAAPBDAAY0N@$$CBDPAD@0@AAPBDAAY0N@$$CBD$$QAPAD@Z 00418800 f i HtmlReport.obj
 0001:00017850       ??$format_to@V?$back_insert_iterator@V?$vector@DV?$allocator@D@std@@@std@@@std@@HAAHAAE@std@@YA?AV?$back_insert_iterator@V?$vector@DV?$allocator@D@std@@@std@@@0@V10@U?$basic_format_string@DHAAHAAE@0@$$QAHAAHAAE@Z 00418850 f i HtmlReport.obj
 0001:000178a0       ??$format_to@V?$back_insert_iterator@V?$vector@DV?$allocator@D@std@@@std@@@std@@HAAHH@std@@YA?AV?$back_insert_iterator@V?$vector@DV?$allocator@D@std@@@std@@@0@V10@U?$basic_format_string@DHAAHH@0@$$QAHAAH2@Z 004188a0 f i HtmlReport.obj
 0001:000178f0       ??$format_to@V?$back_insert_iterator@V?$vector@DV?$allocator@D@std@@@std@@@std@@HABHAAV?$basic_string@DU?$char_traits@D@std@@V?$allocator@D@2@@2@@std@@YA?AV?$back_insert_iterator@V?$vector@DV?$allocator@D@std@@@std@@@0@V10@U?$basic_format_string@DHABHAAV?$basic_string@DU?$char_traits@D@std@@V?$allocator@D@2@@std@@@0@$$QAHABHAAV?$basic_string@DU?$char_traits@D@std@@V?$allocator@D@2@@0@@Z 004188f0 f i HtmlReport.obj
 0001:00017940       ??$format_to@V?$back_insert_iterator@V?$vector@DV?$allocator@D@std@@@std@@@std@@HPAD@std@@YA?AV?$back_insert_iterator@V?$vector@DV?$allocator@D@std@@@std@@@0@V10@U?$basic_format_string@DHPAD@0@$$QAH$$QAPAD@Z 00418940 f i HtmlReport.obj
 0001:00017990       ??$format_to@V?$back_insert_iterator@V?$vector@DV?$allocator@D@std@@@std@@@std@@I@std@@YA?AV?$back_insert_iterator@V?$vector@DV?$allocator@D@std@@@std@@@0@V10@U?$basic_format_string@DI@0@$$QAI@Z 00418990 f i HtmlReport.obj
 0001:000179d0       ??$format_to@V?$back_insert_iterator@V?$vector@DV?$allocator@D@std@@@std@@@std@@MM@std@@YA?AV?$back_insert_iterator@V?$vector@DV?$allocator@D@std@@@std@@@0@V10@U?$basic_format_string@DMM@0@$$QAM2@Z 004189d0 f i HtmlReport.obj
 0001:00017a20       ??$format_to@V?$back_insert_iterator@V?$vector@DV?$allocator@D@std@@@std@@@std@@PBDABH@std@@YA?AV?$back_insert_iterator@V?$vector@DV?$allocator@D@std@@@std@@@0@V10@U?$basic_format_string@DPBDABH@0@$$QAPBDABH@Z 00418a20 f i HtmlReport.obj
 0001:00017a70       ??$format_to@V?$back_insert_iterator@V?$vector@DV?$allocator@D@std@@@std@@@std@@PBDHAAV?$basic_string@DU?$char_traits@D@std@@V?$allocator@D@2@@2@@std@@YA?AV?$back_insert_iterator@V?$vector@DV?$allocator@D@std@@@std@@@0@V10@U?$basic_format_string@DPBDHAAV?$basic_string@DU?$char_traits@D@std@@V?$allocator@D@2@@std@@@0@$$QAPBD$$QAHAAV?$basic_string@DU?$char_traits@D@std@@V?$allocator@D@2@@0@@Z 00418a70 f i HtmlReport.obj
 0001:00017ac0       ??$make_format_args@V?$basic_format_context@V?$back_insert_iterator@V?$_Fmt_buffer@D@std@@@std@@D@std@@DH@std@@YA?A_PAADAAH@Z 00418ac0 f i HtmlReport.obj
 0001:00017b00       ??$make_format_args@V?$basic_format_context@V?$back_insert_iterator@V?$_Fmt_buffer@D@std@@@std@@D@std@@H$$CBHV?$basic_string@DU?$char_traits@D@std@@V?$allocator@D@2@@2@@std@@YA?A_PAAHABHAAV?$basic_string@DU?$char_traits@D@std@@V?$allocator@D@2@@0@@Z 00418b00 f i HtmlReport.obj
 0001:00017b80       ??$make_format_args@V?$basic_format_context@V?$back_insert_iterator@V?$_Fmt_buffer@D@std@@@std@@D@std@@HHE@std@@YA?A_PAAH0AAE@Z 00418b80 f i HtmlReport.obj
 0001:00017bf0       ??$make_format_args@V?$basic_format_context@V?$back_insert_iterator@V?$_Fmt_buffer@D@std@@@std@@D@std@@HHH@std@@YA?A_PAAH00@Z 00418bf0 f i HtmlReport.obj
 0001:00017c60       ??$make_format_args@V?$basic_format_context@V?$back_insert_iterator@V?$_Fmt_buffer@D@std@@@std@@D@std@@HI@std@@YA?A_PAAHAAI@Z 00418c60 f i HtmlReport.obj
 0001:00017ca0       ??$make_format_args@V?$basic_format_context@V?$back_insert_iterator@V?$_Fmt_buffer@D@std@@@std@@D@std@@HIHI@std@@YA?A_PAAHAAI01@Z 00418ca0 f i HtmlReport.obj
 0001:00017d20       ??$make_format_args@V?$basic_format_context@V?$back_insert_iterator@V?$_Fmt_buffer@D@std@@@std@@D@std@@HPAD@std@@YA?A_PAAHAAPAD@Z 00418d20 f i HtmlReport.obj
 0001:00017d60       ??$make_format_args@V?$basic_format_context@V?$back_insert_iterator@V?$_Fmt_buffer@D@std@@@std@@D@std@@I@std@@YA?A_PAAI@Z 00418d60 f i HtmlReport.obj
 0001:00017d80       ??$make_format_args@V?$basic_format_context@V?$back_insert_iterator@V?$_Fmt_buffer@D@std@@@std@@D@std@@MM@std@@YA?A_PAAM0@Z 00418d80 f i HtmlReport.obj
 0001:00017de0       ??$make_format_args@V?$basic_format_context@V?$back_insert_iterator@V?$_Fmt_buffer@D@std@@@std@@D@std@@PBD$$BY0N@$$CBDPAD@std@@YA?A_PAAPBDAAY0N@$$CBDAAPAD@Z 00418de0 f i HtmlReport.obj
 0001:00017e50       ??$make_format_args@V?$basic_format_context@V?$back_insert_iterator@V?$_Fmt_buffer@D@std@@@std@@D@std@@PBD$$CBH@std@@YA?A_PAAPBDABH@Z 00418e50 f i HtmlReport.obj
 0001:00017e90       ??$make_format_args@V?$basic_format_context@V?$back_insert_iterator@V?$_Fmt_buffer@D@std@@@std@@D@std@@PBDHV?$basic_string@DU?$char_traits@D@std@@V?$allocator@D@2@@2@@std@@YA?A_PAAPBDAAHAAV?$basic_string@DU?$char_traits@D@std@@V?$allocator@D@2@@0@@Z 00418e90 f i HtmlReport.obj
 0001:00017f10       ??$make_format_args@V?$basic_format_context@V?$back_insert_iterator@V?$_Fmt_buffer@D@std@@@std@@D@std@@PBDPBD@std@@YA?A_PAAPBD0@Z 00418f10 f i HtmlReport.obj
 0001:00017f50       ??$vformat@$0A@@std@@YA?AV?$basic_string@DU?$char_traits@D@std@@V?$allocator@D@2@@0@V?$basic_string_view@DU?$char_traits@D@std@@@0@V?$basic_format_args@V?$basic_format_context@V?$back_insert_iterator@V?$_Fmt_buffer@D@std@@@std@@D@std@@@0@@Z 00418f50 f i HtmlReport.obj
 0001:00017ff0       ??$vformat_to@V?$back_insert_iterator@V?$basic_string@DU?$char_traits@D@std@@V?$allocator@D@2@@std@@@std@@@std@@YA?AV?$back_insert_iterator@V?$basic_string@DU?$char_traits@D@std@@V?$allocator@D@2@@std@@@0@V10@V?$basic_string_view@DU?$char_traits@D@std@@@0@V?$basic_format_args@V?$basic_format_context@V?$back_insert_iterator@V?$_Fmt_buffer@D@std@@@std@@D@std@@@0@@Z 00418ff0 f i HtmlReport.obj
 0001:00018020       ??0?$basic_string@DU?$char_traits@D@std@@V?$allocator@D@2@@std@@QAE@U_String_constructor_concat_tag@1@AAV01@1@Z 00419020 f i HtmlReport.obj
 0001:000181e0       ??0?$basic_string@DU?$char_traits@D@std@@V?$allocator@D@2@@std@@QAE@U_String_constructor_concat_tag@1@ABV01@QBDI2I@Z 004191e0 f i HtmlReport.obj
 0001:000182a0       ??0_System_error@std@@QAE@ABV01@@Z 004192a0 f i HtmlReport.obj
 0001:000182e0       ??0system_error@std@@QAE@ABV01@@Z 004192e0 f i HtmlReport.obj
 0001:00018330       ??0system_error@std@@QAE@Verror_code@1@@Z 00419330 f i HtmlReport.obj
 0001:000183f0       ??4?$basic_string@DU?$char_traits@D@std@@V?$allocator@D@2@@std@@QAEAAV01@$$QAV01@@Z 004193f0 f i HtmlReport.obj
 0001:00018430       ??4?$basic_string@DU?$char_traits@D@std@@V?$allocator@D@2@@std@@QAEAAV01@ABV01@@Z 00419430 f i HtmlReport.obj
 0001:00018460       ??A?$map@V?$basic_string@DU?$char_traits@D@std@@V?$allocator@D@2@@std@@V12@U?$less@V?$basic_string@DU?$char_traits@D@std@@V?$allocator@D@2@@std@@@2@V?$allocator@U?$pair@$$CBV?$basic_string@DU?$char_traits@D@std@@V?$allocator@D@2@@std@@V12@@std@@@2@@std@@QAEAAV?$basic_string@DU?$char_traits@D@std@@V?$allocator@D@2@@1@ABV21@@Z 00419460 f i HtmlReport.obj
 0001:00018530       ??R_Is_slash_oper@filesystem@std@@SA_N_W@Z 00419530 f i HtmlReport.obj
 0001:00018550       ??_E_Generic_error_category@std@@UAEPAXI@Z 00419550 f i HtmlReport.obj
 0001:00018550       ??_E_System_error_category@std@@UAEPAXI@Z 00419550 f i HtmlReport.obj
 0001:00018550       ??_G_Generic_error_category@std@@UAEPAXI@Z 00419550 f i HtmlReport.obj
 0001:00018550       ??_G_System_error_category@std@@UAEPAXI@Z 00419550 f i HtmlReport.obj
 0001:00018570       ??_E_System_error@std@@UAEPAXI@Z 00419570 f i HtmlReport.obj
 0001:00018570       ??_Esystem_error@std@@UAEPAXI@Z 00419570 f i HtmlReport.obj
 0001:00018570       ??_G_System_error@std@@UAEPAXI@Z 00419570 f i HtmlReport.obj
 0001:00018570       ??_Gsystem_error@std@@UAEPAXI@Z 00419570 f i HtmlReport.obj
 0001:00019380       ?HtmlReport@@YAXPAUCompressionReportRecord@@PBDAAVHunk@@2PBH1HPAVCrinkler@@@Z 0041a380 f   HtmlReport.obj
 0001:0001b0a0       ?_Change_array@?$vector@DV?$allocator@D@std@@@std@@AAEXQADII@Z 0041c0a0 f i HtmlReport.obj
 0001:0001b0a0       ?_Change_array@?$vector@EV?$allocator@E@std@@@std@@AAEXQAEII@Z 0041c0a0 f i Hunk.obj
 0001:0001b100       ?_Deallocate_for_capacity@?$basic_string@_WU?$char_traits@_W@std@@V?$allocator@_W@2@@std@@CAXAAV?$allocator@_W@2@QA_WI@Z 0041c100 f i HtmlReport.obj
 0001:0001b150       ?_Find_filename@filesystem@std@@YAPB_WQB_WPB_W@Z 0041c150 f i HtmlReport.obj
 0001:0001b1a0       ?_Find_root_name_end@filesystem@std@@YAPB_WQB_W0@Z 0041c1a0 f i HtmlReport.obj
 0001:0001b2a0       ?_Grow@?$_Fmt_iterator_buffer@V?$back_insert_iterator@V?$basic_string@DU?$char_traits@D@std@@V?$allocator@D@2@@std@@@std@@DU_Fmt_buffer_traits@2@@std@@EAEXI@Z 0041c2a0 f i HtmlReport.obj
 0001:0001b2f0       ?_Make_ec@std@@YA?AVerror_code@1@W4__std_win_error@@@Z 0041c2f0 f i HtmlReport.obj
 0001:0001b310       ?_Throw_system_error@std@@YAXW4errc@1@@Z 0041c310 f i HtmlReport.obj
 0001:0001b350       ?_Throw_system_error_from_std_win_error@std@@YAXW4__std_win_error@@@Z 0041c350 f i HtmlReport.obj
 0001:0001b390       ?_Tidy_deallocate@?$basic_string@_WU?$char_traits@_W@std@@V?$allocator@_W@2@@std@@AAEXXZ 0041c390 f i HtmlReport.obj
 0001:0001b3f0       ?_Xran@?$_String_val@U?$_Simple_types@D@std@@@std@@SAXXZ 0041c3f0 f i HtmlReport.obj
 0001:0001b400       ?append@?$basic_string@DU?$char_traits@D@std@@V?$allocator@D@2@@std@@QAEAAV12@ID@Z 0041c400 f i HtmlReport.obj
 0001:0001b560       ?deallocate@?$allocator@H@std@@QAEXQAHI@Z 0041c560 f i HtmlReport.obj
 0001:0001b560       ?deallocate@?$allocator@I@std@@QAEXQAII@Z 0041c560 f i ImportHandler.obj
 0001:0001b560       ?deallocate@?$allocator@PAPAVHunk@@@std@@QAEXQAPAPAVHunk@@I@Z 0041c560 f i PartList.obj
 0001:0001b560       ?deallocate@?$allocator@V?$_List_unchecked_iterator@V?$_List_val@U?$_List_simple_types@U?$pair@$$CBV?$basic_string@DU?$char_traits@D@std@@V?$allocator@D@2@@std@@PAVHunk@@@std@@@std@@@std@@@std@@@std@@QAEXQAV?$_List_unchecked_iterator@V?$_List_val@U?$_List_simple_types@U?$pair@$$CBV?$basic_string@DU?$char_traits@D@std@@V?$allocator@D@2@@std@@PAVHunk@@@std@@@std@@@std@@@2@I@Z 0041c560 f i Reuse.obj
 0001:0001b5b0       ?default_error_condition@_System_error_category@std@@UBE?AVerror_condition@2@H@Z 0041c5b0 f i HtmlReport.obj
 0001:0001b600       ?default_error_condition@error_category@std@@UBE?AVerror_condition@2@H@Z 0041c600 f i HtmlReport.obj
 0001:0001b610       ?equivalent@error_category@std@@UBE_NABVerror_code@2@H@Z 0041c610 f i HtmlReport.obj
 0001:0001b640       ?equivalent@error_category@std@@UBE_NHABVerror_condition@2@@Z 0041c640 f i HtmlReport.obj
 0001:0001b680       ?find@?$_Tree@V?$_Tmap_traits@HPAVSymbol@@U?$less@H@std@@V?$allocator@U?$pair@$$CBHPAVSymbol@@@std@@@3@$0A@@std@@@std@@QAE?AV?$_Tree_iterator@V?$_Tree_val@U?$_Tree_simple_types@U?$pair@$$CBHPAVSymbol@@@std@@@std@@@std@@@2@ABH@Z 0041c680 f i HtmlReport.obj
 0001:0001b730       ?insert@?$basic_string@DU?$char_traits@D@std@@V?$allocator@D@2@@std@@QAEAAV12@IQBDI@Z 0041c730 f i HtmlReport.obj
 0001:0001b800       ?make_error_code@std@@YA?AVerror_code@1@W4errc@1@@Z 0041c800 f i HtmlReport.obj
 0001:0001b820       ?message@_Generic_error_category@std@@UBE?AV?$basic_string@DU?$char_traits@D@std@@V?$allocator@D@2@@2@H@Z 0041c820 f i HtmlReport.obj
 0001:0001b870       ?message@_System_error_category@std@@UBE?AV?$basic_string@DU?$char_traits@D@std@@V?$allocator@D@2@@2@H@Z 0041c870 f i HtmlReport.obj
 0001:0001b920       ?name@_Generic_error_category@std@@UBEPBDXZ 0041c920 f i HtmlReport.obj
 0001:0001b930       ?name@_System_error_category@std@@UBEPBDXZ 0041c930 f i HtmlReport.obj
 0001:0001b940       ?reserve@?$basic_string@DU?$char_traits@D@std@@V?$allocator@D@2@@std@@QAEXI@Z 0041c940 f i HtmlReport.obj
 0001:0001ba30       ?resize@?$basic_string@_WU?$char_traits@_W@std@@V?$allocator@_W@2@@std@@QAEXI_W@Z 0041ca30 f i HtmlReport.obj
 0001:0001bab0       ___local_stdio_scanf_options 0041cab0 f i HtmlReport.obj
 0001:0001bac0       _sscanf_s                  0041cac0 f i HtmlReport.obj
 0001:0001baf0       ??$_Emplace_reallocate@ABURelocation@@@?$vector@URelocation@@V?$allocator@URelocation@@@std@@@std@@AAEPAURelocation@@QAU2@ABU2@@Z 0041caf0 f i Hunk.obj
 0001:0001bcf0       ??$_Find_last_vectorized@$$CBDD@std@@YAPBDQBD0D@Z 0041ccf0 f i Hunk.obj
 0001:0001bd10       ??$_Find_lower_bound@H@?$_Tree@V?$_Tmap_traits@HPAVSymbol@@U?$less@H@std@@V?$allocator@U?$pair@$$CBHPAVSymbol@@@std@@@3@$0A@@std@@@std@@IBE?AU?$_Tree_find_result@PAU?$_Tree_node@U?$pair@$$CBHPAVSymbol@@@std@@PAX@std@@@1@ABH@Z 0041cd10 f i Hunk.obj
 0001:0001bd60       ??$_Find_lower_bound@V?$basic_string@DU?$char_traits@D@std@@V?$allocator@D@2@@std@@@?$_Tree@V?$_Tmap_traits@V?$basic_string@DU?$char_traits@D@std@@V?$allocator@D@2@@std@@PAVMemoryFile@@U?$less@V?$basic_string@DU?$char_traits@D@std@@V?$allocator@D@2@@std@@@2@V?$allocator@U?$pair@$$CBV?$basic_string@DU?$char_traits@D@std@@V?$allocator@D@2@@std@@PAVMemoryFile@@@std@@@2@$0A@@std@@@std@@IBE?AU?$_Tree_find_result@PAU?$_Tree_node@U?$pair@$$CBV?$basic_string@DU?$char_traits@D@std@@V?$allocator@D@2@@std@@PAVMemoryFile@@@std@@PAX@std@@@1@ABV?$basic_string@DU?$char_traits@D@std@@V?$allocator@D@2@@1@@Z 0041cd60 f i main.obj
 0001:0001bd60       ??$_Find_lower_bound@V?$basic_string@DU?$char_traits@D@std@@V?$allocator@D@2@@std@@@?$_Tree@V?$_Tmap_traits@V?$basic_string@DU?$char_traits@D@std@@V?$allocator@D@2@@std@@PAVSymbol@@U?$less@V?$basic_string@DU?$char_traits@D@std@@V?$allocator@D@2@@std@@@2@V?$allocator@U?$pair@$$CBV?$basic_string@DU?$char_traits@D@std@@V?$allocator@D@2@@std@@PAVSymbol@@@std@@@2@$0A@@std@@@std@@IBE?AU?$_Tree_find_result@PAU?$_Tree_node@U?$pair@$$CBV?$basic_string@DU?$char_traits@D@std@@V?$allocator@D@2@@std@@PAVSymbol@@@std@@PAX@std@@@1@ABV?$basic_string@DU?$char_traits@D@std@@V?$allocator@D@2@@1@@Z 0041cd60 f i Hunk.obj
 0001:0001be00       ??$_Guess_median_unchecked@PAPAVHunk@@P6A_NPAV1@0@Z@std@@YAXPAPAVHunk@@00P6A_NPAV1@1@Z@Z 0041ce00 f i HeuristicHunkSorter.obj
 0001:0001be00       ??$_Guess_median_unchecked@PAPAVHunk@@P6A_NPBV1@0@Z@std@@YAXPAPAVHunk@@00P6A_NPBV1@1@Z@Z 0041ce00 f i ImportHandler.obj
 0001:0001be00       ??$_Guess_median_unchecked@PAPAVSymbol@@P6A_NPAV1@0@Z@std@@YAXPAPAVSymbol@@00P6A_NPAV1@1@Z@Z 0041ce00 f i Hunk.obj
 0001:0001c010       ??$_Partition_by_median_guess_unchecked@PAPAVHunk@@P6A_NPAV1@0@Z@std@@YA?AU?$pair@PAPAVHunk@@PAPAV1@@0@PAPAVHunk@@0P6A_NPAV2@1@Z@Z 0041d010 f i HeuristicHunkSorter.obj
 0001:0001c010       ??$_Partition_by_median_guess_unchecked@PAPAVHunk@@P6A_NPBV1@0@Z@std@@YA?AU?$pair@PAPAVHunk@@PAPAV1@@0@PAPAVHunk@@0P6A_NPBV2@1@Z@Z 0041d010 f i ImportHandler.obj
 0001:0001c010       ??$_Partition_by_median_guess_unchecked@PAPAVSymbol@@P6A_NPAV1@0@Z@std@@YA?AU?$pair@PAPAVSymbol@@PAPAV1@@0@PAPAVSymbol@@0P6A_NPAV2@1@Z@Z 0041d010 f i Hunk.obj
 0001:0001c1f0       ??$_Pop_heap_hole_by_index@PAPAVHunk@@PAV1@P6A_NPAV1@0@Z@std@@YAXPAPAVHunk@@HH$$QAPAV1@P6A_NPAV1@2@Z@Z 0041d1f0 f i HeuristicHunkSorter.obj
 0001:0001c1f0       ??$_Pop_heap_hole_by_index@PAPAVHunk@@PAV1@P6A_NPBV1@0@Z@std@@YAXPAPAVHunk@@HH$$QAPAV1@P6A_NPBV1@2@Z@Z 0041d1f0 f i ImportHandler.obj
 0001:0001c1f0       ??$_Pop_heap_hole_by_index@PAPAVSymbol@@PAV1@P6A_NPAV1@0@Z@std@@YAXPAPAVSymbol@@HH$$QAPAV1@P6A_NPAV1@2@Z@Z 0041d1f0 f i Hunk.obj
 0001:0001c2b0       ??$_Sort_unchecked@PAPAVHunk@@P6A_NPAV1@0@Z@std@@YAXPAPAVHunk@@0HP6A_NPAV1@1@Z@Z 0041d2b0 f i HeuristicHunkSorter.obj
 0001:0001c2b0       ??$_Sort_unchecked@PAPAVHunk@@P6A_NPBV1@0@Z@std@@YAXPAPAVHunk@@0HP6A_NPBV1@1@Z@Z 0041d2b0 f i ImportHandler.obj
 0001:0001c2b0       ??$_Sort_unchecked@PAPAVSymbol@@P6A_NPAV1@0@Z@std@@YAXPAPAVSymbol@@0HP6A_NPAV1@1@Z@Z 0041d2b0 f i Hunk.obj
 0001:0001c510       ??$_Uninitialized_move@PAURelocation@@V?$allocator@URelocation@@@std@@@std@@YAPAURelocation@@QAU1@0PAU1@AAV?$allocator@URelocation@@@0@@Z 0041d510 f i Hunk.obj
 0001:0001c5d0       ??0CompressionReportRecord@@QAE@PBDHHH@Z 0041d5d0 f i Hunk.obj
 0001:0001c650       ??0Hunk@@QAE@ABV0@@Z       0041d650 f   Hunk.obj
 0001:0001c900       ??0Hunk@@QAE@PBD00@Z       0041d900 f   Hunk.obj
 0001:0001ca80       ??0Hunk@@QAE@PBD0IHHH@Z    0041da80 f   Hunk.obj
 0001:0001cbc0       ??1Hunk@@QAE@XZ            0041dbc0 f   Hunk.obj
 0001:0001cc70       ??A?$map@V?$basic_string@DU?$char_traits@D@std@@V?$allocator@D@2@@std@@PAVMemoryFile@@U?$less@V?$basic_string@DU?$char_traits@D@std@@V?$allocator@D@2@@std@@@2@V?$allocator@U?$pair@$$CBV?$basic_string@DU?$char_traits@D@std@@V?$allocator@D@2@@std@@PAVMemoryFile@@@std@@@2@@std@@QAEAAPAVMemoryFile@@ABV?$basic_string@DU?$char_traits@D@std@@V?$allocator@D@2@@1@@Z 0041dc70 f i main.obj
 0001:0001cc70       ??A?$map@V?$basic_string@DU?$char_traits@D@std@@V?$allocator@D@2@@std@@PAVSymbol@@U?$less@V?$basic_string@DU?$char_traits@D@std@@V?$allocator@D@2@@std@@@2@V?$allocator@U?$pair@$$CBV?$basic_string@DU?$char_traits@D@std@@V?$allocator@D@2@@std@@PAVSymbol@@@std@@@2@@std@@QAEAAPAVSymbol@@ABV?$basic_string@DU?$char_traits@D@std@@V?$allocator@D@2@@1@@Z 0041dc70 f i Hunk.obj
 0001:0001cd30       ??E?$_Tree_unchecked_const_iterator@V?$_Tree_val@U?$_Tree_simple_types@U?$pair@$$CBV?$basic_string@DU?$char_traits@D@std@@V?$allocator@D@2@@std@@PAVModelList4k@@@std@@@std@@@std@@U_Iterator_base0@2@@std@@QAEAAV01@XZ 0041dd30 f i Reuse.obj
 0001:0001cd30       ??E?$_Tree_unchecked_const_iterator@V?$_Tree_val@U?$_Tree_simple_types@U?$pair@$$CBV?$basic_string@DU?$char_traits@D@std@@V?$allocator@D@2@@std@@PAVSymbol@@@std@@@std@@@std@@U_Iterator_base0@2@@std@@QAEAAV01@XZ 0041dd30 f i Hunk.obj
 0001:0001cd90       ?AddRelocation@Hunk@@QAEXURelocation@@@Z 0041dd90 f   Hunk.obj
 0001:0001cdf0       ?AddSymbol@Hunk@@QAEXPAVSymbol@@@Z 0041ddf0 f   Hunk.obj
 0001:0001d1c0       ?AppendZeroes@Hunk@@QAEXH@Z 0041e1c0 f   Hunk.obj
 0001:0001d2d0       ?CalculateSize@CompressionReportRecord@@QAEXHH@Z 0041e2d0 f i Hunk.obj
 0001:0001d360       ?FindSymbol@Hunk@@QBEPAVSymbol@@PBD@Z 0041e360 f   Hunk.obj
 0001:0001d460       ?FindUndecoratedSymbol@Hunk@@QBEPAVSymbol@@PBD@Z 0041e460 f   Hunk.obj
 0001:0001d570       ?GenerateCompressionSummary@Hunk@@QAEPAUCompressionReportRecord@@AAVPartList@@PAH@Z 0041e570 f   Hunk.obj
 0001:0001dcb0       ?GetID@Hunk@@QAEABV?$basic_string@DU?$char_traits@D@std@@V?$allocator@D@2@@std@@XZ 0041ecb0 f   Hunk.obj
 0001:0001e260       ?GetNameToSymbolMap@Hunk@@QAEAAV?$map@V?$basic_string@DU?$char_traits@D@std@@V?$allocator@D@2@@std@@PAVSymbol@@U?$less@V?$basic_string@DU?$char_traits@D@std@@V?$allocator@D@2@@std@@@2@V?$allocator@U?$pair@$$CBV?$basic_string@DU?$char_traits@D@std@@V?$allocator@D@2@@std@@PAVSymbol@@@std@@@2@@std@@XZ 0041f260 f   Hunk.obj
 0001:0001e270       ?GetOffsetToRelocationMap@Hunk@@QAE?AV?$map@HPAVSymbol@@U?$less@H@std@@V?$allocator@U?$pair@$$CBHPAVSymbol@@@std@@@3@@std@@XZ 0041f270 f   Hunk.obj
 0001:0001e3e0       ?GetOffsetToSymbolMap@Hunk@@QAE?AV?$map@HPAVSymbol@@U?$less@H@std@@V?$allocator@U?$pair@$$CBHPAVSymbol@@@std@@@3@@std@@XZ 0041f3e0 f   Hunk.obj
 0001:0001e620       ?Insert@Hunk@@QAEXHPBEH@Z  0041f620 f   Hunk.obj
 0001:0001e6d0       ?IsLikelyText@Hunk@@QAE_NXZ 0041f6d0 f   Hunk.obj
 0001:0001e710       ?IsLikelyTextInternal@Hunk@@QBE_NXZ 0041f710 f   Hunk.obj
 0001:0001e820       ?MarkHunkAsLibrary@Hunk@@QAEXXZ 0041f820 f   Hunk.obj
 0001:0001e850       ?OverrideAlignment@Hunk@@QAEXH@Z 0041f850 f   Hunk.obj
 0001:0001ea80       ?Relocate@Hunk@@QAEXH@Z    0041fa80 f   Hunk.obj
 0001:0001ee30       ?RoundFloats@Hunk@@QAEXH@Z 0041fe30 f   Hunk.obj
 0001:0001f2f0       ?SetAlignmentBits@Hunk@@QAEXH@Z 004202f0 f   Hunk.obj
 0001:0001f300       ?SetRawSize@Hunk@@QAEXH@Z  00420300 f   Hunk.obj
 0001:0001f370       ?Trim@Hunk@@QAEXXZ         00420370 f   Hunk.obj
 0001:0001f510       ?_Tidy@?$vector@URelocation@@V?$allocator@URelocation@@@std@@@std@@AAEXXZ 00420510 f i Hunk.obj
 0001:0001f5b0       ?resize@?$vector@EV?$allocator@E@std@@@std@@QAEXI@Z 004205b0 f i Hunk.obj
 0001:0001f690       ?substr@?$basic_string@DU?$char_traits@D@std@@V?$allocator@D@2@@std@@QBE?AV12@II@Z 00420690 f i Hunk.obj
 0001:0001f6e0       ??$_Assign_counted_range@PAV?$basic_string@DU?$char_traits@D@std@@V?$allocator@D@2@@std@@@?$vector@V?$basic_string@DU?$char_traits@D@std@@V?$allocator@D@2@@std@@V?$allocator@V?$basic_string@DU?$char_traits@D@std@@V?$allocator@D@2@@std@@@2@@std@@AAEXPAV?$basic_string@DU?$char_traits@D@std@@V?$allocator@D@2@@1@I@Z 004206e0 f i ImportHandler.obj
 0001:0001f8b0       ??$_Copy_memmove_n@PAIPAI@std@@YAPAIPAII0@Z 004208b0 f i ImportHandler.obj
 0001:0001f8d0       ??$_Emplace_reallocate@V?$basic_string@DU?$char_traits@D@std@@V?$allocator@D@2@@std@@@?$vector@V?$basic_string@DU?$char_traits@D@std@@V?$allocator@D@2@@std@@V?$allocator@V?$basic_string@DU?$char_traits@D@std@@V?$allocator@D@2@@std@@@2@@std@@AAEPAV?$basic_string@DU?$char_traits@D@std@@V?$allocator@D@2@@1@QAV21@$$QAV21@@Z 004208d0 f i ImportHandler.obj
 0001:0001fac0       ??$_Fill_zero_memset@PAI@std@@YAXPAII@Z 00420ac0 f i ImportHandler.obj
 0001:0001fae0       ??$_Insertion_sort_unchecked@PAV?$basic_string@DU?$char_traits@D@std@@V?$allocator@D@2@@std@@U?$less@X@2@@std@@YAPAV?$basic_string@DU?$char_traits@D@std@@V?$allocator@D@2@@0@QAV10@0U?$less@X@0@@Z 00420ae0 f i ImportHandler.obj
 0001:0001fd40       ??$_Is_all_bits_zero@I@std@@YA_NABI@Z 00420d40 f i ImportHandler.obj
 0001:0001fd60       ??$_Med3_unchecked@PAV?$basic_string@DU?$char_traits@D@std@@V?$allocator@D@2@@std@@U?$less@X@2@@std@@YAXPAV?$basic_string@DU?$char_traits@D@std@@V?$allocator@D@2@@0@00U?$less@X@0@@Z 00420d60 f i ImportHandler.obj
 0001:0001fe90       ??$_Move_backward_unchecked@PAV?$basic_string@DU?$char_traits@D@std@@V?$allocator@D@2@@std@@PAV12@@std@@YAPAV?$basic_string@DU?$char_traits@D@std@@V?$allocator@D@2@@0@PAV10@00@Z 00420e90 f i ImportHandler.obj
 0001:0001fef0       ??$_Move_unchecked@PAV?$basic_string@DU?$char_traits@D@std@@V?$allocator@D@2@@std@@PAV12@@std@@YAPAV?$basic_string@DU?$char_traits@D@std@@V?$allocator@D@2@@0@PAV10@00@Z 00420ef0 f i ImportHandler.obj
 0001:00020200       ??$_Partition_by_median_guess_unchecked@PAV?$basic_string@DU?$char_traits@D@std@@V?$allocator@D@2@@std@@U?$less@X@2@@std@@YA?AU?$pair@PAV?$basic_string@DU?$char_traits@D@std@@V?$allocator@D@2@@std@@PAV12@@0@PAV?$basic_string@DU?$char_traits@D@std@@V?$allocator@D@2@@0@0U?$less@X@0@@Z 00421200 f i ImportHandler.obj
 0001:000206a0       ??$_Pop_heap_hole_by_index@PAV?$basic_string@DU?$char_traits@D@std@@V?$allocator@D@2@@std@@V12@U?$less@X@2@@std@@YAXPAV?$basic_string@DU?$char_traits@D@std@@V?$allocator@D@2@@0@HH$$QAV10@U?$less@X@0@@Z 004216a0 f i ImportHandler.obj
 0001:000208a0       ??$_Resize@U_Value_init_tag@std@@@?$vector@DV?$allocator@D@std@@@std@@AAEXIABU_Value_init_tag@1@@Z 004218a0 f i ImportHandler.obj
 0001:000209d0       ??$_Sort_unchecked@PAV?$basic_string@DU?$char_traits@D@std@@V?$allocator@D@2@@std@@U?$less@X@2@@std@@YAXPAV?$basic_string@DU?$char_traits@D@std@@V?$allocator@D@2@@0@0HU?$less@X@0@@Z 004219d0 f i ImportHandler.obj
 0001:00020c60       ??$_Uninitialized_move@PAV?$basic_string@DU?$char_traits@D@std@@V?$allocator@D@2@@std@@V?$allocator@V?$basic_string@DU?$char_traits@D@std@@V?$allocator@D@2@@std@@@2@@std@@YAPAV?$basic_string@DU?$char_traits@D@std@@V?$allocator@D@2@@0@QAV10@0PAV10@AAV?$allocator@V?$basic_string@DU?$char_traits@D@std@@V?$allocator@D@2@@std@@@0@@Z 00421c60 f i ImportHandler.obj
 0001:00020d30       ??0?$basic_string@DU?$char_traits@D@std@@V?$allocator@D@2@@std@@QAE@XZ 00421d30 f i ImportHandler.obj
 0001:00021a70       ?AddImportHunks1K@ImportHandler@@SAXAAVPart@@_NAAH2@Z 00422a70 f   ImportHandler.obj
 0001:000225c0       ?AddImportHunks4K@ImportHandler@@SAXAAVPart@@AAPAVHunk@@AAV?$map@V?$basic_string@DU?$char_traits@D@std@@V?$allocator@D@2@@std@@V12@U?$less@V?$basic_string@DU?$char_traits@D@std@@V?$allocator@D@2@@std@@@2@V?$allocator@U?$pair@$$CBV?$basic_string@DU?$char_traits@D@std@@V?$allocator@D@2@@std@@V12@@std@@@2@@std@@ABV?$vector@V?$basic_string@DU?$char_traits@D@std@@V?$allocator@D@2@@std@@V?$allocator@V?$basic_string@DU?$char_traits@D@std@@V?$allocator@D@2@@std@@@2@@5@_NAA_N@Z 004235c0 f   ImportHandler.obj
 0001:00023fc0       ?ForEachExportInDLL@@YAXPBDV?$function@$$A6AXPBD@Z@std@@@Z 00424fc0 f   ImportHandler.obj
 0001:00024b50       ?_Buy_raw@?$vector@IV?$allocator@I@std@@@std@@AAEXI@Z 00425b50 f i ImportHandler.obj
 0001:00024bc0       ?_Buy_raw@?$vector@V?$basic_string@DU?$char_traits@D@std@@V?$allocator@D@2@@std@@V?$allocator@V?$basic_string@DU?$char_traits@D@std@@V?$allocator@D@2@@std@@@2@@std@@AAEXI@Z 00425bc0 f i ImportHandler.obj
 0001:00024e20       ?_Xlen@?$vector@_NV?$allocator@_N@std@@@std@@SAXXZ 00425e20 f i ImportHandler.obj
 0001:00024e30       ?deallocate@?$allocator@V?$basic_string@DU?$char_traits@D@std@@V?$allocator@D@2@@std@@@std@@QAEXQAV?$basic_string@DU?$char_traits@D@std@@V?$allocator@D@2@@2@I@Z 00425e30 f i ImportHandler.obj
 0001:00024e80       ?Clicks@LTCGLoader@@UBE_NPBDH@Z 00425e80 f   LTCGLoader.obj
 0001:00024eb0       ?Load@LTCGLoader@@UAE_NAAVPart@@PBDH1_N@Z 00425eb0 f   LTCGLoader.obj
 0001:00024ed0       ??$?HDU?$char_traits@D@std@@V?$allocator@D@1@@std@@YA?AV?$basic_string@DU?$char_traits@D@std@@V?$allocator@D@2@@0@QBD$$QAV10@@Z 00425ed0 f i main.obj
 0001:00024fc0       ??$_Copy_nodes@$0A@@?$_Tree@V?$_Tset_traits@VExport@@U?$less@VExport@@@std@@V?$allocator@VExport@@@3@$0A@@std@@@std@@IAEPAU?$_Tree_node@VExport@@PAX@1@PAU21@0@Z 00425fc0 f i main.obj
 0001:00025050       ??$_Emplace@U?$pair@V?$basic_string@DU?$char_traits@D@std@@V?$allocator@D@2@@std@@V12@@std@@@?$_Tree@V?$_Tmap_traits@V?$basic_string@DU?$char_traits@D@std@@V?$allocator@D@2@@std@@V12@U?$less@V?$basic_string@DU?$char_traits@D@std@@V?$allocator@D@2@@std@@@2@V?$allocator@U?$pair@$$CBV?$basic_string@DU?$char_traits@D@std@@V?$allocator@D@2@@std@@V12@@std@@@2@$0A@@std@@@std@@IAE?AU?$pair@PAU?$_Tree_node@U?$pair@$$CBV?$basic_string@DU?$char_traits@D@std@@V?$allocator@D@2@@std@@V12@@std@@PAX@std@@_N@1@$$QAU?$pair@V?$basic_string@DU?$char_traits@D@std@@V?$allocator@D@2@@std@@V12@@1@@Z 00426050 f i main.obj
 0001:00025220       ??$_Find_first_of_pos_vectorized@DD@std@@YAIQBDI0I@Z 00426220 f i main.obj
 0001:00025240       ??$_Reallocate_grow_by@V<lambda_1>@?1??replace@?$basic_string@DU?$char_traits@D@std@@V?$allocator@D@2@@std@@QAEAAV34@IIQBDI@Z@IIPBDI@?$basic_string@DU?$char_traits@D@std@@V?$allocator@D@2@@std@@AAEAAV01@IV<lambda_1>@?1??replace@01@QAEAAV01@IIQBDI@Z@IIPBDI@Z 00426240 f i main.obj
 0001:00025390       ??$make_pair@V?$basic_string@DU?$char_traits@D@std@@V?$allocator@D@2@@std@@V12@@std@@YA?AU?$pair@V?$basic_string@DU?$char_traits@D@std@@V?$allocator@D@2@@std@@V12@@0@$$QAV?$basic_string@DU?$char_traits@D@std@@V?$allocator@D@2@@0@0@Z 00426390 f i main.obj
 0001:00025410       ??0?$basic_string@DU?$char_traits@D@std@@V?$allocator@D@2@@std@@QAE@$$QAV01@@Z 00426410 f i main.obj
 0001:00025450       ??0Export@@QAE@$$QAV0@@Z   00426450 f i main.obj
 0001:000254d0       ??1CmdParamFlags@@UAE@XZ   004264d0 f i main.obj
 0001:00025520       ??1CmdParamInt@@UAE@XZ     00426520 f i main.obj
 0001:00025520       ??1CmdParamSwitch@@UAE@XZ  00426520 f i main.obj
 0001:00025550       ??1CmdParamMultiAssign@@UAE@XZ 00426550 f i main.obj
 0001:00025610       ??1CmdParamString@@UAE@XZ  00426610 f i main.obj
 0001:00025640       ??4?$basic_string@DU?$char_traits@D@std@@V?$allocator@D@2@@std@@QAEAAV01@QBD@Z 00426640 f i main.obj
 0001:00025740       ??Y?$basic_string@DU?$char_traits@D@std@@V?$allocator@D@2@@std@@QAEAAV01@ABV01@@Z 00426740 f i main.obj
 0001:00025760       ??_ECallTransform@@UAEPAXI@Z 00426760 f i main.obj
 0001:00025760       ??_GCallTransform@@UAEPAXI@Z 00426760 f i main.obj
 0001:00025790       ??_ECmdParam@@UAEPAXI@Z    00426790 f i main.obj
 0001:00025790       ??_GCmdParam@@UAEPAXI@Z    00426790 f i main.obj
 0001:000257d0       ??_EIdentityTransform@@UAEPAXI@Z 004267d0 f i main.obj
 0001:000257d0       ??_ETransform@@UAEPAXI@Z   004267d0 f i main.obj
 0001:000257d0       ??_GIdentityTransform@@UAEPAXI@Z 004267d0 f i main.obj
 0001:000257d0       ??_GTransform@@UAEPAXI@Z   004267d0 f i main.obj
 0001:00025800       ?AddFallbackDll@Crinkler@@QAEXPBD0@Z 00426800 f i main.obj
 0001:00025a10       ?AddReplaceDll@Crinkler@@QAEXPBD0@Z 00426a10 f i main.obj
 0001:00025c20       ?DoTransform@IdentityTransform@@UAE_NPAVHunk@@H_N@Z 00426c20 f i main.obj
 0001:00026610       ?EnterCriticalRegion@ContextBase@details@Concurrency@@QAEHXZ 00427610 f i libconcrt:ContextBase.obj
 0001:00026610       ?EnterHyperCriticalRegion@ContextBase@details@Concurrency@@QAEHXZ 00427610 f i libconcrt:ContextBase.obj
 0001:00026610       ?ExitCriticalRegion@ContextBase@details@Concurrency@@QAEHXZ 00427610 f i libconcrt:ContextBase.obj
 0001:00026610       ?ExitHyperCriticalRegion@ContextBase@details@Concurrency@@QAEHXZ 00427610 f i libconcrt:ContextBase.obj
 0001:00026610       ?GetContextKind@ExternalContextBase@details@Concurrency@@EBE?AW4ContextKind@ContextBase@23@XZ 00427610 f i libconcrt:ExternalContextBase.obj
 0001:00026610       ?GetDefaultDestination@VirtualProcessor@details@Concurrency@@UAEPAUIExecutionContext@3@XZ 00427610 f i libconcrt:VirtualProcessor.obj
 0001:00026610       ?GetDetransformer@IdentityTransform@@UAEPAVHunk@@XZ 00427610 f i main.obj
 0001:00026610       ?PreRunnableSearch@VirtualProcessor@details@Concurrency@@UAEPAVInternalContextBase@23@XZ 00427610 f i libconcrt:VirtualProcessor.obj
 0001:00026610       ___scrt_exe_initialize_mta 00427610 f i LIBCMT:utility_desktop.obj
 0001:00026610       ___scrt_initialize_winrt   00427610 f i LIBCMT:utility_desktop.obj
 0001:00026610       ___scrt_stub_for_initialize_mta 00427610 f i LIBCMT:utility_desktop.obj
 0001:00026610       __get_startup_commit_mode  00427610 f i LIBCMT:commit_mode.obj
 0001:00026610       __get_startup_new_mode     00427610 f i LIBCMT:new_mode.obj
 0001:00026610       __get_startup_thread_locale_mode 00427610 f i LIBCMT:thread_locale.obj
 0001:00026610       __matherr                  00427610 f i LIBCMT:matherr.obj
 0001:000266d0       ?GetValue@CmdParamString@@QBEPBDXZ 004276d0 f i main.obj
 0001:000266f0       ?GetValueIfPresent@CmdParamFlags@@QBEHH@Z 004276f0 f i main.obj
 0001:00026710       ?LoadDLL@@YAPBDPBD@Z       00427710 f   main.obj
 0001:00026fd0       ?find_first_of@?$basic_string@DU?$char_traits@D@std@@V?$allocator@D@2@@std@@QBEIABV12@I@Z 00427fd0 f i main.obj
 0001:000270c0       ?push_back@?$vector@V?$basic_string@DU?$char_traits@D@std@@V?$allocator@D@2@@std@@V?$allocator@V?$basic_string@DU?$char_traits@D@std@@V?$allocator@D@2@@std@@@2@@std@@QAEX$$QAV?$basic_string@DU?$char_traits@D@std@@V?$allocator@D@2@@2@@Z 004280c0 f i main.obj
 0001:00027120       ?replace@?$basic_string@DU?$char_traits@D@std@@V?$allocator@D@2@@std@@QAEAAV12@IIQBDI@Z 00428120 f i main.obj
 0001:00027290       _main                      00428290 f   main.obj
 0001:000296e0       ??$_Emplace_reallocate@ABQAVPart@@@?$vector@PAVPart@@V?$allocator@PAVPart@@@std@@@std@@AAEPAPAVPart@@QAPAV2@ABQAV2@@Z 0042a6e0 f i PartList.obj
 0001:000297e0       ??$_Find_vectorized@PAVHunk@@PAV1@@std@@YAPAPAVHunk@@QAPAV1@0QAV1@@Z 0042a7e0 f i PartList.obj
 0001:00029800       ??$_Uninitialized_copy_unchecked@PAPAPAVHunk@@PAPAPAV1@@std@@YAPAPAPAVHunk@@PAPAPAV1@QAPAPAV1@0@Z 0042a800 f i PartList.obj
 0001:00029810       ??$_Uninitialized_value_construct_n_unchecked1@PAPAPAVHunk@@I@std@@YAPAPAPAVHunk@@PAPAPAV1@I@Z 0042a810 f i PartList.obj
 0001:00029830       ??$uninitialized_copy@PAPAPAVHunk@@PAPAPAV1@@std@@YAPAPAPAVHunk@@QAPAPAV1@0PAPAPAV1@@Z 0042a830 f i PartList.obj
 0001:00029840       ??0PartList@@QAE@XZ        0042a840 f   PartList.obj
 0001:00029860       ??0SymbolMap@@QAE@AAVPart@@@Z 0042a860 f   PartList.obj
 0001:000298d0       ??1?$deque@PAVHunk@@V?$allocator@PAVHunk@@@std@@@std@@QAE@XZ 0042a8d0 f i PartList.obj
 0001:00029980       ??1Part@@QAE@XZ            0042a980 f   PartList.obj
 0001:000299a0       ??1PartList@@QAE@XZ        0042a9a0 f   PartList.obj
 0001:000299e0       ??APart@@QAEAAPAVHunk@@I@Z 0042a9e0 f   PartList.obj
 0001:000299f0       ??APartList@@QAEAAVPart@@I@Z 0042a9f0 f   PartList.obj
 0001:0002a0a0       ??R?$less@V?$basic_string@DU?$char_traits@D@std@@V?$allocator@D@2@@std@@@std@@QBE_NABV?$basic_string@DU?$char_traits@D@std@@V?$allocator@D@2@@1@0@Z 0042b0a0 f i PartList.obj
 0001:0002a150       ?AddHunkBack@Part@@QAEXPAVHunk@@@Z 0042b150 f   PartList.obj
 0001:0002a180       ?AddHunkFront@Part@@QAEXPAVHunk@@@Z 0042b180 f   PartList.obj
 0001:0002a1a0       ?CalcTotalPartAndModelOverhead@PartList@@QAEHXZ 0042b1a0 f   PartList.obj
 0001:0002a1f0       ?Clear@PartList@@QAEXXZ    0042b1f0 f   PartList.obj
 0001:0002a390       ?DeleteUnreferencedHunks@Part@@QAEXABVSymbolMap@@ABV?$vector@PAVHunk@@V?$allocator@PAVHunk@@@std@@@std@@@Z 0042b390 f   PartList.obj
 0001:0002a7a0       ?FindBestPartIndex@PartList@@QBEHPAVHunk@@@Z 0042b7a0 f   PartList.obj
 0001:0002a800       ?FindSymbol@Part@@QAEPAVSymbol@@PBD@Z 0042b800 f   PartList.obj
 0001:0002a860       ?FindSymbol@PartList@@QAEPAVSymbol@@PBD@Z 0042b860 f   PartList.obj
 0001:0002a8c0       ?FindUndecoratedSymbol@Part@@QAEPAVSymbol@@PBDPAH@Z 0042b8c0 f   PartList.obj
 0001:0002a930       ?ForEachHunk@Part@@QAEXV?$function@$$A6AXAAVPart@@PAVHunk@@1@Z@std@@@Z 0042b930 f   PartList.obj
 0001:0002a9b0       ?ForEachHunk@Part@@QAEXV?$function@$$A6AXPAVHunk@@@Z@std@@@Z 0042b9b0 f   PartList.obj
 0001:0002aa10       ?ForEachHunk@PartList@@QAEXV?$function@$$A6AXAAVPart@@PAVHunk@@1@Z@std@@@Z 0042ba10 f   PartList.obj
 0001:0002aa70       ?ForEachHunkWithBreak@Part@@QAE_NV?$function@$$A6A_NAAVPart@@PAVHunk@@1@Z@std@@@Z 0042ba70 f   PartList.obj
 0001:0002ab00       ?ForEachHunkWithBreak@Part@@QAE_NV?$function@$$A6A_NPAVHunk@@@Z@std@@@Z 0042bb00 f   PartList.obj
 0001:0002ab70       ?ForEachHunkWithBreak@PartList@@QAE_NV?$function@$$A6A_NAAVPart@@PAVHunk@@1@Z@std@@@Z 0042bb70 f   PartList.obj
 0001:0002abe0       ?ForEachHunkWithBreak@PartList@@QAE_NV?$function@$$A6A_NPAVHunk@@@Z@std@@@Z 0042bbe0 f   PartList.obj
 0001:0002ac50       ?ForEachPart@PartList@@QAEXV?$function@$$A6AXAAVPart@@H@Z@std@@@Z 0042bc50 f   PartList.obj
 0001:0002acb0       ?GetOrAddPart@PartList@@QAEAAVPart@@PBD_N@Z 0042bcb0 f   PartList.obj
 0001:0002ae30       ?GetPartIndex@PartList@@QBEHPBD@Z 0042be30 f   PartList.obj
 0001:0002af00       ?InsertHunk@Part@@QAEXHPAVHunk@@@Z 0042bf00 f   PartList.obj
 0001:0002af20       ?Link@PartList@@QAEPAVHunk@@PBDH@Z 0042bf20 f   PartList.obj
 0001:0002b130       ?NeedsContinuationJump@PartList@@QBE_NPAVHunk@@0@Z 0042c130 f   PartList.obj
 0001:0002b160       ?RemoveHunk@Part@@QAEXPAVHunk@@@Z 0042c160 f   PartList.obj
 0001:0002b1a0       ?RemoveMatchingHunks@Part@@QAEXV?$function@$$A6A_NPAVHunk@@@Z@std@@@Z 0042c1a0 f   PartList.obj
 0001:0002b550       ?_Growmap@?$deque@PAVHunk@@V?$allocator@PAVHunk@@@std@@@std@@AAEXI@Z 0042c550 f i PartList.obj
 0001:0002b710       ?_Xlen@?$deque@PAVHunk@@V?$allocator@PAVHunk@@@std@@@std@@CAXXZ 0042c710 f i PartList.obj
 0001:0002b720       ?insert@?$vector@PAVHunk@@V?$allocator@PAVHunk@@@std@@@std@@QAE?AV?$_Vector_iterator@V?$_Vector_val@U?$_Simple_types@PAVHunk@@@std@@@std@@@2@V?$_Vector_const_iterator@V?$_Vector_val@U?$_Simple_types@PAVHunk@@@std@@@std@@@2@ABQAVHunk@@@Z 0042c720 f i PartList.obj
 0001:0002b790       ??$_Emplace_reallocate@AAV?$basic_string@DU?$char_traits@D@std@@V?$allocator@D@2@@std@@AA_N@?$vector@VReusePart@@V?$allocator@VReusePart@@@std@@@std@@AAEPAVReusePart@@QAV2@AAV?$basic_string@DU?$char_traits@D@std@@V?$allocator@D@2@@1@AA_N@Z 0042c790 f i Reuse.obj
 0001:0002b900       ??$_Emplace_reallocate@AAVPart@@@?$vector@VReusePart@@V?$allocator@VReusePart@@@std@@@std@@AAEPAVReusePart@@QAV2@AAVPart@@@Z 0042c900 f i Reuse.obj
 0001:0002ba60       ??$_Emplace_reallocate@ABV?$basic_string@DU?$char_traits@D@std@@V?$allocator@D@2@@std@@@?$vector@V?$basic_string@DU?$char_traits@D@std@@V?$allocator@D@2@@std@@V?$allocator@V?$basic_string@DU?$char_traits@D@std@@V?$allocator@D@2@@std@@@2@@std@@AAEPAV?$basic_string@DU?$char_traits@D@std@@V?$allocator@D@2@@1@QAV21@ABV21@@Z 0042ca60 f i Reuse.obj
 0001:0002bc20       ??$_Emplace_reallocate@V?$vector@PAVHunk@@V?$allocator@PAVHunk@@@std@@@std@@@?$vector@V?$vector@PAVHunk@@V?$allocator@PAVHunk@@@std@@@std@@V?$allocator@V?$vector@PAVHunk@@V?$allocator@PAVHunk@@@std@@@std@@@2@@std@@AAEPAV?$vector@PAVHunk@@V?$allocator@PAVHunk@@@std@@@1@QAV21@$$QAV21@@Z 0042cc20 f i Reuse.obj
 0001:0002bdf0       ??$_Eqrange@V?$basic_string@DU?$char_traits@D@std@@V?$allocator@D@2@@std@@@?$_Tree@V?$_Tmap_traits@V?$basic_string@DU?$char_traits@D@std@@V?$allocator@D@2@@std@@PAVModelList4k@@U?$less@V?$basic_string@DU?$char_traits@D@std@@V?$allocator@D@2@@std@@@2@V?$allocator@U?$pair@$$CBV?$basic_string@DU?$char_traits@D@std@@V?$allocator@D@2@@std@@PAVModelList4k@@@std@@@2@$0A@@std@@@std@@IBE?AU?$pair@PAU?$_Tree_node@U?$pair@$$CBV?$basic_string@DU?$char_traits@D@std@@V?$allocator@D@2@@std@@PAVModelList4k@@@std@@PAX@std@@PAU12@@1@ABV?$basic_string@DU?$char_traits@D@std@@V?$allocator@D@2@@1@@Z 0042cdf0 f i Reuse.obj
 0001:0002c080       ??$_Find_last@V?$basic_string@DU?$char_traits@D@std@@V?$allocator@D@2@@std@@@?$_Hash@V?$_Umap_traits@V?$basic_string@DU?$char_traits@D@std@@V?$allocator@D@2@@std@@PAVHunk@@V?$_Uhash_compare@V?$basic_string@DU?$char_traits@D@std@@V?$allocator@D@2@@std@@U?$hash@V?$basic_string@DU?$char_traits@D@std@@V?$allocator@D@2@@std@@@2@U?$equal_to@V?$basic_string@DU?$char_traits@D@std@@V?$allocator@D@2@@std@@@2@@2@V?$allocator@U?$pair@$$CBV?$basic_string@DU?$char_traits@D@std@@V?$allocator@D@2@@std@@PAVHunk@@@std@@@2@$0A@@std@@@std@@IBE?AU?$_Hash_find_last_result@PAU?$_List_node@U?$pair@$$CBV?$basic_string@DU?$char_traits@D@std@@V?$allocator@D@2@@std@@PAVHunk@@@std@@PAX@std@@@1@ABV?$basic_string@DU?$char_traits@D@std@@V?$allocator@D@2@@1@I@Z 0042d080 f i Reuse.obj
 0001:0002c110       ??$_Find_lower_bound@V?$basic_string@DU?$char_traits@D@std@@V?$allocator@D@2@@std@@@?$_Tree@V?$_Tmap_traits@V?$basic_string@DU?$char_traits@D@std@@V?$allocator@D@2@@std@@HU?$less@V?$basic_string@DU?$char_traits@D@std@@V?$allocator@D@2@@std@@@2@V?$allocator@U?$pair@$$CBV?$basic_string@DU?$char_traits@D@std@@V?$allocator@D@2@@std@@H@std@@@2@$0A@@std@@@std@@IBE?AU?$_Tree_find_result@PAU?$_Tree_node@U?$pair@$$CBV?$basic_string@DU?$char_traits@D@std@@V?$allocator@D@2@@std@@H@std@@PAX@std@@@1@ABV?$basic_string@DU?$char_traits@D@std@@V?$allocator@D@2@@1@@Z 0042d110 f i CmdParamFlags.obj
 0001:0002c110       ??$_Find_lower_bound@V?$basic_string@DU?$char_traits@D@std@@V?$allocator@D@2@@std@@@?$_Tree@V?$_Tmap_traits@V?$basic_string@DU?$char_traits@D@std@@V?$allocator@D@2@@std@@PAVModelList4k@@U?$less@V?$basic_string@DU?$char_traits@D@std@@V?$allocator@D@2@@std@@@2@V?$allocator@U?$pair@$$CBV?$basic_string@DU?$char_traits@D@std@@V?$allocator@D@2@@std@@PAVModelList4k@@@std@@@2@$0A@@std@@@std@@IBE?AU?$_Tree_find_result@PAU?$_Tree_node@U?$pair@$$CBV?$basic_string@DU?$char_traits@D@std@@V?$allocator@D@2@@std@@PAVModelList4k@@@std@@PAX@std@@@1@ABV?$basic_string@DU?$char_traits@D@std@@V?$allocator@D@2@@1@@Z 0042d110 f i Reuse.obj
 0001:0002c210       ??$_Hash_array_representation@D@std@@YAIQBDI@Z 0042d210 f i Reuse.obj
 0001:0002c240       ??$_Try_emplace@ABV?$basic_string@DU?$char_traits@D@std@@V?$allocator@D@2@@std@@$$V@?$_Hash@V?$_Umap_traits@V?$basic_string@DU?$char_traits@D@std@@V?$allocator@D@2@@std@@PAVHunk@@V?$_Uhash_compare@V?$basic_string@DU?$char_traits@D@std@@V?$allocator@D@2@@std@@U?$hash@V?$basic_string@DU?$char_traits@D@std@@V?$allocator@D@2@@std@@@2@U?$equal_to@V?$basic_string@DU?$char_traits@D@std@@V?$allocator@D@2@@std@@@2@@2@V?$allocator@U?$pair@$$CBV?$basic_string@DU?$char_traits@D@std@@V?$allocator@D@2@@std@@PAVHunk@@@std@@@2@$0A@@std@@@std@@IAE?AU?$pair@PAU?$_List_node@U?$pair@$$CBV?$basic_string@DU?$char_traits@D@std@@V?$allocator@D@2@@std@@PAVHunk@@@std@@PAX@std@@_N@1@ABV?$basic_string@DU?$char_traits@D@std@@V?$allocator@D@2@@1@@Z 0042d240 f i Reuse.obj
 0001:0002c3e0       ??$_Uninitialized_move@PAV?$vector@PAVHunk@@V?$allocator@PAVHunk@@@std@@@std@@V?$allocator@V?$vector@PAVHunk@@V?$allocator@PAVHunk@@@std@@@std@@@2@@std@@YAPAV?$vector@PAVHunk@@V?$allocator@PAVHunk@@@std@@@0@QAV10@0PAV10@AAV?$allocator@V?$vector@PAVHunk@@V?$allocator@PAVHunk@@@std@@@std@@@0@@Z 0042d3e0 f i Reuse.obj
 0001:0002c440       ??$_Uninitialized_move@PAVReusePart@@V?$allocator@VReusePart@@@std@@@std@@YAPAVReusePart@@QAV1@0PAV1@AAV?$allocator@VReusePart@@@0@@Z 0042d440 f i Reuse.obj
 0001:0002c4e0       ??$erase@V?$_List_iterator@V?$_List_val@U?$_List_simple_types@U?$pair@$$CBV?$basic_string@DU?$char_traits@D@std@@V?$allocator@D@2@@std@@PAVHunk@@@std@@@std@@@std@@@std@@$0A@@?$_Hash@V?$_Umap_traits@V?$basic_string@DU?$char_traits@D@std@@V?$allocator@D@2@@std@@PAVHunk@@V?$_Uhash_compare@V?$basic_string@DU?$char_traits@D@std@@V?$allocator@D@2@@std@@U?$hash@V?$basic_string@DU?$char_traits@D@std@@V?$allocator@D@2@@std@@@2@U?$equal_to@V?$basic_string@DU?$char_traits@D@std@@V?$allocator@D@2@@std@@@2@@2@V?$allocator@U?$pair@$$CBV?$basic_string@DU?$char_traits@D@std@@V?$allocator@D@2@@std@@PAVHunk@@@std@@@2@$0A@@std@@@std@@QAE?AV?$_List_iterator@V?$_List_val@U?$_List_simple_types@U?$pair@$$CBV?$basic_string@DU?$char_traits@D@std@@V?$allocator@D@2@@std@@PAVHunk@@@std@@@std@@@std@@@1@V21@@Z 0042d4e0 f i Reuse.obj
 0001:0002c570       ??$fill@PAV?$_List_unchecked_iterator@V?$_List_val@U?$_List_simple_types@U?$pair@$$CBV?$basic_string@DU?$char_traits@D@std@@V?$allocator@D@2@@std@@PAVHunk@@@std@@@std@@@std@@@std@@V12@@std@@YAXQAV?$_List_unchecked_iterator@V?$_List_val@U?$_List_simple_types@U?$pair@$$CBV?$basic_string@DU?$char_traits@D@std@@V?$allocator@D@2@@std@@PAVHunk@@@std@@@std@@@std@@@0@0ABV10@@Z 0042d570 f i Reuse.obj
 0001:0002c5d0       ??$uninitialized_fill@PAV?$_List_unchecked_iterator@V?$_List_val@U?$_List_simple_types@U?$pair@$$CBV?$basic_string@DU?$char_traits@D@std@@V?$allocator@D@2@@std@@PAVHunk@@@std@@@std@@@std@@@std@@V12@@std@@YAXQAV?$_List_unchecked_iterator@V?$_List_val@U?$_List_simple_types@U?$pair@$$CBV?$basic_string@DU?$char_traits@D@std@@V?$allocator@D@2@@std@@PAVHunk@@@std@@@std@@@std@@@0@0ABV10@@Z 0042d5d0 f i Reuse.obj
 0001:0002c5f0       ??0?$map@V?$basic_string@DU?$char_traits@D@std@@V?$allocator@D@2@@std@@PAVModelList4k@@U?$less@V?$basic_string@DU?$char_traits@D@std@@V?$allocator@D@2@@std@@@2@V?$allocator@U?$pair@$$CBV?$basic_string@DU?$char_traits@D@std@@V?$allocator@D@2@@std@@PAVModelList4k@@@std@@@2@@std@@QAE@XZ 0042d5f0 f i Reuse.obj
 0001:0002c620       ??0Reuse@@QAE@AAVPartList@@H@Z 0042d620 f   Reuse.obj
 0001:0002c680       ??0Reuse@@QAE@XZ           0042d680 f   Reuse.obj
 0001:0002c6a0       ??0ReusePart@@QAE@AAVPart@@@Z 0042d6a0 f   Reuse.obj
 0001:0002c770       ??0ReusePart@@QAE@V?$basic_string@DU?$char_traits@D@std@@V?$allocator@D@2@@std@@_N@Z 0042d770 f   Reuse.obj
 0001:0002c7b0       ??1?$_Hash_vec@V?$allocator@V?$_List_unchecked_iterator@V?$_List_val@U?$_List_simple_types@U?$pair@$$CBV?$basic_string@DU?$char_traits@D@std@@V?$allocator@D@2@@std@@PAVHunk@@@std@@@std@@@std@@@std@@@std@@@std@@QAE@XZ 0042d7b0 f i Reuse.obj
 0001:0002c810       ??1?$list@U?$pair@$$CBV?$basic_string@DU?$char_traits@D@std@@V?$allocator@D@2@@std@@PAVHunk@@@std@@V?$allocator@U?$pair@$$CBV?$basic_string@DU?$char_traits@D@std@@V?$allocator@D@2@@std@@PAVHunk@@@std@@@2@@std@@QAE@XZ 0042d810 f i Reuse.obj
 0001:0002c860       ??1_Reallocation_guard@?$vector@VReusePart@@V?$allocator@VReusePart@@@std@@@std@@QAE@XZ 0042d860 f i Reuse.obj
 0001:0002c8d0       ?AskForReuseMode@@YA?AW4ReuseType@@W41@@Z 0042d8d0 f   Reuse.obj
 0001:0002cae0       ?LoadReuseFile@@YAPAVReuse@@PBD@Z 0042dae0 f   Reuse.obj
 0001:0002d700       ?PartsFromHunkList@Reuse@@QAE_NAAVPartList@@AAVPart@@@Z 0042e700 f   Reuse.obj
 0001:0002dce0       ?Save@Reuse@@QBEXPBD@Z     0042ece0 f   Reuse.obj
 0001:0002df20       ?_Assign_grow@?$_Hash_vec@V?$allocator@V?$_List_unchecked_iterator@V?$_List_val@U?$_List_simple_types@U?$pair@$$CBV?$basic_string@DU?$char_traits@D@std@@V?$allocator@D@2@@std@@PAVHunk@@@std@@@std@@@std@@@std@@@std@@@std@@QAEXIV?$_List_unchecked_iterator@V?$_List_val@U?$_List_simple_types@U?$pair@$$CBV?$basic_string@DU?$char_traits@D@std@@V?$allocator@D@2@@std@@PAVHunk@@@std@@@std@@@std@@@2@@Z 0042ef20 f i Reuse.obj
 0001:0002dfc0       ?_Change_array@?$vector@VReusePart@@V?$allocator@VReusePart@@@std@@@std@@AAEXQAVReusePart@@II@Z 0042efc0 f i Reuse.obj
 0001:0002e260       ?_Extract@?$_Tree_val@U?$_Tree_simple_types@U?$pair@$$CBV?$basic_string@DU?$char_traits@D@std@@V?$allocator@D@2@@std@@PAVModelList4k@@@std@@@std@@@std@@QAEPAU?$_Tree_node@U?$pair@$$CBV?$basic_string@DU?$char_traits@D@std@@V?$allocator@D@2@@std@@PAVModelList4k@@@std@@PAX@2@V?$_Tree_unchecked_const_iterator@V?$_Tree_val@U?$_Tree_simple_types@U?$pair@$$CBV?$basic_string@DU?$char_traits@D@std@@V?$allocator@D@2@@std@@PAVModelList4k@@@std@@@std@@@std@@U_Iterator_base0@2@@2@@Z 0042f260 f i Reuse.obj
 0001:0002e570       ?_Forced_rehash@?$_Hash@V?$_Umap_traits@V?$basic_string@DU?$char_traits@D@std@@V?$allocator@D@2@@std@@PAVHunk@@V?$_Uhash_compare@V?$basic_string@DU?$char_traits@D@std@@V?$allocator@D@2@@std@@U?$hash@V?$basic_string@DU?$char_traits@D@std@@V?$allocator@D@2@@std@@@2@U?$equal_to@V?$basic_string@DU?$char_traits@D@std@@V?$allocator@D@2@@std@@@2@@2@V?$allocator@U?$pair@$$CBV?$basic_string@DU?$char_traits@D@std@@V?$allocator@D@2@@std@@PAVHunk@@@std@@@2@$0A@@std@@@std@@IAEXI@Z 0042f570 f i Reuse.obj
 0001:0002e750       ?_Lrotate@?$_Tree_val@U?$_Tree_simple_types@U?$pair@$$CBV?$basic_string@DU?$char_traits@D@std@@V?$allocator@D@2@@std@@PAVModelList4k@@@std@@@std@@@std@@QAEXPAU?$_Tree_node@U?$pair@$$CBV?$basic_string@DU?$char_traits@D@std@@V?$allocator@D@2@@std@@PAVModelList4k@@@std@@PAX@2@@Z 0042f750 f i Reuse.obj
 0001:0002e7a0       ?_Min@?$_Tree_val@U?$_Tree_simple_types@U?$pair@$$CBV?$basic_string@DU?$char_traits@D@std@@V?$allocator@D@2@@std@@PAVModelList4k@@@std@@@std@@@std@@SAPAU?$_Tree_node@U?$pair@$$CBV?$basic_string@DU?$char_traits@D@std@@V?$allocator@D@2@@std@@PAVModelList4k@@@std@@PAX@2@PAU32@@Z 0042f7a0 f i Reuse.obj
 0001:0002e7c0       ?_Rrotate@?$_Tree_val@U?$_Tree_simple_types@U?$pair@$$CBV?$basic_string@DU?$char_traits@D@std@@V?$allocator@D@2@@std@@PAVModelList4k@@@std@@@std@@@std@@QAEXPAU?$_Tree_node@U?$pair@$$CBV?$basic_string@DU?$char_traits@D@std@@V?$allocator@D@2@@std@@PAVModelList4k@@@std@@PAX@2@@Z 0042f7c0 f i Reuse.obj
 0001:0002e870       _fprintf                   0042f870 f i Reuse.obj
 0001:0002e8a0       _sscanf                    0042f8a0 f i Reuse.obj
 0001:0002e8d0       ??0Symbol@@QAE@PBDHIPAVHunk@@0@Z 0042f8d0 f   Symbol.obj
 0001:0002eab0       ?GetUndecoratedName@Symbol@@QBE?AV?$basic_string@DU?$char_traits@D@std@@V?$allocator@D@2@@std@@XZ 0042fab0 f   Symbol.obj
 0001:0002ec30       ?Error@Log@@SAXPBD0ZZ      0042fc30 f   Log.obj
 0001:0002ec90       ?NonfatalError@Log@@SAXPBD0ZZ 0042fc90 f   Log.obj
 0001:0002ecf0       ?Warning@Log@@SAXPBD0ZZ    0042fcf0 f   Log.obj
 0001:0002ed50       _vsprintf_s                0042fd50 f i Log.obj
 0001:0002ed80       ??0MemoryFile@@QAE@PBD_N@Z 0042fd80 f   MemoryFile.obj
 0001:0002ee30       ??1MemoryFile@@QAE@XZ      0042fe30 f   MemoryFile.obj
 0001:0002ee40       ?Write@MemoryFile@@QBE_NPBD@Z 0042fe40 f   MemoryFile.obj
 0001:0002ee90       ?EnableMiniDumps@@YAXXZ    0042fe90 f   MiniDump.obj
 0001:0002eeb0       ?ExitWithDump@@YGJPAU_EXCEPTION_POINTERS@@@Z 0042feb0 f   MiniDump.obj
 0001:0002f000       ?Align@@YAHHH@Z            00430000 f   Misc.obj
 0001:0002f020       ?ReadBigEndian@@YAHPBE@Z   00430020 f   Misc.obj
 0001:0002f050       ?RoundInt64@@YA_K_KH@Z     00430050 f   Misc.obj
 0001:0002f0d0       ?StripCrinklerSymbolPrefix@@YA?AV?$basic_string@DU?$char_traits@D@std@@V?$allocator@D@2@@std@@PBD@Z 004300d0 f   NameMangling.obj
 0001:0002f170       ?StripSymbolPrefix@@YA?AV?$basic_string@DU?$char_traits@D@std@@V?$allocator@D@2@@std@@PBD@Z 00430170 f   NameMangling.obj
 0001:0002f200       ?UndecorateSymbolName@@YA?AV?$basic_string@DU?$char_traits@D@std@@V?$allocator@D@2@@std@@PBD@Z 00430200 f   NameMangling.obj
 0001:0002f2f0       ??$_Emplace_reallocate@PBDH@?$vector@V?$basic_string@DU?$char_traits@D@std@@V?$allocator@D@2@@std@@V?$allocator@V?$basic_string@DU?$char_traits@D@std@@V?$allocator@D@2@@std@@@2@@std@@AAEPAV?$basic_string@DU?$char_traits@D@std@@V?$allocator@D@2@@1@QAV21@$$QAPBD$$QAH@Z 004302f0 f i StringMisc.obj
 0001:0002f4d0       ?Base64Encode@@YA?AV?$basic_string@DU?$char_traits@D@std@@V?$allocator@D@2@@std@@PBDH@Z 004304d0 f   StringMisc.obj
 0001:0002fb00       ?EndsWith@@YA_NPBD0@Z      00430b00 f   StringMisc.obj
 0001:0002fb90       ?IntoLines@@YA?AV?$vector@V?$basic_string@DU?$char_traits@D@std@@V?$allocator@D@2@@std@@V?$allocator@V?$basic_string@DU?$char_traits@D@std@@V?$allocator@D@2@@std@@@2@@std@@PBDH@Z 00430b90 f   StringMisc.obj
 0001:0002fc40       ?StartsWith@@YA_NPBD0@Z    00430c40 f   StringMisc.obj
 0001:0002fc70       ?StripPath@@YA?AV?$basic_string@DU?$char_traits@D@std@@V?$allocator@D@2@@std@@ABV12@@Z 00430c70 f   StringMisc.obj
 0001:0002fd10       ?ToLower@@YA?AV?$basic_string@DU?$char_traits@D@std@@V?$allocator@D@2@@std@@ABV12@@Z 00430d10 f   StringMisc.obj
 0001:0002fd60       ?ToUpper@@YA?AV?$basic_string@DU?$char_traits@D@std@@V?$allocator@D@2@@std@@ABV12@@Z 00430d60 f   StringMisc.obj
 0001:0002fdb0       _sprintf_s                 00430db0 f i StringMisc.obj
 0001:0002fde0       ??0CmdLineInterface@@QAE@PBDH@Z 00430de0 f   CmdLineInterface.obj
 0001:0002fe40       ??1CmdLineInterface@@QAE@XZ 00430e40 f   CmdLineInterface.obj
 0001:0002fe60       ?AddParams@CmdLineInterface@@QAAXPAVCmdParam@@ZZ 00430e60 f   CmdLineInterface.obj
 0001:0002fea0       ?AddTokens@CmdLineInterface@@AAEXPBD@Z 00430ea0 f   CmdLineInterface.obj
 0001:00030060       ?Parse@CmdLineInterface@@QAE_NXZ 00431060 f   CmdLineInterface.obj
 0001:00030880       ?PrintHeader@CmdLineInterface@@QAEXXZ 00431880 f   CmdLineInterface.obj
 0001:000308a0       ?PrintSyntax@CmdLineInterface@@QAEXXZ 004318a0 f   CmdLineInterface.obj
 0001:00030940       ?RemoveToken@CmdLineInterface@@QAE_NPBD@Z 00431940 f   CmdLineInterface.obj
 0001:00030a40       ?SetCmdParameters@CmdLineInterface@@QAE_NHQAPAD@Z 00431a40 f   CmdLineInterface.obj
 0001:00030b60       ??0CmdParam@@QAE@PBD00H@Z  00431b60 f   CmdParam.obj
 0001:00030bf0       ?ToString@CmdParam@@UBE?AV?$basic_string@DU?$char_traits@D@std@@V?$allocator@D@2@@std@@XZ 00431bf0 f   CmdParam.obj
 0001:00030cf0       ??0CmdParamFlags@@QAA@PBD0HH0HZZ 00431cf0 f   CmdParamFlags.obj
 0001:00031120       ??_ECmdParamFlags@@UAEPAXI@Z 00432120 f i CmdParamFlags.obj
 0001:00031120       ??_GCmdParamFlags@@UAEPAXI@Z 00432120 f i CmdParamFlags.obj
 0001:00031180       ?Parse@CmdParamFlags@@UAEHPBDPADH@Z 00432180 f   CmdParamFlags.obj
 0001:000313a0       ??0CmdParamInt@@QAE@PBD00HHHH@Z 004323a0 f   CmdParamInt.obj
 0001:000313e0       ??_ECmdParamInt@@UAEPAXI@Z 004323e0 f i CmdParamInt.obj
 0001:000313e0       ??_GCmdParamInt@@UAEPAXI@Z 004323e0 f i CmdParamInt.obj
 0001:00031420       ?Parse@CmdParamInt@@UAEHPBDPADH@Z 00432420 f   CmdParamInt.obj
 0001:000314b0       ??$_Emplace_reallocate@U?$pair@V?$basic_string@DU?$char_traits@D@std@@V?$allocator@D@2@@std@@V12@@std@@@?$vector@U?$pair@V?$basic_string@DU?$char_traits@D@std@@V?$allocator@D@2@@std@@V12@@std@@V?$allocator@U?$pair@V?$basic_string@DU?$char_traits@D@std@@V?$allocator@D@2@@std@@V12@@std@@@2@@std@@AAEPAU?$pair@V?$basic_string@DU?$char_traits@D@std@@V?$allocator@D@2@@std@@V12@@1@QAU21@$$QAU21@@Z 004324b0 f i CmdParamMultiAssign.obj
 0001:000316c0       ??0?$pair@V?$basic_string@DU?$char_traits@D@std@@V?$allocator@D@2@@std@@V12@@std@@QAE@$$QAU01@@Z 004326c0 f i CmdParamMultiAssign.obj
 0001:00031740       ??0CmdParamMultiAssign@@QAE@PBD00H@Z 00432740 f   CmdParamMultiAssign.obj
 0001:00031790       ??1?$vector@U?$pair@V?$basic_string@DU?$char_traits@D@std@@V?$allocator@D@2@@std@@V12@@std@@V?$allocator@U?$pair@V?$basic_string@DU?$char_traits@D@std@@V?$allocator@D@2@@std@@V12@@std@@@2@@std@@QAE@XZ 00432790 f i CmdParamMultiAssign.obj
 0001:00031830       ??_ECmdParamMultiAssign@@UAEPAXI@Z 00432830 f i CmdParamMultiAssign.obj
 0001:00031830       ??_GCmdParamMultiAssign@@UAEPAXI@Z 00432830 f i CmdParamMultiAssign.obj
 0001:00031880       ?Parse@CmdParamMultiAssign@@UAEHPBDPADH@Z 00432880 f   CmdParamMultiAssign.obj
 0001:00031c50       ??0CmdParamString@@QAE@PBD00H0@Z 00432c50 f   CmdParamString.obj
 0001:00031d60       ??_ECmdParamString@@UAEPAXI@Z 00432d60 f i CmdParamString.obj
 0001:00031d60       ??_GCmdParamString@@UAEPAXI@Z 00432d60 f i CmdParamString.obj
 0001:00031db0       ?Parse@CmdParamString@@UAEHPBDPADH@Z 00432db0 f   CmdParamString.obj
 0001:00031ea0       ??0CmdParamSwitch@@QAE@PBD0H@Z 00432ea0 f   CmdParamSwitch.obj
 0001:00031ed0       ??_ECmdParamSwitch@@UAEPAXI@Z 00432ed0 f i CmdParamSwitch.obj
 0001:00031ed0       ??_GCmdParamSwitch@@UAEPAXI@Z 00432ed0 f i CmdParamSwitch.obj
 0001:00031f10       ?Parse@CmdParamSwitch@@UAEHPBDPADH@Z 00432f10 f   CmdParamSwitch.obj
 0001:00031f20       ??0Relocation@@QAE@XZ      00432f20 f i CoffLibraryLoader.obj
 0001:00031f50       ??_ECoffObjectLoader@@UAEPAXI@Z 00432f50 f i CoffLibraryLoader.obj
 0001:00031f50       ??_GCoffObjectLoader@@UAEPAXI@Z 00432f50 f i CoffLibraryLoader.obj
 0001:00031f70       ??_ECoffLibraryLoader@@UAEPAXI@Z 00432f70 f i MultiLoader.obj
 0001:00031f70       ??_EHunkLoader@@UAEPAXI@Z  00432f70 f i CoffLibraryLoader.obj
 0001:00031f70       ??_ELTCGLoader@@UAEPAXI@Z  00432f70 f i MultiLoader.obj
 0001:00031f70       ??_GCoffLibraryLoader@@UAEPAXI@Z 00432f70 f i MultiLoader.obj
 0001:00031f70       ??_GHunkLoader@@UAEPAXI@Z  00432f70 f i CoffLibraryLoader.obj
 0001:00031f70       ??_GLTCGLoader@@UAEPAXI@Z  00432f70 f i MultiLoader.obj
 0001:00031fa0       ?Clicks@CoffLibraryLoader@@UBE_NPBDH@Z 00432fa0 f   CoffLibraryLoader.obj
 0001:00032000       ?Load@CoffLibraryLoader@@UAE_NAAVPart@@PBDH1_N@Z 00433000 f   CoffLibraryLoader.obj
 0001:00032540       ?MakeCallStub@@YAPAVHunk@@PBD@Z 00433540 f   CoffLibraryLoader.obj
 0001:00032800       ??$_Resize_reallocate@U_Value_init_tag@std@@@?$vector@PAVHunk@@V?$allocator@PAVHunk@@@std@@@std@@AAEXIABU_Value_init_tag@1@@Z 00433800 f i CoffObjectLoader.obj
 0001:00032910       ??1CoffObjectLoader@@UAE@XZ 00433910 f   CoffObjectLoader.obj
 0001:00032920       ?Clicks@CoffObjectLoader@@UBE_NPBDH@Z 00433920 f   CoffObjectLoader.obj
 0001:00032ab0       ?Load@CoffObjectLoader@@UAE_NAAVPart@@PBDH1_N@Z 00433ab0 f   CoffObjectLoader.obj
 0001:000336b0       ?resize@?$vector@PAVHunk@@V?$allocator@PAVHunk@@@std@@@std@@QAEXI@Z 004346b0 f i CoffObjectLoader.obj
 0001:00033710       ?LoadFromFile@HunkLoader@@QAE_NAAVPart@@PBD@Z 00434710 f   HunkLoader.obj
 0001:00033760       ??0MultiLoader@@QAE@XZ     00434760 f   MultiLoader.obj
 0001:00033840       ??1MultiLoader@@UAE@XZ     00434840 f   MultiLoader.obj
 0001:000338d0       ??_EMultiLoader@@UAEPAXI@Z 004348d0 f i MultiLoader.obj
 0001:000338d0       ??_GMultiLoader@@UAEPAXI@Z 004348d0 f i MultiLoader.obj
 0001:000338f0       ?Clicks@MultiLoader@@UBE_NPBDH@Z 004348f0 f   MultiLoader.obj
 0001:00033930       ?Load@MultiLoader@@UAE_NAAVPart@@PBDH1_N@Z 00434930 f   MultiLoader.obj
 0001:00033b50       ?SortHunkList@EmpiricalHunkSorter@@SAHAAVPartList@@AAVTransform@@_NHPAVProgressBar@@2@Z 00434b50 f   EmpiricalHunkSorter.obj
 0001:00033dd0       ?TryHunkCombination@EmpiricalHunkSorter@@CAHAAVPartList@@AAVTransform@@_N2@Z 00434dd0 f   EmpiricalHunkSorter.obj
 0001:000343c0       ?SortHunkList@HeuristicHunkSorter@@SAXAAVPartList@@@Z 004353c0 f   HeuristicHunkSorter.obj
 0001:000344c0       ?DoTransform@CallTransform@@UAE_NPAVHunk@@H_N@Z 004354c0 f   CallTransform.obj
 0001:000345a0       ?GetDetransformer@CallTransform@@UAEPAVHunk@@XZ 004355a0 f   CallTransform.obj
 0001:00034610       ?LinkAndTransform@Transform@@QAE_NAAVPartList@@PAVSymbol@@HPAPAVHunk@@2_N@Z 00435610 f   Transform.obj
 0001:00034710       ?AddProgressBar@CompositeProgressBar@@QAEXPAVProgressBar@@@Z 00435710 f   CompositeProgressBar.obj
 0001:00034740       ?BeginTask@CompositeProgressBar@@UAEXPBD@Z 00435740 f   CompositeProgressBar.obj
 0001:00034770       ?Deinit@CompositeProgressBar@@UAEXXZ 00435770 f   CompositeProgressBar.obj
 0001:000347a0       ?EndTask@CompositeProgressBar@@UAEXXZ 004357a0 f   CompositeProgressBar.obj
 0001:000347d0       ?Init@CompositeProgressBar@@UAEXXZ 004357d0 f   CompositeProgressBar.obj
 0001:00034800       ?Update@CompositeProgressBar@@UAEXHH@Z 00435800 f   CompositeProgressBar.obj
 0001:00034830       ?BeginTask@ConsoleProgressBar@@UAEXPBD@Z 00435830 f   ConsoleProgressBar.obj
 0001:000348c0       ?Update@ConsoleProgressBar@@UAEXHH@Z 004358c0 f   ConsoleProgressBar.obj
 0001:00034960       ?BeginTask@WindowProgressBar@@UAEXPBD@Z 00435960 f   WindowProgressBar.obj
 0001:00034b90       ?DlgProc@@YGJPAUHWND__@@IIJ@Z 00435b90 f   WindowProgressBar.obj
 0001:00034c30       ?Init@WindowProgressBar@@UAEXXZ 00435c30 f   WindowProgressBar.obj
 0001:00034cc0       ?ThreadProc@@YGKPAX@Z      00435cc0 f   WindowProgressBar.obj
 0001:00034ce0       ?Update@WindowProgressBar@@UAEXHH@Z 00435ce0 f   WindowProgressBar.obj
 0001:00034e06       _MiniDumpWriteDump@28      00435e06 f   Dbghelp:dbghelp.dll
 0001:00034e10       _distorm_decode64          00435e10 f   distorm:distorm.obj
 0001:00034e80       _distorm_version           00435e80 f   distorm:distorm.obj
 0001:00034e90       _internal_decode           00435e90 f   distorm:decoder.obj
 0001:00035440       _ADDR_SIZE_AFFECT          00436440 f   distorm:decoder.obj
 0001:00035480       _OP_SIZE_AFFECT            00436480 f   distorm:decoder.obj
 0001:00035d10       @strcpy_WS@8               00436d10 f   distorm:wstring.obj
 0001:00035d40       @strcpylen_WS@12           00436d40 f   distorm:wstring.obj
 0001:00035d60       @strcatlen_WS@12           00436d60 f   distorm:wstring.obj
 0001:00035d90       _is_prefix                 00436d90 f   distorm:prefix.obj
 0001:00035ea0       _decode_prefixes           00436ea0 f   distorm:prefix.obj
 0001:00036680       _get_unused_prefixes_list  00437680 f   distorm:prefix.obj
 0001:000367d0       _str_seg_text              004377d0 f   distorm:prefix.obj
 0001:00036880       _get_prefix_flag           00437880 f   distorm:prefix.obj
 0001:00036a80       @str_hex_b@8               00437a80 f   distorm:textdefs.obj
 0001:00036aa0       @str_code_hb@8             00437aa0 f   distorm:textdefs.obj
 0001:00036ad0       @str_hex_sp_b@8            00437ad0 f   distorm:textdefs.obj
 0001:00036af0       @str_code_sp_hb@8          00437af0 f   distorm:textdefs.obj
 0001:00036b30       @str_hex_sp_w@8            00437b30 f   distorm:textdefs.obj
 0001:00036b90       @str_code_hw@8             00437b90 f   distorm:textdefs.obj
 0001:00036c10       @str_hex_sp_dw@8           00437c10 f   distorm:textdefs.obj
 0001:00036cb0       @str_code_hdw@8            00437cb0 f   distorm:textdefs.obj
 0001:00036d10       @str_hex_sp_qw@8           00437d10 f   distorm:textdefs.obj
 0001:00036e40       @str_code_hqw@8            00437e40 f   distorm:textdefs.obj
 0001:00036ed0       @str_off64@12              00437ed0 f   distorm:textdefs.obj
 0001:00036f50       _locate_inst               00437f50 f   distorm:instructions.obj
 0001:00037090       _locate_3dnow_inst         00438090 f   distorm:instructions.obj
 0001:000370e0       _str_indirection_text      004380e0 f   distorm:instructions.obj
 0001:00037690       _extract_operand           00438690 f   distorm:operands.obj
 0001:00039e00       ??0ModelList4k@@QAE@ABV0@@Z 0043ae00 f   Compressor:ModelList.obj
 0001:00039e00       ??4ModelList4k@@QAEAAV0@ABV0@@Z 0043ae00 f   Compressor:ModelList.obj
 0001:00039e40       ??0ModelList4k@@QAE@XZ     0043ae40 f   Compressor:ModelList.obj
 0001:00039e50       ??AModelList4k@@QAEAAUModel@@I@Z 0043ae50 f   Compressor:ModelList.obj
 0001:00039e50       ??AModelList4k@@QBEABUModel@@I@Z 0043ae50 f   Compressor:ModelList.obj
 0001:00039e60       ?AddModel@ModelList4k@@QAEXUModel@@@Z 0043ae60 f   Compressor:ModelList.obj
 0001:00039e80       ?DetectCompressionType@ModelList4k@@QBE?AW4CompressionType@@XZ 0043ae80 f   Compressor:ModelList.obj
 0001:00039f80       ?GetMaskList@ModelList4k@@QBEIPAE_N@Z 0043af80 f   Compressor:ModelList.obj
 0001:0003a060       ?Print@ModelList1k@@QBEXXZ 0043b060 f   Compressor:ModelList.obj
 0001:0003a080       ?Print@ModelList4k@@QBEXPAU_iobuf@@@Z 0043b080 f   Compressor:ModelList.obj
 0001:0003a0f0       ?SetFromModelsAndMask@ModelList4k@@QAEXPBEHPA_N@Z 0043b0f0 f   Compressor:ModelList.obj
 0001:0003a180       ??$_Allocate_at_least_helper@V?$allocator@I@std@@@std@@YAPAIAAV?$allocator@I@0@AAI@Z 0043b180 f i Compressor:CompressionStream.obj
 0001:0003a1e0       ??$_Resize_reallocate@U_Value_init_tag@std@@@?$vector@HV?$allocator@H@std@@@std@@AAEXIABU_Value_init_tag@1@@Z 0043b1e0 f i Compressor:CompressionStream.obj
 0001:0003a310       ??$_Uninitialized_fill_n@V?$allocator@I@std@@@std@@YAPAIPAIIABIAAV?$allocator@I@0@@Z 0043b310 f i Compressor:CompressionStream.obj
 0001:0003a370       ??$fill_n@V?$_Vb_iterator@U?$_Wrap_alloc@V?$allocator@I@std@@@std@@@std@@I_N@std@@YA?AV?$_Vb_iterator@U?$_Wrap_alloc@V?$allocator@I@std@@@std@@@0@V10@IAB_N@Z 0043b370 f i Compressor:CompressionStream.obj
 0001:0003a4b0       ??0CompressionStream@@QAE@PAEPAHH_N@Z 0043b4b0 f   Compressor:CompressionStream.obj
 0001:0003a500       ??H?$_Vb_iterator@U?$_Wrap_alloc@V?$allocator@I@std@@@std@@@std@@QBE?AV01@H@Z 0043b500 f i Compressor:CompressionStream.obj
 0001:0003a560       ?Close@CompressionStream@@QAEHXZ 0043b560 f   Compressor:CompressionStream.obj
 0001:0003a580       ?CompressFromHashBits@CompressionStream@@QAEXABUHashBits@@PAUTinyHashEntry@@HH@Z 0043b580 f   Compressor:CompressionStream.obj
 0001:0003a890       ?ComputeHashBits@@YA?AUHashBits@@PBEHPAEABVModelList4k@@_N3@Z 0043b890 f   Compressor:CompressionStream.obj
 0001:0003b340       ?EvaluateSize@CompressionStream@@QAEHPBEHABVModelList4k@@HPADH@Z 0043c340 f   Compressor:CompressionStream.obj
 0001:0003b7c0       ?_Insert_x@?$vector@_NV?$allocator@_N@std@@@std@@QAEIV?$_Vb_const_iterator@U?$_Wrap_alloc@V?$allocator@I@std@@@std@@@2@I@Z 0043c7c0 f i Compressor:CompressionStream.obj
 0001:0003b9a0       ?end@?$vector@_NV?$allocator@_N@std@@@std@@QAE?AV?$_Vb_iterator@U?$_Wrap_alloc@V?$allocator@I@std@@@std@@@2@XZ 0043c9a0 f i Compressor:CompressionStream.obj
 0001:0003ba00       ?reserve@?$vector@IV?$allocator@I@std@@@std@@QAEXI@Z 0043ca00 f i Compressor:CompressionStream.obj
 0001:0003ba60       ??$?0H@?$_Optimistic_temporary_buffer@VModelList4k@@@std@@QAE@H@Z 0043ca60 f i Compressor:Compressor.obj
 0001:0003c290       ??$_Buffered_rotate_unchecked@PAVModelList4k@@@std@@YAPAVModelList4k@@QAV1@00HH0H@Z 0043d290 f i Compressor:Compressor.obj
 0001:0003c590       ??$_Move_backward_unchecked@PAVModelList4k@@PAV1@@std@@YAPAVModelList4k@@PAV1@00@Z 0043d590 f i Compressor:Compressor.obj
 0001:0003c5d0       ??$_Move_unchecked@PAVModelList4k@@PAV1@@std@@YAPAVModelList4k@@PAV1@00@Z 0043d5d0 f i Compressor:Compressor.obj
 0001:0003ccd0       ??$_Rotate_one_left@PAVModelList4k@@@std@@YAXPAVModelList4k@@00@Z 0043dcd0 f i Compressor:Compressor.obj
 0001:0003cd30       ??$_Rotate_one_right@PAVModelList4k@@@std@@YAXPAVModelList4k@@00@Z 0043dd30 f i Compressor:Compressor.obj
 0001:0003ce40       ??$_Uninitialized_move_unchecked@PAVModelList4k@@PAV1@@std@@YAPAVModelList4k@@PAV1@QAV1@0@Z 0043de40 f i Compressor:Compressor.obj
 0001:0003ce80       ??$reverse@PAVModelList4k@@@std@@YAXQAVModelList4k@@0@Z 0043de80 f i Compressor:Compressor.obj
 0001:0003de50       ?ApproximateModels1k@@YA?AVModelList1k@@PBEHPAHP6AXPAXHH@Z2@Z 0043ee50 f   Compressor:Compressor.obj
 0001:0003e070       ?ApproximateModels4k@@YA?AVModelList4k@@PBEHQBEW4CompressionType@@_NHPAHP6AXPAXHH@Z5@Z 0043f070 f   Compressor:Compressor.obj
 0001:0003e5d0       ?ApproximateWeights@@YAIAAVCompressionState@@AAVModelList4k@@@Z 0043f5d0 f   Compressor:Compressor.obj
 0001:0003e640       ?Compress1k@@YAHPBEHPAEHAAVModelList1k@@PAH3@Z 0043f640 f   Compressor:Compressor.obj
 0001:0003e8d0       ?Compress4k@@YAHPBEHPBHPAEHPAPAVModelList4k@@_NHHPAH@Z 0043f8d0 f   Compressor:Compressor.obj
 0001:0003ed20       ?CompressFromHashBits4k@@YAHPBUHashBits@@PAUTinyHashEntry@@HPAEH_NHHPAH@Z 0043fd20 f   Compressor:Compressor.obj
 0001:0003ed80       ?CompressionTypeName@@YAPBDW4CompressionType@@@Z 0043fd80 f   Compressor:Compressor.obj
 0001:0003edc0       ?Evaluate1K@@YAHPAEHPAH111I@Z 0043fdc0 f   Compressor:Compressor.obj
 0001:0003f050       ?EvaluateSize4k@@YAHPBEHPBHPAHPAPAVModelList4k@@H_N@Z 00440050 f   Compressor:Compressor.obj
 0001:0003f4b0       ?InitCompressor@@YAXXZ     004404b0 f   Compressor:Compressor.obj
 0001:0003f4c0       ?InstantModels4k@@YA?AVModelList4k@@XZ 004404c0 f   Compressor:Compressor.obj
 0001:0003f5f0       ?OptimizeWeights@@YAIAAVCompressionState@@AAVModelList4k@@@Z 004405f0 f   Compressor:Compressor.obj
 0001:0003f7a0       ?_Receive_range@?$_Worker_proxy@K@Concurrency@@QAE_NPAV?$_Range@K@2@@Z 004407a0 f i Compressor:Compressor.obj
 0001:0003f910       ?_Tidy@?$vector@VModelList4k@@V?$allocator@VModelList4k@@@std@@@std@@AAEXXZ 00440910 f i Compressor:Compressor.obj
 0001:0003f990       ?AritCode@@YAXPAUAritState@@IIH@Z 00440990 f   Compressor:AritCode.obj
 0001:0003fa90       ?AritCodeEnd@@YAHPAUAritState@@@Z 00440a90 f   Compressor:AritCode.obj
 0001:0003faf0       ?AritCodeInit@@YAXPAUAritState@@PAX@Z 00440af0 f   Compressor:AritCode.obj
 0001:0003fb10       ?AritCodePos@@YAIPAUAritState@@@Z 00440b10 f   Compressor:AritCode.obj
 0001:0003fb70       ?ModelHash@@YAIPBEHI@Z     00440b70 f   Compressor:Model.obj
 0001:0003fbc0       ?ModelHashStart@@YAII@Z    00440bc0 f   Compressor:Model.obj
 0001:0003fe90       ??0CompressionState@@QAE@PBEHH_NPAVCompressionStateEvaluator@@0@Z 00440e90 f   Compressor:CompressionState.obj
 0001:0003ff90       ??1CompressionState@@QAE@XZ 00440f90 f   Compressor:CompressionState.obj
 0001:000404e0       ?ApplyModel@CompressionState@@AAE?AUModelPredictions@@PBEHE@Z 004414e0 f   Compressor:CompressionState.obj
 0001:00040810       ?SetModels@CompressionState@@QAEHABVModelList4k@@@Z 00441810 f   Compressor:CompressionState.obj
 0001:00040840       ?UpdateWeights@@YAXPAUWeights@@H_N@Z 00441840 f   Compressor:CompressionState.obj
 0001:00040a70       ?InitCounterStates@@YAXXZ  00441a70 f   Compressor:CounterState.obj
 0001:00040d40       ??0CompressionStateEvaluator@@QAE@XZ 00441d40 f   Compressor:CompressionStateEvaluator.obj
 0001:00040d80       ??1CompressionStateEvaluator@@QAE@XZ 00441d80 f   Compressor:CompressionStateEvaluator.obj
 0001:00041840       ?Evaluate@CompressionStateEvaluator@@QAE_JABVModelList4k@@@Z 00442840 f   Compressor:CompressionStateEvaluator.obj
 0001:00041bb0       ?Init@CompressionStateEvaluator@@QAE_NPAUModelPredictions@@HHM@Z 00442bb0 f   Compressor:CompressionStateEvaluator.obj
 0001:00041d20       ?_Copy@?$_Func_impl_no_alloc@P6A_JXZ_J$$V@std@@EBEPAV?$_Func_base@_J$$V@2@PAX@Z 00442d20 f i Compressor:CompressionStateEvaluator.obj
 0001:00041d20       ?_Move@?$_Func_impl_no_alloc@P6A_JXZ_J$$V@std@@EAEPAV?$_Func_base@_J$$V@2@PAX@Z 00442d20 f i Compressor:CompressionStateEvaluator.obj
 0001:00041d40       ?_DefaultInit@?$combinable@_J@Concurrency@@CA_JXZ 00442d40 f i Compressor:CompressionStateEvaluator.obj
 0001:00041d50       ?_Do_call@?$_Func_impl_no_alloc@P6A_JXZ_J$$V@std@@EAE_JXZ 00442d50 f i Compressor:CompressionStateEvaluator.obj
 0001:00041d60       ?_Target_type@?$_Func_impl_no_alloc@P6A_JXZ_J$$V@std@@EBEABVtype_info@@XZ 00442d60 f i Compressor:CompressionStateEvaluator.obj
 0001:00041d66       ??0_Init_locks@std@@QAE@XZ 00442d66 f   libcpmt:xlock.obj
 0001:00041d93       ??0_Lockit@std@@QAE@H@Z    00442d93 f   libcpmt:xlock.obj
 0001:00041dc4       ??1_Init_locks@std@@QAE@XZ 00442dc4 f   libcpmt:xlock.obj
 0001:00041deb       ??1_Lockit@std@@QAE@XZ     00442deb f   libcpmt:xlock.obj
 0001:00042aa0       ___std_find_first_of_trivial_pos_1@16 00443aa0 f   libcpmt:vector_algorithms.obj
 0001:00042b30       ___std_find_last_trivial_1@12 00443b30 f   libcpmt:vector_algorithms.obj
 0001:00042b40       ___std_find_trivial_1@12   00443b40 f   libcpmt:vector_algorithms.obj
 0001:00042b50       ___std_find_trivial_2@12   00443b50 f   libcpmt:vector_algorithms.obj
 0001:00042b60       ___std_find_trivial_4@12   00443b60 f   libcpmt:vector_algorithms.obj
 0001:00042b70       ___std_search_1@16         00443b70 f   libcpmt:vector_algorithms.obj
 0001:00042b79       ??0bad_function_call@std@@QAE@ABV01@@Z 00443b79 f i libcpmt:xthrow.obj
 0001:00042b94       ??0bad_function_call@std@@QAE@XZ 00443b94 f i libcpmt:xthrow.obj
 0001:00042bab       ??0exception@std@@QAE@QBD@Z 00443bab f i libcpmt:xthrow.obj
 0001:00042be6       ??0length_error@std@@QAE@ABV01@@Z 00443be6 f i libcpmt:xthrow.obj
 0001:00042c01       ??0length_error@std@@QAE@PBD@Z 00443c01 f i libcpmt:xthrow.obj
 0001:00042c20       ??0out_of_range@std@@QAE@ABV01@@Z 00443c20 f i libcpmt:xthrow.obj
 0001:00042c3b       ??0out_of_range@std@@QAE@PBD@Z 00443c3b f i libcpmt:xthrow.obj
 0001:00042c5a       ??0runtime_error@std@@QAE@PBD@Z 00443c5a f i libcpmt:xthrow.obj
 0001:00042c79       ??_E_Interruption_exception@details@Concurrency@@UAEPAXI@Z 00443c79 f i libconcrt:Chores.obj
 0001:00042c79       ??_E__non_rtti_object@std@@UAEPAXI@Z 00443c79 f i libvcruntime:rtti.obj
 0001:00042c79       ??_Ebad_exception@std@@UAEPAXI@Z 00443c79 f i libvcruntime:frame.obj
 0001:00042c79       ??_Ebad_function_call@std@@UAEPAXI@Z 00443c79 f i libcpmt:xthrow.obj
 0001:00042c79       ??_Ebad_typeid@std@@UAEPAXI@Z 00443c79 f i libvcruntime:rtti.obj
 0001:00042c79       ??_Econtext_self_unblock@Concurrency@@UAEPAXI@Z 00443c79 f i libconcrt:Exceptions.obj
 0001:00042c79       ??_Econtext_unblock_unbalanced@Concurrency@@UAEPAXI@Z 00443c79 f i libconcrt:Exceptions.obj
 0001:00042c79       ??_Eimproper_lock@Concurrency@@UAEPAXI@Z 00443c79 f i libconcrt:rtlocks.obj
 0001:00042c79       ??_Eimproper_scheduler_attach@Concurrency@@UAEPAXI@Z 00443c79 f i libconcrt:SchedulerBase.obj
 0001:00042c79       ??_Eimproper_scheduler_reference@Concurrency@@UAEPAXI@Z 00443c79 f i libconcrt:SchedulerBase.obj
 0001:00042c79       ??_Einvalid_multiple_scheduling@Concurrency@@UAEPAXI@Z 00443c79 f i libconcrt:TaskCollection.obj
 0001:00042c79       ??_Einvalid_operation@Concurrency@@UAEPAXI@Z 00443c79 f i libconcrt:ResourceManager.obj
 0001:00042c79       ??_Einvalid_oversubscribe_operation@Concurrency@@UAEPAXI@Z 00443c79 f i libconcrt:Exceptions.obj
 0001:00042c79       ??_Einvalid_scheduler_policy_key@Concurrency@@UAEPAXI@Z 00443c79 f i libconcrt:Exceptions.obj
 0001:00042c79       ??_Einvalid_scheduler_policy_thread_specification@Concurrency@@UAEPAXI@Z 00443c79 f i libconcrt:Exceptions.obj
 0001:00042c79       ??_Einvalid_scheduler_policy_value@Concurrency@@UAEPAXI@Z 00443c79 f i libconcrt:Exceptions.obj
 0001:00042c79       ??_Elength_error@std@@UAEPAXI@Z 00443c79 f i libcpmt:xthrow.obj
 0001:00042c79       ??_Emissing_wait@Concurrency@@UAEPAXI@Z 00443c79 f i libconcrt:Chores.obj
 0001:00042c79       ??_Enested_scheduler_missing_detach@Concurrency@@UAEPAXI@Z 00443c79 f i libconcrt:Exceptions.obj
 0001:00042c79       ??_Eout_of_range@std@@UAEPAXI@Z 00443c79 f i libcpmt:xthrow.obj
 0001:00042c79       ??_G_Interruption_exception@details@Concurrency@@UAEPAXI@Z 00443c79 f i libconcrt:Chores.obj
 0001:00042c79       ??_G__non_rtti_object@std@@UAEPAXI@Z 00443c79 f i libvcruntime:rtti.obj
 0001:00042c79       ??_Gbad_exception@std@@UAEPAXI@Z 00443c79 f i libvcruntime:frame.obj
 0001:00042c79       ??_Gbad_function_call@std@@UAEPAXI@Z 00443c79 f i libcpmt:xthrow.obj
 0001:00042c79       ??_Gbad_typeid@std@@UAEPAXI@Z 00443c79 f i libvcruntime:rtti.obj
 0001:00042c79       ??_Gcontext_self_unblock@Concurrency@@UAEPAXI@Z 00443c79 f i libconcrt:Exceptions.obj
 0001:00042c79       ??_Gcontext_unblock_unbalanced@Concurrency@@UAEPAXI@Z 00443c79 f i libconcrt:Exceptions.obj
 0001:00042c79       ??_Gimproper_lock@Concurrency@@UAEPAXI@Z 00443c79 f i libconcrt:rtlocks.obj
 0001:00042c79       ??_Gimproper_scheduler_attach@Concurrency@@UAEPAXI@Z 00443c79 f i libconcrt:SchedulerBase.obj
 0001:00042c79       ??_Gimproper_scheduler_reference@Concurrency@@UAEPAXI@Z 00443c79 f i libconcrt:SchedulerBase.obj
 0001:00042c79       ??_Ginvalid_multiple_scheduling@Concurrency@@UAEPAXI@Z 00443c79 f i libconcrt:TaskCollection.obj
 0001:00042c79       ??_Ginvalid_operation@Concurrency@@UAEPAXI@Z 00443c79 f i libconcrt:ResourceManager.obj
 0001:00042c79       ??_Ginvalid_oversubscribe_operation@Concurrency@@UAEPAXI@Z 00443c79 f i libconcrt:Exceptions.obj
 0001:00042c79       ??_Ginvalid_scheduler_policy_key@Concurrency@@UAEPAXI@Z 00443c79 f i libconcrt:Exceptions.obj
 0001:00042c79       ??_Ginvalid_scheduler_policy_thread_specification@Concurrency@@UAEPAXI@Z 00443c79 f i libconcrt:Exceptions.obj
 0001:00042c79       ??_Ginvalid_scheduler_policy_value@Concurrency@@UAEPAXI@Z 00443c79 f i libconcrt:Exceptions.obj
 0001:00042c79       ??_Glength_error@std@@UAEPAXI@Z 00443c79 f i libcpmt:xthrow.obj
 0001:00042c79       ??_Gmissing_wait@Concurrency@@UAEPAXI@Z 00443c79 f i libconcrt:Chores.obj
 0001:00042c79       ??_Gnested_scheduler_missing_detach@Concurrency@@UAEPAXI@Z 00443c79 f i libconcrt:Exceptions.obj
 0001:00042c79       ??_Gout_of_range@std@@UAEPAXI@Z 00443c79 f i libcpmt:xthrow.obj
 0001:00042ca6       ?_Xbad_alloc@std@@YAXXZ    00443ca6 f   libcpmt:xthrow.obj
 0001:00042ca6       ?__scrt_throw_std_bad_alloc@@YAXXZ 00443ca6 f   LIBCMT:throw_bad_alloc.obj
 0001:00042cc3       ?_Xbad_function_call@std@@YAXXZ 00443cc3 f   libcpmt:xthrow.obj
 0001:00042ce0       ?_Xlength_error@std@@YAXPBD@Z 00443ce0 f   libcpmt:xthrow.obj
 0001:00042d00       ?_Xout_of_range@std@@YAXPBD@Z 00443d00 f   libcpmt:xthrow.obj
 0001:00042d20       ?_Xruntime_error@std@@YAXPBD@Z 00443d20 f   libcpmt:xthrow.obj
 0001:00042d40       ?what@bad_function_call@std@@UBEPBDXZ 00443d40 f i libcpmt:xthrow.obj
 0001:00042d46       ?GetCurrentThreadId@platform@details@Concurrency@@YAJXZ 00443d46 f   libcpmt:ppltasks.obj
 0001:00042d46       __Thrd_id                  00443d46 f   libcpmt:cthread.obj
 0001:00042d4c       __Thrd_join                00443d4c f   libcpmt:cthread.obj
 0001:00042d9b       ??1?$lock_guard@Vmutex@std@@@std@@QAE@XZ 00443d9b f i libcpmt:xnotify.obj
 0001:00042da4       ?_Verify_ownership_levels@_Mutex_base@std@@IAE_NXZ 00443da4 f i libcpmt:xnotify.obj
 0001:00042dba       ?lock@_Mutex_base@std@@QAEXXZ 00443dba f i libcpmt:xnotify.obj
 0001:00042de1       __Cnd_do_broadcast_at_thread_exit 00443de1 f   libcpmt:xnotify.obj
 0001:00042ea5       ??0_System_error@std@@IAE@Verror_code@1@ABV?$basic_string@DU?$char_traits@D@std@@V?$allocator@D@2@@1@@Z 00443ea5 f i libcpmt:thread0.obj
 0001:00042f11       ??0runtime_error@std@@QAE@ABV?$basic_string@DU?$char_traits@D@std@@V?$allocator@D@2@@1@@Z 00443f11 f i libcpmt:thread0.obj
 0001:00042f39       ??0system_error@std@@QAE@HABVerror_category@1@PBD@Z 00443f39 f i libcpmt:thread0.obj
 0001:00042f89       ?_Makestr@_System_error@std@@CA?AV?$basic_string@DU?$char_traits@D@std@@V?$allocator@D@2@@2@Verror_code@2@V32@@Z 00443f89 f i libcpmt:thread0.obj
 0001:00042fff       ?_Throw_Cpp_error@std@@YAXH@Z 00443fff f   libcpmt:thread0.obj
 0001:00043034       ?message@error_code@std@@QBE?AV?$basic_string@DU?$char_traits@D@std@@V?$allocator@D@2@@2@XZ 00444034 f i libcpmt:thread0.obj
 0001:0004305c       ??0_Locimp@locale@std@@AAE@_N@Z 0044405c f i libcpmt:locale0.obj
 0001:0004309d       ??1_Fac_node@std@@QAE@XZ   0044409d f i libcpmt:locale0.obj
 0001:000430ce       ??1_Fac_tidy_reg_t@std@@QAE@XZ 004440ce f i libcpmt:locale0.obj
 0001:000430f2       ??1_Locimp@locale@std@@MAE@XZ 004440f2 f i libcpmt:locale0.obj
 0001:00043112       ??1locale@std@@QAE@XZ      00444112 f i libcpmt:locale0.obj
 0001:00043147       ??4?$_Yarn@D@std@@QAEAAV01@PBD@Z 00444147 f i libcpmt:locale0.obj
 0001:00043190       ??_E_Locimp@locale@std@@MAEPAXI@Z 00444190 f i libcpmt:locale0.obj
 0001:00043190       ??_G_Locimp@locale@std@@MAEPAXI@Z 00444190 f i libcpmt:locale0.obj
 0001:000431b2       ?_Facet_Register@std@@YAXPAV_Facet_base@1@@Z 004441b2 f   libcpmt:locale0.obj
 0001:000431df       ?_Getgloballocale@locale@std@@CAPAV_Locimp@12@XZ 004441df f   libcpmt:locale0.obj
 0001:000431e5       ?_Init@locale@std@@CAPAV_Locimp@12@_N@Z 004441e5 f   libcpmt:locale0.obj
 0001:00043272       ?_Locimp_dtor@_Locimp@locale@std@@CAXPAV123@@Z 00444272 f   libcpmt:locale0.obj
 0001:000432e3       ?_Locinfo_ctor@_Locinfo@std@@SAXPAV12@PBD@Z 004442e3 f   libcpmt:locale0.obj
 0001:0004332f       ?_Locinfo_dtor@_Locinfo@std@@SAXPAV12@@Z 0044432f f   libcpmt:locale0.obj
 0001:00043349       ?_New_Locimp@_Locimp@locale@std@@CAPAV123@_N@Z 00444349 f   libcpmt:locale0.obj
 0001:0004336c       ?_Setgloballocale@locale@std@@CAXPAX@Z 0044436c f   libcpmt:locale0.obj
 0001:00043394       ?_Tidy@?$_Yarn@D@std@@AAEXXZ 00444394 f i libcpmt:locale0.obj
 0001:000433ac       __Deletegloballocale       004443ac f   libcpmt:locale0.obj
 0001:00043414       __Getcvt                   00444414 f   libcpmt:xwctomb.obj
 0001:00043487       ___std_fs_code_page@0      00444487 f   libcpmt:filesystem.obj
 0001:000434a4       ___std_fs_convert_narrow_to_wide@20 004444a4 f   libcpmt:filesystem.obj
 0001:000434d8       ___std_fs_convert_wide_to_narrow@20 004444d8 f   libcpmt:filesystem.obj
 0001:0004358b       ___std_get_string_size_without_trailing_whitespace@8 0044458b f   libcpmt:syserror_import_lib.obj
 0001:000435af       ___std_system_error_allocate_message@8 004445af f   libcpmt:syserror_import_lib.obj
 0001:00043629       ___std_system_error_deallocate_message@4 00444629 f   libcpmt:syserror_import_lib.obj
 0001:0004362f       ?_Syserror_map@std@@YAPBDH@Z 0044462f f   libcpmt:syserror.obj
 0001:00043654       ?_Winerror_map@std@@YAHH@Z 00444654 f   libcpmt:syserror.obj
 0001:00043676       __Mtxdst                   00444676 f   libcpmt:xmtx.obj
 0001:00043684       __Mtxinit                  00444684 f   libcpmt:xmtx.obj
 0001:00043699       __Mtxlock                  00444699 f   libcpmt:xmtx.obj
 0001:000436a7       __Mtxunlock                004446a7 f   libcpmt:xmtx.obj
 0001:000436b5       __Timespec64_get_sys       004446b5 f   libcpmt:xtime.obj
 0001:000436f3       __Xtime_get_ticks          004446f3 f   libcpmt:xtime.obj
 0001:0004371a       __Mtx_lock                 0044471a f   libcpmt:mutex.obj
 0001:0004372b       __Mtx_unlock               0044472b f   libcpmt:mutex.obj
 0001:00043879       ?_Primitive_wait@@YAXQAU_Cnd_internal_imp_t@@QAU_Mtx_internal_imp_t@@@Z 00444879 f i libcpmt:cond.obj
 0001:00043896       ?_Primitive_wait_for@@YA_NQAU_Cnd_internal_imp_t@@QAU_Mtx_internal_imp_t@@I@Z 00444896 f i libcpmt:cond.obj
 0001:000438b9       __Cnd_broadcast            004448b9 f   libcpmt:cond.obj
 0001:000438cd       __Cnd_wait                 004448cd f   libcpmt:cond.obj
 0001:000438f5       __Mtx_reset_owner          004448f5 f   libcpmt:cond.obj
 0001:00043909       ??1_Init_atexit@@QAE@XZ    00444909 f i libcpmt:iosptrs.obj
 0001:00043971       ?_Atexit@@YAXP6AXXZ@Z      00444971 f   libcpmt:iosptrs.obj
 0001:000439d4       ___crtGetSystemTimePreciseAsFileTime 004449d4 f   libcpmt:winapisupp.obj
 0001:00043a29       __freea_crt                00444a29 f i libcpmt:StlLCMapStringA.obj
 0001:00043a47       ??0AllocatorBucket@details@Concurrency@@QAE@XZ 00444a47 f   libconcrt:SubAllocator.obj
 0001:00043a5f       ??1AllocatorBucket@details@Concurrency@@QAE@XZ 00444a5f f   libconcrt:SubAllocator.obj
 0001:00043ab7       ?Alloc@AllocatorBucket@details@Concurrency@@QAEPATAllocationEntry@23@XZ 00444ab7 f   libconcrt:SubAllocator.obj
 0001:00043ad0       ?Alloc@SubAllocator@details@Concurrency@@QAEPAXI@Z 00444ad0 f   libconcrt:SubAllocator.obj
 0001:00043b20       ?CurrentContext@SchedulerBase@details@Concurrency@@SAPAVContextBase@23@XZ 00444b20 f i libconcrt:SubAllocator.obj
 0001:00043b42       ?Free@AllocatorBucket@details@Concurrency@@QAE_NPATAllocationEntry@23@@Z 00444b42 f   libconcrt:SubAllocator.obj
 0001:00043b6c       ?Free@Concurrency@@YAXPAX@Z 00444b6c f   libconcrt:SubAllocator.obj
 0001:00043b96       ?Free@SubAllocator@details@Concurrency@@QAEXPAX@Z 00444b96 f   libconcrt:SubAllocator.obj
 0001:00043bcd       ?GetBucketIndex@SubAllocator@details@Concurrency@@SAHI@Z 00444bcd f   libconcrt:SubAllocator.obj
 0001:00043c1e       ?StaticAlloc@SubAllocator@details@Concurrency@@SAPAXI@Z 00444c1e f   libconcrt:SubAllocator.obj
 0001:00043c57       ?Block@Context@Concurrency@@SAXXZ 00444c57 f   libconcrt:Context.obj
 0001:00043c74       ?CurrentContext@Context@Concurrency@@SAPAV12@XZ 00444c74 f   libconcrt:Context.obj
 0001:00043c79       ?_CurrentContext@_Context@details@Concurrency@@SA?AV123@XZ 00444c79 f   libconcrt:Context.obj
 0001:00043c8a       ?_IsSynchronouslyBlocked@_Context@details@Concurrency@@QBE_NXZ 00444c8a f   libconcrt:Context.obj
 0001:00043ca2       ?_Yield@_Context@details@Concurrency@@SAXXZ 00444ca2 f   libconcrt:Context.obj
 0001:00043cbf       ?GetNumberOfVirtualProcessors@CurrentScheduler@Concurrency@@SAIXZ 00444cbf f   libconcrt:CurrentScheduler.obj
 0001:00043ce5       ?_GetNumberOfVirtualProcessors@_CurrentScheduler@details@Concurrency@@SAIXZ 00444ce5 f   libconcrt:CurrentScheduler.obj
 0001:00043d02       ??0LockQueueNode@details@Concurrency@@QAE@I@Z 00444d02 f i libconcrt:rtlocks.obj
 0001:00043d66       ??0_NonReentrantBlockingLock@details@Concurrency@@QAE@XZ 00444d66 f   libconcrt:rtlocks.obj
 0001:00043d66       ??0_ReentrantBlockingLock@details@Concurrency@@QAE@XZ 00444d66 f   libconcrt:rtlocks.obj
 0001:00043d86       ??0Slot@?$Mailbox@VInternalContextBase@details@Concurrency@@@details@Concurrency@@QAE@XZ 00444d86 f   libconcrt:VirtualProcessor.obj
 0001:00043d86       ??0Slot@?$Mailbox@V_UnrealizedChore@details@Concurrency@@@details@Concurrency@@QAE@XZ 00444d86 f   libconcrt:ContextBase.obj
 0001:00043d86       ??0_ReaderWriterLock@details@Concurrency@@QAE@XZ 00444d86 f   libconcrt:rtlocks.obj
 0001:00043d96       ??0critical_section@Concurrency@@QAE@XZ 00444d96 f   libconcrt:rtlocks.obj
 0001:00043dc1       ??0improper_lock@Concurrency@@QAE@ABV01@@Z 00444dc1 f i libconcrt:rtlocks.obj
 0001:00043ddc       ??0scoped_lock@critical_section@Concurrency@@QAE@AAV12@@Z 00444ddc f   libconcrt:rtlocks.obj
 0001:00043e11       ??1_NonReentrantBlockingLock@details@Concurrency@@QAE@XZ 00444e11 f   libconcrt:rtlocks.obj
 0001:00043e11       ??1_ReentrantBlockingLock@details@Concurrency@@QAE@XZ 00444e11 f   libconcrt:rtlocks.obj
 0001:00043e19       ??1scoped_lock@critical_section@Concurrency@@QAE@XZ 00444e19 f   libconcrt:rtlocks.obj
 0001:00043e54       ?Block@LockQueueNode@details@Concurrency@@QAEXI@Z 00444e54 f i libconcrt:rtlocks.obj
 0001:00043ee1       ?DerefTimerNode@LockQueueNode@details@Concurrency@@QAEXXZ 00444ee1 f i libconcrt:rtlocks.obj
 0001:00043f00       ?DispatchNodeTimeoutTimer@LockQueueNode@details@Concurrency@@SGXPAU_TP_CALLBACK_INSTANCE@@PAXPAU_TP_TIMER@@@Z 00444f00 f i libconcrt:rtlocks.obj
 0001:00043f47       ?TryCompensateTimer@LockQueueNode@details@Concurrency@@QAEXXZ 00444f47 f i libconcrt:rtlocks.obj
 0001:00043f6c       ?Unblock@LockQueueNode@details@Concurrency@@QAE_NXZ 00444f6c f i libconcrt:rtlocks.obj
 0001:00043f9e       ?UpdateQueuePosition@LockQueueNode@details@Concurrency@@QAEXPAV123@@Z 00444f9e f i libconcrt:rtlocks.obj
 0001:00044006       ?WaitForNextNode@LockQueueNode@details@Concurrency@@QAEPAV123@XZ 00445006 f i libconcrt:rtlocks.obj
 0001:00044038       ?_Acquire@_NonReentrantBlockingLock@details@Concurrency@@QAEXXZ 00445038 f   libconcrt:rtlocks.obj
 0001:00044038       ?_Acquire@_ReentrantBlockingLock@details@Concurrency@@QAEXXZ 00445038 f   libconcrt:rtlocks.obj
 0001:00044040       ?_AcquireRead@_ReaderWriterLock@details@Concurrency@@QAEXXZ 00445040 f   libconcrt:rtlocks.obj
 0001:00044070       ?_AcquireWrite@_ReaderWriterLock@details@Concurrency@@QAEXXZ 00445070 f   libconcrt:rtlocks.obj
 0001:0004409e       ?_Acquire_lock@critical_section@Concurrency@@QAE_NPAX_N@Z 0044509e f   libconcrt:rtlocks.obj
 0001:00044139       ?_FlushWriteOwners@_ReaderWriterLock@details@Concurrency@@QAEXXZ 00445139 f   libconcrt:rtlocks.obj
 0001:0004414f       ?_Flush_current_owner@critical_section@Concurrency@@QAEXXZ 0044514f f   libconcrt:rtlocks.obj
 0001:00044167       ?_Initialize@_SpinCount@details@Concurrency@@SAXXZ 00445167 f   libconcrt:rtlocks.obj
 0001:0004417e       ?_Release@_NonReentrantBlockingLock@details@Concurrency@@QAEXXZ 0044517e f   libconcrt:rtlocks.obj
 0001:0004417e       ?_Release@_ReentrantBlockingLock@details@Concurrency@@QAEXXZ 0044517e f   libconcrt:rtlocks.obj
 0001:00044186       ?_ReleaseRead@_ReaderWriterLock@details@Concurrency@@QAEXXZ 00445186 f   libconcrt:rtlocks.obj
 0001:0004418a       ?_ReleaseWrite@_ReaderWriterLock@details@Concurrency@@QAEXXZ 0044518a f   libconcrt:rtlocks.obj
 0001:00044195       ?_SetSpinCount@?$_SpinWait@$0A@@details@Concurrency@@QAEXI@Z 00445195 f i libconcrt:rtlocks.obj
 0001:000441b7       ?_SpinOnce@?$_SpinWait@$0A@@details@Concurrency@@QAE_NXZ 004451b7 f i libconcrt:rtlocks.obj
 0001:00044233       ?_Switch_to_active@critical_section@Concurrency@@AAEXPAX@Z 00445233 f   libconcrt:rtlocks.obj
 0001:00044282       ?_TryAcquireWrite@_ReaderWriterLock@details@Concurrency@@QAE_NXZ 00445282 f   libconcrt:rtlocks.obj
 0001:00044299       ?_Value@_SpinCount@details@Concurrency@@SAIXZ 00445299 f   libconcrt:rtlocks.obj
 0001:0004429f       ?_WaitEquals@_ReaderWriterLock@details@Concurrency@@CAXADJJJ@Z 0044529f f   libconcrt:rtlocks.obj
 0001:000442e1       ?lock@critical_section@Concurrency@@QAEXXZ 004452e1 f   libconcrt:rtlocks.obj
 0001:0004430f       ?unlock@critical_section@Concurrency@@QAEXXZ 0044530f f   libconcrt:rtlocks.obj
 0001:00044383       __concrt_static_cleanup    00445383 f   libconcrt:utils.obj
 0001:00044391       ??0scheduler_resource_allocation_error@Concurrency@@QAE@ABV01@@Z 00445391 f i libconcrt:utils.obj
 0001:000443b5       ??1GlobalCore@details@Concurrency@@QAE@XZ 004453b5 f i libconcrt:utils.obj
 0001:000443c2       ??_EGlobalCore@details@Concurrency@@QAEPAXI@Z 004453c2 f i libconcrt:utils.obj
 0001:00044451       ??_Escheduler_resource_allocation_error@Concurrency@@UAEPAXI@Z 00445451 f i libconcrt:utils.obj
 0001:00044451       ??_Escheduler_worker_creation_error@Concurrency@@UAEPAXI@Z 00445451 f i libconcrt:Exceptions.obj
 0001:00044451       ??_Gscheduler_resource_allocation_error@Concurrency@@UAEPAXI@Z 00445451 f i libconcrt:utils.obj
 0001:00044451       ??_Gscheduler_worker_creation_error@Concurrency@@UAEPAXI@Z 00445451 f i libconcrt:Exceptions.obj
 0001:0004447e       ?DecodePointer@Security@details@Concurrency@@SAPAXPAX@Z 0044547e f   libconcrt:utils.obj
 0001:0004447e       ?EncodePointer@Security@details@Concurrency@@SAPAXPAX@Z 0044547e f   libconcrt:utils.obj
 0001:0004448c       ?DeleteAsyncTimerAndUnloadLibrary@details@Concurrency@@YAXPAU_TP_TIMER@@@Z 0044548c f   libconcrt:utils.obj
 0001:000444c8       ?FreeLibraryAndDestroyThread@details@Concurrency@@YAXK@Z 004454c8 f   libconcrt:utils.obj
 0001:000444f2       ?InitializeCookie@Security@details@Concurrency@@SAKXZ 004454f2 f   libconcrt:utils.obj
 0001:0004453e       ?LoadLibraryAndCreateThread@details@Concurrency@@YAPAXPAU_SECURITY_ATTRIBUTES@@KP6GKPAX@Z1KPAK@Z 0044553e f   libconcrt:utils.obj
 0001:00044584       ?ReferenceLoadLibrary@details@Concurrency@@YAXXZ 00445584 f   libconcrt:utils.obj
 0001:0004461a       ?RegisterAsyncTimerAndLoadLibrary@details@Concurrency@@YAPAU_TP_TIMER@@KP6GXPAU_TP_CALLBACK_INSTANCE@@PAXPAU3@@Z1_N@Z 0044561a f   libconcrt:utils.obj
 0001:00044673       ?RegisterAsyncWaitAndLoadLibrary@details@Concurrency@@YAPAU_TP_WAIT@@PAXP6GXPAU_TP_CALLBACK_INSTANCE@@0PAU3@K@Z0@Z 00445673 f   libconcrt:utils.obj
 0001:000446a8       ?UnRegisterAsyncTimerAndUnloadLibrary@details@Concurrency@@YAXPAU_TP_CALLBACK_INSTANCE@@PAU_TP_TIMER@@@Z 004456a8 f   libconcrt:utils.obj
 0001:000446dc       ?UnRegisterAsyncWaitAndUnloadLibrary@details@Concurrency@@YAXPAU_TP_CALLBACK_INSTANCE@@PAU_TP_WAIT@@@Z 004456dc f   libconcrt:utils.obj
 0001:0004470f       ?_Acquire@_CriticalNonReentrantLock@details@Concurrency@@QAEXXZ 0044570f f   libconcrt:utils.obj
 0001:0004470f       ?_Acquire@_HyperNonReentrantLock@details@Concurrency@@QAEXXZ 0044570f f   libconcrt:utils.obj
 0001:0004471f       ?_Acquire@_NonReentrantLock@details@Concurrency@@QAEXXZ 0044571f f i libconcrt:utils.obj
 0001:00044757       ?_Release@_CriticalNonReentrantLock@details@Concurrency@@QAEXXZ 00445757 f   libconcrt:utils.obj
 0001:00044757       ?_Release@_HyperNonReentrantLock@details@Concurrency@@QAEXXZ 00445757 f   libconcrt:utils.obj
 0001:00044762       ?_Sleep0@details@Concurrency@@YAXXZ 00445762 f   libconcrt:utils.obj
 0001:0004476b       ?_TryAcquire@_CriticalNonReentrantLock@details@Concurrency@@QAE_NXZ 0044576b f   libconcrt:utils.obj
 0001:0004478b       ?_TryAcquire@_NonReentrantLock@details@Concurrency@@QAE_NXZ 0044578b f i libconcrt:utils.obj
 0001:000447a0       ?_UnderlyingYield@details@Concurrency@@YAXXZ 004457a0 f   libconcrt:utils.obj
 0001:000447c7       ??$wait@V<lambda_1>@?BE@??_DeregisterCallback@_CancellationTokenState@details@Concurrency@@QAEXPAV_CancellationTokenRegistration@45@@Z@@condition_variable@std@@QAEXAAV?$unique_lock@Vmutex@std@@@1@V<lambda_1>@?BE@??_DeregisterCallback@_CancellationTokenState@details@Concurrency@@QAEXPAV_CancellationTokenRegistration@67@@Z@@Z 004457c7 f i libconcrt:Chores.obj
 0001:000447f2       ??0CancellationTokenRegistration_TaskProc@details@Concurrency@@QAE@P6AXPAX@Z0H@Z 004457f2 f i libconcrt:Chores.obj
 0001:0004484d       ??0_Interruption_exception@details@Concurrency@@QAE@ABV012@@Z 0044584d f i libconcrt:Chores.obj
 0001:00044868       ??0_Interruption_exception@details@Concurrency@@QAE@XZ 00445868 f i libconcrt:Chores.obj
 0001:0004487f       ??0_Mutex_base@std@@QAE@H@Z 0044587f f i libconcrt:Chores.obj
 0001:000448b0       ??0missing_wait@Concurrency@@QAE@ABV01@@Z 004458b0 f i libconcrt:Chores.obj
 0001:000448cb       ??_ECancellationTokenRegistration_TaskProc@details@Concurrency@@UAEPAXI@Z 004458cb f i libconcrt:Chores.obj
 0001:000448cb       ??_GCancellationTokenRegistration_TaskProc@details@Concurrency@@UAEPAXI@Z 004458cb f i libconcrt:Chores.obj
 0001:000448ee       ??_E_RefCounter@details@Concurrency@@UAEPAXI@Z 004458ee f i libconcrt:Chores.obj
 0001:000448ee       ??_G_RefCounter@details@Concurrency@@UAEPAXI@Z 004458ee f i libconcrt:Chores.obj
 0001:00044911       ?AddTail@?$List@UListEntry@details@Concurrency@@VNoCount@CollectionTypes@23@@details@Concurrency@@QAEXPAUListEntry@23@@Z 00445911 f i libconcrt:Chores.obj
 0001:00044940       ?AddTail@?$SafeRWList@UListEntry@details@Concurrency@@VNoCount@CollectionTypes@23@V_ReaderWriterLock@23@@details@Concurrency@@QAEXPAUListEntry@23@@Z 00445940 f i libconcrt:Chores.obj
 0001:0004497c       ?Remove@?$List@UListEntry@details@Concurrency@@VNoCount@CollectionTypes@23@@details@Concurrency@@QAEXPAUListEntry@23@@Z 0044597c f i libconcrt:Chores.obj
 0001:000449aa       ?Remove@?$SafeRWList@UListEntry@details@Concurrency@@VNoCount@CollectionTypes@23@V_ReaderWriterLock@23@@details@Concurrency@@QAEXPAUListEntry@23@@Z 004459aa f i libconcrt:Chores.obj
 0001:000449e6       ?_CancelViaToken@_UnrealizedChore@details@Concurrency@@CAXPAVContextBase@23@@Z 004459e6 f   libconcrt:Chores.obj
 0001:00044a0d       ?_CheckTaskCollection@_UnrealizedChore@details@Concurrency@@IAEXXZ 00445a0d f   libconcrt:Chores.obj
 0001:00044a50       ?_DeregisterCallback@_CancellationTokenState@details@Concurrency@@QAEXPAV_CancellationTokenRegistration@23@@Z 00445a50 f i libconcrt:Chores.obj
 0001:00044b1a       ?_Destroy@_RefCounter@details@Concurrency@@MAEXXZ 00445b1a f i libconcrt:Chores.obj
 0001:00044b37       ?_Exec@CancellationTokenRegistration_TaskProc@details@Concurrency@@MAEXXZ 00445b37 f i libconcrt:Chores.obj
 0001:00044b4b       ?_InternalFree@_UnrealizedChore@details@Concurrency@@CAXPAV123@@Z 00445b4b f   libconcrt:Chores.obj
 0001:00044b69       ?_Invoke@_CancellationTokenRegistration@details@Concurrency@@AAEXXZ 00445b69 f i libconcrt:Chores.obj
 0001:00044bd4       ?_None@_CancellationTokenState@details@Concurrency@@SAPAV123@XZ 00445bd4 f i libconcrt:Chores.obj
 0001:00044bd8       ?_PrepareSteal@_UnrealizedChore@details@Concurrency@@QAEXPAVContextBase@23@@Z 00445bd8 f   libconcrt:Chores.obj
 0001:00044bf0       ?_PrepareStealStructured@_UnrealizedChore@details@Concurrency@@AAEXPAVContextBase@23@@Z 00445bf0 f   libconcrt:Chores.obj
 0001:00044c26       ?_PrepareStealUnstructured@_UnrealizedChore@details@Concurrency@@AAEXPAVContextBase@23@@Z 00445c26 f   libconcrt:Chores.obj
 0001:00044ca6       ?_RegisterCallback@_CancellationTokenState@details@Concurrency@@QAEPAV_CancellationTokenRegistration@23@P6AXPAX@Z0H@Z 00445ca6 f i libconcrt:Chores.obj
 0001:00044ce3       ?_RegisterCallback@_CancellationTokenState@details@Concurrency@@QAEXPAV_CancellationTokenRegistration@23@@Z 00445ce3 f i libconcrt:Chores.obj
 0001:00044d59       ?_Release@_RefCounter@details@Concurrency@@QAEJXZ 00445d59 f i libconcrt:Chores.obj
 0001:00044d80       ?_SetDetached@_UnrealizedChore@details@Concurrency@@QAEX_N@Z 00445d80 f   libconcrt:Chores.obj
 0001:00044d8d       ?_StructuredChoreWrapper@_UnrealizedChore@details@Concurrency@@CAXPAV123@@Z 00445d8d f   libconcrt:Chores.obj
 0001:00044ef9       ?_TaskCleanup@_StructuredTaskCollection@details@Concurrency@@AAE_NXZ 00445ef9 f i libconcrt:Chores.obj
 0001:00044f12       ?push_back@TokenRegistrationContainer@_CancellationTokenState@details@Concurrency@@QAEXPAV_CancellationTokenRegistration@34@@Z 00445f12 f i libconcrt:Chores.obj
 0001:00044f51       ?remove@TokenRegistrationContainer@_CancellationTokenState@details@Concurrency@@QAEXPAV_CancellationTokenRegistration@34@@Z 00445f51 f i libconcrt:Chores.obj
 0001:00044f97       ??0_TaskCollection@details@Concurrency@@AAE@PAV012@_N@Z 00445f97 f   libconcrt:TaskCollection.obj
 0001:00045079       ??0_TaskCollectionBase@details@Concurrency@@QAE@XZ 00446079 f i libconcrt:TaskCollection.obj
 0001:0004509a       ??0invalid_multiple_scheduling@Concurrency@@QAE@ABV01@@Z 0044609a f i libconcrt:TaskCollection.obj
 0001:000450b5       ??1?$_MallocaArrayHolder@PAVevent@Concurrency@@@details@Concurrency@@UAE@XZ 004460b5 f i libconcrt:TaskCollection.obj
 0001:000450d5       ??1TaskStack@details@Concurrency@@QAE@XZ 004460d5 f   libconcrt:TaskCollection.obj
 0001:000450e5       ??1_Scoped_lock_read@?$SafeRWList@UListEntry@details@Concurrency@@VNoCount@CollectionTypes@23@V_ReaderWriterLock@23@@details@Concurrency@@QAE@XZ 004460e5 f i libconcrt:TaskCollection.obj
 0001:00045123       ??1_StructuredTaskCollection@details@Concurrency@@QAE@XZ 00446123 f   libconcrt:TaskCollection.obj
 0001:000451a7       ??1_TaskCollection@details@Concurrency@@QAE@XZ 004461a7 f   libconcrt:TaskCollection.obj
 0001:00045281       ??1exception_ptr@std@@QAE@XZ 00446281 f i libconcrt:TaskCollection.obj
 0001:00045289       ??_E?$_MallocaArrayHolder@PAVevent@Concurrency@@@details@Concurrency@@UAEPAXI@Z 00446289 f i libconcrt:TaskCollection.obj
 0001:00045289       ??_G?$_MallocaArrayHolder@PAVevent@Concurrency@@@details@Concurrency@@UAEPAXI@Z 00446289 f i libconcrt:TaskCollection.obj
 0001:000452ab       ?AddArbitraryAlias@ContextBase@details@Concurrency@@QAEXPAV_TaskCollection@23@0@Z 004462ab f i libconcrt:TaskCollection.obj
 0001:000452ce       ?Find@?$Hash@II@details@Concurrency@@QAEPAUListNode@123@ABIPAI@Z 004462ce f i libconcrt:SchedulerBase.obj
 0001:000452ce       ?Find@?$Hash@PAV_TaskCollection@details@Concurrency@@PAV123@@details@Concurrency@@QAEPAUListNode@123@ABQAV_TaskCollection@23@PAPAV523@@Z 004462ce f i libconcrt:TaskCollection.obj
 0001:00045304       ?FindAndDelete@?$Hash@PAV_TaskCollection@details@Concurrency@@PAV123@@details@Concurrency@@QAE_NABQAV_TaskCollection@23@PAPAV423@@Z 00446304 f i libconcrt:TaskCollection.obj
 0001:00045346       ?GetArbitraryAlias@ContextBase@details@Concurrency@@QAEPAV_TaskCollection@23@PAV423@@Z 00446346 f i libconcrt:TaskCollection.obj
 0001:000453a6       ?HashValue@?$Hash@II@details@Concurrency@@CAIABIH@Z 004463a6 f i libconcrt:SchedulerBase.obj
 0001:000453a6       ?HashValue@?$Hash@PAV_TaskCollection@details@Concurrency@@PAV123@@details@Concurrency@@CAIABQAV_TaskCollection@23@H@Z 004463a6 f i libconcrt:TaskCollection.obj
 0001:000453d2       ?Insert@?$Hash@II@details@Concurrency@@QAEPAUListNode@123@ABI0@Z 004463d2 f i libconcrt:SchedulerBase.obj
 0001:000453d2       ?Insert@?$Hash@PAV_TaskCollection@details@Concurrency@@PAV123@@details@Concurrency@@QAEPAUListNode@123@ABQAV_TaskCollection@23@0@Z 004463d2 f i libconcrt:TaskCollection.obj
 0001:0004543d       ?Lookup@?$Hash@II@details@Concurrency@@AAEPAUListNode@123@ABIH@Z 0044643d f i libconcrt:SchedulerBase.obj
 0001:0004543d       ?Lookup@?$Hash@PAV_TaskCollection@details@Concurrency@@PAV123@@details@Concurrency@@AAEPAUListNode@123@ABQAV_TaskCollection@23@H@Z 0044643d f i libconcrt:TaskCollection.obj
 0001:00045467       ?Remove@?$Hash@PAV_TaskCollection@details@Concurrency@@PAV123@@details@Concurrency@@AAEPAUListNode@123@ABQAV_TaskCollection@23@H@Z 00446467 f i libconcrt:TaskCollection.obj
 0001:000454ab       ?_Abort@_StructuredTaskCollection@details@Concurrency@@AAEXXZ 004464ab f   libconcrt:TaskCollection.obj
 0001:00045568       ?_Abort@_TaskCollection@details@Concurrency@@AAEX_N@Z 00446568 f   libconcrt:TaskCollection.obj
 0001:0004569f       ?_AbortiveSweep@_TaskCollection@details@Concurrency@@AAEXPAX@Z 0044669f f   libconcrt:TaskCollection.obj
 0001:000456fb       ?_Alias@_TaskCollection@details@Concurrency@@AAEPAV123@XZ 004466fb f   libconcrt:TaskCollection.obj
 0001:0004578a       ?_Cancel@_StructuredTaskCollection@details@Concurrency@@QAEXXZ 0044678a f   libconcrt:TaskCollection.obj
 0001:000457da       ?_Cancel@_TaskCollection@details@Concurrency@@AAEX_NPAV123@@Z 004467da f   libconcrt:TaskCollection.obj
 0001:00045879       ?_CancelDirectAliases@_TaskCollection@details@Concurrency@@AAEX_NPAV123@@Z 00446879 f   libconcrt:TaskCollection.obj
 0001:00045898       ?_CancelFromArbitraryThread@_TaskCollection@details@Concurrency@@AAEX_N@Z 00446898 f   libconcrt:TaskCollection.obj
 0001:0004593c       ?_CancelStolenContexts@_TaskCollection@details@Concurrency@@AAEX_N0@Z 0044693c f   libconcrt:TaskCollection.obj
 0001:000459c0       ?_CleanupToken@_StructuredTaskCollection@details@Concurrency@@AAEXXZ 004469c0 f   libconcrt:TaskCollection.obj
 0001:000459f6       ?_CollectionMatchPredicate@_TaskCollection@details@Concurrency@@CA_NPAV_UnrealizedChore@23@PAX@Z 004469f6 f   libconcrt:TaskCollection.obj
 0001:00045a09       ?_CountUp@_StructuredTaskCollection@details@Concurrency@@AAEXXZ 00446a09 f   libconcrt:TaskCollection.obj
 0001:00045a37       ?_FullAliasWait@_TaskCollection@details@Concurrency@@AAEXPAV123@@Z 00446a37 f   libconcrt:TaskCollection.obj
 0001:00045b3e       ?_GetStealTrackingList@_TaskCollection@details@Concurrency@@ABEPAXXZ 00446b3e f   libconcrt:TaskCollection.obj
 0001:00045b42       ?_Initialize@_StructuredTaskCollection@details@Concurrency@@AAEXXZ 00446b42 f   libconcrt:TaskCollection.obj
 0001:00045b97       ?_Initialize@_TaskCollection@details@Concurrency@@AAEXXZ 00446b97 f   libconcrt:TaskCollection.obj
 0001:00045bad       ?_IsDirectAlias@_TaskCollection@details@Concurrency@@ABE_NXZ 00446bad f   libconcrt:TaskCollection.obj
 0001:00045bbf       ?_IsIndirectAlias@_TaskCollection@details@Concurrency@@ABE_NXZ 00446bbf f   libconcrt:TaskCollection.obj
 0001:00045bd1       ?_IsMarkedForAbnormalExit@_TaskCollection@details@Concurrency@@QBE_NXZ 00446bd1 f   libconcrt:TaskCollection.obj
 0001:00045bdc       ?_IsStaleAlias@_TaskCollection@details@Concurrency@@ABE_NXZ 00446bdc f   libconcrt:TaskCollection.obj
 0001:00045be4       ?_NotifyCompletedChoreAndFree@_TaskCollection@details@Concurrency@@AAEXPAV_UnrealizedChore@23@@Z 00446be4 f   libconcrt:TaskCollection.obj
 0001:00045c33       ?_OriginalCollection@_TaskCollection@details@Concurrency@@QBEPAV123@XZ 00446c33 f   libconcrt:TaskCollection.obj
 0001:00045c37       ?_ReleaseAlias@_TaskCollection@details@Concurrency@@AAEXXZ 00446c37 f   libconcrt:TaskCollection.obj
 0001:00045c71       ?_Reset@_TaskCollection@details@Concurrency@@AAEXPAV123@@Z 00446c71 f   libconcrt:TaskCollection.obj
 0001:00045d7f       ?_RunAndWait@_StructuredTaskCollection@details@Concurrency@@QAG?AW4_TaskCollectionStatus@23@PAV_UnrealizedChore@23@@Z 00446d7f f   libconcrt:TaskCollection.obj
 0001:00046050       ?_Schedule@_StructuredTaskCollection@details@Concurrency@@QAEXPAV_UnrealizedChore@23@@Z 00447050 f   libconcrt:TaskCollection.obj
 0001:000460a4       ?_SetCancelState@_TaskCollection@details@Concurrency@@AAE_NJ@Z 004470a4 f   libconcrt:TaskCollection.obj
 0001:000460de       ?_SweepAbortedChore@_TaskCollection@details@Concurrency@@CA_NPAV_UnrealizedChore@23@PAX@Z 004470de f   libconcrt:TaskCollection.obj
 0001:000460f7       ?_TaskCleanup@_TaskCollection@details@Concurrency@@AAE_N_N@Z 004470f7 f   libconcrt:TaskCollection.obj
 0001:00046150       ?_WaitOnStolenChores@_StructuredTaskCollection@details@Concurrency@@AAEXJ@Z 00447150 f   libconcrt:TaskCollection.obj
 0001:00046184       ??0?$Hash@II@details@Concurrency@@QAE@H@Z 00447184 f i libconcrt:SchedulerBase.obj
 0001:00046184       ??0?$Hash@PAV_TaskCollection@details@Concurrency@@PAV123@@details@Concurrency@@QAE@H@Z 00447184 f i libconcrt:ContextBase.obj
 0001:000461c2       ??0CancellationBeaconNode@CancellationBeaconStack@ContextBase@details@Concurrency@@QAE@XZ 004471c2 f i libconcrt:ContextBase.obj
 0001:000461dd       ??0CancellationBeaconStack@ContextBase@details@Concurrency@@QAE@XZ 004471dd f i libconcrt:ContextBase.obj
 0001:000461fc       ??0ContextBase@details@Concurrency@@QAE@PAVSchedulerBase@12@_N@Z 004471fc f   libconcrt:ContextBase.obj
 0001:000462d5       ??0_Cancellation_beacon@details@Concurrency@@QAE@XZ 004472d5 f   libconcrt:ContextBase.obj
 0001:000462ea       ??1?$Hash@II@details@Concurrency@@QAE@XZ 004472ea f i libconcrt:SchedulerBase.obj
 0001:000462ea       ??1?$Hash@PAV_TaskCollection@details@Concurrency@@PAV123@@details@Concurrency@@QAE@XZ 004472ea f i libconcrt:ContextBase.obj
 0001:000462fd       ??1?$StructuredWorkStealingQueue@VInternalContextBase@details@Concurrency@@V_HyperNonReentrantLock@23@@details@Concurrency@@QAE@XZ 004472fd f i libconcrt:VirtualProcessor.obj
 0001:000462fd       ??1?$StructuredWorkStealingQueue@V_UnrealizedChore@details@Concurrency@@V_CriticalNonReentrantLock@23@@details@Concurrency@@QAE@XZ 004472fd f i libconcrt:ContextBase.obj
 0001:00046314       ??1?$WorkStealingQueue@V_UnrealizedChore@details@Concurrency@@V_CriticalNonReentrantLock@23@@details@Concurrency@@QAE@XZ 00447314 f i libconcrt:ContextBase.obj
 0001:0004632b       ??1CancellationBeaconStack@ContextBase@details@Concurrency@@QAE@XZ 0044732b f i libconcrt:ContextBase.obj
 0001:00046367       ??1Context@Concurrency@@MAE@XZ 00447367 f i libconcrt:ContextBase.obj
 0001:0004636e       ??1ContextBase@details@Concurrency@@UAE@XZ 0044736e f i libconcrt:ContextBase.obj
 0001:0004639c       ??1QuickBitSet@details@Concurrency@@QAE@XZ 0044739c f i libconcrt:ContextBase.obj
 0001:000463a6       ??1Segment@?$Mailbox@VInternalContextBase@details@Concurrency@@@details@Concurrency@@QAE@XZ 004473a6 f i libconcrt:VirtualProcessor.obj
 0001:000463a6       ??1Segment@?$Mailbox@V_UnrealizedChore@details@Concurrency@@@details@Concurrency@@QAE@XZ 004473a6 f i libconcrt:ContextBase.obj
 0001:000463bd       ??1_Cancellation_beacon@details@Concurrency@@QAE@XZ 004473bd f   libconcrt:ContextBase.obj
 0001:000463fc       ??1_Scoped_lock@_CriticalNonReentrantLock@details@Concurrency@@QAE@XZ 004473fc f i libconcrt:ContextBase.obj
 0001:000463fc       ??1_Scoped_lock@_HyperNonReentrantLock@details@Concurrency@@QAE@XZ 004473fc f i libconcrt:SchedulerBase.obj
 0001:00046437       ??8location@Concurrency@@QBE_NABV01@@Z 00447437 f i libconcrt:ContextBase.obj
 0001:0004645a       ??ACancellationBeaconStack@ContextBase@details@Concurrency@@QAEPAUCancellationBeacon@123@J@Z 0044745a f i libconcrt:ContextBase.obj
 0001:0004648c       ??_EContext@Concurrency@@MAEPAXI@Z 0044748c f i libconcrt:ContextBase.obj
 0001:0004648c       ??_GContext@Concurrency@@MAEPAXI@Z 0044748c f i libconcrt:ContextBase.obj
 0001:000464af       ??_EContextBase@details@Concurrency@@UAEPAXI@Z 004474af f i libconcrt:ContextBase.obj
 0001:000464af       ??_GContextBase@details@Concurrency@@UAEPAXI@Z 004474af f i libconcrt:ContextBase.obj
 0001:000464d4       ??_GWorkQueue@details@Concurrency@@QAEPAXI@Z 004474d4 f i libconcrt:ContextBase.obj
 0001:00046500       ?AcquirePushBeacon@CancellationBeaconStack@ContextBase@details@Concurrency@@QAEPAUCancellationBeacon@234@H@Z 00447500 f i libconcrt:ContextBase.obj
 0001:00046537       ?Add@?$ListArray@VWorkQueue@details@Concurrency@@@details@Concurrency@@QAEHPAVWorkQueue@23@@Z 00447537 f i libconcrt:ContextBase.obj
 0001:000466ac       ?AddStealer@ContextBase@details@Concurrency@@QAEXPAV123@_N@Z 004476ac f   libconcrt:ContextBase.obj
 0001:000466d6       ?AvoidOverflow@?$StructuredWorkStealingQueue@VInternalContextBase@details@Concurrency@@V_HyperNonReentrantLock@23@@details@Concurrency@@AAEXAAH@Z 004476d6 f i libconcrt:InternalContextBase.obj
 0001:000466d6       ?AvoidOverflow@?$StructuredWorkStealingQueue@V_UnrealizedChore@details@Concurrency@@V_CriticalNonReentrantLock@23@@details@Concurrency@@AAEXAAH@Z 004476d6 f i libconcrt:ContextBase.obj
 0001:0004672c       ?CancelCollection@ContextBase@details@Concurrency@@QAEXH@Z 0044772c f   libconcrt:ContextBase.obj
 0001:0004679a       ?CancelCollectionComplete@ContextBase@details@Concurrency@@QAE_NH@Z 0044779a f   libconcrt:ContextBase.obj
 0001:000467ca       ?CancelStealers@ContextBase@details@Concurrency@@QAEXPAV_TaskCollectionBase@23@@Z 004477ca f   libconcrt:ContextBase.obj
 0001:000468b6       ?CheckForDeletion@?$ListArray@VWorkQueue@details@Concurrency@@@details@Concurrency@@AAEXXZ 004478b6 f i libconcrt:ContextBase.obj
 0001:000468df       ?CheckForDeletionBridge@?$ListArray@VWorkQueue@details@Concurrency@@@details@Concurrency@@CAXPAV123@@Z 004478df f i libconcrt:ContextBase.obj
 0001:000468eb       ?Claim@Slot@?$Mailbox@VInternalContextBase@details@Concurrency@@@details@Concurrency@@QAE_NPAPAVInternalContextBase@34@@Z 004478eb f i libconcrt:VirtualProcessor.obj
 0001:000468eb       ?Claim@Slot@?$Mailbox@V_UnrealizedChore@details@Concurrency@@@details@Concurrency@@QAE_NPAPAV_UnrealizedChore@34@@Z 004478eb f i libconcrt:ContextBase.obj
 0001:00046932       ?Cleanup@ContextBase@details@Concurrency@@QAEXXZ 00447932 f   libconcrt:ContextBase.obj
 0001:0004696d       ?ClearAliasTable@ContextBase@details@Concurrency@@QAEXXZ 0044796d f   libconcrt:ContextBase.obj
 0001:000469b1       ?ClearContextTls@ContextBase@details@Concurrency@@AAEXXZ 004479b1 f   libconcrt:ContextBase.obj
 0001:000469c1       ?CreateStructuredWorkQueue@ContextBase@details@Concurrency@@QAEXXZ 004479c1 f   libconcrt:ContextBase.obj
 0001:00046a42       ?CreateWorkQueue@ContextBase@details@Concurrency@@QAEXXZ 00447a42 f   libconcrt:ContextBase.obj
 0001:00046ac2       ?DeleteElements@?$ListArray@VWorkQueue@details@Concurrency@@@details@Concurrency@@AAEXPAU_SINGLE_LIST_ENTRY@@@Z 00447ac2 f i libconcrt:ContextBase.obj
 0001:00046ae4       ?Dereference@Segment@?$Mailbox@VInternalContextBase@details@Concurrency@@@details@Concurrency@@QAEXXZ 00447ae4 f i libconcrt:VirtualProcessor.obj
 0001:00046ae4       ?Dereference@Segment@?$Mailbox@V_UnrealizedChore@details@Concurrency@@@details@Concurrency@@QAEXXZ 00447ae4 f i libconcrt:ContextBase.obj
 0001:00046aff       ?DetachStealers@ContextBase@details@Concurrency@@QAEXXZ 00447aff f   libconcrt:ContextBase.obj
 0001:00046c5a       ?EnterCriticalRegionHelper@ContextBase@details@Concurrency@@UAEHXZ 00447c5a f i libconcrt:ContextBase.obj
 0001:00046c62       ?EnterHyperCriticalRegionHelper@ContextBase@details@Concurrency@@UAEHXZ 00447c62 f i libconcrt:ContextBase.obj
 0001:00046c6d       ?ExitCriticalRegionHelper@ContextBase@details@Concurrency@@UAEHXZ 00447c6d f i libconcrt:ContextBase.obj
 0001:00046c75       ?ExitHyperCriticalRegionHelper@ContextBase@details@Concurrency@@UAEHXZ 00447c75 f i libconcrt:ContextBase.obj
 0001:00046c80       ?FlagCancellationBeacons@ContextBase@details@Concurrency@@QAEXH@Z 00447c80 f   libconcrt:ContextBase.obj
 0001:00046ccf       ?GetCriticalRegionType@ContextBase@details@Concurrency@@UBE?AW4CriticalRegionType@3@XZ 00447ccf f i libconcrt:ContextBase.obj
 0001:00046ce3       ?GetId@ContextBase@details@Concurrency@@UBEIXZ 00447ce3 f   libconcrt:ContextBase.obj
 0001:00046ce7       ?GetIndirectAlias@ContextBase@details@Concurrency@@QBEPAV_TaskCollection@23@XZ 00447ce7 f   libconcrt:ContextBase.obj
 0001:00046ceb       ?GetScheduleGroup@ContextBase@details@Concurrency@@QBEPAVScheduleGroupBase@23@XZ 00447ceb f   libconcrt:ContextBase.obj
 0001:00046cfc       ?GetScheduleGroupId@ContextBase@details@Concurrency@@UBEIXZ 00447cfc f   libconcrt:ContextBase.obj
 0001:00046d24       ?GetScheduleGroupSegment@ContextBase@details@Concurrency@@QBEPAVScheduleGroupSegmentBase@23@XZ 00447d24 f   libconcrt:ContextBase.obj
 0001:00046d28       ?GetScheduler@ContextBase@details@Concurrency@@QBEPAVSchedulerBase@23@XZ 00447d28 f   libconcrt:ContextBase.obj
 0001:00046d28       ?Id@ScheduleGroupBase@details@Concurrency@@UBEIXZ 00447d28 f   libconcrt:SchedulerBase.obj
 0001:00046d2c       ?Grow@CancellationBeaconStack@ContextBase@details@Concurrency@@AAEXXZ 00447d2c f i libconcrt:ContextBase.obj
 0001:00046dd0       ?GrowAndPush@?$StructuredWorkStealingQueue@VInternalContextBase@details@Concurrency@@V_HyperNonReentrantLock@23@@details@Concurrency@@AAEXPAVInternalContextBase@23@VSlot@?$Mailbox@VInternalContextBase@details@Concurrency@@@23@@Z 00447dd0 f i libconcrt:InternalContextBase.obj
 0001:00046dd0       ?GrowAndPush@?$StructuredWorkStealingQueue@V_UnrealizedChore@details@Concurrency@@V_CriticalNonReentrantLock@23@@details@Concurrency@@AAEXPAV_UnrealizedChore@23@VSlot@?$Mailbox@V_UnrealizedChore@details@Concurrency@@@23@@Z 00447dd0 f i libconcrt:ContextBase.obj
 0001:00046f4a       ?IsCanceledAtDepth@ContextBase@details@Concurrency@@AAE_NPAV_TaskCollectionBase@23@H@Z 00447f4a f   libconcrt:ContextBase.obj
 0001:00047027       ?IsCancellationVisible@ContextBase@details@Concurrency@@QBE_NPAV_TaskCollectionBase@23@_N@Z 00448027 f   libconcrt:ContextBase.obj
 0001:0004705f       ?LockedSetOwningContext@WorkQueue@details@Concurrency@@QAEXPAVContextBase@23@@Z 0044805f f i libconcrt:ContextBase.obj
 0001:00047082       ?NextList@?$Hash@PAV_TaskCollection@details@Concurrency@@PAV123@@details@Concurrency@@AAEPAUListNode@123@PAH@Z 00448082 f i libconcrt:ContextBase.obj
 0001:000470b3       ?Pop@?$StructuredWorkStealingQueue@VInternalContextBase@details@Concurrency@@V_HyperNonReentrantLock@23@@details@Concurrency@@QAEPAVInternalContextBase@23@XZ 004480b3 f i libconcrt:VirtualProcessor.obj
 0001:000470b3       ?Pop@?$StructuredWorkStealingQueue@V_UnrealizedChore@details@Concurrency@@V_CriticalNonReentrantLock@23@@details@Concurrency@@QAEPAV_UnrealizedChore@23@XZ 004480b3 f i libconcrt:ContextBase.obj
 0001:000470fc       ?Pop@?$WorkStealingQueue@V_UnrealizedChore@details@Concurrency@@V_CriticalNonReentrantLock@23@@details@Concurrency@@QAEPAV_UnrealizedChore@23@XZ 004480fc f i libconcrt:ContextBase.obj
 0001:0004715b       ?PopContextFromTls@ContextBase@details@Concurrency@@AAEPAV123@XZ 0044815b f   libconcrt:ContextBase.obj
 0001:0004717c       ?PopGoverningTokenState@ContextBase@details@Concurrency@@QAEXPAV_CancellationTokenState@23@@Z 0044817c f   libconcrt:ContextBase.obj
 0001:000471df       ?PopStructured@ContextBase@details@Concurrency@@QAEPAV_UnrealizedChore@23@XZ 004481df f   libconcrt:ContextBase.obj
 0001:000471e7       ?Push@?$StructuredWorkStealingQueue@VInternalContextBase@details@Concurrency@@V_HyperNonReentrantLock@23@@details@Concurrency@@QAEXPAVInternalContextBase@23@@Z 004481e7 f i libconcrt:InternalContextBase.obj
 0001:000471e7       ?Push@?$StructuredWorkStealingQueue@V_UnrealizedChore@details@Concurrency@@V_CriticalNonReentrantLock@23@@details@Concurrency@@QAEXPAV_UnrealizedChore@23@@Z 004481e7 f i libconcrt:ContextBase.obj
 0001:00047240       ?PushCancellationBeacon@ContextBase@details@Concurrency@@QAEPAU_Beacon_reference@23@XZ 00448240 f   libconcrt:ContextBase.obj
 0001:0004727d       ?PushContextToTls@ContextBase@details@Concurrency@@AAEXPAV123@@Z 0044827d f   libconcrt:ContextBase.obj
 0001:00047298       ?PushGoverningTokenState@ContextBase@details@Concurrency@@QAEXPAV_CancellationTokenState@23@H@Z 00448298 f   libconcrt:ContextBase.obj
 0001:000472ab       ?PushStructured@ContextBase@details@Concurrency@@QAEXPAV_UnrealizedChore@23@@Z 004482ab f   libconcrt:ContextBase.obj
 0001:00047332       ?RecomputeMaximumCancellationDepth@ContextBase@details@Concurrency@@AAEXXZ 00448332 f   libconcrt:ContextBase.obj
 0001:000473af       ?ReferenceForCancellation@ContextBase@details@Concurrency@@QAEXXZ 004483af f   libconcrt:ContextBase.obj
 0001:000473b4       ?ReleaseWorkQueue@ContextBase@details@Concurrency@@IAEXXZ 004483b4 f   libconcrt:ContextBase.obj
 0001:0004740d       ?Remove@?$ListArray@VWorkQueue@details@Concurrency@@@details@Concurrency@@QAE_NPAVWorkQueue@23@H_N@Z 0044840d f i libconcrt:ContextBase.obj
 0001:000474fe       ?RemoveStealer@ContextBase@details@Concurrency@@QAEXPAV123@@Z 004484fe f   libconcrt:ContextBase.obj
 0001:00047514       ?SetAsCurrentTls@ContextBase@details@Concurrency@@IAEXXZ 00448514 f   libconcrt:ContextBase.obj
 0001:00047523       ?StaticDelete@Segment@?$Mailbox@VInternalContextBase@details@Concurrency@@@details@Concurrency@@SAXPAU1234@@Z 00448523 f i libconcrt:VirtualProcessor.obj
 0001:00047523       ?StaticDelete@Segment@?$Mailbox@V_UnrealizedChore@details@Concurrency@@@details@Concurrency@@SAXPAU1234@@Z 00448523 f i libconcrt:ContextBase.obj
 0001:00047542       ?StaticEnterCriticalRegion@ContextBase@details@Concurrency@@SAXXZ 00448542 f   libconcrt:ContextBase.obj
 0001:00047542       ?StaticEnterHyperCriticalRegion@ContextBase@details@Concurrency@@SAXXZ 00448542 f   libconcrt:ContextBase.obj
 0001:00047542       ?StaticExitCriticalRegion@ContextBase@details@Concurrency@@SAXXZ 00448542 f   libconcrt:ContextBase.obj
 0001:00047542       ?StaticExitHyperCriticalRegion@ContextBase@details@Concurrency@@SAXXZ 00448542 f   libconcrt:ContextBase.obj
 0001:00047547       ?SweepAliasTable@ContextBase@details@Concurrency@@QAEXXZ 00448547 f   libconcrt:ContextBase.obj
 0001:000475cc       ?SweepUnstructured@ContextBase@details@Concurrency@@QAEXP6A_NPAV_UnrealizedChore@23@PAX@Z12@Z 004485cc f   libconcrt:ContextBase.obj
 0001:000475d8       ?SyncPop@?$WorkStealingQueue@V_UnrealizedChore@details@Concurrency@@V_CriticalNonReentrantLock@23@@details@Concurrency@@AAEPAV_UnrealizedChore@23@XZ 004485d8 f i libconcrt:ContextBase.obj
 0001:0004768f       ?ThrowContextEvent@ContextBase@details@Concurrency@@KAXW4ConcRT_EventType@3@EKK@Z 0044868f f   libconcrt:ContextBase.obj
 0001:00047700       ?TokenHidesCancellation@ContextBase@details@Concurrency@@QBE_NPAV_TaskCollectionBase@23@_N@Z 00448700 f   libconcrt:ContextBase.obj
 0001:0004774e       ?TraceContextEvent@ContextBase@details@Concurrency@@IAEXW4ConcRT_EventType@3@EKK@Z 0044874e f i libconcrt:ContextBase.obj
 0001:0004777b       ?TryPop@?$WorkStealingQueue@V_UnrealizedChore@details@Concurrency@@V_CriticalNonReentrantLock@23@@details@Concurrency@@QAEPAV_UnrealizedChore@23@H@Z 0044877b f i libconcrt:ContextBase.obj
 0001:000477e6       ?TryPopUnstructured@ContextBase@details@Concurrency@@QAEPAV_UnrealizedChore@23@H@Z 004487e6 f   libconcrt:ContextBase.obj
 0001:000477f5       ?Wipe@?$Hash@II@details@Concurrency@@QAEXXZ 004487f5 f i libconcrt:SchedulerBase.obj
 0001:000477f5       ?Wipe@?$Hash@PAV_TaskCollection@details@Concurrency@@PAV123@@details@Concurrency@@QAEXXZ 004487f5 f i libconcrt:ContextBase.obj
 0001:00047855       ?_Assign@location@Concurrency@@QAEXABV12@@Z 00448855 f i libconcrt:ContextBase.obj
 0001:0004788c       ?_Confirm_cancel@_Cancellation_beacon@details@Concurrency@@QAE_NXZ 0044888c f   libconcrt:ContextBase.obj
 0001:000478ae       ?_SafeGetParent@_TaskCollectionBase@details@Concurrency@@IAEPAV123@XZ 004488ae f i libconcrt:ContextBase.obj
 0001:000478c2       ??0Etw@details@Concurrency@@AAE@XZ 004488c2 f   libconcrt:Trace.obj
 0001:000479d3       ??1_Scoped_lock@_NonReentrantLock@details@Concurrency@@QAE@XZ 004489d3 f i libconcrt:Trace.obj
 0001:000479dc       ?ControlCallback@details@Concurrency@@YGKW4WMIDPREQUESTCODE@@PAXPAK1@Z 004489dc f   libconcrt:Trace.obj
 0001:00047aca       ?GetEnableFlags@Etw@details@Concurrency@@QAEK_K@Z 00448aca f   libconcrt:Trace.obj
 0001:00047b07       ?GetEnableLevel@Etw@details@Concurrency@@QAEE_K@Z 00448b07 f   libconcrt:Trace.obj
 0001:00047b44       ?GetLoggerHandle@Etw@details@Concurrency@@QAE_KPAX@Z 00448b44 f   libconcrt:Trace.obj
 0001:00047b81       ?PPL_Trace_Event@details@Concurrency@@YAXABU_GUID@@W4ConcRT_EventType@2@E@Z 00448b81 f   libconcrt:Trace.obj
 0001:00047be4       ?RegisterGuids@Etw@details@Concurrency@@QAEKP6GKW4WMIDPREQUESTCODE@@PAXPAK1@ZPBU_GUID@@KPAU_TRACE_GUID_REGISTRATION@@PA_K@Z 00448be4 f   libconcrt:Trace.obj
 0001:00047c28       ?Trace@Etw@details@Concurrency@@QAEK_KPAU_EVENT_TRACE_HEADER@@@Z 00448c28 f   libconcrt:Trace.obj
 0001:00047c61       ?UnregisterGuids@Etw@details@Concurrency@@QAEK_K@Z 00448c61 f   libconcrt:Trace.obj
 0001:00047c97       ?_GetConcRTTraceInfo@Concurrency@@YAPBU_CONCRT_TRACE_INFO@details@1@XZ 00448c97 f   libconcrt:Trace.obj
 0001:00047cab       ?_RegisterConcRTEventTracing@details@Concurrency@@YAXXZ 00448cab f   libconcrt:Trace.obj
 0001:00047d1d       ?_Trace_ppl_function@Concurrency@@YAXABU_GUID@@EW4ConcRT_EventType@1@@Z 00448d1d f   libconcrt:Trace.obj
 0001:00047d44       ?_UnregisterConcRTEventTracing@details@Concurrency@@YAXXZ 00448d44 f   libconcrt:Trace.obj
 0001:00047d8a       ?_GetCombinableSize@details@Concurrency@@YAIXZ 00448d8a f   libconcrt:ppl.obj
 0001:00047db9       ??1DefaultWaiterPool@platform@details@Concurrency@@QAE@XZ 00448db9 f i libconcrt:Platform.obj
 0001:00047de1       ??1WaiterThreadPool@platform@details@Concurrency@@QAE@XZ 00448de1 f i libconcrt:Platform.obj
 0001:00047df8       ?__CloseThreadHandle@platform@details@Concurrency@@YAXPAX@Z 00448df8 f   libconcrt:Platform.obj
 0001:00047e06       ?__CreateAutoResetEvent@platform@details@Concurrency@@YAPAX_N@Z 00448e06 f   libconcrt:Platform.obj
 0001:00047e54       ?__CreateThread@platform@details@Concurrency@@YAPAXPAU_SECURITY_ATTRIBUTES@@IP6GKPAX@Z1KPAK@Z 00448e54 f   libconcrt:Platform.obj
 0001:00047e71       ?__GetCurrentProcessorNumberEx@platform@details@Concurrency@@YAXPAU_PROCESSOR_NUMBER@@@Z 00448e71 f   libconcrt:Platform.obj
 0001:00047e7f       ?__GetLogicalProcessorInformationEx@platform@details@Concurrency@@YAPAU_SYSTEM_LOGICAL_PROCESSOR_INFORMATION_EX@@W4_LOGICAL_PROCESSOR_RELATIONSHIP@@PAK@Z 00448e7f f   libconcrt:Platform.obj
 0001:00047f02       ?__GetNumaHighestNodeNumber@platform@details@Concurrency@@YAKXZ 00448f02 f   libconcrt:Platform.obj
 0001:00047f47       ?__GetThreadGroupAffinity@platform@details@Concurrency@@YAHPAXPAU_GROUP_AFFINITY@@@Z 00448f47 f   libconcrt:Platform.obj
 0001:00047f5b       ?__GetThreadPriority@platform@details@Concurrency@@YAHPAX@Z 00448f5b f   libconcrt:Platform.obj
 0001:00047f69       ?__GetTickCount64@platform@details@Concurrency@@YA_KXZ 00448f69 f   libconcrt:Platform.obj
 0001:00047f6f       ?__InitializeCriticalSectionEx@platform@details@Concurrency@@YAHPAU_RTL_CRITICAL_SECTION@@K@Z 00448f6f f   libconcrt:Platform.obj
 0001:00047f82       ?__SetThreadGroupAffinity@platform@details@Concurrency@@YAHPAXPBU_GROUP_AFFINITY@@@Z 00448f82 f   libconcrt:Platform.obj
 0001:00047f98       ?__SetThreadPriority@platform@details@Concurrency@@YAXPAXH@Z 00448f98 f   libconcrt:Platform.obj
 0001:00047fdc       ?__SignalObjectAndWait@platform@details@Concurrency@@YAKPAX0KH@Z 00448fdc f   libconcrt:Platform.obj
 0001:00047ff3       ?__Sleep@platform@details@Concurrency@@YAXK@Z 00448ff3 f   libconcrt:Platform.obj
 0001:00048001       ?__SwitchToThread@platform@details@Concurrency@@YAXXZ 00449001 f   libconcrt:Platform.obj
 0001:00048007       ?__TlsAlloc@platform@details@Concurrency@@YAKXZ 00449007 f   libconcrt:Platform.obj
 0001:00048046       ?__TlsFree@platform@details@Concurrency@@YAXK@Z 00449046 f   libconcrt:Platform.obj
 0001:00048054       ?__TlsGetValue@platform@details@Concurrency@@YAPAXK@Z 00449054 f   libconcrt:Platform.obj
 0001:00048062       ?__TlsSetValue@platform@details@Concurrency@@YAXKPAX@Z 00449062 f   libconcrt:Platform.obj
 0001:000480a6       ?__WaitForThread@platform@details@Concurrency@@YAKPAXK@Z 004490a6 f   libconcrt:Platform.obj
 0001:000480b9       ?notify@WaiterThread@platform@details@Concurrency@@AAEX_N@Z 004490b9 f i libconcrt:Platform.obj
 0001:000480ed       ?stop@WaiterThread@platform@details@Concurrency@@QAEXXZ 004490ed f i libconcrt:Platform.obj
 0001:00048101       ??$_InternalDeleteHelper@VExternalContextBase@details@Concurrency@@@details@Concurrency@@YAXPAVExternalContextBase@01@@Z 00449101 f i libconcrt:SchedulerBase.obj
 0001:00048124       ??$_InternalDeleteHelper@VInternalContextBase@details@Concurrency@@@details@Concurrency@@YAXPAVInternalContextBase@01@@Z 00449124 f i libconcrt:SchedulerBase.obj
 0001:00048149       ??$_InternalDeleteHelper@VScheduleGroupBase@details@Concurrency@@@details@Concurrency@@YAXPAVScheduleGroupBase@01@@Z 00449149 f i libconcrt:SchedulerBase.obj
 0001:0004816c       ??0?$ListArray@U?$ListArrayInlineLink@VWorkQueue@details@Concurrency@@@details@Concurrency@@@details@Concurrency@@QAE@PAVSchedulerBase@12@HH@Z 0044916c f i libconcrt:ScheduleGroupBase.obj
 0001:0004816c       ??0?$ListArray@VExternalStatistics@details@Concurrency@@@details@Concurrency@@QAE@PAVSchedulerBase@12@HH@Z 0044916c f i libconcrt:SchedulerBase.obj
 0001:0004816c       ??0?$ListArray@VScheduleGroupBase@details@Concurrency@@@details@Concurrency@@QAE@PAVSchedulerBase@12@HH@Z 0044916c f i libconcrt:SchedulerBase.obj
 0001:0004816c       ??0?$ListArray@VScheduleGroupSegmentBase@details@Concurrency@@@details@Concurrency@@QAE@PAVSchedulerBase@12@HH@Z 0044916c f i libconcrt:SchedulingRing.obj
 0001:0004816c       ??0?$ListArray@VVirtualProcessor@details@Concurrency@@@details@Concurrency@@QAE@PAVSchedulerBase@12@HH@Z 0044916c f i libconcrt:SchedulingNode.obj
 0001:0004816c       ??0?$ListArray@VWorkQueue@details@Concurrency@@@details@Concurrency@@QAE@PAVSchedulerBase@12@HH@Z 0044916c f i libconcrt:ScheduleGroupBase.obj
 0001:00048265       ??0CacheLocalScheduleGroupSegment@details@Concurrency@@QAE@PAVScheduleGroupBase@12@PAVSchedulingRing@12@PAVlocation@2@@Z 00449265 f i libconcrt:SchedulerBase.obj
 0001:000482a0       ??0FairScheduleGroupSegment@details@Concurrency@@QAE@PAVScheduleGroupBase@12@PAVSchedulingRing@12@PAVlocation@2@@Z 004492a0 f i libconcrt:SchedulerBase.obj
 0001:000482db       ??0NumaInformation@SchedulerBase@details@Concurrency@@QAE@XZ 004492db f i libconcrt:SchedulerBase.obj
 0001:000482eb       ??0QuickBitSet@details@Concurrency@@QAE@I@Z 004492eb f i libconcrt:SchedulerBase.obj
 0001:0004832e       ??0SchedulerBase@details@Concurrency@@QAE@ABVSchedulerPolicy@2@@Z 0044932e f   libconcrt:SchedulerBase.obj
 0001:000485db       ??0SubAllocator@details@Concurrency@@QAE@XZ 004495db f i libconcrt:SchedulerBase.obj
 0001:0004860e       ??0improper_scheduler_attach@Concurrency@@QAE@ABV01@@Z 0044960e f i libconcrt:SchedulerBase.obj
 0001:00048629       ??0improper_scheduler_reference@Concurrency@@QAE@ABV01@@Z 00449629 f i libconcrt:SchedulerBase.obj
 0001:00048644       ??1?$ListArray@VExternalStatistics@details@Concurrency@@@details@Concurrency@@QAE@XZ 00449644 f i libconcrt:SchedulerBase.obj
 0001:000486ea       ??1?$ListArray@VScheduleGroupBase@details@Concurrency@@@details@Concurrency@@QAE@XZ 004496ea f i libconcrt:SchedulerBase.obj
 0001:00048784       ??1NumaInformation@SchedulerBase@details@Concurrency@@QAE@XZ 00449784 f i libconcrt:SchedulerBase.obj
 0001:0004879b       ??1ReferenceCountedQuickBitSet@details@Concurrency@@QAE@XZ 0044979b f i libconcrt:SchedulerBase.obj
 0001:000487b2       ??1ScheduleGroup@Concurrency@@MAE@XZ 004497b2 f i libconcrt:SchedulerBase.obj
 0001:000487b9       ??1Scheduler@Concurrency@@MAE@XZ 004497b9 f i libconcrt:SchedulerBase.obj
 0001:000487c0       ??1SchedulerBase@details@Concurrency@@UAE@XZ 004497c0 f   libconcrt:SchedulerBase.obj
 0001:0004887e       ??A?$ListArray@U?$ListArrayInlineLink@VWorkQueue@details@Concurrency@@@details@Concurrency@@@details@Concurrency@@QBEPAU?$ListArrayInlineLink@VWorkQueue@details@Concurrency@@@12@H@Z 0044987e f i libconcrt:ScheduleGroupBase.obj
 0001:0004887e       ??A?$ListArray@VExternalStatistics@details@Concurrency@@@details@Concurrency@@QBEPAVExternalStatistics@12@H@Z 0044987e f i libconcrt:SchedulerBase.obj
 0001:0004887e       ??A?$ListArray@VScheduleGroupSegmentBase@details@Concurrency@@@details@Concurrency@@QBEPAVScheduleGroupSegmentBase@12@H@Z 0044987e f i libconcrt:SchedulerBase.obj
 0001:0004887e       ??A?$ListArray@VVirtualProcessor@details@Concurrency@@@details@Concurrency@@QBEPAVVirtualProcessor@12@H@Z 0044987e f i libconcrt:SchedulerBase.obj
 0001:0004887e       ??A?$ListArray@VWorkQueue@details@Concurrency@@@details@Concurrency@@QBEPAVWorkQueue@12@H@Z 0044987e f i libconcrt:ScheduleGroupBase.obj
 0001:000488c6       ??_ENumaInformation@SchedulerBase@details@Concurrency@@QAEPAXI@Z 004498c6 f i libconcrt:SchedulerBase.obj
 0001:00048950       ??_ECacheLocalScheduleGroup@details@Concurrency@@UAEPAXI@Z 00449950 f i libconcrt:SchedulerBase.obj
 0001:00048950       ??_EScheduleGroupBase@details@Concurrency@@UAEPAXI@Z 00449950 f i libconcrt:ScheduleGroupBase.obj
 0001:00048950       ??_GCacheLocalScheduleGroup@details@Concurrency@@UAEPAXI@Z 00449950 f i libconcrt:SchedulerBase.obj
 0001:00048950       ??_GScheduleGroupBase@details@Concurrency@@UAEPAXI@Z 00449950 f i libconcrt:ScheduleGroupBase.obj
 0001:00048973       ??_ECacheLocalScheduleGroupSegment@details@Concurrency@@UAEPAXI@Z 00449973 f i libconcrt:SchedulerBase.obj
 0001:00048973       ??_EFairScheduleGroupSegment@details@Concurrency@@UAEPAXI@Z 00449973 f i libconcrt:SchedulerBase.obj
 0001:00048973       ??_GCacheLocalScheduleGroupSegment@details@Concurrency@@UAEPAXI@Z 00449973 f i libconcrt:SchedulerBase.obj
 0001:00048973       ??_GFairScheduleGroupSegment@details@Concurrency@@UAEPAXI@Z 00449973 f i libconcrt:SchedulerBase.obj
 0001:00048998       ??_EFairScheduleGroup@details@Concurrency@@UAEPAXI@Z 00449998 f i libconcrt:SchedulerBase.obj
 0001:00048998       ??_GFairScheduleGroup@details@Concurrency@@UAEPAXI@Z 00449998 f i libconcrt:SchedulerBase.obj
 0001:000489bb       ??_ERealizedChore@details@Concurrency@@UAEPAXI@Z 004499bb f i libconcrt:SchedulerBase.obj
 0001:000489bb       ??_GRealizedChore@details@Concurrency@@UAEPAXI@Z 004499bb f i libconcrt:SchedulerBase.obj
 0001:000489de       ??_EScheduleGroup@Concurrency@@MAEPAXI@Z 004499de f i libconcrt:SchedulerBase.obj
 0001:000489de       ??_GScheduleGroup@Concurrency@@MAEPAXI@Z 004499de f i libconcrt:SchedulerBase.obj
 0001:00048a01       ??_EScheduler@Concurrency@@MAEPAXI@Z 00449a01 f i libconcrt:SchedulerBase.obj
 0001:00048a01       ??_GScheduler@Concurrency@@MAEPAXI@Z 00449a01 f i libconcrt:SchedulerBase.obj
 0001:00048a24       ??_ESchedulerBase@details@Concurrency@@UAEPAXI@Z 00449a24 f i libconcrt:SchedulerBase.obj
 0001:00048a24       ??_GSchedulerBase@details@Concurrency@@UAEPAXI@Z 00449a24 f i libconcrt:SchedulerBase.obj
 0001:00048a49       ??_GSubAllocator@details@Concurrency@@QAEPAXI@Z 00449a49 f i libconcrt:SchedulerBase.obj
 0001:00048ab1       ?Add@?$ListArray@VScheduleGroupBase@details@Concurrency@@@details@Concurrency@@QAEHPAVScheduleGroupBase@23@@Z 00449ab1 f i libconcrt:SchedulerBase.obj
 0001:00048c26       ?AddContext@SchedulerBase@details@Concurrency@@QAEXPAVInternalContextBase@23@@Z 00449c26 f   libconcrt:SchedulerBase.obj
 0001:00048c5d       ?AddHead@?$List@UBoostedObject@details@Concurrency@@VNoCount@CollectionTypes@23@@details@Concurrency@@QAEXPAUBoostedObject@23@@Z 00449c5d f i libconcrt:SchedulerBase.obj
 0001:00048c91       ?AddTail@?$List@VWaitNode@SchedulerBase@details@Concurrency@@VNoCount@CollectionTypes@34@@details@Concurrency@@QAEXPAVWaitNode@SchedulerBase@23@@Z 00449c91 f i libconcrt:SchedulerBase.obj
 0001:00048cbe       ?AddTail@?$SafeRWList@VWaitNode@SchedulerBase@details@Concurrency@@VNoCount@CollectionTypes@34@V_ReaderWriterLock@34@@details@Concurrency@@QAEXPAVWaitNode@SchedulerBase@23@@Z 00449cbe f i libconcrt:SchedulerBase.obj
 0001:00048cfa       ?AddVirtualProcessors@SchedulerBase@details@Concurrency@@IAEXPAPAUIVirtualProcessorRoot@3@I@Z 00449cfa f   libconcrt:SchedulerBase.obj
 0001:00048d90       ?AllocateSegment@CacheLocalScheduleGroup@details@Concurrency@@MAEPAVScheduleGroupSegmentBase@23@PAVSchedulingRing@23@PAVlocation@3@@Z 00449d90 f i libconcrt:SchedulerBase.obj
 0001:00048dcb       ?AllocateSegment@FairScheduleGroup@details@Concurrency@@MAEPAVScheduleGroupSegmentBase@23@PAVSchedulingRing@23@PAVlocation@3@@Z 00449dcb f i libconcrt:SchedulerBase.obj
 0001:00048e17       ?Attach@SchedulerBase@details@Concurrency@@UAEXXZ 00449e17 f   libconcrt:SchedulerBase.obj
 0001:00048e5d       ?AttachExternalContext@SchedulerBase@details@Concurrency@@AAEPAVExternalContextBase@23@_N@Z 00449e5d f   libconcrt:SchedulerBase.obj
 0001:00048ecd       ?AttemptSchedulerSweep@SchedulerBase@details@Concurrency@@IAEXXZ 00449ecd f   libconcrt:SchedulerBase.obj
 0001:00048ef0       ?CancelAllContexts@SchedulerBase@details@Concurrency@@MAEXXZ 00449ef0 f   libconcrt:SchedulerBase.obj
 0001:00048f2e       ?ChangeThrottlingTimer@SchedulerBase@details@Concurrency@@AAEXK@Z 00449f2e f   libconcrt:SchedulerBase.obj
 0001:00048f69       ?CheckForDeletion@?$ListArray@VExternalStatistics@details@Concurrency@@@details@Concurrency@@AAEXXZ 00449f69 f i libconcrt:SchedulerBase.obj
 0001:00048fa6       ?CheckForDeletion@?$ListArray@VScheduleGroupBase@details@Concurrency@@@details@Concurrency@@AAEXXZ 00449fa6 f i libconcrt:SchedulerBase.obj
 0001:00048fe0       ?CheckForDeletionBridge@?$ListArray@VExternalStatistics@details@Concurrency@@@details@Concurrency@@CAXPAV123@@Z 00449fe0 f i libconcrt:SchedulerBase.obj
 0001:00048fec       ?CheckForDeletionBridge@?$ListArray@VScheduleGroupBase@details@Concurrency@@@details@Concurrency@@CAXPAV123@@Z 00449fec f i libconcrt:SchedulerBase.obj
 0001:00048ff9       ?CheckOneShotStaticDestruction@SchedulerBase@details@Concurrency@@SAXXZ 00449ff9 f   libconcrt:SchedulerBase.obj
 0001:00049030       ?CheckStaticConstruction@SchedulerBase@details@Concurrency@@CAXXZ 0044a030 f   libconcrt:SchedulerBase.obj
 0001:000490a2       ?Cleanup@SchedulerBase@details@Concurrency@@AAEXXZ 0044a0a2 f   libconcrt:SchedulerBase.obj
 0001:00049155       ?CommitSafePoints@SchedulerBase@details@Concurrency@@QAEXXZ 0044a155 f   libconcrt:SchedulerBase.obj
 0001:00049198       ?CommitToVersion@SchedulerBase@details@Concurrency@@AAEXK@Z 0044a198 f   libconcrt:SchedulerBase.obj
 0001:00049233       ?ComputeSafePointCommitVersion@SchedulerBase@details@Concurrency@@AAEKXZ 0044a233 f   libconcrt:SchedulerBase.obj
 0001:000492c6       ?CopyFrom@QuickBitSet@details@Concurrency@@IAEXABV123@@Z 0044a2c6 f i libconcrt:SchedulerBase.obj
 0001:0004936b       ?CreateContextFromDefaultScheduler@SchedulerBase@details@Concurrency@@SAPAVContextBase@23@XZ 0044a36b f   libconcrt:SchedulerBase.obj
 0001:00049397       ?CreateScheduleGroup@SchedulerBase@details@Concurrency@@UAEPAVScheduleGroup@3@AAVlocation@3@@Z 0044a397 f i libconcrt:SchedulerBase.obj
 0001:000493a0       ?CreateScheduleGroup@SchedulerBase@details@Concurrency@@UAEPAVScheduleGroup@3@XZ 0044a3a0 f i libconcrt:SchedulerBase.obj
 0001:000493bf       ?CreateWithoutInitializing@SchedulerBase@details@Concurrency@@SAPAV123@ABVSchedulerPolicy@3@@Z 0044a3bf f   libconcrt:SchedulerBase.obj
 0001:000493e3       ?CurrentScheduler@SchedulerBase@details@Concurrency@@SAPAV123@XZ 0044a3e3 f   libconcrt:SchedulerBase.obj
 0001:000493ef       ?DecrementInternalContextCount@SchedulerBase@details@Concurrency@@QAEXXZ 0044a3ef f   libconcrt:SchedulerBase.obj
 0001:00049408       ?DeferredGetInternalContext@SchedulerBase@details@Concurrency@@QAEXXZ 0044a408 f   libconcrt:SchedulerBase.obj
 0001:00049421       ?Dequeue@?$SQueue@VInternalContextBase@details@Concurrency@@@details@Concurrency@@QAEPAVInternalContextBase@23@XZ 0044a421 f i libconcrt:SchedulerBase.obj
 0001:0004943e       ?Dequeue@?$SQueue@VRealizedChore@details@Concurrency@@@details@Concurrency@@QAEPAVRealizedChore@23@XZ 0044a43e f i libconcrt:ScheduleGroupBase.obj
 0001:0004943e       ?Dequeue@?$SQueue@VSafePointInvocation@details@Concurrency@@@details@Concurrency@@QAEPAVSafePointInvocation@23@XZ 0044a43e f i libconcrt:SchedulerBase.obj
 0001:00049458       ?Dequeue@?$SafeSQueue@VInternalContextBase@details@Concurrency@@V_HyperNonReentrantLock@23@@details@Concurrency@@QAEPAVInternalContextBase@23@XZ 0044a458 f i libconcrt:SchedulerBase.obj
 0001:00049494       ?DestroySchedulerEventHandlers@SchedulerBase@details@Concurrency@@MAEXXZ 0044a494 f   libconcrt:SchedulerBase.obj
 0001:000494ab       ?DetachExternalContext@SchedulerBase@details@Concurrency@@AAEXPAVExternalContextBase@23@_N@Z 0044a4ab f   libconcrt:SchedulerBase.obj
 0001:000494ed       ?FastCurrentContext@SchedulerBase@details@Concurrency@@SAPAVContextBase@23@XZ 0044a4ed f   libconcrt:SchedulerBase.obj
 0001:000494fa       ?FastCurrentScheduler@SchedulerBase@details@Concurrency@@SAPAV123@XZ 0044a4fa f   libconcrt:SchedulerBase.obj
 0001:00049514       ?Fill@QuickBitSet@details@Concurrency@@QAEXXZ 0044a514 f i libconcrt:SchedulerBase.obj
 0001:00049578       ?Finalize@SchedulerBase@details@Concurrency@@AAEXXZ 0044a578 f   libconcrt:SchedulerBase.obj
 0001:000496a2       ?FindCurrentNode@SchedulerBase@details@Concurrency@@QAEPAVSchedulingNode@23@XZ 0044a6a2 f   libconcrt:SchedulerBase.obj
 0001:000496e3       ?FindNodeByLocation@SchedulerBase@details@Concurrency@@QAEPAVSchedulingNode@23@PAVlocation@3@@Z 0044a6e3 f   libconcrt:SchedulerBase.obj
 0001:0004973c       ?FindScheduleGroupSegment@SchedulingRing@details@Concurrency@@AAEPAVScheduleGroupSegmentBase@23@HHPAHPAV?$ListArray@VScheduleGroupSegmentBase@details@Concurrency@@@23@@Z 0044a73c f i libconcrt:SchedulerBase.obj
 0001:00049767       ?FindVirtualProcessor@SchedulingNode@details@Concurrency@@QAEPAVVirtualProcessor@23@HHPAH@Z 0044a767 f i libconcrt:SchedulerBase.obj
 0001:00049796       ?FoundAvailableVirtualProcessor@SchedulerBase@details@Concurrency@@QAE_NAAVClaimTicket@VirtualProcessor@23@Vlocation@3@K@Z 0044a796 f   libconcrt:SchedulerBase.obj
 0001:000498a3       ?FoundBlockedContexts@SchedulerBase@details@Concurrency@@AAE_NXZ 0044a8a3 f   libconcrt:SchedulerBase.obj
 0001:000498cf       ?FoundUnstartedChores@SchedulerBase@details@Concurrency@@AAE_NXZ 0044a8cf f   libconcrt:SchedulerBase.obj
 0001:000499a7       ?GetAnonymousScheduleGroupSegment@SchedulerBase@details@Concurrency@@QAEPAVScheduleGroupSegmentBase@23@XZ 0044a9a7 f   libconcrt:SchedulerBase.obj
 0001:000499b0       ?GetBitSet@SchedulerBase@details@Concurrency@@QAE?AVQuickBitSet@23@PBVlocation@3@@Z 0044a9b0 f   libconcrt:SchedulerBase.obj
 0001:00049a66       ?GetDefaultScheduler@SchedulerBase@details@Concurrency@@CAPAV123@XZ 0044aa66 f   libconcrt:SchedulerBase.obj
 0001:00049b06       ?GetExternalContext@SchedulerBase@details@Concurrency@@AAEPAVExternalContextBase@23@_N@Z 0044ab06 f   libconcrt:SchedulerBase.obj
 0001:00049b66       ?GetInternalContext@SchedulerBase@details@Concurrency@@QAEPAVInternalContextBase@23@_N@Z 0044ab66 f   libconcrt:SchedulerBase.obj
 0001:00049c9a       ?GetNewContextId@SchedulerBase@details@Concurrency@@QAEIXZ 0044ac9a f   libconcrt:SchedulerBase.obj
 0001:00049ca7       ?GetNewScheduleGroupId@SchedulerBase@details@Concurrency@@QAEIXZ 0044aca7 f   libconcrt:SchedulerBase.obj
 0001:00049cb4       ?GetNewWorkQueueId@SchedulerBase@details@Concurrency@@SAIXZ 0044acb4 f   libconcrt:SchedulerBase.obj
 0001:00049cc1       ?GetNextPriorityObject@SchedulerBase@details@Concurrency@@QAEPAUBoostedObject@23@XZ 0044acc1 f   libconcrt:SchedulerBase.obj
 0001:00049cf6       ?GetNextScheduleGroupSegment@SchedulingRing@details@Concurrency@@AAEPAVScheduleGroupSegmentBase@23@PAHHPAV?$ListArray@VScheduleGroupSegmentBase@details@Concurrency@@@23@@Z 0044acf6 f i libconcrt:SchedulerBase.obj
 0001:00049d32       ?GetNextSchedulingRing@SchedulerBase@details@Concurrency@@QAEPAVSchedulingRing@23@PBV423@PAV423@@Z 0044ad32 f   libconcrt:SchedulerBase.obj
 0001:00049d57       ?GetNextSchedulingRing@SchedulerBase@details@Concurrency@@QAEPAVSchedulingRing@23@XZ 0044ad57 f   libconcrt:SchedulerBase.obj
 0001:00049d78       ?GetNextValidSchedulingRingIndex@SchedulerBase@details@Concurrency@@AAEHH@Z 0044ad78 f   libconcrt:SchedulerBase.obj
 0001:00049d9a       ?GetNextVirtualProcessor@SchedulingNode@details@Concurrency@@QAEPAVVirtualProcessor@23@PAHH@Z 0044ad9a f i libconcrt:SchedulerBase.obj
 0001:00049dcf       ?GetAvailableNodeCount@ResourceManager@details@Concurrency@@UBEIXZ 0044adcf f i libconcrt:ResourceManager.obj
 0001:00049dcf       ?GetNumberOfVirtualProcessors@SchedulerBase@details@Concurrency@@UBEIXZ 0044adcf f i libconcrt:SchedulerBase.obj
 0001:00049dd3       ?GetPolicy@SchedulerBase@details@Concurrency@@UBE?AVSchedulerPolicy@3@XZ 0044add3 f   libconcrt:SchedulerBase.obj
 0001:00049dea       ?GetRealizedChore@SchedulerBase@details@Concurrency@@QAEPAVRealizedChore@23@P6AXPAX@Z0@Z 0044adea f   libconcrt:SchedulerBase.obj
 0001:00049e4a       ?GetReservedContext@SchedulerBase@details@Concurrency@@QAEPAVInternalContextBase@23@XZ 0044ae4a f i libconcrt:SchedulerBase.obj
 0001:00049e61       ?GetRunnableContext@CacheLocalScheduleGroupSegment@details@Concurrency@@EAEPAVInternalContextBase@23@XZ 0044ae61 f i libconcrt:SchedulerBase.obj
 0001:00049e61       ?GetRunnableContext@FairScheduleGroupSegment@details@Concurrency@@EAEPAVInternalContextBase@23@XZ 0044ae61 f i libconcrt:SchedulerBase.obj
 0001:00049e74       ?GetSubAllocator@SchedulerBase@details@Concurrency@@SAPAVSubAllocator@23@_N@Z 0044ae74 f   libconcrt:SchedulerBase.obj
 0001:00049ed4       ?GetValidSchedulingRingIndex@SchedulerBase@details@Concurrency@@AAEHH@Z 0044aed4 f   libconcrt:SchedulerBase.obj
 0001:00049ef7       ?Grow@QuickBitSet@details@Concurrency@@QAEXI@Z 0044aef7 f i libconcrt:SchedulerBase.obj
 0001:00049fc6       ?Grow@ReferenceCountedQuickBitSet@details@Concurrency@@QAEXI@Z 0044afc6 f i libconcrt:SchedulerBase.obj
 0001:0004a041       ?HasCompletedShutdown@SchedulerBase@details@Concurrency@@QAE_NXZ 0044b041 f   libconcrt:SchedulerBase.obj
 0001:0004a054       ?Id@SchedulerBase@details@Concurrency@@UBEIXZ 0044b054 f i libconcrt:SchedulerBase.obj
 0001:0004a05b       ?Initialize@SchedulerBase@details@Concurrency@@AAEXXZ 0044b05b f   libconcrt:SchedulerBase.obj
 0001:0004a4f1       ?InitializeSchedulerEventHandlers@SchedulerBase@details@Concurrency@@MAEXXZ 0044b4f1 f   libconcrt:SchedulerBase.obj
 0001:0004a4f9       ?InternalCreateScheduleGroup@SchedulerBase@details@Concurrency@@AAEPAVScheduleGroup@3@PAVlocation@3@@Z 0044b4f9 f   libconcrt:SchedulerBase.obj
 0001:0004a5ca       ?InternalRelease@ScheduleGroupBase@details@Concurrency@@IAEJXZ 0044b5ca f i libconcrt:SchedulerBase.obj
 0001:0004a604       ?Intersects@QuickBitSet@details@Concurrency@@QBE_NABV123@@Z 0044b604 f i libconcrt:SchedulerBase.obj
 0001:0004a640       ?InvokeAtNextSafePoint@SafePointInvocation@details@Concurrency@@QAEXP6AXPAX@Z0PAVSchedulerBase@23@@Z 0044b640 f   libconcrt:SchedulerBase.obj
 0001:0004a67c       ?InvokeOnSafePoint@SchedulerBase@details@Concurrency@@AAEXPAVSafePointInvocation@23@@Z 0044b67c f   libconcrt:SchedulerBase.obj
 0001:0004a6c3       ?IsActive@ExternalStatistics@details@Concurrency@@QAE_NXZ 0044b6c3 f i libconcrt:SchedulerBase.obj
 0001:0004a6df       ?IsAvailableLocation@SchedulerBase@details@Concurrency@@UBE_NABVlocation@3@@Z 0044b6df f   libconcrt:SchedulerBase.obj
 0001:0004a713       ?MailChore@FairScheduleGroup@details@Concurrency@@UAE?AVSlot@?$Mailbox@V_UnrealizedChore@details@Concurrency@@@23@PAV_UnrealizedChore@23@PAVlocation@3@PAPAVScheduleGroupSegmentBase@23@@Z 0044b713 f i libconcrt:SchedulerBase.obj
 0001:0004a72a       ?MarkSafePoint@SchedulerBase@details@Concurrency@@QAE_NPAVSafePointMarker@23@@Z 0044b72a f   libconcrt:SchedulerBase.obj
 0001:0004a74c       ?NotifyThrottledContext@SchedulerBase@details@Concurrency@@AAE_NPAVInternalContextBase@23@@Z 0044b74c f   libconcrt:SchedulerBase.obj
 0001:0004a7d7       ?PerformServiceScan@SchedulerBase@details@Concurrency@@AAEX_K@Z 0044b7d7 f   libconcrt:SchedulerBase.obj
 0001:0004a9a0       ?PhaseOneShutdown@SchedulerBase@details@Concurrency@@AAEXXZ 0044b9a0 f   libconcrt:SchedulerBase.obj
 0001:0004aa16       ?PhaseTwoShutdown@SchedulerBase@details@Concurrency@@AAEXXZ 0044ba16 f   libconcrt:SchedulerBase.obj
 0001:0004aab3       ?PublishNewDataVersion@SchedulerBase@details@Concurrency@@AAEKXZ 0044bab3 f i libconcrt:SchedulerBase.obj
 0001:0004aacb       ?Push@?$LockFreePushStack@VContextNode@SchedulerBase@details@Concurrency@@@details@Concurrency@@QAEXPAVContextNode@SchedulerBase@23@@Z 0044bacb f i libconcrt:SchedulerBase.obj
 0001:0004aae9       ?PushRunnableToInactive@SchedulerBase@details@Concurrency@@UAE_NPAVInternalContextBase@23@Vlocation@3@@Z 0044bae9 f   libconcrt:SchedulerBase.obj
 0001:0004ab59       ?Reallocate@QuickBitSet@details@Concurrency@@IAEXI@Z 0044bb59 f i libconcrt:SchedulerBase.obj
 0001:0004ab8d       ?Reference@ScheduleGroupBase@details@Concurrency@@UAEIXZ 0044bb8d f i libconcrt:SchedulerBase.obj
 0001:0004ab9d       ?Reference@SchedulerBase@details@Concurrency@@UAEIXZ 0044bb9d f   libconcrt:SchedulerBase.obj
 0001:0004ac0d       ?ReferenceForAttach@SchedulerBase@details@Concurrency@@IAEXXZ 0044bc0d f   libconcrt:SchedulerBase.obj
 0001:0004ac2c       ?RegisterShutdownEvent@SchedulerBase@details@Concurrency@@UAEXPAX@Z 0044bc2c f   libconcrt:SchedulerBase.obj
 0001:0004acd3       ?Release@ScheduleGroupBase@details@Concurrency@@UAEIXZ 0044bcd3 f i libconcrt:SchedulerBase.obj
 0001:0004acd8       ?Release@SchedulerBase@details@Concurrency@@UAEIXZ 0044bcd8 f   libconcrt:SchedulerBase.obj
 0001:0004acf0       ?ReleaseExternalContext@SchedulerBase@details@Concurrency@@AAEXPAVExternalContextBase@23@@Z 0044bcf0 f   libconcrt:SchedulerBase.obj
 0001:0004ad32       ?ReleaseForDetach@SchedulerBase@details@Concurrency@@IAEXXZ 0044bd32 f   libconcrt:SchedulerBase.obj
 0001:0004ad51       ?ReleaseInternalContext@SchedulerBase@details@Concurrency@@QAEXPAVInternalContextBase@23@_N@Z 0044bd51 f   libconcrt:SchedulerBase.obj
 0001:0004ad9b       ?ReleaseRealizedChore@SchedulerBase@details@Concurrency@@QAEXPAVRealizedChore@23@@Z 0044bd9b f   libconcrt:SchedulerBase.obj
 0001:0004adeb       ?ReleaseReservedContexts@SchedulerBase@details@Concurrency@@QAEXXZ 0044bdeb f   libconcrt:SchedulerBase.obj
 0001:0004ae55       ?ReleaseSuspendedVirtualProcessors@SchedulerBase@details@Concurrency@@AAEXJ@Z 0044be55 f   libconcrt:SchedulerBase.obj
 0001:0004ae73       ?Remove@?$List@UBoostedObject@details@Concurrency@@VNoCount@CollectionTypes@23@@details@Concurrency@@QAEXPAUBoostedObject@23@@Z 0044be73 f i libconcrt:SchedulerBase.obj
 0001:0004aea5       ?Remove@?$ListArray@VExternalStatistics@details@Concurrency@@@details@Concurrency@@QAE_NPAVExternalStatistics@23@H_N@Z 0044bea5 f i libconcrt:SchedulerBase.obj
 0001:0004af9e       ?Remove@?$ListArray@VScheduleGroupBase@details@Concurrency@@@details@Concurrency@@QAE_NPAVScheduleGroupBase@23@H_N@Z 0044bf9e f i libconcrt:SchedulerBase.obj
 0001:0004b097       ?RemoveHead@?$List@UBoostedObject@details@Concurrency@@VNoCount@CollectionTypes@23@@details@Concurrency@@QAEPAUBoostedObject@23@XZ 0044c097 f i libconcrt:SchedulerBase.obj
 0001:0004b0c2       ?RemoveHead@?$List@VWaitNode@SchedulerBase@details@Concurrency@@VNoCount@CollectionTypes@34@@details@Concurrency@@QAEPAVWaitNode@SchedulerBase@23@XZ 0044c0c2 f i libconcrt:SchedulerBase.obj
 0001:0004b0e9       ?RemoveHead@?$SafeRWList@VWaitNode@SchedulerBase@details@Concurrency@@VNoCount@CollectionTypes@34@V_ReaderWriterLock@34@@details@Concurrency@@QAEPAVWaitNode@SchedulerBase@23@XZ 0044c0e9 f i libconcrt:SchedulerBase.obj
 0001:0004b125       ?RemovePrioritizedObject@SchedulerBase@details@Concurrency@@QAEXPAUBoostedObject@23@@Z 0044c125 f   libconcrt:SchedulerBase.obj
 0001:0004b164       ?RemoveScheduleGroup@SchedulerBase@details@Concurrency@@QAEXPAVScheduleGroupBase@23@@Z 0044c164 f   libconcrt:SchedulerBase.obj
 0001:0004b17c       ?RemoveSegments@FairScheduleGroup@details@Concurrency@@MAEXXZ 0044c17c f i libconcrt:SchedulerBase.obj
 0001:0004b18d       ?RemoveVirtualProcessors@SchedulerBase@details@Concurrency@@IAEXPAPAUIVirtualProcessorRoot@3@I@Z 0044c18d f   libconcrt:SchedulerBase.obj
 0001:0004b284       ?Resurrect@SchedulerBase@details@Concurrency@@AAEXXZ 0044c284 f   libconcrt:SchedulerBase.obj
 0001:0004b2cb       ?ReturnSubAllocator@SchedulerBase@details@Concurrency@@SAXPAVSubAllocator@23@@Z 0044c2cb f   libconcrt:SchedulerBase.obj
 0001:0004b30c       ?SafeFastCurrentContext@SchedulerBase@details@Concurrency@@SAPAVContextBase@23@XZ 0044c30c f   libconcrt:SchedulerBase.obj
 0001:0004b328       ?SafeFastCurrentScheduler@SchedulerBase@details@Concurrency@@SAPAV123@XZ 0044c328 f   libconcrt:SchedulerBase.obj
 0001:0004b33b       ?SafeReference@SchedulerBase@details@Concurrency@@AAE_NXZ 0044c33b f   libconcrt:SchedulerBase.obj
 0001:0004b35d       ?ScheduleTask@SchedulerBase@details@Concurrency@@UAEXP6AXPAX@Z0@Z 0044c35d f   libconcrt:SchedulerBase.obj
 0001:0004b3ae       ?ScheduleTask@SchedulerBase@details@Concurrency@@UAEXP6AXPAX@Z0AAVlocation@3@@Z 0044c3ae f   libconcrt:SchedulerBase.obj
 0001:0004b3eb       ?SetNextSchedulingRing@SchedulerBase@details@Concurrency@@QAEXPAVSchedulingRing@23@@Z 0044c3eb f   libconcrt:SchedulerBase.obj
 0001:0004b410       ?SpinUntilBitsReset@details@Concurrency@@YAJPCJJ@Z 0044c410 f i libconcrt:SchedulerBase.obj
 0001:0004b448       ?SpinUntilBitsSet@details@Concurrency@@YAJPCJJ@Z 0044c448 f i libconcrt:SchedulerBase.obj
 0001:0004b489       ?StartupNewVirtualProcessor@SchedulerBase@details@Concurrency@@UAEXPAVScheduleGroupSegmentBase@23@Vlocation@3@@Z 0044c489 f i libconcrt:SchedulerBase.obj
 0001:0004b4af       ?StartupVirtualProcessor@SchedulerBase@details@Concurrency@@QAE_NPAVScheduleGroupSegmentBase@23@Vlocation@3@K@Z 0044c4af f   libconcrt:SchedulerBase.obj
 0001:0004b507       ?StaticDestruction@SchedulerBase@details@Concurrency@@CAXXZ 0044c507 f   libconcrt:SchedulerBase.obj
 0001:0004b566       ?Statistics@SchedulerBase@details@Concurrency@@IAEXPAI00@Z 0044c566 f   libconcrt:SchedulerBase.obj
 0001:0004b6ac       ?SweepSchedulerForFinalize@SchedulerBase@details@Concurrency@@AAEXXZ 0044c6ac f   libconcrt:SchedulerBase.obj
 0001:0004b748       ?ThrottlerDispatch@SchedulerBase@details@Concurrency@@AAEXXZ 0044c748 f   libconcrt:SchedulerBase.obj
 0001:0004b861       ?ThrottlerDispatchBridge@SchedulerBase@details@Concurrency@@CGXPAU_TP_CALLBACK_INSTANCE@@PAXPAU_TP_TIMER@@@Z 0044c861 f i libconcrt:SchedulerBase.obj
 0001:0004b870       ?ThrottlerTrampoline@SchedulerBase@details@Concurrency@@CGXPAXE@Z 0044c870 f   libconcrt:SchedulerBase.obj
 0001:0004b8ab       ?ThrottlingTime@SchedulerBase@details@Concurrency@@QAEKK@Z 0044c8ab f   libconcrt:SchedulerBase.obj
 0001:0004b942       ?ThrowSchedulerEvent@SchedulerBase@details@Concurrency@@CAXW4ConcRT_EventType@3@EI@Z 0044c942 f   libconcrt:SchedulerBase.obj
 0001:0004b9ad       ?TraceSchedulerEvent@SchedulerBase@details@Concurrency@@AAEXW4ConcRT_EventType@3@EI@Z 0044c9ad f i libconcrt:SchedulerBase.obj
 0001:0004b9d7       ?TriggerCommitSafePoints@SchedulerBase@details@Concurrency@@QAEXPAVSafePointMarker@23@@Z 0044c9d7 f   libconcrt:SchedulerBase.obj
 0001:0004ba0c       ?TypeOfWorkPending@SchedulerBase@details@Concurrency@@MAE?AW4PendingWorkType@123@XZ 0044ca0c f   libconcrt:SchedulerBase.obj
 0001:0004ba3a       ?UpdateCommitVersion@SchedulerBase@details@Concurrency@@AAEKK@Z 0044ca3a f   libconcrt:SchedulerBase.obj
 0001:0004ba82       ?UpdatePendingVersion@SchedulerBase@details@Concurrency@@AAEKXZ 0044ca82 f   libconcrt:SchedulerBase.obj
 0001:0004bab4       ?VirtualProcessorActive@SchedulerBase@details@Concurrency@@QAE_N_N@Z 0044cab4 f   libconcrt:SchedulerBase.obj
 0001:0004bb65       ?NotifyResourcesExternallyBusy@ThreadScheduler@details@Concurrency@@UAEXPAPAUIVirtualProcessorRoot@3@I@Z 0044cb65 f i libconcrt:ThreadScheduler.obj
 0001:0004bb65       ?NotifyResourcesExternallyIdle@ThreadScheduler@details@Concurrency@@UAEXPAPAUIVirtualProcessorRoot@3@I@Z 0044cb65 f i libconcrt:ThreadScheduler.obj
 0001:0004bb65       ?VirtualProcessorActiveNotification@SchedulerBase@details@Concurrency@@MAEX_NJ@Z 0044cb65 f i libconcrt:SchedulerBase.obj
 0001:0004bb68       ?VirtualProcessorIdle@SchedulerBase@details@Concurrency@@QAEX_N@Z 0044cb68 f   libconcrt:SchedulerBase.obj
 0001:0004bbc5       ??0context_self_unblock@Concurrency@@QAE@XZ 0044cbc5 f   libconcrt:Exceptions.obj
 0001:0004bbdc       ??0context_unblock_unbalanced@Concurrency@@QAE@XZ 0044cbdc f   libconcrt:Exceptions.obj
 0001:0004bbf3       ??0improper_lock@Concurrency@@QAE@PBD@Z 0044cbf3 f   libconcrt:Exceptions.obj
 0001:0004bc0e       ??0improper_scheduler_attach@Concurrency@@QAE@XZ 0044cc0e f   libconcrt:Exceptions.obj
 0001:0004bc25       ??0improper_scheduler_reference@Concurrency@@QAE@XZ 0044cc25 f   libconcrt:Exceptions.obj
 0001:0004bc3c       ??0invalid_multiple_scheduling@Concurrency@@QAE@XZ 0044cc3c f   libconcrt:Exceptions.obj
 0001:0004bc53       ??0invalid_oversubscribe_operation@Concurrency@@QAE@XZ 0044cc53 f   libconcrt:Exceptions.obj
 0001:0004bc6a       ??0invalid_scheduler_policy_key@Concurrency@@QAE@PBD@Z 0044cc6a f   libconcrt:Exceptions.obj
 0001:0004bc85       ??0invalid_scheduler_policy_thread_specification@Concurrency@@QAE@XZ 0044cc85 f   libconcrt:Exceptions.obj
 0001:0004bc9c       ??0invalid_scheduler_policy_value@Concurrency@@QAE@PBD@Z 0044cc9c f   libconcrt:Exceptions.obj
 0001:0004bcb7       ??0missing_wait@Concurrency@@QAE@XZ 0044ccb7 f   libconcrt:Exceptions.obj
 0001:0004bcce       ??0nested_scheduler_missing_detach@Concurrency@@QAE@XZ 0044ccce f   libconcrt:Exceptions.obj
 0001:0004bce5       ??0scheduler_resource_allocation_error@Concurrency@@QAE@J@Z 0044cce5 f   libconcrt:Exceptions.obj
 0001:0004bd08       ??0scheduler_worker_creation_error@Concurrency@@QAE@J@Z 0044cd08 f   libconcrt:Exceptions.obj
 0001:0004bd23       ??0HardwareAffinity@details@Concurrency@@QAE@PAX@Z 0044cd23 f   libconcrt:ResourceManager.obj
 0001:0004bd44       ??0ResourceManager@details@Concurrency@@AAE@XZ 0044cd44 f   libconcrt:ResourceManager.obj
 0001:0004bde1       ??0SchedulerCore@details@Concurrency@@QAE@XZ 0044cde1 f i libconcrt:ResourceManager.obj
 0001:0004be08       ??0invalid_operation@Concurrency@@QAE@ABV01@@Z 0044ce08 f i libconcrt:ResourceManager.obj
 0001:0004be23       ??0invalid_operation@Concurrency@@QAE@XZ 0044ce23 f i libconcrt:ResourceManager.obj
 0001:0004be3a       ??1GlobalNode@details@Concurrency@@QAE@XZ 0044ce3a f i libconcrt:ResourceManager.obj
 0001:0004be47       ??1ResourceManager@details@Concurrency@@AAE@XZ 0044ce47 f   libconcrt:ResourceManager.obj
 0001:0004bf22       ??1_Scoped_lock@_NonReentrantBlockingLock@details@Concurrency@@QAE@XZ 0044cf22 f i libconcrt:ResourceManager.obj
 0001:0004bf22       ??1_Scoped_lock@_ReentrantBlockingLock@details@Concurrency@@QAE@XZ 0044cf22 f i libconcrt:SchedulerProxy.obj
 0001:0004bf5d       ??_EGlobalNode@details@Concurrency@@QAEPAXI@Z 0044cf5d f i libconcrt:ResourceManager.obj
 0001:0004bfec       ??_GAffinityRestriction@ResourceManager@details@Concurrency@@QAEPAXI@Z 0044cfec f i libconcrt:ResourceManager.obj
 0001:0004c015       ?AddTail@?$List@VSchedulerProxy@details@Concurrency@@VCount@CollectionTypes@23@@details@Concurrency@@QAEXPAVSchedulerProxy@23@@Z 0044d015 f i libconcrt:ResourceManager.obj
 0001:0004c04e       ?AdjustDynamicAllocation@ResourceManager@details@Concurrency@@AAEIIII@Z 0044d04e f   libconcrt:ResourceManager.obj
 0001:0004c11f       ?ApplyAffinityLimits@AffinityRestriction@ResourceManager@details@Concurrency@@QAEXPAU_GROUP_AFFINITY@@@Z 0044d11f f i libconcrt:ResourceManager.obj
 0001:0004c145       ?ApplyAffinityRestrictions@ResourceManager@details@Concurrency@@CAXPAU_GROUP_AFFINITY@@@Z 0044d145 f   libconcrt:ResourceManager.obj
 0001:0004c16c       ?ApplyTo@HardwareAffinity@details@Concurrency@@QAEXPAX@Z 0044d16c f   libconcrt:ResourceManager.obj
 0001:0004c17e       ?CaptureProcessAffinity@ResourceManager@details@Concurrency@@CAXXZ 0044d17e f   libconcrt:ResourceManager.obj
 0001:0004c24e       ?CleanupTopologyInformation@ResourceManager@details@Concurrency@@CAXXZ 0044d24e f   libconcrt:ResourceManager.obj
 0001:0004c26f       ?CommitStolenCores@ResourceManager@details@Concurrency@@AAEXPAVSchedulerProxy@23@@Z 0044d26f f   libconcrt:ResourceManager.obj
 0001:0004c37f       ?ComputeDesiredHWThreadsWithExternalThread@SchedulerProxy@details@Concurrency@@QBEIXZ 0044d37f f i libconcrt:ResourceManager.obj
 0001:0004c39f       ?CreateAllocatedNodeData@ResourceManager@details@Concurrency@@QAEPAUSchedulerNode@23@XZ 0044d39f f   libconcrt:ResourceManager.obj
 0001:0004c4d9       ?CreateDynamicRMWorker@ResourceManager@details@Concurrency@@AAEXXZ 0044d4d9 f   libconcrt:ResourceManager.obj
 0001:0004c53a       ?CreateNodeTopology@ResourceManager@details@Concurrency@@UAEXIPAIPAPAI0@Z 0044d53a f   libconcrt:ResourceManager.obj
 0001:0004c53d       ?CreateResourceManager@Concurrency@@YAPAUIResourceManager@1@XZ 0044d53d f   libconcrt:ResourceManager.obj
 0001:0004c542       ?CreateSchedulerProxy@ResourceManager@details@Concurrency@@AAEPAVSchedulerProxy@23@PAUIScheduler@3@@Z 0044d542 f   libconcrt:ResourceManager.obj
 0001:0004c5a4       ?CreateSingleton@ResourceManager@details@Concurrency@@SAPAV123@XZ 0044d5a4 f   libconcrt:ResourceManager.obj
 0001:0004c637       ?CurrentSubscriptionLevel@ResourceManager@details@Concurrency@@QAEIII@Z 0044d637 f   libconcrt:ResourceManager.obj
 0001:0004c6a1       ?DestroyAllocatedNodeData@ResourceManager@details@Concurrency@@QAEXPAUSchedulerNode@23@@Z 0044d6a1 f   libconcrt:ResourceManager.obj
 0001:0004c6db       ?DetermineTopology@ResourceManager@details@Concurrency@@AAEXXZ 0044d6db f   libconcrt:ResourceManager.obj
 0001:0004c7e7       ?DiscardExistingSchedulerStatistics@ResourceManager@details@Concurrency@@AAEXXZ 0044d7e7 f   libconcrt:ResourceManager.obj
 0001:0004c850       ?DistributeCoresToSurvivingScheduler@ResourceManager@details@Concurrency@@AAE_NXZ 0044d850 f   libconcrt:ResourceManager.obj
 0001:0004ca22       ?DistributeExclusiveCores@ResourceManager@details@Concurrency@@AAEXIIIII@Z 0044da22 f   libconcrt:ResourceManager.obj
 0001:0004cb97       ?DistributeIdleCores@ResourceManager@details@Concurrency@@AAEXII@Z 0044db97 f   libconcrt:ResourceManager.obj
 0001:0004cd43       ?DoCoreMigration@ResourceManager@details@Concurrency@@AAEXXZ 0044dd43 f   libconcrt:ResourceManager.obj
 0001:0004cf92       ?DynamicAssignCores@ResourceManager@details@Concurrency@@AAEXPAVSchedulerProxy@23@II_N@Z 0044df92 f   libconcrt:ResourceManager.obj
 0001:0004d007       ?DynamicMigrateCores@ResourceManager@details@Concurrency@@AAEXPAUDynamicAllocationData@23@PAVSchedulerProxy@23@II@Z 0044e007 f   libconcrt:ResourceManager.obj
 0001:0004d163       ?DynamicRMThreadProc@ResourceManager@details@Concurrency@@CGKPAX@Z 0044e163 f   libconcrt:ResourceManager.obj
 0001:0004d17c       ?DynamicResourceManager@ResourceManager@details@Concurrency@@AAEXXZ 0044e17c f   libconcrt:ResourceManager.obj
 0001:0004d27d       ?FindBestFitExclusiveAllocation@ResourceManager@details@Concurrency@@AAEIAAI0PAUDynamicAllocationData@23@II@Z 0044e27d f   libconcrt:ResourceManager.obj
 0001:0004d5b4       ?FindBestFitIdleAllocation@ResourceManager@details@Concurrency@@AAEIIPAUDynamicAllocationData@23@I@Z 0044e5b4 f   libconcrt:ResourceManager.obj
 0001:0004d6d1       ?FindCoreForPartiallyFilledNode@ResourceManager@details@Concurrency@@AAE_NAAI0PAUDynamicAllocationData@23@I@Z 0044e6d1 f   libconcrt:ResourceManager.obj
 0001:0004d7c0       ?FindGroupAffinity@AffinityRestriction@ResourceManager@details@Concurrency@@QAEPAUHardwareAffinity@34@G@Z 0044e7c0 f i libconcrt:ResourceManager.obj
 0001:0004d7f4       ?FlushStoreBuffers@ResourceManager@details@Concurrency@@QAEXXZ 0044e7f4 f   libconcrt:ResourceManager.obj
 0001:0004d7fa       ?GetCoreCount@ResourceManager@details@Concurrency@@SAIXZ 0044e7fa f   libconcrt:ResourceManager.obj
 0001:0004d848       ?GetCurrentNodeAndCore@ResourceManager@details@Concurrency@@QAEIPAI@Z 0044e848 f   libconcrt:ResourceManager.obj
 0001:0004d8bb       ?GetExecutionResourceCount@TopologyObject@GlobalNode@details@Concurrency@@UBEIXZ 0044e8bb f i libconcrt:ResourceManager.obj
 0001:0004d8bb       ?GetId@TopologyObject@GlobalCore@details@Concurrency@@UBEIXZ 0044e8bb f i libconcrt:ResourceManager.obj
 0001:0004d8c2       ?GetFirstExecutionResource@TopologyObject@GlobalNode@details@Concurrency@@UBEPAUITopologyExecutionResource@4@XZ 0044e8c2 f i libconcrt:ResourceManager.obj
 0001:0004d8cc       ?GetFirstNode@ResourceManager@details@Concurrency@@UBEPAUITopologyNode@3@XZ 0044e8cc f i libconcrt:ResourceManager.obj
 0001:0004d8d3       ?GetId@TopologyObject@GlobalNode@details@Concurrency@@UBEIXZ 0044e8d3 f i libconcrt:ResourceManager.obj
 0001:0004d8da       ?GetNext@TopologyObject@GlobalCore@details@Concurrency@@UBEPAUITopologyExecutionResource@4@XZ 0044e8da f   libconcrt:ResourceManager.obj
 0001:0004d8f1       ?GetNext@TopologyObject@GlobalNode@details@Concurrency@@UBEPAUITopologyNode@4@XZ 0044e8f1 f   libconcrt:ResourceManager.obj
 0001:0004d908       ?GetNextGlobalCore@GlobalNode@details@Concurrency@@QAEPAUGlobalCore@23@PBU423@@Z 0044e908 f i libconcrt:ResourceManager.obj
 0001:0004d92d       ?GetNextGlobalNode@ResourceManager@details@Concurrency@@QAEPAUGlobalNode@23@PBU423@@Z 0044e92d f i libconcrt:ResourceManager.obj
 0001:0004d952       ?GetNodeCount@ResourceManager@details@Concurrency@@SAIXZ 0044e952 f   libconcrt:ResourceManager.obj
 0001:0004d9a0       ?GetNumaNode@TopologyObject@GlobalNode@details@Concurrency@@UBEKXZ 0044e9a0 f i libconcrt:ResourceManager.obj
 0001:0004d9a7       ?GetOSVersion@Concurrency@@YA?AW4OSVersion@IResourceManager@1@XZ 0044e9a7 f   libconcrt:ResourceManager.obj
 0001:0004d9ac       ?GetProcessorCount@Concurrency@@YAIXZ 0044e9ac f   libconcrt:ResourceManager.obj
 0001:0004d9b1       ?GetProcessorNodeCount@Concurrency@@YAIXZ 0044e9b1 f   libconcrt:ResourceManager.obj
 0001:0004d9b6       ?GetSchedulerId@Concurrency@@YAIXZ 0044e9b6 f   libconcrt:ResourceManager.obj
 0001:0004d9c3       ?GetTopologyInformation@ResourceManager@details@Concurrency@@CAXW4_LOGICAL_PROCESSOR_RELATIONSHIP@@@Z 0044e9c3 f   libconcrt:ResourceManager.obj
 0001:0004d9dc       ?HandleBorrowedCores@ResourceManager@details@Concurrency@@AAEXPAVSchedulerProxy@23@PAUAllocationData@23@@Z 0044e9dc f   libconcrt:ResourceManager.obj
 0001:0004daf4       ?HandleSharedCores@ResourceManager@details@Concurrency@@AAEXPAVSchedulerProxy@23@PAUDynamicAllocationData@23@@Z 0044eaf4 f   libconcrt:ResourceManager.obj
 0001:0004dc3e       ?IncreaseFullyLoadedSchedulerAllocations@ResourceManager@details@Concurrency@@AAEXXZ 0044ec3e f   libconcrt:ResourceManager.obj
 0001:0004dc83       ?Initialize@GlobalCore@details@Concurrency@@QAEXPAUGlobalNode@23@IE@Z 0044ec83 f i libconcrt:ResourceManager.obj
 0001:0004dcc0       ?Initialize@GlobalNode@details@Concurrency@@QAEXPAVResourceManager@23@GGKII@Z 0044ecc0 f i libconcrt:ResourceManager.obj
 0001:0004ddea       ?InitializeRMBuffers@ResourceManager@details@Concurrency@@AAEXXZ 0044edea f   libconcrt:ResourceManager.obj
 0001:0004dea3       ?InitializeSystemInformation@ResourceManager@details@Concurrency@@CAX_N@Z 0044eea3 f   libconcrt:ResourceManager.obj
 0001:0004dfe5       ?IsWindowsVersionOrGreater@@YA_NGGG@Z 0044efe5 f i libconcrt:ResourceManager.obj
 0001:0004e092       ?PerformAllocation@ResourceManager@details@Concurrency@@QAEPAVExecutionResource@23@PAVSchedulerProxy@23@_N1@Z 0044f092 f   libconcrt:ResourceManager.obj
 0001:0004e232       ?PopulateCommonAllocationData@ResourceManager@details@Concurrency@@AAEXIPAVSchedulerProxy@23@PAUAllocationData@23@@Z 0044f232 f   libconcrt:ResourceManager.obj
 0001:0004e2fb       ?PopulateDynamicAllocationData@ResourceManager@details@Concurrency@@AAEXXZ 0044f2fb f   libconcrt:ResourceManager.obj
 0001:0004e42b       ?PreProcessDynamicAllocationData@ResourceManager@details@Concurrency@@AAEXXZ 0044f42b f   libconcrt:ResourceManager.obj
 0001:0004e505       ?PreProcessStaticAllocationData@ResourceManager@details@Concurrency@@AAEXXZ 0044f505 f   libconcrt:ResourceManager.obj
 0001:0004e534       ?PrepareReceiversForCoreTransfer@ResourceManager@details@Concurrency@@AAEII@Z 0044f534 f   libconcrt:ResourceManager.obj
 0001:0004e75e       ?RedistributeCoresAmongAll@ResourceManager@details@Concurrency@@AAEIPAVSchedulerProxy@23@III@Z 0044f75e f   libconcrt:ResourceManager.obj
 0001:0004eb85       ?Reference@ResourceManager@details@Concurrency@@UAEIXZ 0044fb85 f   libconcrt:ResourceManager.obj
 0001:0004eb8f       ?RegisterScheduler@ResourceManager@details@Concurrency@@UAEPAUISchedulerProxy@3@PAUIScheduler@3@I@Z 0044fb8f f   libconcrt:ResourceManager.obj
 0001:0004ebd3       ?Release@ResourceManager@details@Concurrency@@UAEIXZ 0044fbd3 f   libconcrt:ResourceManager.obj
 0001:0004ec80       ?ReleaseCoresOnExistingSchedulers@ResourceManager@details@Concurrency@@AAEIPAVSchedulerProxy@23@II@Z 0044fc80 f   libconcrt:ResourceManager.obj
 0001:0004ece2       ?ReleaseSchedulerResources@ResourceManager@details@Concurrency@@AAE_NPAVSchedulerProxy@23@0I@Z 0044fce2 f   libconcrt:ResourceManager.obj
 0001:0004eded       ?Remove@?$List@VSchedulerProxy@details@Concurrency@@VCount@CollectionTypes@23@@details@Concurrency@@QAEXPAVSchedulerProxy@23@@Z 0044fded f i libconcrt:ResourceManager.obj
 0001:0004ee23       ?RemoveExecutionResource@ResourceManager@details@Concurrency@@QAEXPAVExecutionResource@23@@Z 0044fe23 f   libconcrt:ResourceManager.obj
 0001:0004eeb6       ?RequestInitialVirtualProcessors@ResourceManager@details@Concurrency@@QAEPAUIExecutionResource@3@PAVSchedulerProxy@23@_N@Z 0044feb6 f   libconcrt:ResourceManager.obj
 0001:0004efd9       ?ReserveAtHigherUseCounts@ResourceManager@details@Concurrency@@AAEIPAVSchedulerProxy@23@I@Z 0044ffd9 f   libconcrt:ResourceManager.obj
 0001:0004f00d       ?ReserveCores@ResourceManager@details@Concurrency@@AAEIPAVSchedulerProxy@23@II@Z 0045000d f   libconcrt:ResourceManager.obj
 0001:0004f1ff       ?ResetGlobalAllocationData@ResourceManager@details@Concurrency@@AAEXXZ 004501ff f   libconcrt:ResourceManager.obj
 0001:0004f25c       ?RetrieveSystemVersionInformation@ResourceManager@details@Concurrency@@CAXXZ 0045025c f   libconcrt:ResourceManager.obj
 0001:0004f283       ?RoundUpScaledAllocations@ResourceManager@details@Concurrency@@CAXPAPAUAllocationData@23@II@Z 00450283 f   libconcrt:ResourceManager.obj
 0001:0004f460       ?SafeReference@ResourceManager@details@Concurrency@@AAE_NXZ 00450460 f   libconcrt:ResourceManager.obj
 0001:0004f47f       ?SendResourceNotifications@ResourceManager@details@Concurrency@@QAEXPAVSchedulerProxy@23@@Z 0045047f f   libconcrt:ResourceManager.obj
 0001:0004f65b       ?SetupStaticAllocationData@ResourceManager@details@Concurrency@@AAEXPAVSchedulerProxy@23@_N@Z 0045065b f   libconcrt:ResourceManager.obj
 0001:0004f74d       ?Shutdown@ResourceManager@details@Concurrency@@QAEXPAVSchedulerProxy@23@@Z 0045074d f   libconcrt:ResourceManager.obj
 0001:0004f823       ?SubscribeCurrentThread@ResourceManager@details@Concurrency@@QAEPAVExecutionResource@23@PAVSchedulerProxy@23@@Z 00450823 f   libconcrt:ResourceManager.obj
 0001:0004f87a       ?ToggleRMIdleState@ResourceManager@details@Concurrency@@AAEXPAUSchedulerNode@23@PAUSchedulerCore@23@PAUGlobalNode@23@PAUGlobalCore@23@PAUAllocationData@23@@Z 0045087a f   libconcrt:ResourceManager.obj
 0001:0004f8e6       ?Version@ResourceManager@details@Concurrency@@SA?AW4OSVersion@IResourceManager@3@XZ 004508e6 f   libconcrt:ResourceManager.obj
 0001:0004f932       ??0exception_ptr@std@@QAE@ABV01@@Z 00450932 f i libconcrt:TaskCollectionBase.obj
 0001:0004f957       ??0exception_ptr@std@@QAE@XZ 00450957 f i libconcrt:TaskCollectionBase.obj
 0001:0004f972       ?_FinishCancelState@_TaskCollectionBase@details@Concurrency@@IAEXI@Z 00450972 f   libconcrt:TaskCollectionBase.obj
 0001:0004f998       ?_GetTokenState@_TaskCollectionBase@details@Concurrency@@QAEPAV_CancellationTokenState@23@PAPAV_CancellationTokenRegistration@23@@Z 00450998 f   libconcrt:TaskCollectionBase.obj
 0001:0004f9c0       ?_MarkCancellation@_TaskCollectionBase@details@Concurrency@@IAE_NXZ 004509c0 f   libconcrt:TaskCollectionBase.obj
 0001:0004f9e8       ?_RaisedCancel@_TaskCollectionBase@details@Concurrency@@IAEXXZ 004509e8 f   libconcrt:TaskCollectionBase.obj
 0001:0004fa13       ?_RaisedException@_TaskCollectionBase@details@Concurrency@@IAEXXZ 00450a13 f   libconcrt:TaskCollectionBase.obj
 0001:0004fa71       ?_RethrowException@_TaskCollectionBase@details@Concurrency@@IAEXXZ 00450a71 f   libconcrt:TaskCollectionBase.obj
 0001:0004fadd       ?_WillInterruptForPendingCancel@_TaskCollectionBase@details@Concurrency@@IAE_NXZ 00450add f   libconcrt:TaskCollectionBase.obj
 0001:0004fb45       ?current_exception@std@@YA?AVexception_ptr@1@XZ 00450b45 f i libconcrt:TaskCollectionBase.obj
 0001:0004fb5e       ?rethrow_exception@std@@YAXVexception_ptr@1@@Z 00450b5e f i libconcrt:TaskCollectionBase.obj
 0001:0004fb7b       ??0MultiWaitBlock@details@Concurrency@@QAE@I_N0@Z 00450b7b f i libconcrt:event.obj
 0001:0004fbba       ??0MultiWaitBlockHolder@details@Concurrency@@QAE@_NI00@Z 00450bba f   libconcrt:event.obj
 0001:0004fc4a       ??0WaitAnyBlock@details@Concurrency@@QAE@I_N0@Z 00450c4a f i libconcrt:event.obj
 0001:0004fc72       ??0WaitBlock@details@Concurrency@@QAE@XZ 00450c72 f i libconcrt:event.obj
 0001:0004fc95       ??0event@Concurrency@@QAE@XZ 00450c95 f   libconcrt:event.obj
 0001:0004fcb9       ??1?$_MallocaArrayHolder@PAVContext@Concurrency@@@details@Concurrency@@UAE@XZ 00450cb9 f i libconcrt:event.obj
 0001:0004fcd9       ??1MultiWaitBlockHolder@details@Concurrency@@QAE@XZ 00450cd9 f   libconcrt:event.obj
 0001:0004fcf4       ??1event@Concurrency@@QAE@XZ 00450cf4 f   libconcrt:event.obj
 0001:0004fd7b       ??_E?$_MallocaArrayHolder@PAVContext@Concurrency@@@details@Concurrency@@UAEPAXI@Z 00450d7b f i libconcrt:event.obj
 0001:0004fd7b       ??_G?$_MallocaArrayHolder@PAVContext@Concurrency@@@details@Concurrency@@UAEPAXI@Z 00450d7b f i libconcrt:event.obj
 0001:0004fd9d       ?Destroy@EventWaitNode@details@Concurrency@@QAEXXZ 00450d9d f i libconcrt:event.obj
 0001:0004fdb6       ?Destroy@SingleWaitBlock@details@Concurrency@@UAEXXZ 00450db6 f   libconcrt:event.obj
 0001:0004fdb6       ?Reset@SingleWaitBlock@details@Concurrency@@UAE_NXZ 00450db6 f   libconcrt:event.obj
 0001:0004fdb6       ?Reset@WaitAnyBlock@details@Concurrency@@UAE_NXZ 00450db6 f   libconcrt:event.obj
 0001:0004fdb6       ?SweepResetNode@SingleWaitBlock@details@Concurrency@@UAE_NXZ 00450db6 f   libconcrt:event.obj
 0001:0004fdb6       ?SweepResetNode@WaitAnyBlock@details@Concurrency@@UAE_NXZ 00450db6 f   libconcrt:event.obj
 0001:0004fdb7       ?Destroy@WaitAllBlock@details@Concurrency@@UAEXXZ 00450db7 f   libconcrt:event.obj
 0001:0004fdbc       ?DispatchEventTimer@MultiWaitBlock@details@Concurrency@@SGXPAU_TP_CALLBACK_INSTANCE@@PAXPAU_TP_TIMER@@@Z 00450dbc f   libconcrt:event.obj
 0001:0004fe1d       ?NotifyCompletedNode@MultiWaitBlock@details@Concurrency@@QAEXXZ 00450e1d f   libconcrt:event.obj
 0001:0004fe36       ?Reset@WaitAllBlock@details@Concurrency@@UAE_NXZ 00450e36 f   libconcrt:event.obj
 0001:0004fe6b       ?Satisfy@EventWaitNode@details@Concurrency@@QAE_NPAPAVContext@3@@Z 00450e6b f i libconcrt:event.obj
 0001:0004fe8d       ?Satisfy@SingleWaitBlock@details@Concurrency@@UAE_NPAPAVContext@3@PAVEventWaitNode@23@@Z 00450e8d f   libconcrt:event.obj
 0001:0004feea       ?Satisfy@WaitAllBlock@details@Concurrency@@UAE_NPAPAVContext@3@PAVEventWaitNode@23@@Z 00450eea f   libconcrt:event.obj
 0001:0004ff34       ?Satisfy@WaitAnyBlock@details@Concurrency@@UAE_NPAPAVContext@3@PAVEventWaitNode@23@@Z 00450f34 f   libconcrt:event.obj
 0001:0004ff7a       ?Set@StructuredEvent@details@Concurrency@@QAEXXZ 00450f7a f   libconcrt:event.obj
 0001:0004ffbe       ?SingleSatisfy@MultiWaitBlock@details@Concurrency@@MAEXPAPAVContext@3@PAVEventWaitNode@23@@Z 00450fbe f   libconcrt:event.obj
 0001:0005004e       ?Sweep@details@Concurrency@@YAPAVEventWaitNode@12@PAV312@_N@Z 0045104e f   libconcrt:event.obj
 0001:00050088       ?SweepResetNode@EventWaitNode@details@Concurrency@@QAE_NXZ 00451088 f i libconcrt:event.obj
 0001:000500a1       ?SweepResetNode@WaitAllBlock@details@Concurrency@@UAE_NXZ 004510a1 f   libconcrt:event.obj
 0001:000500d4       ?SweepWaitNode@EventWaitNode@details@Concurrency@@QAE_NXZ 004510d4 f i libconcrt:event.obj
 0001:000500ed       ?SweepWaitNode@WaitAllBlock@details@Concurrency@@UAE_NXZ 004510ed f   libconcrt:event.obj
 0001:00050130       ?SweepWaitNode@WaitAnyBlock@details@Concurrency@@UAE_NXZ 00451130 f   libconcrt:event.obj
 0001:00050166       ?Wait@StructuredEvent@details@Concurrency@@QAEXXZ 00451166 f   libconcrt:event.obj
 0001:000501d6       ?set@event@Concurrency@@QAEXXZ 004511d6 f   libconcrt:event.obj
 0001:00050322       ?wait@event@Concurrency@@QAEII@Z 00451322 f   libconcrt:event.obj
 0001:00050414       ?wait_for_multiple@event@Concurrency@@SAIPAPAV12@I_NI@Z 00451414 f   libconcrt:event.obj
 0001:00050675       ??0?$StructuredWorkStealingQueue@VInternalContextBase@details@Concurrency@@V_HyperNonReentrantLock@23@@details@Concurrency@@QAE@PAV_HyperNonReentrantLock@12@@Z 00451675 f i libconcrt:VirtualProcessor.obj
 0001:00050675       ??0?$StructuredWorkStealingQueue@V_UnrealizedChore@details@Concurrency@@V_CriticalNonReentrantLock@23@@details@Concurrency@@QAE@PAV_CriticalNonReentrantLock@12@@Z 00451675 f i libconcrt:WorkQueue.obj
 0001:000506e9       ??0?$WorkStealingQueue@V_UnrealizedChore@details@Concurrency@@V_CriticalNonReentrantLock@23@@details@Concurrency@@QAE@PAV_CriticalNonReentrantLock@12@@Z 004516e9 f i libconcrt:WorkQueue.obj
 0001:00050758       ??0WorkQueue@details@Concurrency@@QAE@XZ 00451758 f   libconcrt:WorkQueue.obj
 0001:000507bd       ?DeferToAffineSearchers@Slot@?$Mailbox@VInternalContextBase@details@Concurrency@@@details@Concurrency@@QBE_NXZ 004517bd f i libconcrt:SchedulingNode.obj
 0001:000507bd       ?DeferToAffineSearchers@Slot@?$Mailbox@V_UnrealizedChore@details@Concurrency@@@details@Concurrency@@QBE_NXZ 004517bd f i libconcrt:WorkQueue.obj
 0001:0005080e       ?IsEmpty@WorkQueue@details@Concurrency@@QBE_NXZ 0045180e f i libconcrt:WorkQueue.obj
 0001:00050825       ?RedetachFromScheduleGroupAtSafePoint@WorkQueue@details@Concurrency@@QAEXPAVScheduleGroupSegmentBase@23@@Z 00451825 f   libconcrt:WorkQueue.obj
 0001:00050849       ?Reinitialize@WorkQueue@details@Concurrency@@AAEXXZ 00451849 f   libconcrt:WorkQueue.obj
 0001:00050883       ?RetireAtSafePoint@WorkQueue@details@Concurrency@@QAEXPAVScheduleGroupSegmentBase@23@@Z 00451883 f   libconcrt:WorkQueue.obj
 0001:000508a7       ?StaticRedetachFromScheduleGroup@WorkQueue@details@Concurrency@@CAXPAV123@@Z 004518a7 f   libconcrt:WorkQueue.obj
 0001:000508b8       ?StaticRetire@WorkQueue@details@Concurrency@@CAXPAV123@@Z 004518b8 f   libconcrt:WorkQueue.obj
 0001:000508c9       ?Steal@WorkQueue@details@Concurrency@@QAEPAV_UnrealizedChore@23@_N@Z 004518c9 f   libconcrt:WorkQueue.obj
 0001:0005090f       ?Sweep@?$WorkStealingQueue@V_UnrealizedChore@details@Concurrency@@V_CriticalNonReentrantLock@23@@details@Concurrency@@QAEXP6A_NPAV_UnrealizedChore@23@PAX@Z12@Z 0045190f f i libconcrt:WorkQueue.obj
 0001:000509dd       ?SweepUnstructured@WorkQueue@details@Concurrency@@QAEXP6A_NPAV_UnrealizedChore@23@PAX@Z12@Z 004519dd f   libconcrt:WorkQueue.obj
 0001:000509e9       ?TryToSteal@WorkQueue@details@Concurrency@@QAEPAV_UnrealizedChore@23@_NAA_N@Z 004519e9 f   libconcrt:WorkQueue.obj
 0001:00050a57       ?UnlockedSteal@?$StructuredWorkStealingQueue@VInternalContextBase@details@Concurrency@@V_HyperNonReentrantLock@23@@details@Concurrency@@QAEPAVInternalContextBase@23@_N@Z 00451a57 f i libconcrt:SchedulingNode.obj
 0001:00050a57       ?UnlockedSteal@?$StructuredWorkStealingQueue@V_UnrealizedChore@details@Concurrency@@V_CriticalNonReentrantLock@23@@details@Concurrency@@QAEPAV_UnrealizedChore@23@_N@Z 00451a57 f i libconcrt:WorkQueue.obj
 0001:00050ada       ?UnlockedSteal@?$WorkStealingQueue@V_UnrealizedChore@details@Concurrency@@V_CriticalNonReentrantLock@23@@details@Concurrency@@QAEPAV_UnrealizedChore@23@_N0@Z 00451ada f i libconcrt:WorkQueue.obj
 0001:00050b70       ?UnlockedSteal@WorkQueue@details@Concurrency@@AAEPAV_UnrealizedChore@23@_N@Z 00451b70 f   libconcrt:WorkQueue.obj
 0001:00050c2c       ??0?$Mailbox@V_UnrealizedChore@details@Concurrency@@@details@Concurrency@@QAE@PAVSchedulerBase@12@ABVQuickBitSet@12@_NI@Z 00451c2c f i libconcrt:ScheduleGroupBase.obj
 0001:00050ca6       ??0QuickBitSet@details@Concurrency@@QAE@ABV012@@Z 00451ca6 f i libconcrt:ScheduleGroupBase.obj
 0001:00050cc8       ??0ScheduleGroupBase@details@Concurrency@@QAE@PAVSchedulerBase@12@PAVlocation@2@@Z 00451cc8 f   libconcrt:ScheduleGroupBase.obj
 0001:00050d21       ??0ScheduleGroupSegmentBase@details@Concurrency@@IAE@PAVScheduleGroupBase@12@PAVSchedulingRing@12@PAVlocation@2@@Z 00451d21 f   libconcrt:ScheduleGroupBase.obj
 0001:00050de8       ??0Segment@?$Mailbox@V_UnrealizedChore@details@Concurrency@@@details@Concurrency@@QAE@PAVSchedulerBase@23@ABVQuickBitSet@23@II@Z 00451de8 f i libconcrt:ScheduleGroupBase.obj
 0001:00050e4c       ??1?$ListArray@U?$ListArrayInlineLink@VWorkQueue@details@Concurrency@@@details@Concurrency@@@details@Concurrency@@QAE@XZ 00451e4c f i libconcrt:ScheduleGroupBase.obj
 0001:00050ef2       ??1?$ListArray@VWorkQueue@details@Concurrency@@@details@Concurrency@@QAE@XZ 00451ef2 f i libconcrt:ScheduleGroupBase.obj
 0001:00050f6e       ??1?$Mailbox@V_UnrealizedChore@details@Concurrency@@@details@Concurrency@@QAE@XZ 00451f6e f i libconcrt:ScheduleGroupBase.obj
 0001:00050fd9       ??1ScheduleGroupSegmentBase@details@Concurrency@@UAE@XZ 00451fd9 f   libconcrt:ScheduleGroupBase.obj
 0001:00051027       ??4QuickBitSet@details@Concurrency@@QAEAAV012@$$QAV012@@Z 00452027 f i libconcrt:ScheduleGroupBase.obj
 0001:00051057       ??_EScheduleGroupSegmentBase@details@Concurrency@@UAEPAXI@Z 00452057 f i libconcrt:ScheduleGroupBase.obj
 0001:00051057       ??_GScheduleGroupSegmentBase@details@Concurrency@@UAEPAXI@Z 00452057 f i libconcrt:ScheduleGroupBase.obj
 0001:0005107c       ?Add@?$ListArray@U?$ListArrayInlineLink@VWorkQueue@details@Concurrency@@@details@Concurrency@@@details@Concurrency@@QAEHPAU?$ListArrayInlineLink@VWorkQueue@details@Concurrency@@@23@@Z 0045207c f i libconcrt:ScheduleGroupBase.obj
 0001:0005107c       ?Add@?$ListArray@VExternalStatistics@details@Concurrency@@@details@Concurrency@@QAEHPAVExternalStatistics@23@@Z 0045207c f i libconcrt:ScheduleGroupBase.obj
 0001:000511f0       ?Add@?$ListArray@VScheduleGroupSegmentBase@details@Concurrency@@@details@Concurrency@@QAEHPAVScheduleGroupSegmentBase@23@@Z 004521f0 f i libconcrt:ScheduleGroupBase.obj
 0001:00051368       ?AddRunnableContext@ScheduleGroupSegmentBase@details@Concurrency@@IAEXPAVInternalContextBase@23@Vlocation@3@@Z 00452368 f   libconcrt:ScheduleGroupBase.obj
 0001:0005144a       ?CheckForDeletion@?$ListArray@U?$ListArrayInlineLink@VWorkQueue@details@Concurrency@@@details@Concurrency@@@details@Concurrency@@AAEXXZ 0045244a f i libconcrt:ScheduleGroupBase.obj
 0001:0005147f       ?CheckForDeletionBridge@?$ListArray@U?$ListArrayInlineLink@VWorkQueue@details@Concurrency@@@details@Concurrency@@@details@Concurrency@@CAXPAV123@@Z 0045247f f i libconcrt:ScheduleGroupBase.obj
 0001:0005148b       ?ClearQuickCacheSlotIf@SchedulerBase@details@Concurrency@@QAEXIPAVScheduleGroupSegmentBase@23@@Z 0045248b f i libconcrt:ScheduleGroupBase.obj
 0001:000514b0       ?CreateSegment@ScheduleGroupBase@details@Concurrency@@IAEPAVScheduleGroupSegmentBase@23@PAVlocation@3@PAVSchedulingRing@23@@Z 004524b0 f   libconcrt:ScheduleGroupBase.obj
 0001:00051551       ?DemandInitialize@?$Mailbox@V_UnrealizedChore@details@Concurrency@@@details@Concurrency@@AAEXXZ 00452551 f i libconcrt:ScheduleGroupBase.obj
 0001:000515d1       ?Dequeue@?$Mailbox@V_UnrealizedChore@details@Concurrency@@@details@Concurrency@@QAE_NPAPAV_UnrealizedChore@23@@Z 004525d1 f i libconcrt:ScheduleGroupBase.obj
 0001:000516a3       ?Dequeue@?$SafeSQueue@VRealizedChore@details@Concurrency@@V_HyperNonReentrantLock@23@@details@Concurrency@@QAEPAVRealizedChore@23@XZ 004526a3 f i libconcrt:ScheduleGroupBase.obj
 0001:000516df       ?DetachActiveWorkQueue@ScheduleGroupSegmentBase@details@Concurrency@@IAEXPAVWorkQueue@23@@Z 004526df f   libconcrt:ScheduleGroupBase.obj
 0001:0005171e       ?Enqueue@?$SafeSQueue@VRealizedChore@details@Concurrency@@V_HyperNonReentrantLock@23@@details@Concurrency@@QAEXPAVRealizedChore@23@@Z 0045271e f i libconcrt:ScheduleGroupBase.obj
 0001:00051764       ?FindSegment@ScheduleGroupBase@details@Concurrency@@MAEPAVScheduleGroupSegmentBase@23@PAVlocation@3@PAVSchedulingRing@23@@Z 00452764 f   libconcrt:ScheduleGroupBase.obj
 0001:000517b8       ?GetDetachedWorkQueue@ScheduleGroupSegmentBase@details@Concurrency@@IAEPAVWorkQueue@23@XZ 004527b8 f   libconcrt:ScheduleGroupBase.obj
 0001:0005181d       ?GetInternalContext@ScheduleGroupSegmentBase@details@Concurrency@@IAEPAVInternalContextBase@23@PAU_Chore@23@_N@Z 0045281d f   libconcrt:ScheduleGroupBase.obj
 0001:00051850       ?GetRealizedChore@ScheduleGroupSegmentBase@details@Concurrency@@IAEPAVRealizedChore@23@XZ 00452850 f   libconcrt:ScheduleGroupBase.obj
 0001:00051860       ?GetResourceMaskId@SchedulerBase@details@Concurrency@@QAEII@Z 00452860 f i libconcrt:ScheduleGroupBase.obj
 0001:0005187e       ?Grow@?$Mailbox@V_UnrealizedChore@details@Concurrency@@@details@Concurrency@@AAEPAUSegment@123@PAU4123@@Z 0045287e f i libconcrt:ScheduleGroupBase.obj
 0001:000518c8       ?HasRealizedChores@ScheduleGroupSegmentBase@details@Concurrency@@IBE_NXZ 004528c8 f   libconcrt:ScheduleGroupBase.obj
 0001:000518d0       ?HasUnrealizedChores@ScheduleGroupSegmentBase@details@Concurrency@@IAE_NXZ 004528d0 f   libconcrt:ScheduleGroupBase.obj
 0001:000518db       ?Initialize@?$Mailbox@V_UnrealizedChore@details@Concurrency@@@details@Concurrency@@QAEXABVQuickBitSet@23@@Z 004528db f i libconcrt:ScheduleGroupBase.obj
 0001:00051904       ?Initialize@ScheduleGroupBase@details@Concurrency@@QAEXPAVlocation@3@@Z 00452904 f   libconcrt:ScheduleGroupBase.obj
 0001:00051917       ?Initialize@ScheduleGroupSegmentBase@details@Concurrency@@IAEXPAVScheduleGroupBase@23@PAVSchedulingRing@23@PAVlocation@3@@Z 00452917 f   libconcrt:ScheduleGroupBase.obj
 0001:0005199c       ?LocateMailboxSegment@?$Mailbox@V_UnrealizedChore@details@Concurrency@@@details@Concurrency@@AAEPAUSegment@123@I_N@Z 0045299c f i libconcrt:ScheduleGroupBase.obj
 0001:000519e6       ?LocateSegment@ScheduleGroupBase@details@Concurrency@@UAEPAVScheduleGroupSegmentBase@23@PAVlocation@3@_N@Z 004529e6 f   libconcrt:ScheduleGroupBase.obj
 0001:00051ace       ?LocateUnrealizedChores@ScheduleGroupSegmentBase@details@Concurrency@@IAEPAVWorkQueue@23@XZ 00452ace f   libconcrt:ScheduleGroupBase.obj
 0001:00051b2d       ?MarkDetachment@?$WorkStealingQueue@V_UnrealizedChore@details@Concurrency@@V_CriticalNonReentrantLock@23@@details@Concurrency@@QAEXXZ 00452b2d f i libconcrt:ScheduleGroupBase.obj
 0001:00051b68       ?PullFromFreePool@?$ListArray@VScheduleGroupSegmentBase@details@Concurrency@@@details@Concurrency@@QAEPAVScheduleGroupSegmentBase@23@XZ 00452b68 f i libconcrt:ScheduleGroupBase.obj
 0001:00051b7c       ?RedetachQueue@ScheduleGroupSegmentBase@details@Concurrency@@QAEXPAVWorkQueue@23@@Z 00452b7c f   libconcrt:ScheduleGroupBase.obj
 0001:00051b95       ?ReleaseInternalContext@ScheduleGroupSegmentBase@details@Concurrency@@IAEXPAVInternalContextBase@23@@Z 00452b95 f   libconcrt:ScheduleGroupBase.obj
 0001:00051bbb       ?Remove@?$ListArray@U?$ListArrayInlineLink@VWorkQueue@details@Concurrency@@@details@Concurrency@@@details@Concurrency@@QAE_NPAU?$ListArrayInlineLink@VWorkQueue@details@Concurrency@@@23@H_N@Z 00452bbb f i libconcrt:ScheduleGroupBase.obj
 0001:00051cac       ?Remove@ScheduleGroupSegmentBase@details@Concurrency@@IAEXXZ 00452cac f   libconcrt:ScheduleGroupBase.obj
 0001:00051ccf       ?RemoveSegments@ScheduleGroupBase@details@Concurrency@@MAEXXZ 00452ccf f   libconcrt:ScheduleGroupBase.obj
 0001:00051d14       ?RetireDetachedQueue@ScheduleGroupSegmentBase@details@Concurrency@@QAEXPAVWorkQueue@23@@Z 00452d14 f   libconcrt:ScheduleGroupBase.obj
 0001:00051d3b       ?SafelyDeleteDetachedWorkQueue@ScheduleGroupSegmentBase@details@Concurrency@@IAE_NPAVWorkQueue@23@@Z 00452d3b f   libconcrt:ScheduleGroupBase.obj
 0001:00051d7f       ?ScheduleTask@ScheduleGroupBase@details@Concurrency@@QAEXP6AXPAX@Z0AAVlocation@3@@Z 00452d7f f   libconcrt:ScheduleGroupBase.obj
 0001:00051daf       ?ScheduleTask@ScheduleGroupBase@details@Concurrency@@UAEXP6AXPAX@Z0@Z 00452daf f   libconcrt:ScheduleGroupBase.obj
 0001:00051dd7       ?ScheduleTask@ScheduleGroupSegmentBase@details@Concurrency@@QAEXP6AXPAX@Z0@Z 00452dd7 f   libconcrt:ScheduleGroupBase.obj
 0001:00051f10       ?SetDeletionReferences@Segment@?$Mailbox@V_UnrealizedChore@details@Concurrency@@@details@Concurrency@@QAEXI@Z 00452f10 f i libconcrt:ScheduleGroupBase.obj
 0001:00051f36       ?StealUnrealizedChore@ScheduleGroupSegmentBase@details@Concurrency@@IAEPAV_UnrealizedChore@23@_N@Z 00452f36 f   libconcrt:ScheduleGroupBase.obj
 0001:000520e5       ??0SchedulerPolicy@Concurrency@@QAA@IZZ 004530e5 f   libconcrt:SchedulerPolicyBase.obj
 0001:00052103       ??0SchedulerPolicy@Concurrency@@QAE@ABV01@@Z 00453103 f   libconcrt:SchedulerPolicyBase.obj
 0001:0005212a       ??0invalid_scheduler_policy_key@Concurrency@@QAE@ABV01@@Z 0045312a f i libconcrt:SchedulerPolicyBase.obj
 0001:00052145       ??0invalid_scheduler_policy_thread_specification@Concurrency@@QAE@ABV01@@Z 00453145 f i libconcrt:SchedulerPolicyBase.obj
 0001:00052160       ??0invalid_scheduler_policy_value@Concurrency@@QAE@ABV01@@Z 00453160 f i libconcrt:SchedulerPolicyBase.obj
 0001:0005217b       ??1SchedulerPolicy@Concurrency@@QAE@XZ 0045317b f   libconcrt:SchedulerPolicyBase.obj
 0001:00052187       ??4SchedulerPolicy@Concurrency@@QAEAAV01@ABV01@@Z 00453187 f   libconcrt:SchedulerPolicyBase.obj
 0001:000521a0       ?GetPolicyValue@SchedulerPolicy@Concurrency@@QBEIW4PolicyElementKey@2@@Z 004531a0 f   libconcrt:SchedulerPolicyBase.obj
 0001:000521d6       ?_AreConcurrencyLimitsValid@SchedulerPolicy@Concurrency@@CA_NII@Z 004531d6 f   libconcrt:SchedulerPolicyBase.obj
 0001:000521f4       ?_Initialize@SchedulerPolicy@Concurrency@@AAEXIPAPAD@Z 004531f4 f   libconcrt:SchedulerPolicyBase.obj
 0001:000522e2       ?_ResolvePolicyValues@SchedulerPolicy@Concurrency@@AAEXXZ 004532e2 f   libconcrt:SchedulerPolicyBase.obj
 0001:00052327       ?_StringFromPolicyKey@SchedulerPolicy@Concurrency@@CAPBDI@Z 00453327 f   libconcrt:SchedulerPolicyBase.obj
 0001:0005233d       ?_ValidPolicyValue@SchedulerPolicy@Concurrency@@CA_NW4PolicyElementKey@2@I@Z 0045333d f   libconcrt:SchedulerPolicyBase.obj
 0001:00052429       ?_ValidateConcRTPolicy@SchedulerPolicy@Concurrency@@QBEXXZ 00453429 f   libconcrt:SchedulerPolicyBase.obj
 0001:00052463       ??$_InternalDeleteHelper@VScheduleGroupSegmentBase@details@Concurrency@@@details@Concurrency@@YAXPAVScheduleGroupSegmentBase@01@@Z 00453463 f i libconcrt:SchedulingRing.obj
 0001:00052463       ??$_InternalDeleteHelper@VVirtualProcessor@details@Concurrency@@@details@Concurrency@@YAXPAVVirtualProcessor@01@@Z 00453463 f i libconcrt:VirtualProcessor.obj
 0001:00052485       ??0VirtualProcessor@details@Concurrency@@QAE@XZ 00453485 f   libconcrt:VirtualProcessor.obj
 0001:00052570       ??0WorkSearchContext@details@Concurrency@@QAE@XZ 00453570 f i libconcrt:VirtualProcessor.obj
 0001:00052592       ??1VirtualProcessor@details@Concurrency@@UAE@XZ 00453592 f   libconcrt:VirtualProcessor.obj
 0001:000525fa       ??_EVirtualProcessor@details@Concurrency@@UAEPAXI@Z 004535fa f i libconcrt:VirtualProcessor.obj
 0001:000525fa       ??_GVirtualProcessor@details@Concurrency@@UAEPAXI@Z 004535fa f i libconcrt:VirtualProcessor.obj
 0001:0005261f       ?AcknowledgedAffinityMessage@SchedulerBase@details@Concurrency@@QAE_NI@Z 0045361f f i libconcrt:VirtualProcessor.obj
 0001:00052652       ?Affinitize@VirtualProcessor@details@Concurrency@@MAEXPAVInternalContextBase@23@@Z 00453652 f   libconcrt:VirtualProcessor.obj
 0001:0005269b       ?CheckAffinityNotification@VirtualProcessor@details@Concurrency@@QAE_NXZ 0045369b f   libconcrt:VirtualProcessor.obj
 0001:000526b9       ?CheckForDeletion@?$ListArray@VVirtualProcessor@details@Concurrency@@@details@Concurrency@@AAEXXZ 004536b9 f i libconcrt:VirtualProcessor.obj
 0001:000526ee       ?CheckForDeletionBridge@?$ListArray@VVirtualProcessor@details@Concurrency@@@details@Concurrency@@CAXPAV123@@Z 004536ee f i libconcrt:VirtualProcessor.obj
 0001:000526fa       ?ClaimExclusiveOwnership@VirtualProcessor@details@Concurrency@@QAE_NAAVClaimTicket@123@K_N@Z 004536fa f   libconcrt:VirtualProcessor.obj
 0001:00052788       ?ClearQuickCacheSlot@SchedulerBase@details@Concurrency@@QAEXI@Z 00453788 f i libconcrt:VirtualProcessor.obj
 0001:000527ad       ?Deactivate@VirtualProcessor@details@Concurrency@@QAE_NPAUIExecutionContext@3@@Z 004537ad f   libconcrt:VirtualProcessor.obj
 0001:000527cf       ?EnsureAllTasksVisible@VirtualProcessor@details@Concurrency@@QAEXPAUIExecutionContext@3@@Z 004537cf f   libconcrt:VirtualProcessor.obj
 0001:000527f1       ?ExerciseClaim@VirtualProcessor@details@Concurrency@@AAE_NW4AvailabilityType@123@PAVScheduleGroupSegmentBase@23@PAVInternalContextBase@23@@Z 004537f1 f   libconcrt:VirtualProcessor.obj
 0001:00052882       ?ExerciseWith@ClaimTicket@VirtualProcessor@details@Concurrency@@QAE_NPAVInternalContextBase@34@@Z 00453882 f   libconcrt:VirtualProcessor.obj
 0001:000528b0       ?GetCurrentSubAllocator@VirtualProcessor@details@Concurrency@@QAEPAVSubAllocator@23@XZ 004538b0 f   libconcrt:VirtualProcessor.obj
 0001:000528c6       ?GetLocalRunnableContext@VirtualProcessor@details@Concurrency@@AAEPAVInternalContextBase@23@XZ 004538c6 f i libconcrt:VirtualProcessor.obj
 0001:000528db       ?Initialize@VirtualProcessor@details@Concurrency@@MAEXPAVSchedulingNode@23@PAUIVirtualProcessorRoot@3@@Z 004538db f   libconcrt:VirtualProcessor.obj
 0001:00052a58       ?InterlockedClear@ReferenceCountedQuickBitSet@details@Concurrency@@QAEII@Z 00453a58 f i libconcrt:VirtualProcessor.obj
 0001:00052a98       ?InterlockedSet@ReferenceCountedQuickBitSet@details@Concurrency@@QAEII@Z 00453a98 f i libconcrt:VirtualProcessor.obj
 0001:00052adc       ?MakeAvailable@VirtualProcessor@details@Concurrency@@IAEXW4AvailabilityType@123@_N@Z 00453adc f   libconcrt:VirtualProcessor.obj
 0001:00052b4c       ?MarkForRetirement@VirtualProcessor@details@Concurrency@@AAEXXZ 00453b4c f   libconcrt:VirtualProcessor.obj
 0001:00052c12       ?Oversubscribe@VirtualProcessor@details@Concurrency@@EAEPAV123@XZ 00453c12 f   libconcrt:VirtualProcessor.obj
 0001:00052c45       ?Remove@?$ListArray@VVirtualProcessor@details@Concurrency@@@details@Concurrency@@QAE_NPAVVirtualProcessor@23@H_N@Z 00453c45 f i libconcrt:VirtualProcessor.obj
 0001:00052d39       ?Retire@VirtualProcessor@details@Concurrency@@MAEXXZ 00453d39 f   libconcrt:VirtualProcessor.obj
 0001:00052e74       ?SafePoint@VirtualProcessor@details@Concurrency@@QAE_NXZ 00453e74 f   libconcrt:VirtualProcessor.obj
 0001:00052e88       ?SaveRetiredVirtualProcessorStatistics@SchedulerBase@details@Concurrency@@QAEXPAVVirtualProcessor@23@@Z 00453e88 f i libconcrt:VirtualProcessor.obj
 0001:00052ec2       ?SpinUntilClear@QuickBitSet@details@Concurrency@@QBEXI@Z 00453ec2 f i libconcrt:VirtualProcessor.obj
 0001:00052f11       ?SpinUntilSet@QuickBitSet@details@Concurrency@@QBEXI@Z 00453f11 f i libconcrt:VirtualProcessor.obj
 0001:00052f60       ?StartupWorkerContext@VirtualProcessor@details@Concurrency@@EAE_NPAVScheduleGroupSegmentBase@23@PAVInternalContextBase@23@@Z 00453f60 f   libconcrt:VirtualProcessor.obj
 0001:00053002       ?ThrowVirtualProcessorEvent@VirtualProcessor@details@Concurrency@@CAXW4ConcRT_EventType@3@EKK@Z 00454002 f   libconcrt:VirtualProcessor.obj
 0001:00053073       ?ToInternalContext@VirtualProcessor@details@Concurrency@@MAEPAVInternalContextBase@23@PAUIExecutionContext@3@@Z 00454073 f   libconcrt:VirtualProcessor.obj
 0001:0005307d       ?TraceVirtualProcessorEvent@VirtualProcessor@details@Concurrency@@AAEXW4ConcRT_EventType@3@EKK@Z 0045407d f i libconcrt:VirtualProcessor.obj
 0001:000530aa       ?UpdateWorkState@VirtualProcessor@details@Concurrency@@QAEX_N0@Z 004540aa f   libconcrt:VirtualProcessor.obj
 0001:00053108       ?Wipe@QuickBitSet@details@Concurrency@@QAEXXZ 00454108 f i libconcrt:VirtualProcessor.obj
 0001:0005316b       ??0SchedulingNode@details@Concurrency@@QAE@ABVQuickBitSet@12@KPAVSchedulingRing@12@@Z 0045416b f   libconcrt:SchedulingNode.obj
 0001:000531e3       ??1?$ListArray@VVirtualProcessor@details@Concurrency@@@details@Concurrency@@QAE@XZ 004541e3 f i libconcrt:SchedulingNode.obj
 0001:00053286       ??1SchedulingNode@details@Concurrency@@QAE@XZ 00454286 f   libconcrt:SchedulingNode.obj
 0001:000532af       ?Add@?$ListArray@VVirtualProcessor@details@Concurrency@@@details@Concurrency@@QAEHPAVVirtualProcessor@23@@Z 004542af f i libconcrt:SchedulingNode.obj
 0001:00053424       ?AddVirtualProcessor@SchedulingNode@details@Concurrency@@QAEPAVVirtualProcessor@23@PAUIVirtualProcessorRoot@3@_N@Z 00454424 f   libconcrt:SchedulingNode.obj
 0001:00053520       ?FindMatchingVirtualProcessor@SchedulingNode@details@Concurrency@@QAEPAVVirtualProcessor@23@PAUIVirtualProcessorRoot@3@@Z 00454520 f   libconcrt:SchedulingNode.obj
 0001:0005355d       ?FindVirtualProcessorByLocation@SchedulingNode@details@Concurrency@@QAEPAVVirtualProcessor@23@PBVlocation@3@@Z 0045455d f   libconcrt:SchedulingNode.obj
 0001:000535bb       ?FoundAvailableVirtualProcessor@SchedulingNode@details@Concurrency@@AAE_NAAVClaimTicket@VirtualProcessor@23@Vlocation@3@K@Z 004545bb f   libconcrt:SchedulingNode.obj
 0001:0005362f       ?GetLocation@SchedulingNode@details@Concurrency@@QAE?AVlocation@3@XZ 0045462f f   libconcrt:SchedulingNode.obj
 0001:00053663       ?PullFromFreePool@?$ListArray@VVirtualProcessor@details@Concurrency@@@details@Concurrency@@QAEPAVVirtualProcessor@23@XZ 00454663 f i libconcrt:SchedulingNode.obj
 0001:00053677       ?Steal@?$StructuredWorkStealingQueue@VInternalContextBase@details@Concurrency@@V_HyperNonReentrantLock@23@@details@Concurrency@@QAEPAVInternalContextBase@23@_N@Z 00454677 f i libconcrt:SchedulingNode.obj
 0001:000536bd       ??0InternalContextBase@details@Concurrency@@QAE@PAVSchedulerBase@12@@Z 004546bd f   libconcrt:InternalContextBase.obj
 0001:0005377d       ??0context_self_unblock@Concurrency@@QAE@ABV01@@Z 0045477d f i libconcrt:InternalContextBase.obj
 0001:00053798       ??0context_unblock_unbalanced@Concurrency@@QAE@ABV01@@Z 00454798 f i libconcrt:InternalContextBase.obj
 0001:000537b3       ??0invalid_oversubscribe_operation@Concurrency@@QAE@ABV01@@Z 004547b3 f i libconcrt:InternalContextBase.obj
 0001:000537ce       ??0nested_scheduler_missing_detach@Concurrency@@QAE@ABV01@@Z 004547ce f i libconcrt:InternalContextBase.obj
 0001:000537e9       ??1InternalContextBase@details@Concurrency@@UAE@XZ 004547e9 f   libconcrt:InternalContextBase.obj
 0001:0005383a       ??1ScopedCriticalRegion@ContextBase@details@Concurrency@@QAE@XZ 0045483a f i libconcrt:InternalContextBase.obj
 0001:00053875       ??_EInternalContextBase@details@Concurrency@@W3AEPAXI@Z 00454875 f i libconcrt:InternalContextBase.obj
 0001:0005387d       ??_EInternalContextBase@details@Concurrency@@UAEPAXI@Z 0045487d f i libconcrt:InternalContextBase.obj
 0001:0005387d       ??_GInternalContextBase@details@Concurrency@@UAEPAXI@Z 0045487d f i libconcrt:InternalContextBase.obj
 0001:000538a2       ?AddToRunnables@InternalContextBase@details@Concurrency@@MAEXVlocation@3@@Z 004548a2 f   libconcrt:InternalContextBase.obj
 0001:00053a22       ?Alloc@InternalContextBase@details@Concurrency@@UAEPAXI@Z 00454a22 f   libconcrt:InternalContextBase.obj
 0001:00053a79       ?Block@InternalContextBase@details@Concurrency@@UAEXXZ 00454a79 f   libconcrt:InternalContextBase.obj
 0001:00053bb5       ?Cancel@InternalContextBase@details@Concurrency@@MAEXXZ 00454bb5 f   libconcrt:InternalContextBase.obj
 0001:00053c2a       ?Cleanup@InternalContextBase@details@Concurrency@@IAEXXZ 00454c2a f   libconcrt:InternalContextBase.obj
 0001:00053c42       ?CleanupDispatchedContextOnCancel@InternalContextBase@details@Concurrency@@IAEXXZ 00454c42 f   libconcrt:InternalContextBase.obj
 0001:00053c5d       ?Dispatch@InternalContextBase@details@Concurrency@@UAEXPAUDispatchState@3@@Z 00454c5d f   libconcrt:InternalContextBase.obj
 0001:00053dfd       ?ExecuteChoreInline@InternalContextBase@details@Concurrency@@IAEXPAVWorkItem@23@@Z 00454dfd f   libconcrt:InternalContextBase.obj
 0001:00053e3a       ?ExecutedAssociatedChore@InternalContextBase@details@Concurrency@@IAE_NXZ 00454e3a f   libconcrt:InternalContextBase.obj
 0001:00053eae       ?FindWorkForBlockingOrNesting@InternalContextBase@details@Concurrency@@AAEPAV123@AA_N0@Z 00454eae f   libconcrt:InternalContextBase.obj
 0001:00053fdb       ?Free@InternalContextBase@details@Concurrency@@UAEXPAX@Z 00454fdb f   libconcrt:InternalContextBase.obj
 0001:00054007       ?GetAndResetOversubscribedVProc@InternalContextBase@details@Concurrency@@QAEPAVVirtualProcessor@23@PAV423@@Z 00455007 f   libconcrt:InternalContextBase.obj
 0001:00054034       ?GetId@InternalContextBase@details@Concurrency@@UBEIXZ 00455034 f   libconcrt:InternalContextBase.obj
 0001:00054038       ?GetId@InternalContextBase@details@Concurrency@@W3BEIXZ 00455038 f i libconcrt:InternalContextBase.obj
 0001:00054040       ?GetProcessorMaskId@details@Concurrency@@YAIPAVInternalContextBase@12@@Z 00455040 f   libconcrt:InternalContextBase.obj
 0001:00054054       ?GetProxy@InternalContextBase@details@Concurrency@@UAEPAUIThreadProxy@3@XZ 00455054 f   libconcrt:InternalContextBase.obj
 0001:0005405b       ?GetScheduler@InternalContextBase@details@Concurrency@@UAEPAUIScheduler@3@XZ 0045505b f   libconcrt:InternalContextBase.obj
 0001:00054074       ?GetVirtualProcessorId@InternalContextBase@details@Concurrency@@UBEIXZ 00455074 f   libconcrt:InternalContextBase.obj
 0001:000540a3       ?IsSynchronouslyBlocked@InternalContextBase@details@Concurrency@@UBE_NXZ 004550a3 f i libconcrt:InternalContextBase.obj
 0001:000540ab       ?IsVirtualProcessorRetired@InternalContextBase@details@Concurrency@@IAE_NXZ 004550ab f   libconcrt:InternalContextBase.obj
 0001:0005410c       ?LeaveScheduler@InternalContextBase@details@Concurrency@@AAEXXZ 0045510c f   libconcrt:InternalContextBase.obj
 0001:0005420e       ?Oversubscribe@InternalContextBase@details@Concurrency@@UAEX_N@Z 0045520e f   libconcrt:InternalContextBase.obj
 0001:00054294       ?PrepareForUse@InternalContextBase@details@Concurrency@@QAEXPAVScheduleGroupSegmentBase@23@PAU_Chore@23@_N@Z 00455294 f   libconcrt:InternalContextBase.obj
 0001:000542e7       ?PrepareToRun@InternalContextBase@details@Concurrency@@MAEXPAVVirtualProcessor@23@@Z 004552e7 f i libconcrt:InternalContextBase.obj
 0001:000542fe       ?ReclaimVirtualProcessor@InternalContextBase@details@Concurrency@@IAEXXZ 004552fe f   libconcrt:InternalContextBase.obj
 0001:00054371       ?RejoinScheduler@InternalContextBase@details@Concurrency@@AAEXXZ 00455371 f   libconcrt:InternalContextBase.obj
 0001:00054390       ?RemoveFromUse@InternalContextBase@details@Concurrency@@QAEXXZ 00455390 f   libconcrt:InternalContextBase.obj
 0001:000543b6       ?SearchForWork@VirtualProcessor@details@Concurrency@@QAE_NPAVWorkItem@23@PAVScheduleGroupSegmentBase@23@_N@Z 004553b6 f i libconcrt:InternalContextBase.obj
 0001:000543de       ?SetProxy@InternalContextBase@details@Concurrency@@UAEXPAUIThreadProxy@3@@Z 004553de f   libconcrt:InternalContextBase.obj
 0001:00054411       ?SpinUntilBlocked@InternalContextBase@details@Concurrency@@IAEXXZ 00455411 f   libconcrt:InternalContextBase.obj
 0001:00054443       ?SpinUntilValueEquals@details@Concurrency@@YAXPCJJ@Z 00455443 f i libconcrt:InternalContextBase.obj
 0001:00054477       ?SpinYield@InternalContextBase@details@Concurrency@@UAEXXZ 00455477 f   libconcrt:InternalContextBase.obj
 0001:0005453e       ?SwapScheduleGroupSegment@InternalContextBase@details@Concurrency@@QAEXPAVScheduleGroupSegmentBase@23@_N@Z 0045553e f   libconcrt:InternalContextBase.obj
 0001:00054589       ?SwitchOut@InternalContextBase@details@Concurrency@@IAE_NW4ReasonForSwitch@123@@Z 00455589 f   libconcrt:InternalContextBase.obj
 0001:000546cf       ?SwitchTo@InternalContextBase@details@Concurrency@@IAEXPAV123@W4ReasonForSwitch@123@@Z 004556cf f   libconcrt:InternalContextBase.obj
 0001:0005481e       ?Unblock@InternalContextBase@details@Concurrency@@UAEXXZ 0045581e f   libconcrt:InternalContextBase.obj
 0001:000548df       ?WaitForWork@InternalContextBase@details@Concurrency@@IAEXXZ 004558df f   libconcrt:InternalContextBase.obj
 0001:000549fe       ?WorkWasFound@InternalContextBase@details@Concurrency@@IAE_NPAVWorkItem@23@@Z 004559fe f   libconcrt:InternalContextBase.obj
 0001:00054a5d       ?Yield@InternalContextBase@details@Concurrency@@UAEXXZ 00455a5d f   libconcrt:InternalContextBase.obj
 0001:00054beb       ??0SchedulingRing@details@Concurrency@@QAE@PAVSchedulerBase@12@H@Z 00455beb f   libconcrt:SchedulingRing.obj
 0001:00054c7d       ??1?$ListArray@VScheduleGroupSegmentBase@details@Concurrency@@@details@Concurrency@@QAE@XZ 00455c7d f i libconcrt:SchedulingRing.obj
 0001:00054d20       ??1SchedulingRing@details@Concurrency@@QAE@XZ 00455d20 f   libconcrt:SchedulingRing.obj
 0001:00054d3b       ?Activate@SchedulingRing@details@Concurrency@@QAEXXZ 00455d3b f   libconcrt:SchedulingRing.obj
 0001:00054d47       ?CheckForDeletion@?$ListArray@VScheduleGroupSegmentBase@details@Concurrency@@@details@Concurrency@@AAEXXZ 00455d47 f i libconcrt:SchedulingRing.obj
 0001:00054d7c       ?CheckForDeletionBridge@?$ListArray@VScheduleGroupSegmentBase@details@Concurrency@@@details@Concurrency@@CAXPAV123@@Z 00455d7c f i libconcrt:SchedulingRing.obj
 0001:00054d88       ?Remove@?$ListArray@VScheduleGroupSegmentBase@details@Concurrency@@@details@Concurrency@@QAE_NPAVScheduleGroupSegmentBase@23@H_N@Z 00455d88 f i libconcrt:SchedulingRing.obj
 0001:00054e7c       ?RemoveScheduleGroupSegment@SchedulingRing@details@Concurrency@@AAEXPAVScheduleGroupSegmentBase@23@@Z 00455e7c f   libconcrt:SchedulingRing.obj
 0001:00054eab       ??IQuickBitSet@details@Concurrency@@QBE?AV012@ABV012@@Z 00455eab f i libconcrt:CacheLocalScheduleGroup.obj
 0001:00054ef8       ?AddToRunnablesCollection@CacheLocalScheduleGroupSegment@details@Concurrency@@EAEXPAVInternalContextBase@23@@Z 00455ef8 f   libconcrt:CacheLocalScheduleGroup.obj
 0001:00054ef8       ?AddToRunnablesCollection@FairScheduleGroupSegment@details@Concurrency@@EAEXPAVInternalContextBase@23@@Z 00455ef8 f   libconcrt:FairScheduleGroup.obj
 0001:00054f07       ?Enqueue@?$Mailbox@V_UnrealizedChore@details@Concurrency@@@details@Concurrency@@QAE?AVSlot@123@PAV_UnrealizedChore@23@@Z 00455f07 f i libconcrt:CacheLocalScheduleGroup.obj
 0001:00054f58       ?Enqueue@?$SafeSQueue@VInternalContextBase@details@Concurrency@@V_HyperNonReentrantLock@23@@details@Concurrency@@QAEXPAVInternalContextBase@23@@Z 00455f58 f i libconcrt:CacheLocalScheduleGroup.obj
 0001:00054fa1       ?InterlockedSet@QuickBitSet@details@Concurrency@@QAEXABV123@@Z 00455fa1 f i libconcrt:CacheLocalScheduleGroup.obj
 0001:00054fd9       ?MailChore@CacheLocalScheduleGroup@details@Concurrency@@UAE?AVSlot@?$Mailbox@V_UnrealizedChore@details@Concurrency@@@23@PAV_UnrealizedChore@23@PAVlocation@3@PAPAVScheduleGroupSegmentBase@23@@Z 00455fd9 f   libconcrt:CacheLocalScheduleGroup.obj
 0001:00055011       ?MailChore@CacheLocalScheduleGroupSegment@details@Concurrency@@QAE?AVSlot@?$Mailbox@V_UnrealizedChore@details@Concurrency@@@23@PAV_UnrealizedChore@23@@Z 00456011 f   libconcrt:CacheLocalScheduleGroup.obj
 0001:00055029       ?NotifyAffinitizedWork@CacheLocalScheduleGroupSegment@details@Concurrency@@UAEXXZ 00456029 f   libconcrt:CacheLocalScheduleGroup.obj
 0001:0005505c       ?PostAffinityMessage@SchedulerBase@details@Concurrency@@QAEXABVQuickBitSet@23@@Z 0045605c f i libconcrt:CacheLocalScheduleGroup.obj
 0001:0005509a       ?SetQuickCacheSlot@SchedulerBase@details@Concurrency@@QAEXIPAVScheduleGroupSegmentBase@23@@Z 0045609a f i libconcrt:CacheLocalScheduleGroup.obj
 0001:000550c0       ?FindSegment@FairScheduleGroup@details@Concurrency@@MAEPAVScheduleGroupSegmentBase@23@PAVlocation@3@PAVSchedulingRing@23@@Z 004560c0 f   libconcrt:FairScheduleGroup.obj
 0001:000550ef       ?LocateSegment@FairScheduleGroup@details@Concurrency@@UAEPAVScheduleGroupSegmentBase@23@PAVlocation@3@_N@Z 004560ef f   libconcrt:FairScheduleGroup.obj
 0001:00055157       ??0ExternalContextBase@details@Concurrency@@QAE@PAVSchedulerBase@12@_N@Z 00456157 f   libconcrt:ExternalContextBase.obj
 0001:000551f5       ??1ExternalContextBase@details@Concurrency@@UAE@XZ 004561f5 f   libconcrt:ExternalContextBase.obj
 0001:0005523f       ??_EExternalContextBase@details@Concurrency@@UAEPAXI@Z 0045623f f i libconcrt:ExternalContextBase.obj
 0001:0005523f       ??_GExternalContextBase@details@Concurrency@@UAEPAXI@Z 0045623f f i libconcrt:ExternalContextBase.obj
 0001:00055264       ?Alloc@ExternalContextBase@details@Concurrency@@UAEPAXI@Z 00456264 f   libconcrt:ExternalContextBase.obj
 0001:00055285       ?Block@ExternalContextBase@details@Concurrency@@UAEXXZ 00456285 f   libconcrt:ExternalContextBase.obj
 0001:000552db       ?Cleanup@ExternalContextBase@details@Concurrency@@AAEXXZ 004562db f   libconcrt:ExternalContextBase.obj
 0001:00055339       ?Free@ExternalContextBase@details@Concurrency@@UAEXPAX@Z 00456339 f   libconcrt:ExternalContextBase.obj
 0001:0005535e       ?GetCurrentSubAllocator@ExternalContextBase@details@Concurrency@@QAEPAVSubAllocator@23@XZ 0045635e f i libconcrt:ExternalContextBase.obj
 0001:0005537b       ?GetVirtualProcessorId@ExternalContextBase@details@Concurrency@@UBEIXZ 0045637b f i libconcrt:ExternalContextBase.obj
 0001:0005537f       ?ImplicitDetachHandler@ExternalContextBase@details@Concurrency@@CGXPAU_TP_CALLBACK_INSTANCE@@PAXPAU_TP_WAIT@@K@Z 0045637f f   libconcrt:ExternalContextBase.obj
 0001:000553a1       ?IsSynchronouslyBlocked@ExternalContextBase@details@Concurrency@@UBE_NXZ 004563a1 f i libconcrt:ExternalContextBase.obj
 0001:000553a9       ?Oversubscribe@ExternalContextBase@details@Concurrency@@UAEX_N@Z 004563a9 f   libconcrt:ExternalContextBase.obj
 0001:000553de       ?PrepareForUse@ExternalContextBase@details@Concurrency@@QAEX_N@Z 004563de f   libconcrt:ExternalContextBase.obj
 0001:00055486       ?RemoveFromUse@ExternalContextBase@details@Concurrency@@QAEXXZ 00456486 f   libconcrt:ExternalContextBase.obj
 0001:000554ab       ?SpinYield@ExternalContextBase@details@Concurrency@@UAEXXZ 004564ab f i libconcrt:ExternalContextBase.obj
 0001:000554c3       ?Unblock@ExternalContextBase@details@Concurrency@@UAEXXZ 004564c3 f   libconcrt:ExternalContextBase.obj
 0001:0005554b       ?Yield@ExternalContextBase@details@Concurrency@@UAEXXZ 0045654b f   libconcrt:ExternalContextBase.obj
 0001:00055586       ??0ThreadInternalContext@details@Concurrency@@QAE@PAVSchedulerBase@12@@Z 00456586 f i libconcrt:ThreadScheduler.obj
 0001:000555ac       ??0ThreadScheduler@details@Concurrency@@QAE@ABVSchedulerPolicy@2@@Z 004565ac f   libconcrt:ThreadScheduler.obj
 0001:000555dd       ??1ThreadScheduler@details@Concurrency@@UAE@XZ 004565dd f   libconcrt:ThreadScheduler.obj
 0001:000555f1       ??_EThreadInternalContext@details@Concurrency@@W3AEPAXI@Z 004565f1 f i libconcrt:ThreadScheduler.obj
 0001:000555f9       ??_EThreadScheduler@details@Concurrency@@W7AEPAXI@Z 004565f9 f i libconcrt:ThreadScheduler.obj
 0001:00055601       ??_EThreadInternalContext@details@Concurrency@@UAEPAXI@Z 00456601 f i libconcrt:ThreadScheduler.obj
 0001:00055601       ??_GThreadInternalContext@details@Concurrency@@UAEPAXI@Z 00456601 f i libconcrt:ThreadScheduler.obj
 0001:00055633       ??_EThreadScheduler@details@Concurrency@@UAEPAXI@Z 00456633 f i libconcrt:ThreadScheduler.obj
 0001:00055633       ??_GThreadScheduler@details@Concurrency@@UAEPAXI@Z 00456633 f i libconcrt:ThreadScheduler.obj
 0001:00055658       ?AddVirtualProcessors@ThreadScheduler@details@Concurrency@@UAEXPAPAUIVirtualProcessorRoot@3@I@Z 00456658 f i libconcrt:ThreadScheduler.obj
 0001:00055664       ?Create@ThreadScheduler@details@Concurrency@@SAPAV123@ABVSchedulerPolicy@3@@Z 00456664 f   libconcrt:ThreadScheduler.obj
 0001:00055697       ?CreateInternalContext@ThreadScheduler@details@Concurrency@@MAEPAVInternalContextBase@23@XZ 00456697 f   libconcrt:ThreadScheduler.obj
 0001:000556d0       ?CreateVirtualProcessor@ThreadScheduler@details@Concurrency@@UAEPAVVirtualProcessor@23@PAVSchedulingNode@23@PAUIVirtualProcessorRoot@3@@Z 004566d0 f   libconcrt:ThreadScheduler.obj
 0001:00055708       ?GetContextKind@ThreadInternalContext@details@Concurrency@@UBE?AW4ContextKind@ContextBase@23@XZ 00456708 f i libconcrt:ThreadScheduler.obj
 0001:00055708       __get_startup_argv_mode    00456708 f i LIBCMT:argv_mode.obj
 0001:0005570c       ?GetIScheduler@ThreadScheduler@details@Concurrency@@UAEPAUIScheduler@3@XZ 0045670c f i libconcrt:ThreadScheduler.obj
 0001:00055710       ?GetId@ThreadScheduler@details@Concurrency@@UBEIXZ 00456710 f i libconcrt:ThreadScheduler.obj
 0001:00055729       ?GetPolicy@ThreadScheduler@details@Concurrency@@UBE?AVSchedulerPolicy@3@XZ 00456729 f i libconcrt:ThreadScheduler.obj
 0001:0005573f       ?GetPolicy@ThreadScheduler@details@Concurrency@@W7BE?AVSchedulerPolicy@3@XZ 0045673f f i libconcrt:ThreadScheduler.obj
 0001:00055747       ?RemoveVirtualProcessors@ThreadScheduler@details@Concurrency@@UAEXPAPAUIVirtualProcessorRoot@3@I@Z 00456747 f i libconcrt:ThreadScheduler.obj
 0001:00055753       ?Statistics@ThreadScheduler@details@Concurrency@@UAEXPAI00@Z 00456753 f i libconcrt:ThreadScheduler.obj
 0001:0005575f       ??0ExecutionResource@details@Concurrency@@QAE@PAVSchedulerProxy@12@PAUSchedulerNode@12@I@Z 0045675f f   libconcrt:ExecutionResource.obj
 0001:000557be       ??0ExecutionResource@details@Concurrency@@QAE@PAVSchedulerProxy@12@PAV012@@Z 004567be f   libconcrt:ExecutionResource.obj
 0001:0005580d       ?CurrentSubscriptionLevel@ExecutionResource@details@Concurrency@@UBEIXZ 0045680d f   libconcrt:ExecutionResource.obj
 0001:0005581f       ?DecrementUseCounts@ExecutionResource@details@Concurrency@@QAEXXZ 0045681f f   libconcrt:ExecutionResource.obj
 0001:0005588c       ?GetExecutionResourceId@ExecutionResource@details@Concurrency@@UBEIXZ 0045688c f i libconcrt:ExecutionResource.obj
 0001:0005588c       ?GetNodeId@VirtualProcessorRoot@details@Concurrency@@UBEIXZ 0045688c f i libconcrt:VirtualProcessorRoot.obj
 0001:00055890       ?GetNodeId@ExecutionResource@details@Concurrency@@UBEIXZ 00456890 f i libconcrt:ExecutionResource.obj
 0001:00055894       ?IncrementUseCounts@ExecutionResource@details@Concurrency@@QAEXXZ 00456894 f   libconcrt:ExecutionResource.obj
 0001:0005595c       ?Remove@ExecutionResource@details@Concurrency@@UAEXPAUIScheduler@3@@Z 0045695c f   libconcrt:ExecutionResource.obj
 0001:000559bb       ?ResetCurrent@ExecutionResource@details@Concurrency@@QAEXXZ 004569bb f   libconcrt:ExecutionResource.obj
 0001:000559da       ?SetAsCurrent@ExecutionResource@details@Concurrency@@QAEXXZ 004569da f   libconcrt:ExecutionResource.obj
 0001:000559fd       ??$sign@N@details@Concurrency@@YANN@Z 004569fd f i libconcrt:HillClimbing.obj
 0001:00055a33       ??0HillClimbing@details@Concurrency@@QAE@IIPAVSchedulerProxy@12@@Z 00456a33 f   libconcrt:HillClimbing.obj
 0001:00055aca       ?CalculateThroughput@HillClimbing@details@Concurrency@@AAENIIII@Z 00456aca f   libconcrt:HillClimbing.obj
 0001:00055b15       ?CalculateThroughputGradient@HillClimbing@details@Concurrency@@AAENHH@Z 00456b15 f   libconcrt:HillClimbing.obj
 0001:00055c34       ?CoefficientOfVariationMean@MeasuredHistory@HillClimbing@details@Concurrency@@QAENXZ 00456c34 f   libconcrt:HillClimbing.obj
 0001:00055c94       ?EstablishControlSetting@HillClimbing@details@Concurrency@@AAEXI@Z 00456c94 f   libconcrt:HillClimbing.obj
 0001:00055cd8       ?FlushHistories@HillClimbing@details@Concurrency@@AAEXXZ 00456cd8 f   libconcrt:HillClimbing.obj
 0001:00055d24       ?GetHistory@HillClimbing@details@Concurrency@@AAEPAVMeasuredHistory@123@I@Z 00456d24 f   libconcrt:HillClimbing.obj
 0001:00055d54       ?GetRandomMove@HillClimbing@details@Concurrency@@AAEHXZ 00456d54 f   libconcrt:HillClimbing.obj
 0001:00055d6d       ?IsStableHistory@HillClimbing@details@Concurrency@@AAE_NPAVMeasuredHistory@123@@Z 00456d6d f   libconcrt:HillClimbing.obj
 0001:00055dac       ?Mean@MeasuredHistory@HillClimbing@details@Concurrency@@QAENXZ 00456dac f   libconcrt:HillClimbing.obj
 0001:00055ddc       ?RecommendControlSetting@HillClimbing@details@Concurrency@@AAEII@Z 00456ddc f   libconcrt:HillClimbing.obj
 0001:00055e59       ?Update@HillClimbing@details@Concurrency@@QAEIIIII@Z 00456e59 f   libconcrt:HillClimbing.obj
 0001:000560a8       ?Variance@MeasuredHistory@HillClimbing@details@Concurrency@@QAENXZ 004570a8 f   libconcrt:HillClimbing.obj
 0001:0005610a       ??0SchedulerProxy@details@Concurrency@@QAE@PAUIScheduler@2@PAVResourceManager@12@ABVSchedulerPolicy@2@@Z 0045710a f   libconcrt:SchedulerProxy.obj
 0001:0005637a       ??1SchedulerProxy@details@Concurrency@@IAE@XZ 0045737a f   libconcrt:SchedulerProxy.obj
 0001:000563dc       ?AddCore@SchedulerProxy@details@Concurrency@@QAEXPAUSchedulerNode@23@I_N@Z 004573dc f   libconcrt:SchedulerProxy.obj
 0001:000564ac       ?AddExecutionResource@SchedulerProxy@details@Concurrency@@QAEXPAVExecutionResource@23@@Z 004574ac f   libconcrt:SchedulerProxy.obj
 0001:00056500       ?AddTail@?$List@VExecutionResource@details@Concurrency@@VCount@CollectionTypes@23@@details@Concurrency@@QAEXPAVExecutionResource@23@@Z 00457500 f i libconcrt:SchedulerProxy.obj
 0001:00056539       ?AddThreadSubscription@SchedulerProxy@details@Concurrency@@QAEXPAVExecutionResource@23@@Z 00457539 f   libconcrt:SchedulerProxy.obj
 0001:00056548       ?AddVirtualProcessorRoots@SchedulerProxy@details@Concurrency@@QAEXPAPAUIVirtualProcessorRoot@3@I@Z 00457548 f   libconcrt:SchedulerProxy.obj
 0001:000565f6       ?AdjustAllocationIncrease@SchedulerProxy@details@Concurrency@@QBEII@Z 004575f6 f   libconcrt:SchedulerProxy.obj
 0001:0005666c       ?BindContext@SchedulerProxy@details@Concurrency@@UAEXPAUIExecutionContext@3@@Z 0045766c f   libconcrt:SchedulerProxy.obj
 0001:000566c8       ?Cleanup@SchedulerProxy@details@Concurrency@@IAEXXZ 004576c8 f   libconcrt:SchedulerProxy.obj
 0001:00056791       ?CreateExternalThreadResource@SchedulerProxy@details@Concurrency@@QAEPAVExecutionResource@23@PAUSchedulerNode@23@I@Z 00457791 f   libconcrt:SchedulerProxy.obj
 0001:000567db       ?CreateOversubscriber@SchedulerProxy@details@Concurrency@@UAEPAUIVirtualProcessorRoot@3@PAUIExecutionResource@3@@Z 004577db f   libconcrt:SchedulerProxy.obj
 0001:0005689c       ?CreateVirtualProcessorRoot@SchedulerProxy@details@Concurrency@@UAEPAVVirtualProcessorRoot@23@PAUSchedulerNode@23@I@Z 0045789c f   libconcrt:SchedulerProxy.obj
 0001:000568d4       ?DecrementCoreSubscription@SchedulerProxy@details@Concurrency@@QAEXPAVExecutionResource@23@@Z 004578d4 f   libconcrt:SchedulerProxy.obj
 0001:0005691e       ?DecrementFixedCoreCount@SchedulerProxy@details@Concurrency@@QAEXII_N@Z 0045791e f   libconcrt:SchedulerProxy.obj
 0001:00056998       ?DeleteThis@SchedulerProxy@details@Concurrency@@MAEXXZ 00457998 f i libconcrt:SchedulerProxy.obj
 0001:000569b3       ?DestroyExecutionResource@SchedulerProxy@details@Concurrency@@QAEXPAVExecutionResource@23@@Z 004579b3 f   libconcrt:SchedulerProxy.obj
 0001:00056a54       ?DestroyVirtualProcessorRoot@SchedulerProxy@details@Concurrency@@QAEXPAVVirtualProcessorRoot@23@@Z 00457a54 f   libconcrt:SchedulerProxy.obj
 0001:00056ae9       ?FinalShutdown@SchedulerProxy@details@Concurrency@@UAEXXZ 00457ae9 f   libconcrt:SchedulerProxy.obj
 0001:00056b06       ?GetCurrentThreadExecutionResource@SchedulerProxy@details@Concurrency@@QAEPAVExecutionResource@23@XZ 00457b06 f   libconcrt:SchedulerProxy.obj
 0001:00056b22       ?GetNewThreadProxy@SchedulerProxy@details@Concurrency@@UAEPAUIThreadProxy@3@PAUIExecutionContext@3@@Z 00457b22 f   libconcrt:SchedulerProxy.obj
 0001:00056b72       ?GetResourceForNewSubscription@SchedulerProxy@details@Concurrency@@QAEPAVExecutionResource@23@PAV423@@Z 00457b72 f   libconcrt:SchedulerProxy.obj
 0001:00056bc3       ?GrantAllocation@SchedulerProxy@details@Concurrency@@QAEPAVExecutionResource@23@I_N0@Z 00457bc3 f   libconcrt:SchedulerProxy.obj
 0001:00056ecd       ?IncrementCoreSubscription@SchedulerProxy@details@Concurrency@@QAEXPAVExecutionResource@23@@Z 00457ecd f   libconcrt:SchedulerProxy.obj
 0001:00056f1b       ?IncrementFixedCoreCount@SchedulerProxy@details@Concurrency@@QAEXII_N@Z 00457f1b f   libconcrt:SchedulerProxy.obj
 0001:00056f9c       ?ReferenceCurrentThreadExecutionResource@SchedulerProxy@details@Concurrency@@QAEPAVExecutionResource@23@XZ 00457f9c f   libconcrt:SchedulerProxy.obj
 0001:00056fec       ?Remove@?$List@VExecutionResource@details@Concurrency@@VCount@CollectionTypes@23@@details@Concurrency@@QAEXPAVExecutionResource@23@@Z 00457fec f i libconcrt:SchedulerProxy.obj
 0001:00057022       ?RemoveCore@SchedulerProxy@details@Concurrency@@QAEXPAUSchedulerNode@23@I@Z 00458022 f   libconcrt:SchedulerProxy.obj
 0001:00057111       ?RemoveThreadSubscription@SchedulerProxy@details@Concurrency@@QAEXPAVExecutionResource@23@@Z 00458111 f   libconcrt:SchedulerProxy.obj
 0001:0005713d       ?RequestInitialVirtualProcessors@SchedulerProxy@details@Concurrency@@UAEPAUIExecutionResource@3@_N@Z 0045813d f   libconcrt:SchedulerProxy.obj
 0001:00057150       ?SendCoreNotification@SchedulerProxy@details@Concurrency@@QAEXPAUSchedulerCore@23@_N@Z 00458150 f   libconcrt:SchedulerProxy.obj
 0001:00057238       ?Shutdown@SchedulerProxy@details@Concurrency@@UAEXXZ 00458238 f   libconcrt:SchedulerProxy.obj
 0001:00057242       ?SubscribeCurrentThread@SchedulerProxy@details@Concurrency@@UAEPAUIExecutionResource@3@XZ 00458242 f   libconcrt:SchedulerProxy.obj
 0001:0005724c       ?ToggleBorrowedState@SchedulerProxy@details@Concurrency@@QAEXPAUSchedulerNode@23@I@Z 0045824c f   libconcrt:SchedulerProxy.obj
 0001:00057290       ?UnbindContext@SchedulerProxy@details@Concurrency@@UAEXPAUIExecutionContext@3@@Z 00458290 f   libconcrt:SchedulerProxy.obj
 0001:000572d9       ?Initialize@WinRT@details@Concurrency@@SAXXZ 004582d9 f   libconcrt:WinRTWrapper.obj
 0001:00057370       ?RoInitialize@WinRT@details@Concurrency@@SAJW4RO_INIT_TYPE@@@Z 00458370 f   libconcrt:WinRTWrapper.obj
 0001:00057392       ?RoUninitialize@WinRT@details@Concurrency@@SAXXZ 00458392 f   libconcrt:WinRTWrapper.obj
 0001:000573ad       ??0?$ThreadProxyFactory@VFreeThreadProxy@details@Concurrency@@@details@Concurrency@@IAE@PAVThreadProxyFactoryManager@12@@Z 004583ad f i libconcrt:ThreadProxyFactoryManager.obj
 0001:000573ec       ??0FreeThreadProxy@details@Concurrency@@QAE@PAUIThreadProxyFactory@12@I@Z 004583ec f i libconcrt:ThreadProxyFactoryManager.obj
 0001:00057426       ??0FreeThreadProxyFactory@details@Concurrency@@IAE@PAVThreadProxyFactoryManager@12@@Z 00458426 f i libconcrt:ThreadProxyFactoryManager.obj
 0001:00057450       ??0ThreadProxyFactoryManager@details@Concurrency@@QAE@XZ 00458450 f   libconcrt:ThreadProxyFactoryManager.obj
 0001:00057486       ??1IThreadProxyFactory@details@Concurrency@@UAE@XZ 00458486 f i libconcrt:ThreadProxyFactoryManager.obj
 0001:0005748d       ??1ThreadProxyFactoryManager@details@Concurrency@@QAE@XZ 0045848d f   libconcrt:ThreadProxyFactoryManager.obj
 0001:000574f1       ??_E?$ThreadProxyFactory@VFreeThreadProxy@details@Concurrency@@@details@Concurrency@@UAEPAXI@Z 004584f1 f i libconcrt:ThreadProxyFactoryManager.obj
 0001:000574f1       ??_G?$ThreadProxyFactory@VFreeThreadProxy@details@Concurrency@@@details@Concurrency@@UAEPAXI@Z 004584f1 f i libconcrt:ThreadProxyFactoryManager.obj
 0001:00057514       ??_EFreeThreadProxy@details@Concurrency@@UAEPAXI@Z 00458514 f i libconcrt:ThreadProxyFactoryManager.obj
 0001:00057514       ??_GFreeThreadProxy@details@Concurrency@@UAEPAXI@Z 00458514 f i libconcrt:ThreadProxyFactoryManager.obj
 0001:0005753c       ??_EFreeThreadProxyFactory@details@Concurrency@@UAEPAXI@Z 0045853c f i libconcrt:ThreadProxyFactoryManager.obj
 0001:0005753c       ??_GFreeThreadProxyFactory@details@Concurrency@@UAEPAXI@Z 0045853c f i libconcrt:ThreadProxyFactoryManager.obj
 0001:0005755f       ??_EIThreadProxyFactory@details@Concurrency@@UAEPAXI@Z 0045855f f i libconcrt:ThreadProxyFactoryManager.obj
 0001:0005755f       ??_GIThreadProxyFactory@details@Concurrency@@UAEPAXI@Z 0045855f f i libconcrt:ThreadProxyFactoryManager.obj
 0001:00057582       ?Create@FreeThreadProxyFactory@details@Concurrency@@EAEPAVFreeThreadProxy@23@I@Z 00458582 f i libconcrt:ThreadProxyFactoryManager.obj
 0001:000575b7       ?CreateFactory@FreeThreadProxyFactory@details@Concurrency@@SAPAV123@PAVThreadProxyFactoryManager@23@@Z 004585b7 f i libconcrt:ThreadProxyFactoryManager.obj
 0001:000575ec       ?GetExecutionResourceTls@?$ThreadProxyFactory@VFreeThreadProxy@details@Concurrency@@@details@Concurrency@@UAEKXZ 004585ec f i libconcrt:ThreadProxyFactoryManager.obj
 0001:000575f0       ?GetFreeThreadProxyFactory@ThreadProxyFactoryManager@details@Concurrency@@QAEPAVFreeThreadProxyFactory@23@XZ 004585f0 f   libconcrt:ThreadProxyFactoryManager.obj
 0001:0005763b       ?Prepare@?$ThreadProxyFactory@VFreeThreadProxy@details@Concurrency@@@details@Concurrency@@MAEXPAVFreeThreadProxy@23@H@Z 0045863b f i libconcrt:ThreadProxyFactoryManager.obj
 0001:00057653       ?ReclaimProxy@?$ThreadProxyFactory@VFreeThreadProxy@details@Concurrency@@@details@Concurrency@@UAEXPAUIThreadProxy@3@@Z 00458653 f i libconcrt:ThreadProxyFactoryManager.obj
 0001:000576b4       ?ReclaimProxy@FreeThreadProxyFactory@details@Concurrency@@UAEXPAUIThreadProxy@3@@Z 004586b4 f i libconcrt:ThreadProxyFactoryManager.obj
 0001:00057757       ?Reference@FreeThreadProxyFactory@details@Concurrency@@UAEJXZ 00458757 f i libconcrt:ThreadProxyFactoryManager.obj
 0001:00057761       ?Release@FreeThreadProxyFactory@details@Concurrency@@UAEJXZ 00458761 f i libconcrt:ThreadProxyFactoryManager.obj
 0001:0005778e       ?RequestProxy@?$ThreadProxyFactory@VFreeThreadProxy@details@Concurrency@@@details@Concurrency@@UAEPAUIThreadProxy@3@IH@Z 0045878e f i libconcrt:ThreadProxyFactoryManager.obj
 0001:00057810       ?Retire@FreeThreadProxyFactory@details@Concurrency@@EAEXPAVFreeThreadProxy@23@@Z 00458810 f i libconcrt:ThreadProxyFactoryManager.obj
 0001:0005781f       ?RetireThreadProxies@?$ThreadProxyFactory@VFreeThreadProxy@details@Concurrency@@@details@Concurrency@@QAEXXZ 0045881f f i libconcrt:ThreadProxyFactoryManager.obj
 0001:0005788b       ?ShutdownFactory@FreeThreadProxyFactory@details@Concurrency@@UAEXXZ 0045888b f i libconcrt:ThreadProxyFactoryManager.obj
 0001:000578ac       ?StaticInitialize@?$ThreadProxyFactory@VFreeThreadProxy@details@Concurrency@@@details@Concurrency@@KAXXZ 004588ac f i libconcrt:ThreadProxyFactoryManager.obj
 0001:000578c3       ?YieldToSystem@FreeThreadProxy@details@Concurrency@@UAEXXZ 004588c3 f i libconcrt:ThreadProxyFactoryManager.obj
 0001:000578c8       ??0location@Concurrency@@QAE@W4_Type@01@IIPAX@Z 004588c8 f   libconcrt:location.obj
 0001:000578ed       ?ContainsResourceId@SchedulingNode@details@Concurrency@@QAE_NI@Z 004588ed f i libconcrt:location.obj
 0001:00057917       ?_FastNodeIntersects@location@Concurrency@@QBE_NABV12@@Z 00458917 f   libconcrt:location.obj
 0001:00057962       ?_FastVPIntersects@location@Concurrency@@QBE_NABV12@@Z 00458962 f   libconcrt:location.obj
 0001:000579ae       ??0WorkItem@details@Concurrency@@QAE@PAVInternalContextBase@12@@Z 004589ae f   libconcrt:SearchAlgorithms.obj
 0001:000579d4       ?AcquireQuickCacheSlot@SchedulerBase@details@Concurrency@@QAEPAVScheduleGroupSegmentBase@23@I@Z 004589d4 f i libconcrt:SearchAlgorithms.obj
 0001:000579f2       ?ActualGetQuickCacheSlot@SchedulerBase@details@Concurrency@@AAEPAVScheduleGroupSegmentBase@23@I@Z 004589f2 f i libconcrt:SearchAlgorithms.obj
 0001:00057a28       ?Bind@WorkItem@details@Concurrency@@QAEPAVInternalContextBase@23@XZ 00458a28 f   libconcrt:SearchAlgorithms.obj
 0001:00057a75       ?BindTo@WorkItem@details@Concurrency@@QAEXPAVInternalContextBase@23@@Z 00458a75 f   libconcrt:SearchAlgorithms.obj
 0001:00057aaf       ?CheckPriorityList@WorkSearchContext@details@Concurrency@@AAE_N_K@Z 00458aaf f i libconcrt:SearchAlgorithms.obj
 0001:00057ae2       ?GetLocalRunnable@WorkSearchContext@details@Concurrency@@AAE_NPAVWorkItem@23@PAVVirtualProcessor@23@_N@Z 00458ae2 f   libconcrt:SearchAlgorithms.obj
 0001:00057b5c       ?GetNextSchedulingNode@SchedulerBase@details@Concurrency@@QAEPAVSchedulingNode@23@PAHH@Z 00458b5c f i libconcrt:SearchAlgorithms.obj
 0001:00057ba9       ?GetPseudoRRAffineScheduleGroupSegment@SchedulingRing@details@Concurrency@@QAEPAVScheduleGroupSegmentBase@23@PAH@Z 00458ba9 f i libconcrt:SearchAlgorithms.obj
 0001:00057be4       ?GetPseudoRRNonAffineScheduleGroupSegment@SchedulingRing@details@Concurrency@@QAEPAVScheduleGroupSegmentBase@23@PAH@Z 00458be4 f i libconcrt:SearchAlgorithms.obj
 0001:00057c22       ?GetRealizedChore@WorkSearchContext@details@Concurrency@@AAE_NPAVWorkItem@23@PAVScheduleGroupSegmentBase@23@_N@Z 00458c22 f   libconcrt:SearchAlgorithms.obj
 0001:00057c72       ?GetRealizedChoreWithinGroup@WorkSearchContext@details@Concurrency@@AAE_NPAVWorkItem@23@PAVScheduleGroupSegmentBase@23@_NW4SearchAffinity@123@2@Z 00458c72 f   libconcrt:SearchAlgorithms.obj
 0001:00057cf5       ?GetRunnableContext@WorkSearchContext@details@Concurrency@@AAE_NPAVWorkItem@23@PAVScheduleGroupSegmentBase@23@@Z 00458cf5 f   libconcrt:SearchAlgorithms.obj
 0001:00057d32       ?GetRunnableContextWithinGroup@WorkSearchContext@details@Concurrency@@AAE_NPAVWorkItem@23@PAVScheduleGroupSegmentBase@23@W4SearchAffinity@123@_N@Z 00458d32 f   libconcrt:SearchAlgorithms.obj
 0001:00057daf       ?GetUnrealizedChore@WorkSearchContext@details@Concurrency@@AAE_NPAVWorkItem@23@PAVScheduleGroupSegmentBase@23@_N2@Z 00458daf f   libconcrt:SearchAlgorithms.obj
 0001:00057df8       ?GetUnrealizedChoreWithinGroup@WorkSearchContext@details@Concurrency@@AAE_NPAVWorkItem@23@PAVScheduleGroupSegmentBase@23@_NW4SearchAffinity@123@2@Z 00458df8 f   libconcrt:SearchAlgorithms.obj
 0001:00057e88       ?Invoke@WorkItem@details@Concurrency@@QAEXXZ 00458e88 f   libconcrt:SearchAlgorithms.obj
 0001:00057ecb       ?PeriodicScan@SchedulerBase@details@Concurrency@@QAEX_K@Z 00458ecb f i libconcrt:SearchAlgorithms.obj
 0001:00057f01       ?PreSearch@WorkSearchContext@details@Concurrency@@AAE_NPAVWorkItem@23@@Z 00458f01 f   libconcrt:SearchAlgorithms.obj
 0001:00057f3d       ?QuickSearch@WorkSearchContext@details@Concurrency@@AAE_NPAVScheduleGroupSegmentBase@23@PAVWorkItem@23@_NK@Z 00458f3d f   libconcrt:SearchAlgorithms.obj
 0001:00057fad       ?QuickSearchYield@WorkSearchContext@details@Concurrency@@AAE_NPAVScheduleGroupSegmentBase@23@PAVWorkItem@23@_NK@Z 00458fad f   libconcrt:SearchAlgorithms.obj
 0001:0005801e       ?Reset@WorkSearchContext@details@Concurrency@@QAEXPAVVirtualProcessor@23@W4Algorithm@123@@Z 0045901e f   libconcrt:SearchAlgorithms.obj
 0001:0005807b       ?ResolveToken@WorkItem@details@Concurrency@@QAE_NXZ 0045907b f   libconcrt:SearchAlgorithms.obj
 0001:000580fc       ?SearchCacheLocal@WorkSearchContext@details@Concurrency@@AAE_NPAVWorkItem@23@PAVScheduleGroupSegmentBase@23@_NK@Z 004590fc f   libconcrt:SearchAlgorithms.obj
 0001:000583c4       ?SearchCacheLocalYield@WorkSearchContext@details@Concurrency@@AAE_NPAVWorkItem@23@PAVScheduleGroupSegmentBase@23@_NK@Z 004593c4 f   libconcrt:SearchAlgorithms.obj
 0001:00058622       ?SearchCacheLocal_Realized@WorkSearchContext@details@Concurrency@@AAE_NPAVWorkItem@23@PAVSchedulingRing@23@PAVScheduleGroupSegmentBase@23@_NW4SearchAffinity@123@K3@Z 00459622 f   libconcrt:SearchAlgorithms.obj
 0001:00058712       ?SearchCacheLocal_Runnables@WorkSearchContext@details@Concurrency@@AAE_NPAVWorkItem@23@PAVSchedulingRing@23@PAVScheduleGroupSegmentBase@23@_NW4SearchAffinity@123@K3@Z 00459712 f   libconcrt:SearchAlgorithms.obj
 0001:0005881a       ?SearchCacheLocal_Unrealized@WorkSearchContext@details@Concurrency@@AAE_NPAVWorkItem@23@PAVSchedulingRing@23@PAVScheduleGroupSegmentBase@23@_NW4SearchAffinity@123@K3@Z 0045981a f   libconcrt:SearchAlgorithms.obj
 0001:0005890d       ?SearchFair@WorkSearchContext@details@Concurrency@@AAE_NPAVWorkItem@23@PAVScheduleGroupSegmentBase@23@_NK@Z 0045990d f   libconcrt:SearchAlgorithms.obj
 0001:00058a1f       ?SearchFairYield@WorkSearchContext@details@Concurrency@@AAE_NPAVWorkItem@23@PAVScheduleGroupSegmentBase@23@_NK@Z 00459a1f f   libconcrt:SearchAlgorithms.obj
 0001:00058b27       ?SearchFair_Realized@WorkSearchContext@details@Concurrency@@AAE_NPAVWorkItem@23@PAVSchedulingRing@23@_N@Z 00459b27 f   libconcrt:SearchAlgorithms.obj
 0001:00058bd2       ?SearchFair_Runnables@WorkSearchContext@details@Concurrency@@AAE_NPAVWorkItem@23@PAVSchedulingRing@23@@Z 00459bd2 f   libconcrt:SearchAlgorithms.obj
 0001:00058c53       ?SearchFair_Unrealized@WorkSearchContext@details@Concurrency@@AAE_NPAVWorkItem@23@PAVSchedulingRing@23@_N@Z 00459c53 f   libconcrt:SearchAlgorithms.obj
 0001:00058cf8       ?ServiceMark@ScheduleGroupSegmentBase@details@Concurrency@@QAEX_K@Z 00459cf8 f i libconcrt:SearchAlgorithms.obj
 0001:00058d1e       ?ServiceMark@VirtualProcessor@details@Concurrency@@QAEX_K@Z 00459d1e f i libconcrt:SearchAlgorithms.obj
 0001:00058d44       ?SkipSegmentSearch@WorkSearchContext@details@Concurrency@@AAE_NPAVScheduleGroupSegmentBase@23@0W4SearchAffinity@123@_N@Z 00459d44 f   libconcrt:SearchAlgorithms.obj
 0001:00058dd0       ?StealForeignLocalRunnable@WorkSearchContext@details@Concurrency@@AAE_NPAVWorkItem@23@PAVSchedulingNode@23@@Z 00459dd0 f   libconcrt:SearchAlgorithms.obj
 0001:00058e15       ?StealLocalRunnable@WorkSearchContext@details@Concurrency@@AAE_NPAVWorkItem@23@PAVSchedulingNode@23@PAVVirtualProcessor@23@@Z 00459e15 f   libconcrt:SearchAlgorithms.obj
 0001:00058e84       ?StealLocalRunnableContext@VirtualProcessor@details@Concurrency@@AAEPAVInternalContextBase@23@XZ 00459e84 f i libconcrt:SearchAlgorithms.obj
 0001:00058e9b       ?TransferReferences@WorkItem@details@Concurrency@@QAEXPAVInternalContextBase@23@@Z 00459e9b f   libconcrt:SearchAlgorithms.obj
 0001:00058ee8       ?Invoke@RealizedChore@details@Concurrency@@QAEXXZ 00459ee8 f   libconcrt:RealizedChore.obj
 0001:00058efc       ??0ThreadVirtualProcessor@details@Concurrency@@QAE@PAVSchedulingNode@12@PAUIVirtualProcessorRoot@2@@Z 00459efc f   libconcrt:ThreadVirtualProcessor.obj
 0001:00058f36       ??_EThreadVirtualProcessor@details@Concurrency@@UAEPAXI@Z 00459f36 f i libconcrt:ThreadVirtualProcessor.obj
 0001:00058f36       ??_GThreadVirtualProcessor@details@Concurrency@@UAEPAXI@Z 00459f36 f i libconcrt:ThreadVirtualProcessor.obj
 0001:00058f61       ??0VirtualProcessorRoot@details@Concurrency@@QAE@PAVSchedulerProxy@12@PAUSchedulerNode@12@I@Z 00459f61 f   libconcrt:VirtualProcessorRoot.obj
 0001:00058fa9       ??_EVirtualProcessorRoot@details@Concurrency@@UAEPAXI@Z 00459fa9 f i libconcrt:VirtualProcessorRoot.obj
 0001:00058fa9       ??_GVirtualProcessorRoot@details@Concurrency@@UAEPAXI@Z 00459fa9 f i libconcrt:VirtualProcessorRoot.obj
 0001:00058fd3       ?CurrentSubscriptionLevel@VirtualProcessorRoot@details@Concurrency@@UBEIXZ 00459fd3 f i libconcrt:VirtualProcessorRoot.obj
 0001:00058fdb       ?GetExecutionResourceId@VirtualProcessorRoot@details@Concurrency@@UBEIXZ 00459fdb f i libconcrt:VirtualProcessorRoot.obj
 0001:00058fdf       ?GetId@VirtualProcessorRoot@details@Concurrency@@UBEIXZ 00459fdf f i libconcrt:VirtualProcessorRoot.obj
 0001:00058fe3       ?Remove@VirtualProcessorRoot@details@Concurrency@@UAEXPAUIScheduler@3@@Z 00459fe3 f   libconcrt:VirtualProcessorRoot.obj
 0001:0005903b       ?ResetSubscriptionLevel@VirtualProcessorRoot@details@Concurrency@@QAEXXZ 0045a03b f   libconcrt:VirtualProcessorRoot.obj
 0001:00059051       ?Subscribe@VirtualProcessorRoot@details@Concurrency@@QAEXXZ 0045a051 f   libconcrt:VirtualProcessorRoot.obj
 0001:0005905e       ?Unsubscribe@VirtualProcessorRoot@details@Concurrency@@QAEXXZ 0045a05e f   libconcrt:VirtualProcessorRoot.obj
 0001:0005906b       ??0FreeVirtualProcessorRoot@details@Concurrency@@QAE@PAVSchedulerProxy@12@PAUSchedulerNode@12@I@Z 0045a06b f   libconcrt:FreeVirtualProcessorRoot.obj
 0001:0005909e       ??8HardwareAffinity@details@Concurrency@@QAE_NABU012@@Z 0045a09e f i libconcrt:FreeVirtualProcessorRoot.obj
 0001:000590be       ??_EFreeVirtualProcessorRoot@details@Concurrency@@UAEPAXI@Z 0045a0be f i libconcrt:FreeVirtualProcessorRoot.obj
 0001:000590be       ??_GFreeVirtualProcessorRoot@details@Concurrency@@UAEPAXI@Z 0045a0be f i libconcrt:FreeVirtualProcessorRoot.obj
 0001:000590e8       ?AcquireActivatedContext@VirtualProcessorRoot@details@Concurrency@@QAEPAUIExecutionContext@3@XZ 0045a0e8 f i libconcrt:FreeVirtualProcessorRoot.obj
 0001:0005911d       ?Activate@FreeVirtualProcessorRoot@details@Concurrency@@UAEXPAUIExecutionContext@3@@Z 0045a11d f   libconcrt:FreeVirtualProcessorRoot.obj
 0001:000591dc       ?Affinitize@FreeVirtualProcessorRoot@details@Concurrency@@QAEXPAVFreeThreadProxy@23@@Z 0045a1dc f   libconcrt:FreeVirtualProcessorRoot.obj
 0001:00059243       ?Deactivate@FreeVirtualProcessorRoot@details@Concurrency@@UAE_NPAUIExecutionContext@3@@Z 0045a243 f   libconcrt:FreeVirtualProcessorRoot.obj
 0001:000592d1       ?DeleteThis@FreeVirtualProcessorRoot@details@Concurrency@@UAEXXZ 0045a2d1 f   libconcrt:FreeVirtualProcessorRoot.obj
 0001:00059322       ?EnsureAllTasksVisible@FreeVirtualProcessorRoot@details@Concurrency@@UAEXPAUIExecutionContext@3@@Z 0045a322 f   libconcrt:FreeVirtualProcessorRoot.obj
 0001:0005938d       ?ResetOnIdle@FreeVirtualProcessorRoot@details@Concurrency@@QAEXW4SwitchingProxyState@3@@Z 0045a38d f   libconcrt:FreeVirtualProcessorRoot.obj
 0001:000593fa       ?SetAffinity@FreeThreadProxy@details@Concurrency@@QAEXUHardwareAffinity@23@@Z 0045a3fa f i libconcrt:FreeVirtualProcessorRoot.obj
 0001:00059430       ?SpinUntilIdle@FreeVirtualProcessorRoot@details@Concurrency@@IAEXXZ 0045a430 f i libconcrt:FreeVirtualProcessorRoot.obj
 0001:00059464       ?AssociateExecutionContext@FreeThreadProxy@details@Concurrency@@QAEXPAUIExecutionContext@3@@Z 0045a464 f   libconcrt:FreeThreadProxy.obj
 0001:00059487       ?Dispatch@FreeThreadProxy@details@Concurrency@@EAEXXZ 0045a487 f   libconcrt:FreeThreadProxy.obj
 0001:00059530       ?ReturnIdleProxy@FreeThreadProxy@details@Concurrency@@QAEXXZ 0045a530 f   libconcrt:FreeThreadProxy.obj
 0001:00059551       ?SwitchOut@FreeThreadProxy@details@Concurrency@@UAEXW4SwitchingProxyState@3@@Z 0045a551 f   libconcrt:FreeThreadProxy.obj
 0001:000595a5       ?SwitchTo@FreeThreadProxy@details@Concurrency@@UAEXPAUIExecutionContext@3@W4SwitchingProxyState@3@@Z 0045a5a5 f   libconcrt:FreeThreadProxy.obj
 0001:00059664       ??0ThreadProxy@details@Concurrency@@QAE@PAUIThreadProxyFactory@12@I@Z 0045a664 f   libconcrt:ThreadProxy.obj
 0001:0005973f       ??0scheduler_worker_creation_error@Concurrency@@QAE@ABV01@@Z 0045a73f f i libconcrt:ThreadProxy.obj
 0001:0005975a       ??1ThreadProxy@details@Concurrency@@UAE@XZ 0045a75a f   libconcrt:ThreadProxy.obj
 0001:000597c0       ??_EThreadProxy@details@Concurrency@@UAEPAXI@Z 0045a7c0 f i libconcrt:ThreadProxy.obj
 0001:000597c0       ??_GThreadProxy@details@Concurrency@@UAEPAXI@Z 0045a7c0 f i libconcrt:ThreadProxy.obj
 0001:000597e2       ?Cancel@ThreadProxy@details@Concurrency@@QAEXXZ 0045a7e2 f   libconcrt:ThreadProxy.obj
 0001:000597f3       ?GetId@ThreadProxy@details@Concurrency@@UBEIXZ 0045a7f3 f   libconcrt:ThreadProxy.obj
 0001:000597f7       ?ResumeExecution@ThreadProxy@details@Concurrency@@QAEXXZ 0045a7f7 f   libconcrt:ThreadProxy.obj
 0001:00059801       ?SetPriority@ThreadProxy@details@Concurrency@@QAEXH@Z 0045a801 f   libconcrt:ThreadProxy.obj
 0001:00059819       ?SpinUntilBlocked@ThreadProxy@details@Concurrency@@QAEXXZ 0045a819 f   libconcrt:ThreadProxy.obj
 0001:0005984b       ?SuspendExecution@ThreadProxy@details@Concurrency@@QAEXXZ 0045a84b f   libconcrt:ThreadProxy.obj
 0001:00059867       ?ThreadProxyMain@ThreadProxy@details@Concurrency@@CGKPAX@Z 0045a867 f   libconcrt:ThreadProxy.obj
 0001:000598b7       ??2@YAPAXI@Z               0045a8b7 f   LIBCMT:new_scalar.obj
 0001:000598e7       ??2@YAPAXIW4align_val_t@std@@@Z 0045a8e7 f   LIBCMT:new_scalar_align.obj
 0001:0005991b       ??3@YAXPAXI@Z              0045a91b f   LIBCMT:delete_scalar_size.obj
 0001:00059929       ??3@YAXPAXIW4align_val_t@std@@@Z 0045a929 f   LIBCMT:delete_scalar_size_align.obj
 0001:0005993b       ??_U@YAPAXI@Z              0045a93b f   LIBCMT:new_array.obj
 0001:00059944       ??_V@YAXPAXI@Z             0045a944 f   LIBCMT:delete_array_size.obj
 0001:00059960       __alloca_probe_16          0045a960 f   LIBCMT:alloca16.obj
 0001:00059976       __alloca_probe_8           0045a976     LIBCMT:alloca16.obj
 0001:00059990       __allshl                   0045a990 f   LIBCMT:llshl.obj
 0001:000599b0       __aulldvrm                 0045a9b0 f   LIBCMT:ulldvrm.obj
 0001:00059a50       __aullshr                  0045aa50 f   LIBCMT:ullshr.obj
 0001:00059a6f       ??_Etype_info@@UAEPAXI@Z   0045aa6f f i LIBCMT:std_type_info_static.obj
 0001:00059a6f       ??_Gtype_info@@UAEPAXI@Z   0045aa6f f i LIBCMT:std_type_info_static.obj
 0001:00059a92       ??3@YAXPAX@Z               0045aa92 f   LIBCMT:delete_scalar.obj
 0001:00059a97       ??2@YAPAXIABUnothrow_t@std@@@Z 0045aa97 f   LIBCMT:new_scalar_nothrow.obj
 0001:00059af0       __alloca_probe             0045aaf0 f   LIBCMT:chkstk.obj
 0001:00059af0       __chkstk                   0045aaf0 f   LIBCMT:chkstk.obj
 0001:00059b5d       ___scrt_acquire_startup_lock 0045ab5d f   LIBCMT:utility.obj
 0001:00059b8f       ___scrt_initialize_crt     0045ab8f f   LIBCMT:utility.obj
 0001:00059bc8       ___scrt_initialize_onexit_tables 0045abc8 f   LIBCMT:utility.obj
 0001:00059c4f       ___scrt_is_nonwritable_in_current_image 0045ac4f f   LIBCMT:utility.obj
 0001:00059ce6       ___scrt_release_startup_lock 0045ace6 f   LIBCMT:utility.obj
 0001:00059d03       ___scrt_uninitialize_crt   0045ad03 f   LIBCMT:utility.obj
 0001:00059d2b       __onexit                   0045ad2b f   LIBCMT:utility.obj
 0001:00059d59       _atexit                    0045ad59 f   LIBCMT:utility.obj
 0001:00059d70       __ftol3                    0045ad70 f   LIBCMT:ftol3.obj
 0001:00059de0       __dtol3                    0045ade0 f   LIBCMT:ftol3.obj
 0001:0005a0d9       _mainCRTStartup            0045b0d9 f   LIBCMT:exe_main.obj
 0001:0005a0e3       @__security_check_cookie@4 0045b0e3 f   LIBCMT:secchk.obj
 0001:0005a100       __aulldiv                  0045b100 f   LIBCMT:ulldiv.obj
 0001:0005a170       __alldiv                   0045b170 f   LIBCMT:lldiv.obj
 0001:0005a21a       ___isa_available_init      0045b21a f   LIBCMT:cpu_disp.obj
 0001:0005a534       __EH_epilog3               0045b534 f   LIBCMT:ehprolg3.obj
 0001:0005a548       __EH_epilog3_GS            0045b548 f   LIBCMT:ehprolg3.obj
 0001:0005a557       __EH_prolog3               0045b557 f   LIBCMT:ehprolg3.obj
 0001:0005a58a       __EH_prolog3_GS            0045b58a f   LIBCMT:ehprolg3.obj
 0001:0005a5c0       __EH_prolog3_catch         0045b5c0 f   LIBCMT:ehprolg3.obj
 0001:0005a600       __aullrem                  0045b600 f   LIBCMT:ullrem.obj
 0001:0005a680       __allmul                   0045b680 f   LIBCMT:llmul.obj
 0001:0005a6b4       ??_M@YGXPAXIIP6EX0@Z@Z     0045b6b4 f   LIBCMT:ehvecdtr.obj
 0001:0005a73c       ?__ArrayUnwind@@YGXPAXIIP6EX0@Z@Z 0045b73c f   LIBCMT:ehvecdtr.obj
 0001:0005a7d0       __SEH_prolog4              0045b7d0 f   LIBCMT:sehprolg4.obj
 0001:0005a815       ??_L@YGXPAXIIP6EX0@Z1@Z    0045b815 f   LIBCMT:ehvecctr.obj
 0001:0005a889       ?__scrt_throw_std_bad_array_new_length@@YAXXZ 0045b889 f   LIBCMT:throw_bad_alloc.obj
 0001:0005a8a6       ??3@YAXPAXW4align_val_t@std@@@Z 0045b8a6 f   LIBCMT:delete_scalar_align.obj
 0001:0005a8b4       ___scrt_is_ucrt_dll_in_use 0045b8b4 f   LIBCMT:ucrt_detection.obj
 0001:0005a8c0       ___scrt_fastfail           0045b8c0 f   LIBCMT:utility_desktop.obj
 0001:0005a9d5       ___scrt_initialize_mta     0045b9d5 f   LIBCMT:utility_desktop.obj
 0001:0005a9da       ___scrt_is_managed_app     0045b9da f   LIBCMT:utility_desktop.obj
 0001:0005aa1c       ___scrt_set_unhandled_exception_filter 0045ba1c f   LIBCMT:utility_desktop.obj
 0001:0005aa28       ___scrt_unhandled_exception_filter@4 0045ba28 f   LIBCMT:utility_desktop.obj
 0001:0005aa7e       __crt_debugger_hook        0045ba7e f   LIBCMT:utility_desktop.obj
 0001:0005aad6       ___security_init_cookie    0045bad6 f   LIBCMT:gs_support.obj
 0001:0005ab21       __get_startup_file_mode    0045bb21 f   LIBCMT:file_mode.obj
 0001:0005ab27       ?__scrt_initialize_type_info@@YAXXZ 0045bb27 f   LIBCMT:tncleanup.obj
 0001:0005ab33       __initialize_default_precision 0045bb33 f   LIBCMT:default_precision.obj
 0001:0005ab54       ___scrt_initialize_default_local_stdio_options 0045bb54 f   LIBCMT:default_local_stdio_options.obj
 0001:0005ab71       ___scrt_is_user_matherr_present 0045bb71 f   LIBCMT:matherr_detection.obj
 0001:0005ab7d       ___scrt_get_dyn_tls_init_callback 0045bb7d f   LIBCMT:dyn_tls_init.obj
 0001:0005ab83       ___scrt_get_dyn_tls_dtor_callback 0045bb83 f   LIBCMT:dyn_tls_dtor.obj
 0001:0005ab89       __RTC_Initialize           0045bb89 f   LIBCMT:initsect.obj
 0001:0005abb5       __RTC_Terminate            0045bbb5 f   LIBCMT:initsect.obj
 0001:0005abe1       ___raise_securityfailure   0045bbe1 f   LIBCMT:gs_report.obj
 0001:0005ac09       ___report_gsfailure        0045bc09 f   LIBCMT:gs_report.obj
 0001:0005ad04       ___report_rangecheckfailure 0045bd04 f   LIBCMT:gs_report.obj
 0001:0005ad11       ___report_securityfailure  0045bd11 f   LIBCMT:gs_report.obj
 0001:0005ade1       __get_purecall_handler     0045bde1 f   libvcruntime:purevirt.obj
 0001:0005ade8       __purecall                 0045bde8 f   libvcruntime:purevirt.obj
 0001:0005ae04       ___std_exception_copy      0045be04 f   libvcruntime:std_exception.obj
 0001:0005ae67       ___std_exception_destroy   0045be67 f   libvcruntime:std_exception.obj
 0001:0005ae89       __CxxThrowException@8      0045be89 f   libvcruntime:throw.obj
 0001:0005aef6       ?GetRangeOfTrysToCheck@__FrameHandler3@@SA?AU?$pair@Viterator@TryBlockMap@__FrameHandler3@@V123@@std@@AAVTryBlockMap@1@HPAXPBU_s_FuncInfo@@H@Z 0045bef6 f   libvcruntime:trnsctrl.obj
 0001:0005af65       ?_CallCatchBlock2@@YAPAXPAUEHRegistrationNode@@PBU_s_FuncInfo@@PAXHK@Z 0045bf65 f   libvcruntime:trnsctrl.obj
 0001:0005afc5       ?_CallSETranslator@@YAHPAUEHExceptionRecord@@PAUEHRegistrationNode@@PAX2PBU_s_FuncInfo@@H1@Z 0045bfc5 f   libvcruntime:trnsctrl.obj
 0001:0005b0c4       ?_JumpToContinuation@@YGXPAXPAUEHRegistrationNode@@@Z 0045c0c4 f   libvcruntime:trnsctrl.obj
 0001:0005b0f4       ?_UnwindNestedFrames@@YGXPAUEHRegistrationNode@@PAUEHExceptionRecord@@@Z 0045c0f4 f   libvcruntime:trnsctrl.obj
 0001:0005b148       __CatchGuardHandler        0045c148 f   libvcruntime:trnsctrl.obj
 0001:0005b179       __CreateFrameInfo          0045c179 f   libvcruntime:trnsctrl.obj
 0001:0005b19d       __FindAndUnlinkFrame       0045c19d f   libvcruntime:trnsctrl.obj
 0001:0005b1e5       __TranslatorGuardHandler   0045c1e5 f   libvcruntime:trnsctrl.obj
 0001:0005b284       ___CxxFrameHandler3        0045c284 f   libvcruntime:trnsctrl.obj
 0001:0005b2c0       _memcpy                    0045c2c0 f   libvcruntime:memcpy.obj
 0001:0005b2c0       _memmove                   0045c2c0 f   libvcruntime:memmove.obj
 0001:0005b840       _memset                    0045c840 f   libvcruntime:memset.obj
 0001:0005b9a0       _strstr                    0045c9a0 f   libvcruntime:strstr.obj
 0001:0005bc0b       ___DestructExceptionObject 0045cc0b f   libvcruntime:ehhelpers.obj
 0001:0005bcb3       ?_CallMemberFunction0@@YGXQAX0@Z 0045ccb3 f i libvcruntime:ehhelpers.obj
 0001:0005bd18       __IsExceptionObjectToBeDestroyed 0045cd18 f   libvcruntime:ehhelpers.obj
 0001:0005bd3e       ___AdjustPointer           0045cd3e f   libvcruntime:ehhelpers.obj
 0001:0005bd63       ___FrameUnwindFilter       0045cd63 f   libvcruntime:ehhelpers.obj
 0001:0005bdb9       ___current_exception       0045cdb9 f   libvcruntime:ehhelpers.obj
 0001:0005bdc2       ___current_exception_context 0045cdc2 f   libvcruntime:ehhelpers.obj
 0001:0005bdcb       ___std_terminate           0045cdcb f   libvcruntime:ehhelpers.obj
 0001:0005bdd0       _memcmp                    0045cdd0 f   libvcruntime:memcmp.obj
 0001:0005d194       ___uncaught_exception      0045e194 f   libvcruntime:uncaught_exception.obj
 0001:0005d1f0       __except_handler4          0045e1f0 f   libvcruntime:chandler4.obj
 0001:0005d34e       ??0__non_rtti_object@std@@QAE@ABV01@@Z 0045e34e f i libvcruntime:rtti.obj
 0001:0005d369       ??0bad_typeid@std@@QAE@ABV01@@Z 0045e369 f i libvcruntime:rtti.obj
 0001:0005d737       ?__construct_from_string_literal@__non_rtti_object@std@@SA?AV12@QBD@Z 0045e737 f i libvcruntime:rtti.obj
 0001:0005d759       ?__construct_from_string_literal@bad_cast@std@@SA?AV12@QBD@Z 0045e759 f i libvcruntime:rtti.obj
 0001:0005d77b       ___RTDynamicCast           0045e77b f   libvcruntime:rtti.obj
 0001:0005d871       ___vcrt_initialize         0045e871 f   libvcruntime:initialization.obj
 0001:0005d890       ___vcrt_uninitialize       0045e890 f   libvcruntime:initialization.obj
 0001:0005d8a7       ___std_type_info_compare   0045e8a7 f   libvcruntime:std_type_info.obj
 0001:0005d8e3       ___vcrt_freefls@4          0045e8e3 f   libvcruntime:per_thread_data.obj
 0001:0005d8ff       ___vcrt_getptd             0045e8ff f   libvcruntime:per_thread_data.obj
 0001:0005d90d       ___vcrt_getptd_noexit      0045e90d f   libvcruntime:per_thread_data.obj
 0001:0005d99f       ___vcrt_getptd_noinit      0045e99f f   libvcruntime:per_thread_data.obj
 0001:0005d9d7       ___vcrt_initialize_ptd     0045e9d7 f   libvcruntime:per_thread_data.obj
 0001:0005da0a       ___vcrt_uninitialize_ptd   0045ea0a f   libvcruntime:per_thread_data.obj
 0001:0005e15c       ??$TypeMatchHelper@V__FrameHandler3@@@@YAHPBU_s_HandlerType@@PBU_s_CatchableType@@PBU_s_ThrowInfo@@@Z 0045f15c f i libvcruntime:frame.obj
 0001:0005e1ea       ??$__InternalCxxFrameHandler@V__FrameHandler3@@@@YA?AW4_EXCEPTION_DISPOSITION@@PAUEHExceptionRecord@@PAUEHRegistrationNode@@PAU_CONTEXT@@PAXPBU_s_FuncInfo@@H1E@Z 0045f1ea f i libvcruntime:frame.obj
 0001:0005e2ec       ??$__InternalCxxFrameHandlerWrapper@V__FrameHandler3@@@@YA?AW4_EXCEPTION_DISPOSITION@@PAUEHExceptionRecord@@PAUEHRegistrationNode@@PAU_CONTEXT@@PAXPBU_s_FuncInfo@@H1E@Z 0045f2ec f i libvcruntime:frame.obj
 0001:0005e2f5       ??0bad_exception@std@@QAE@ABV01@@Z 0045f2f5 f i libvcruntime:frame.obj
 0001:0005e310       ??0bad_exception@std@@QAE@XZ 0045f310 f i libvcruntime:frame.obj
 0001:0005e32e       ??8type_info@@QBE_NABV0@@Z 0045f32e f i libvcruntime:frame.obj
 0001:0005e5a8       ?FrameUnwindToEmptyState@__FrameHandler3@@SAXPAUEHRegistrationNode@@PAXPBU_s_FuncInfo@@@Z 0045f5a8 f   libvcruntime:frame.obj
 0001:0005e5c0       ?FrameUnwindToState@__FrameHandler3@@SAXPAUEHRegistrationNode@@PAXPBU_s_FuncInfo@@H@Z 0045f5c0 f   libvcruntime:frame.obj
 0001:0005e748       ?_CallMemberFunction1@@YGXQAX00@Z 0045f748 f i libvcruntime:frame.obj
 0001:0005e758       ?_CallMemberFunction2@@YGXQAX00H@Z 0045f758 f i libvcruntime:frame.obj
 0001:0005e76b       ?getESTypes@__FrameHandler3@@SAPBU_s_ESTypeList@@PBU_s_FuncInfo@@@Z 0045f76b f i libvcruntime:frame.obj
 0001:0005e780       __CallSettingFrame@12      0045f780 f   libvcruntime:lowhelpr.obj
 0001:0005e7a7       __NLG_Return               0045f7a7     libvcruntime:lowhelpr.obj
 0001:0005e7cc       ___except_validate_context_record 0045f7cc f   libvcruntime:jbcxrval.obj
 0001:0005e800       _strchr                    0045f800 f   libvcruntime:strchr.obj
 0001:0005e86e       ___from_strstr_to_strchr   0045f86e     libvcruntime:strchr.obj
 0001:0005e930       __local_unwind4            0045f930 f   libvcruntime:exsup4.obj
 0001:0005ea20       @_EH4_CallFilterFunc@8     0045fa20 f   libvcruntime:exsup4.obj
 0001:0005ea40       @_EH4_TransferToHandler@8  0045fa40 f   libvcruntime:exsup4.obj
 0001:0005ea60       @_EH4_GlobalUnwind2@8      0045fa60 f   libvcruntime:exsup4.obj
 0001:0005ea80       @_EH4_LocalUnwind@16       0045fa80 f   libvcruntime:exsup4.obj
 0001:0005ea97       ___vcrt_initialize_locks   0045fa97 f   libvcruntime:locks.obj
 0001:0005ead3       ___vcrt_uninitialize_locks 0045fad3 f   libvcruntime:locks.obj
 0001:0005ebed       ___vcrt_FlsAlloc           0045fbed f   libvcruntime:winapi_downlevel.obj
 0001:0005ec28       ___vcrt_FlsFree            0045fc28 f   libvcruntime:winapi_downlevel.obj
 0001:0005ec63       ___vcrt_FlsGetValue        0045fc63 f   libvcruntime:winapi_downlevel.obj
 0001:0005ec9e       ___vcrt_FlsSetValue        0045fc9e f   libvcruntime:winapi_downlevel.obj
 0001:0005ecdc       ___vcrt_InitializeCriticalSectionEx 0045fcdc f   libvcruntime:winapi_downlevel.obj
 0001:0005ed23       _unexpected                0045fd23 f   libvcruntime:unexpected.obj
 0001:0005ed40       ?GetCurrentState@__FrameHandler3@@SAHPAUEHRegistrationNode@@PAXPBU_s_FuncInfo@@@Z 0045fd40 f   libvcruntime:ehstate.obj
 0001:0005ed5d       ?SetState@__FrameHandler3@@SAXPAUEHRegistrationNode@@PBU_s_FuncInfo@@H@Z 0045fd5d f   libvcruntime:ehstate.obj
 0001:0005ed70       __NLG_Notify1              0045fd70 f   libvcruntime:exsup.obj
 0001:0005ed80       __NLG_Notify               0045fd80 f   libvcruntime:exsup.obj
 0001:0005ed97       __NLG_Dispatch             0045fd97     libvcruntime:exsup.obj
 0001:0005ed97       __NLG_Dispatch2            0045fd97     libvcruntime:exsup.obj
 0001:0005eda0       __NLG_Call                 0045fda0 f   libvcruntime:exsup.obj
 0001:0005eda2       __NLG_Return2              0045fda2     libvcruntime:exsup.obj
 0001:0005eda3       ??0__crt_cached_ptd_host@@QAE@QAU__crt_locale_pointers@@@Z 0045fda3 f i libucrt:invalid_parameter.obj
 0001:0005edeb       ??1__crt_cached_ptd_host@@QAE@XZ 0045fdeb f i libucrt:invalid_parameter.obj
 0001:0005ee27       ?check_synchronize_global_state_index@__crt_cached_ptd_host@@AAEIXZ 0045fe27 f i libucrt:invalid_parameter.obj
 0001:0005ee50       ?force_synchronize_per_thread_data@__crt_cached_ptd_host@@AAEPAU__acrt_ptd@@XZ 0045fe50 f i libucrt:invalid_parameter.obj
 0001:0005ee96       ?get_raw_ptd@__crt_cached_ptd_host@@QAEPAU__acrt_ptd@@XZ 0045fe96 f i libucrt:invalid_parameter.obj
 0001:0005eeb3       ___acrt_call_reportfault   0045feb3 f   libucrt:invalid_parameter.obj
 0001:0005efec       ___acrt_initialize_invalid_parameter_handler 0045ffec f   libucrt:invalid_parameter.obj
 0001:0005effb       __invalid_parameter        0045fffb f   libucrt:invalid_parameter.obj
 0001:0005f032       __invalid_parameter_internal 00460032 f   libucrt:invalid_parameter.obj
 0001:0005f0af       __invalid_parameter_noinfo 004600af f   libucrt:invalid_parameter.obj
 0001:0005f0bf       __invoke_watson            004600bf f   libucrt:invalid_parameter.obj
 0001:0005f100       __dclass                   00460100 f i libucrt:nan.obj
 0001:0005f100       __ldclass                  00460100 f i libucrt:nanl.obj
 0001:0005f120       __dsign                    00460120 f i libucrt:nan.obj
 0001:0005f120       __ldsign                   00460120 f i libucrt:nanl.obj
 0001:0005f130       __fdclass                  00460130 f i libucrt:nanf.obj
 0001:0005f150       __fdsign                   00460150 f i libucrt:nanf.obj
 0001:0005f160       _calloc                    00460160 f   libucrt:calloc.obj
 0001:0005f170       _free                      00460170 f   libucrt:free.obj
 0001:0005f180       _malloc                    00460180 f   libucrt:malloc.obj
 0001:0005f18b       ___acrt_initialize_stdio   0046018b f   libucrt:_file.obj
 0001:0005f253       ___acrt_iob_func           00460253 f   libucrt:_file.obj
 0001:0005f263       ___acrt_uninitialize_stdio 00460263 f   libucrt:_file.obj
 0001:0005f2af       __lock_file                004602af f   libucrt:_file.obj
 0001:0005f2c3       __unlock_file              004602c3 f   libucrt:_file.obj
 0001:0005f38e       _fopen                     0046038e f   libucrt:fopen.obj
 0001:0005f3a5       _fopen_s                   004603a5 f   libucrt:fopen.obj
 0001:0005f511       _fclose                    00460511 f   libucrt:fclose.obj
 0001:0005f541       ?LongLongSub@@YAJ_J0PA_J@Z 00460541 f i libucrt:fseek.obj
 0001:0005f832       _fseek                     00460832 f   libucrt:fseek.obj
 0001:0005feb9       __ftelli64_nolock_internal 00460eb9 f   libucrt:ftell.obj
 0001:0005fec4       _ftell                     00460ec4 f   libucrt:ftell.obj
 0001:0005ff9b       __fwrite_internal          00460f9b f   libucrt:fwrite.obj
 0001:00060012       __fwrite_nolock_internal   00461012 f   libucrt:fwrite.obj
 0001:000601a6       _fwrite                    004611a6 f   libucrt:fwrite.obj
 0001:000605c2       ??$count@D@formatting_buffer@__crt_stdio_output@@QBEIXZ 004615c2 f i libucrt:output.obj
 0001:000605da       ??$ensure_buffer_is_big_enough@D@formatting_buffer@__crt_stdio_output@@QAE_NIAAV__crt_cached_ptd_host@@@Z 004615da f i libucrt:output.obj
 0001:0006065a       ??$is_overflow_condition@K@__crt_strtox@@YA_NIK@Z 0046165a f i libucrt:output.obj
 0001:0006068e       ??$is_wide_character_specifier@D@__crt_stdio_output@@YA_N_KDW4length_modifier@0@@Z 0046168e f i libucrt:output.obj
 0001:000606bf       ??$make_c_string_character_source@DPAPAD@__crt_strtox@@YA?AV?$c_string_character_source@D@0@QBDQAPAD@Z 004616bf f i libucrt:output.obj
 0001:000606bf       ??$make_c_string_character_source@_WPAPA_W@__crt_strtox@@YA?AV?$c_string_character_source@_W@0@QB_WQAPA_W@Z 004616bf f i libucrt:output.obj
 0001:000606da       ??$parse_integer@KV?$c_string_character_source@D@__crt_strtox@@$0A@@__crt_strtox@@YAKAAV__crt_cached_ptd_host@@V?$c_string_character_source@D@0@H_N@Z 004616da f i libucrt:output.obj
 0001:000608ed       ??$scratch_data@D@formatting_buffer@__crt_stdio_output@@QAEPADXZ 004618ed f i libucrt:output.obj
 0001:0006090b       ??$type_case_integer@$07@?$output_processor@DV?$stream_output_adapter@D@__crt_stdio_output@@V?$standard_base@DV?$stream_output_adapter@D@__crt_stdio_output@@@2@@__crt_stdio_output@@AAE_N_N@Z 0046190b f i libucrt:output.obj
 0001:0006090b       ??$type_case_integer@$07@?$output_processor@DV?$string_output_adapter@D@__crt_stdio_output@@V?$format_validation_base@DV?$string_output_adapter@D@__crt_stdio_output@@@2@@__crt_stdio_output@@AAE_N_N@Z 0046190b f i libucrt:output.obj
 0001:0006090b       ??$type_case_integer@$07@?$output_processor@DV?$string_output_adapter@D@__crt_stdio_output@@V?$standard_base@DV?$string_output_adapter@D@__crt_stdio_output@@@2@@__crt_stdio_output@@AAE_N_N@Z 0046190b f i libucrt:output.obj
 0001:00060a98       ??$type_case_integer@$09@?$output_processor@DV?$stream_output_adapter@D@__crt_stdio_output@@V?$standard_base@DV?$stream_output_adapter@D@__crt_stdio_output@@@2@@__crt_stdio_output@@AAE_N_N@Z 00461a98 f i libucrt:output.obj
 0001:00060a98       ??$type_case_integer@$09@?$output_processor@DV?$string_output_adapter@D@__crt_stdio_output@@V?$format_validation_base@DV?$string_output_adapter@D@__crt_stdio_output@@@2@@__crt_stdio_output@@AAE_N_N@Z 00461a98 f i libucrt:output.obj
 0001:00060a98       ??$type_case_integer@$09@?$output_processor@DV?$string_output_adapter@D@__crt_stdio_output@@V?$standard_base@DV?$string_output_adapter@D@__crt_stdio_output@@@2@@__crt_stdio_output@@AAE_N_N@Z 00461a98 f i libucrt:output.obj
 0001:00060c25       ??$type_case_integer@$0BA@@?$output_processor@DV?$stream_output_adapter@D@__crt_stdio_output@@V?$standard_base@DV?$stream_output_adapter@D@__crt_stdio_output@@@2@@__crt_stdio_output@@AAE_N_N@Z 00461c25 f i libucrt:output.obj
 0001:00060c25       ??$type_case_integer@$0BA@@?$output_processor@DV?$string_output_adapter@D@__crt_stdio_output@@V?$format_validation_base@DV?$string_output_adapter@D@__crt_stdio_output@@@2@@__crt_stdio_output@@AAE_N_N@Z 00461c25 f i libucrt:output.obj
 0001:00060c25       ??$type_case_integer@$0BA@@?$output_processor@DV?$string_output_adapter@D@__crt_stdio_output@@V?$standard_base@DV?$string_output_adapter@D@__crt_stdio_output@@@2@@__crt_stdio_output@@AAE_N_N@Z 00461c25 f i libucrt:output.obj
 0001:00060db2       ??$type_case_integer_parse_into_buffer@I$07@?$output_processor@DV?$stream_output_adapter@D@__crt_stdio_output@@V?$standard_base@DV?$stream_output_adapter@D@__crt_stdio_output@@@2@@__crt_stdio_output@@AAEXI_N@Z 00461db2 f i libucrt:output.obj
 0001:00060db2       ??$type_case_integer_parse_into_buffer@I$07@?$output_processor@DV?$string_output_adapter@D@__crt_stdio_output@@V?$format_validation_base@DV?$string_output_adapter@D@__crt_stdio_output@@@2@@__crt_stdio_output@@AAEXI_N@Z 00461db2 f i libucrt:output.obj
 0001:00060db2       ??$type_case_integer_parse_into_buffer@I$07@?$output_processor@DV?$string_output_adapter@D@__crt_stdio_output@@V?$standard_base@DV?$string_output_adapter@D@__crt_stdio_output@@@2@@__crt_stdio_output@@AAEXI_N@Z 00461db2 f i libucrt:output.obj
 0001:00060e14       ??$type_case_integer_parse_into_buffer@I$09@?$output_processor@DV?$stream_output_adapter@D@__crt_stdio_output@@V?$standard_base@DV?$stream_output_adapter@D@__crt_stdio_output@@@2@@__crt_stdio_output@@AAEXI_N@Z 00461e14 f i libucrt:output.obj
 0001:00060e14       ??$type_case_integer_parse_into_buffer@I$09@?$output_processor@DV?$string_output_adapter@D@__crt_stdio_output@@V?$format_validation_base@DV?$string_output_adapter@D@__crt_stdio_output@@@2@@__crt_stdio_output@@AAEXI_N@Z 00461e14 f i libucrt:output.obj
 0001:00060e14       ??$type_case_integer_parse_into_buffer@I$09@?$output_processor@DV?$string_output_adapter@D@__crt_stdio_output@@V?$standard_base@DV?$string_output_adapter@D@__crt_stdio_output@@@2@@__crt_stdio_output@@AAEXI_N@Z 00461e14 f i libucrt:output.obj
 0001:00060e93       ??$type_case_integer_parse_into_buffer@I$0BA@@?$output_processor@DV?$stream_output_adapter@D@__crt_stdio_output@@V?$standard_base@DV?$stream_output_adapter@D@__crt_stdio_output@@@2@@__crt_stdio_output@@AAEXI_N@Z 00461e93 f i libucrt:output.obj
 0001:00060e93       ??$type_case_integer_parse_into_buffer@I$0BA@@?$output_processor@DV?$string_output_adapter@D@__crt_stdio_output@@V?$format_validation_base@DV?$string_output_adapter@D@__crt_stdio_output@@@2@@__crt_stdio_output@@AAEXI_N@Z 00461e93 f i libucrt:output.obj
 0001:00060e93       ??$type_case_integer_parse_into_buffer@I$0BA@@?$output_processor@DV?$string_output_adapter@D@__crt_stdio_output@@V?$standard_base@DV?$string_output_adapter@D@__crt_stdio_output@@@2@@__crt_stdio_output@@AAEXI_N@Z 00461e93 f i libucrt:output.obj
 0001:00060f0f       ??$type_case_integer_parse_into_buffer@_K$07@?$output_processor@DV?$stream_output_adapter@D@__crt_stdio_output@@V?$standard_base@DV?$stream_output_adapter@D@__crt_stdio_output@@@2@@__crt_stdio_output@@AAEX_K_N@Z 00461f0f f i libucrt:output.obj
 0001:00060f0f       ??$type_case_integer_parse_into_buffer@_K$07@?$output_processor@DV?$string_output_adapter@D@__crt_stdio_output@@V?$format_validation_base@DV?$string_output_adapter@D@__crt_stdio_output@@@2@@__crt_stdio_output@@AAEX_K_N@Z 00461f0f f i libucrt:output.obj
 0001:00060f0f       ??$type_case_integer_parse_into_buffer@_K$07@?$output_processor@DV?$string_output_adapter@D@__crt_stdio_output@@V?$standard_base@DV?$string_output_adapter@D@__crt_stdio_output@@@2@@__crt_stdio_output@@AAEX_K_N@Z 00461f0f f i libucrt:output.obj
 0001:00060f83       ??$type_case_integer_parse_into_buffer@_K$09@?$output_processor@DV?$stream_output_adapter@D@__crt_stdio_output@@V?$standard_base@DV?$stream_output_adapter@D@__crt_stdio_output@@@2@@__crt_stdio_output@@AAEX_K_N@Z 00461f83 f i libucrt:output.obj
 0001:00060f83       ??$type_case_integer_parse_into_buffer@_K$09@?$output_processor@DV?$string_output_adapter@D@__crt_stdio_output@@V?$format_validation_base@DV?$string_output_adapter@D@__crt_stdio_output@@@2@@__crt_stdio_output@@AAEX_K_N@Z 00461f83 f i libucrt:output.obj
 0001:00060f83       ??$type_case_integer_parse_into_buffer@_K$09@?$output_processor@DV?$string_output_adapter@D@__crt_stdio_output@@V?$standard_base@DV?$string_output_adapter@D@__crt_stdio_output@@@2@@__crt_stdio_output@@AAEX_K_N@Z 00461f83 f i libucrt:output.obj
 0001:00061015       ??$type_case_integer_parse_into_buffer@_K$0BA@@?$output_processor@DV?$stream_output_adapter@D@__crt_stdio_output@@V?$standard_base@DV?$stream_output_adapter@D@__crt_stdio_output@@@2@@__crt_stdio_output@@AAEX_K_N@Z 00462015 f i libucrt:output.obj
 0001:00061015       ??$type_case_integer_parse_into_buffer@_K$0BA@@?$output_processor@DV?$string_output_adapter@D@__crt_stdio_output@@V?$format_validation_base@DV?$string_output_adapter@D@__crt_stdio_output@@@2@@__crt_stdio_output@@AAEX_K_N@Z 00462015 f i libucrt:output.obj
 0001:00061015       ??$type_case_integer_parse_into_buffer@_K$0BA@@?$output_processor@DV?$string_output_adapter@D@__crt_stdio_output@@V?$standard_base@DV?$string_output_adapter@D@__crt_stdio_output@@@2@@__crt_stdio_output@@AAEX_K_N@Z 00462015 f i libucrt:output.obj
 0001:0006109b       ??0?$output_adapter_data@DV?$stream_output_adapter@D@__crt_stdio_output@@@__crt_stdio_output@@IAE@ABV?$stream_output_adapter@D@1@_KQBDAAV__crt_cached_ptd_host@@QAD@Z 0046209b f i libucrt:output.obj
 0001:0006109b       ??0?$output_adapter_data@DV?$string_output_adapter@D@__crt_stdio_output@@@__crt_stdio_output@@IAE@ABV?$string_output_adapter@D@1@_KQBDAAV__crt_cached_ptd_host@@QAD@Z 0046209b f i libucrt:output.obj
 0001:00061102       ??1formatting_buffer@__crt_stdio_output@@QAE@XZ 00462102 f i libucrt:output.obj
 0001:0006111c       ??4?$__crt_unique_heap_ptr@DU__crt_internal_free_policy@@@@QAEAAV0@$$QAV0@@Z 0046211c f i libucrt:output.obj
 0001:000611dc       ?crop_zeroes@__crt_stdio_output@@YAXPADQAU__crt_locale_pointers@@@Z 004621dc f i libucrt:output.obj
 0001:00061246       ?find_next_state@?$output_processor@DV?$stream_output_adapter@D@__crt_stdio_output@@V?$standard_base@DV?$stream_output_adapter@D@__crt_stdio_output@@@2@@__crt_stdio_output@@ABE?AW4state@2@DW432@@Z 00462246 f i libucrt:output.obj
 0001:00061246       ?find_next_state@?$output_processor@DV?$string_output_adapter@D@__crt_stdio_output@@V?$standard_base@DV?$string_output_adapter@D@__crt_stdio_output@@@2@@__crt_stdio_output@@ABE?AW4state@2@DW432@@Z 00462246 f i libucrt:output.obj
 0001:00061281       ?find_next_state@?$output_processor@DV?$string_output_adapter@D@__crt_stdio_output@@V?$format_validation_base@DV?$string_output_adapter@D@__crt_stdio_output@@@2@@__crt_stdio_output@@ABE?AW4state@2@DW432@@Z 00462281 f i libucrt:output.obj
 0001:000612be       ?force_decimal_point@__crt_stdio_output@@YAXPADQAU__crt_locale_pointers@@@Z 004622be f i libucrt:output.obj
 0001:00061320       ?parse_int_from_format_string@?$output_processor@DV?$stream_output_adapter@D@__crt_stdio_output@@V?$standard_base@DV?$stream_output_adapter@D@__crt_stdio_output@@@2@@__crt_stdio_output@@AAE_NQAH@Z 00462320 f i libucrt:output.obj
 0001:00061320       ?parse_int_from_format_string@?$output_processor@DV?$string_output_adapter@D@__crt_stdio_output@@V?$format_validation_base@DV?$string_output_adapter@D@__crt_stdio_output@@@2@@__crt_stdio_output@@AAE_NQAH@Z 00462320 f i libucrt:output.obj
 0001:00061320       ?parse_int_from_format_string@?$output_processor@DV?$string_output_adapter@D@__crt_stdio_output@@V?$standard_base@DV?$string_output_adapter@D@__crt_stdio_output@@@2@@__crt_stdio_output@@AAE_NQAH@Z 00462320 f i libucrt:output.obj
 0001:00061398       ?process@?$output_processor@DV?$stream_output_adapter@D@__crt_stdio_output@@V?$standard_base@DV?$stream_output_adapter@D@__crt_stdio_output@@@2@@__crt_stdio_output@@QAEHXZ 00462398 f i libucrt:output.obj
 0001:00061640       ?process@?$output_processor@DV?$string_output_adapter@D@__crt_stdio_output@@V?$format_validation_base@DV?$string_output_adapter@D@__crt_stdio_output@@@2@@__crt_stdio_output@@QAEHXZ 00462640 f i libucrt:output.obj
 0001:00061928       ?process@?$output_processor@DV?$string_output_adapter@D@__crt_stdio_output@@V?$standard_base@DV?$string_output_adapter@D@__crt_stdio_output@@@2@@__crt_stdio_output@@QAEHXZ 00462928 f i libucrt:output.obj
 0001:00061bfc       ?state_case_size@?$output_processor@DV?$stream_output_adapter@D@__crt_stdio_output@@V?$standard_base@DV?$stream_output_adapter@D@__crt_stdio_output@@@2@@__crt_stdio_output@@AAE_NXZ 00462bfc f i libucrt:output.obj
 0001:00061d55       ?state_case_size@?$output_processor@DV?$string_output_adapter@D@__crt_stdio_output@@V?$format_validation_base@DV?$string_output_adapter@D@__crt_stdio_output@@@2@@__crt_stdio_output@@AAE_NXZ 00462d55 f i libucrt:output.obj
 0001:00061d55       ?state_case_size@?$output_processor@DV?$string_output_adapter@D@__crt_stdio_output@@V?$standard_base@DV?$string_output_adapter@D@__crt_stdio_output@@@2@@__crt_stdio_output@@AAE_NXZ 00462d55 f i libucrt:output.obj
 0001:00061eae       ?state_case_type@?$output_processor@DV?$stream_output_adapter@D@__crt_stdio_output@@V?$standard_base@DV?$stream_output_adapter@D@__crt_stdio_output@@@2@@__crt_stdio_output@@AAE_NXZ 00462eae f i libucrt:output.obj
 0001:000622a5       ?state_case_type@?$output_processor@DV?$string_output_adapter@D@__crt_stdio_output@@V?$format_validation_base@DV?$string_output_adapter@D@__crt_stdio_output@@@2@@__crt_stdio_output@@AAE_NXZ 004632a5 f i libucrt:output.obj
 0001:000622a5       ?state_case_type@?$output_processor@DV?$string_output_adapter@D@__crt_stdio_output@@V?$standard_base@DV?$string_output_adapter@D@__crt_stdio_output@@@2@@__crt_stdio_output@@AAE_NXZ 004632a5 f i libucrt:output.obj
 0001:000626e4       ?to_integer_size@__crt_stdio_output@@YAIW4length_modifier@1@@Z 004636e4 f i libucrt:output.obj
 0001:00062738       ?type_case_Z@?$output_processor@DV?$stream_output_adapter@D@__crt_stdio_output@@V?$standard_base@DV?$stream_output_adapter@D@__crt_stdio_output@@@2@@__crt_stdio_output@@AAE_NXZ 00463738 f i libucrt:output.obj
 0001:00062738       ?type_case_Z@?$output_processor@DV?$string_output_adapter@D@__crt_stdio_output@@V?$format_validation_base@DV?$string_output_adapter@D@__crt_stdio_output@@@2@@__crt_stdio_output@@AAE_NXZ 00463738 f i libucrt:output.obj
 0001:00062738       ?type_case_Z@?$output_processor@DV?$string_output_adapter@D@__crt_stdio_output@@V?$standard_base@DV?$string_output_adapter@D@__crt_stdio_output@@@2@@__crt_stdio_output@@AAE_NXZ 00463738 f i libucrt:output.obj
 0001:000627ab       ?type_case_a@?$output_processor@DV?$stream_output_adapter@D@__crt_stdio_output@@V?$standard_base@DV?$stream_output_adapter@D@__crt_stdio_output@@@2@@__crt_stdio_output@@AAE_NXZ 004637ab f i libucrt:output.obj
 0001:000627ab       ?type_case_a@?$output_processor@DV?$string_output_adapter@D@__crt_stdio_output@@V?$format_validation_base@DV?$string_output_adapter@D@__crt_stdio_output@@@2@@__crt_stdio_output@@AAE_NXZ 004637ab f i libucrt:output.obj
 0001:000627ab       ?type_case_a@?$output_processor@DV?$string_output_adapter@D@__crt_stdio_output@@V?$standard_base@DV?$string_output_adapter@D@__crt_stdio_output@@@2@@__crt_stdio_output@@AAE_NXZ 004637ab f i libucrt:output.obj
 0001:00062962       ?type_case_c_tchar@?$output_processor@DV?$stream_output_adapter@D@__crt_stdio_output@@V?$standard_base@DV?$stream_output_adapter@D@__crt_stdio_output@@@2@@__crt_stdio_output@@AAE_ND@Z 00463962 f i libucrt:output.obj
 0001:00062962       ?type_case_c_tchar@?$output_processor@DV?$string_output_adapter@D@__crt_stdio_output@@V?$format_validation_base@DV?$string_output_adapter@D@__crt_stdio_output@@@2@@__crt_stdio_output@@AAE_ND@Z 00463962 f i libucrt:output.obj
 0001:00062962       ?type_case_c_tchar@?$output_processor@DV?$string_output_adapter@D@__crt_stdio_output@@V?$standard_base@DV?$string_output_adapter@D@__crt_stdio_output@@@2@@__crt_stdio_output@@AAE_ND@Z 00463962 f i libucrt:output.obj
 0001:000629ee       ?type_case_n@?$output_processor@DV?$stream_output_adapter@D@__crt_stdio_output@@V?$standard_base@DV?$stream_output_adapter@D@__crt_stdio_output@@@2@@__crt_stdio_output@@AAE_NXZ 004639ee f i libucrt:output.obj
 0001:000629ee       ?type_case_n@?$output_processor@DV?$string_output_adapter@D@__crt_stdio_output@@V?$format_validation_base@DV?$string_output_adapter@D@__crt_stdio_output@@@2@@__crt_stdio_output@@AAE_NXZ 004639ee f i libucrt:output.obj
 0001:000629ee       ?type_case_n@?$output_processor@DV?$string_output_adapter@D@__crt_stdio_output@@V?$standard_base@DV?$string_output_adapter@D@__crt_stdio_output@@@2@@__crt_stdio_output@@AAE_NXZ 004639ee f i libucrt:output.obj
 0001:00062a73       ?type_case_o@?$output_processor@DV?$stream_output_adapter@D@__crt_stdio_output@@V?$standard_base@DV?$stream_output_adapter@D@__crt_stdio_output@@@2@@__crt_stdio_output@@AAE_NXZ 00463a73 f i libucrt:output.obj
 0001:00062a73       ?type_case_o@?$output_processor@DV?$string_output_adapter@D@__crt_stdio_output@@V?$format_validation_base@DV?$string_output_adapter@D@__crt_stdio_output@@@2@@__crt_stdio_output@@AAE_NXZ 00463a73 f i libucrt:output.obj
 0001:00062a73       ?type_case_o@?$output_processor@DV?$string_output_adapter@D@__crt_stdio_output@@V?$standard_base@DV?$string_output_adapter@D@__crt_stdio_output@@@2@@__crt_stdio_output@@AAE_NXZ 00463a73 f i libucrt:output.obj
 0001:00062a90       ?type_case_p@?$output_processor@DV?$stream_output_adapter@D@__crt_stdio_output@@V?$standard_base@DV?$stream_output_adapter@D@__crt_stdio_output@@@2@@__crt_stdio_output@@AAE_NXZ 00463a90 f i libucrt:output.obj
 0001:00062a90       ?type_case_p@?$output_processor@DV?$string_output_adapter@D@__crt_stdio_output@@V?$format_validation_base@DV?$string_output_adapter@D@__crt_stdio_output@@@2@@__crt_stdio_output@@AAE_NXZ 00463a90 f i libucrt:output.obj
 0001:00062a90       ?type_case_p@?$output_processor@DV?$string_output_adapter@D@__crt_stdio_output@@V?$standard_base@DV?$string_output_adapter@D@__crt_stdio_output@@@2@@__crt_stdio_output@@AAE_NXZ 00463a90 f i libucrt:output.obj
 0001:00062aa6       ?type_case_s@?$output_processor@DV?$stream_output_adapter@D@__crt_stdio_output@@V?$standard_base@DV?$stream_output_adapter@D@__crt_stdio_output@@@2@@__crt_stdio_output@@AAE_NXZ 00463aa6 f i libucrt:output.obj
 0001:00062aa6       ?type_case_s@?$output_processor@DV?$string_output_adapter@D@__crt_stdio_output@@V?$format_validation_base@DV?$string_output_adapter@D@__crt_stdio_output@@@2@@__crt_stdio_output@@AAE_NXZ 00463aa6 f i libucrt:output.obj
 0001:00062aa6       ?type_case_s@?$output_processor@DV?$string_output_adapter@D@__crt_stdio_output@@V?$standard_base@DV?$string_output_adapter@D@__crt_stdio_output@@@2@@__crt_stdio_output@@AAE_NXZ 00463aa6 f i libucrt:output.obj
 0001:00062b19       ?unget@?$c_string_character_source@D@__crt_strtox@@QAEXD@Z 00463b19 f i libucrt:output.obj
 0001:00062b42       ?unget@?$c_string_character_source@_W@__crt_strtox@@QAEX_W@Z 00463b42 f i libucrt:output.obj
 0001:00062b70       ?update_locale_slow@__crt_cached_ptd_host@@AAEXXZ 00463b70 f i libucrt:output.obj
 0001:00062bcb       ?validate@?$c_string_character_source@D@__crt_strtox@@QBE_NXZ 00463bcb f i libucrt:output.obj
 0001:00062bcb       ?validate@?$c_string_character_source@_W@__crt_strtox@@QBE_NXZ 00463bcb f i libucrt:output.obj
 0001:00062be6       ?validate@?$stream_output_adapter@D@__crt_stdio_output@@QBE_NAAV__crt_cached_ptd_host@@@Z 00463be6 f i libucrt:output.obj
 0001:00062c1e       ?validate@?$string_output_adapter@D@__crt_stdio_output@@QBE_NAAV__crt_cached_ptd_host@@@Z 00463c1e f i libucrt:output.obj
 0001:00062c4f       ?validate_stream_is_ansi_if_required@?$__acrt_stdio_char_traits@D@@SA_NQAU_iobuf@@@Z 00463c4f f i libucrt:output.obj
 0001:00062cd6       ?write_character@?$output_adapter_common@DV?$stream_output_adapter@D@__crt_stdio_output@@@__crt_stdio_output@@QBEXDQAHAAV__crt_cached_ptd_host@@@Z 00463cd6 f i libucrt:output.obj
 0001:00062cf8       ?write_character_without_count_update@?$stream_output_adapter@D@__crt_stdio_output@@QBE_NDAAV__crt_cached_ptd_host@@@Z 00463cf8 f i libucrt:output.obj
 0001:00062d32       ?write_string@?$stream_output_adapter@D@__crt_stdio_output@@QBEXQBDHQAHAAV__crt_cached_ptd_host@@@Z 00463d32 f i libucrt:output.obj
 0001:00062d5e       ?write_string@?$string_output_adapter@D@__crt_stdio_output@@QBEXQBDHQAHAAV__crt_cached_ptd_host@@@Z 00463d5e f i libucrt:output.obj
 0001:00062dcd       ?write_string_impl@?$output_adapter_common@DV?$stream_output_adapter@D@__crt_stdio_output@@@__crt_stdio_output@@IBEXQBDHQAHAAV__crt_cached_ptd_host@@@Z 00463dcd f i libucrt:output.obj
 0001:00062e4c       ___acrt_locale_get_ctype_array_value 00463e4c f i libucrt:output.obj
 0001:00062e6e       ___stdio_common_vfprintf   00463e6e f   libucrt:output.obj
 0001:00062f12       ___stdio_common_vsprintf   00463f12 f   libucrt:output.obj
 0001:00062f53       ___stdio_common_vsprintf_s 00463f53 f   libucrt:output.obj
 0001:00062f94       _terminate                 00463f94 f   libucrt:terminate.obj
 0001:0006312c       __beginthreadex            0046412c f   libucrt:thread.obj
 0001:000631af       __endthreadex              004641af f   libucrt:thread.obj
 0001:000631bd       _localeconv                004641bd f   libucrt:localeconv.obj
 0001:000631e5       ??$is_overflow_condition@_K@__crt_strtox@@YA_NI_K@Z 004641e5 f i libucrt:strtox.obj
 0001:00063226       ??$parse_integer@KV?$c_string_character_source@D@__crt_strtox@@$00@__crt_strtox@@YAKAAV__crt_cached_ptd_host@@V?$c_string_character_source@D@0@H_N@Z 00464226 f i libucrt:strtox.obj
 0001:00063471       ??$parse_integer@KV?$c_string_character_source@_W@__crt_strtox@@$00@__crt_strtox@@YAKAAV__crt_cached_ptd_host@@V?$c_string_character_source@_W@0@H_N@Z 00464471 f i libucrt:strtox.obj
 0001:00063a94       ??$parse_integer@_KV?$c_string_character_source@D@__crt_strtox@@$00@__crt_strtox@@YA_KAAV__crt_cached_ptd_host@@V?$c_string_character_source@D@0@H_N@Z 00464a94 f i libucrt:strtox.obj
 0001:00063d44       __ischartype_l             00464d44 f i libucrt:strtox.obj
 0001:00063d9b       _strtoll                   00464d9b f   libucrt:strtox.obj
 0001:00063de7       _strtoull                  00464de7 f   libucrt:strtox.obj
 0001:00063e33       _wcstol                    00464e33 f   libucrt:strtox.obj
 0001:00063e79       ??$assemble_floating_point_snan@N@__crt_strtox@@YAX_NAAN@Z 00464e79 f i libucrt:input.obj
 0001:00063e9a       ??$assemble_floating_point_value_t@M@__crt_strtox@@YA?AW4SLD_STATUS@@_NH_KAAM@Z 00464e9a f i libucrt:input.obj
 0001:00063ed9       ??$assemble_floating_point_value_t@N@__crt_strtox@@YA?AW4SLD_STATUS@@_NH_KAAN@Z 00464ed9 f i libucrt:input.obj
 0001:00063fcf       ??$convert_decimal_string_to_floating_type@M@__crt_strtox@@YA?AW4SLD_STATUS@@ABUfloating_point_string@0@AAM@Z 00464fcf f i libucrt:input.obj
 0001:00063ff0       ??$convert_decimal_string_to_floating_type@N@__crt_strtox@@YA?AW4SLD_STATUS@@ABUfloating_point_string@0@AAN@Z 00464ff0 f i libucrt:input.obj
 0001:00064011       ??$convert_hexadecimal_string_to_floating_type@M@__crt_strtox@@YA?AW4SLD_STATUS@@ABUfloating_point_string@0@AAM@Z 00465011 f i libucrt:input.obj
 0001:00064032       ??$convert_hexadecimal_string_to_floating_type@N@__crt_strtox@@YA?AW4SLD_STATUS@@ABUfloating_point_string@0@AAN@Z 00465032 f i libucrt:input.obj
 0001:00064053       ??$make_input_adapter_character_source@V?$string_input_adapter@D@__crt_stdio_input@@@__crt_strtox@@YA?AV?$input_adapter_character_source@V?$string_input_adapter@D@__crt_stdio_input@@@0@QAV?$string_input_adapter@D@__crt_stdio_input@@_KQA_N@Z 00465053 f i libucrt:input.obj
 0001:00064071       ??$parse_floating_point@V?$input_adapter_character_source@V?$string_input_adapter@D@__crt_stdio_input@@@__crt_strtox@@M@__crt_strtox@@YA?AW4SLD_STATUS@@QAU__crt_locale_pointers@@V?$input_adapter_character_source@V?$string_input_adapter@D@__crt_stdio_input@@@0@QAM@Z 00465071 f i libucrt:input.obj
 0001:000640fb       ??$parse_floating_point@V?$input_adapter_character_source@V?$string_input_adapter@D@__crt_stdio_input@@@__crt_strtox@@N@__crt_strtox@@YA?AW4SLD_STATUS@@QAU__crt_locale_pointers@@V?$input_adapter_character_source@V?$string_input_adapter@D@__crt_stdio_input@@@0@QAN@Z 004650fb f i libucrt:input.obj
 0001:00064185       ??$parse_floating_point_from_source@V?$input_adapter_character_source@V?$string_input_adapter@D@__crt_stdio_input@@@__crt_strtox@@@__crt_strtox@@YA?AW4floating_point_parse_result@0@QAU__crt_locale_pointers@@AAV?$input_adapter_character_source@V?$string_input_adapter@D@__crt_stdio_input@@@0@AAUfloating_point_string@0@@Z 00465185 f i libucrt:input.obj
 0001:000645f2       ??$parse_floating_point_possible_infinity@DV?$input_adapter_character_source@V?$string_input_adapter@D@__crt_stdio_input@@@__crt_strtox@@_K@__crt_strtox@@YA?AW4floating_point_parse_result@0@AADAAV?$input_adapter_character_source@V?$string_input_adapter@D@__crt_stdio_input@@@0@_K@Z 004655f2 f i libucrt:input.obj
 0001:000646ad       ??$parse_floating_point_possible_nan@DV?$input_adapter_character_source@V?$string_input_adapter@D@__crt_stdio_input@@@__crt_strtox@@_K@__crt_strtox@@YA?AW4floating_point_parse_result@0@AADAAV?$input_adapter_character_source@V?$string_input_adapter@D@__crt_stdio_input@@@0@_K@Z 004656ad f i libucrt:input.obj
 0001:000647b5       ??$parse_floating_point_possible_nan_is_ind@DV?$input_adapter_character_source@V?$string_input_adapter@D@__crt_stdio_input@@@__crt_strtox@@@__crt_strtox@@YA_NAADAAV?$input_adapter_character_source@V?$string_input_adapter@D@__crt_stdio_input@@@0@@Z 004657b5 f i libucrt:input.obj
 0001:000647ef       ??$parse_floating_point_possible_nan_is_snan@DV?$input_adapter_character_source@V?$string_input_adapter@D@__crt_stdio_input@@@__crt_strtox@@@__crt_strtox@@YA_NAADAAV?$input_adapter_character_source@V?$string_input_adapter@D@__crt_stdio_input@@@0@@Z 004657ef f i libucrt:input.obj
 0001:00064829       ??$parse_floating_point_write_result@M@__crt_strtox@@YA?AW4SLD_STATUS@@W4floating_point_parse_result@0@ABUfloating_point_string@0@QAM@Z 00465829 f i libucrt:input.obj
 0001:00064971       ??$parse_floating_point_write_result@N@__crt_strtox@@YA?AW4SLD_STATUS@@W4floating_point_parse_result@0@ABUfloating_point_string@0@QAN@Z 00465971 f i libucrt:input.obj
 0001:00064a95       ??$parse_integer@_KV?$input_adapter_character_source@V?$string_input_adapter@D@__crt_stdio_input@@@__crt_strtox@@$00@__crt_strtox@@YA_KAAV__crt_cached_ptd_host@@V?$input_adapter_character_source@V?$string_input_adapter@D@__crt_stdio_input@@@0@H_N@Z 00465a95 f i libucrt:input.obj
 0001:00064d89       ??$parse_integer@_KV?$input_adapter_character_source@V?$string_input_adapter@D@__crt_stdio_input@@@__crt_strtox@@@__crt_strtox@@YA_KQAU__crt_locale_pointers@@V?$input_adapter_character_source@V?$string_input_adapter@D@__crt_stdio_input@@@0@H_N@Z 00465d89 f i libucrt:input.obj
 0001:00064de5       ??$process_floating_point_specifier_t@M@?$input_processor@DV?$string_input_adapter@D@__crt_stdio_input@@@__crt_stdio_input@@AAE_NXZ 00465de5 f i libucrt:input.obj
 0001:00064e4d       ??$process_floating_point_specifier_t@N@?$input_processor@DV?$string_input_adapter@D@__crt_stdio_input@@@__crt_stdio_input@@AAE_NXZ 00465e4d f i libucrt:input.obj
 0001:00064eb9       ??$process_string_specifier_tchar@D@?$input_processor@DV?$string_input_adapter@D@__crt_stdio_input@@@__crt_stdio_input@@AAE_NW4conversion_mode@1@D@Z 00465eb9 f i libucrt:input.obj
 0001:00065025       ??$process_string_specifier_tchar@_W@?$input_processor@DV?$string_input_adapter@D@__crt_stdio_input@@@__crt_stdio_input@@AAE_NW4conversion_mode@1@_W@Z 00466025 f i libucrt:input.obj
 0001:0006519d       ??$skip_whitespace@Vstring_input_adapter@__crt_stdio_input@@D@__crt_stdio_input@@YAHAAV?$string_input_adapter@D@0@QAU__crt_locale_pointers@@@Z 0046619d f i libucrt:input.obj
 0001:000651cc       ??$write_floating_point@M@?$input_processor@DV?$string_input_adapter@D@__crt_stdio_input@@@__crt_stdio_input@@AAE_NABM@Z 004661cc f i libucrt:input.obj
 0001:00065201       ??$write_floating_point@N@?$input_processor@DV?$string_input_adapter@D@__crt_stdio_input@@@__crt_stdio_input@@AAE_NABN@Z 00466201 f i libucrt:input.obj
 0001:0006523c       ??0?$format_string_parser@D@__crt_stdio_input@@QAE@_KQBE@Z 0046623c f i libucrt:input.obj
 0001:00065286       ??0?$input_adapter_character_source@V?$string_input_adapter@D@__crt_stdio_input@@@__crt_strtox@@QAE@$$QAV01@@Z 00466286 f i libucrt:input.obj
 0001:000652c3       ??0?$input_adapter_character_source@V?$string_input_adapter@D@__crt_stdio_input@@@__crt_strtox@@QAE@QAV?$string_input_adapter@D@__crt_stdio_input@@_KQA_N@Z 004662c3 f i libucrt:input.obj
 0001:000652f4       ??0?$input_processor@DV?$string_input_adapter@D@__crt_stdio_input@@@__crt_stdio_input@@QAE@ABV?$string_input_adapter@D@1@_KQBDQAU__crt_locale_pointers@@QAD@Z 004662f4 f i libucrt:input.obj
 0001:00065338       ??0_LocaleUpdate@@QAE@QAU__crt_locale_pointers@@@Z 00466338 f i libucrt:input.obj
 0001:000653ba       ??R<lambda_644f8ab42ed3fd1d660977a2364b3a7d>@@QBE@XZ 004663ba f i libucrt:input.obj
 0001:000653ba       ??R<lambda_f1fa4c266c18b246f3ed9c36247dab4f>@@QBE@XZ 004663ba f i libucrt:input.obj
 0001:000653ba       ??R<lambda_f765c90ab33e8386abf09c0f079d37e9>@@QBE@XZ 004663ba f i libucrt:input.obj
 0001:000653e4       ?advance@?$format_string_parser@D@__crt_stdio_input@@QAE_NXZ 004663e4 f i libucrt:input.obj
 0001:000654fc       ?as_double@floating_point_value@__crt_strtox@@QBEAANXZ 004664fc f i libucrt:input.obj
 0001:00065521       ?as_float@floating_point_value@__crt_strtox@@QBEAAMXZ 00466521 f i libucrt:input.obj
 0001:00065546       ?assemble_floating_point_infinity@__crt_strtox@@YAX_NABVfloating_point_value@1@@Z 00466546 f i libucrt:input.obj
 0001:00065586       ?assemble_floating_point_value@__crt_strtox@@YA?AW4SLD_STATUS@@_KH_N1ABVfloating_point_value@1@@Z 00466586 f i libucrt:input.obj
 0001:0006591f       ?assemble_floating_point_value_from_big_integer@__crt_strtox@@YA?AW4SLD_STATUS@@ABUbig_integer@1@I_N1ABVfloating_point_value@1@@Z 0046691f f i libucrt:input.obj
 0001:00065abc       ?assemble_floating_point_zero@__crt_strtox@@YAX_NABVfloating_point_value@1@@Z 00466abc f i libucrt:input.obj
 0001:00065af1       ?convert_decimal_string_to_floating_type_common@__crt_strtox@@YA?AW4SLD_STATUS@@ABUfloating_point_string@1@ABVfloating_point_value@1@@Z 00466af1 f i libucrt:input.obj
 0001:000677f0       ?convert_hexadecimal_string_to_floating_type_common@__crt_strtox@@YA?AW4SLD_STATUS@@ABUfloating_point_string@1@ABVfloating_point_value@1@@Z 004687f0 f i libucrt:input.obj
 0001:000678a1       ?denormal_mantissa_mask@floating_point_value@__crt_strtox@@QBE_KXZ 004688a1 f i libucrt:input.obj
 0001:000678c0       ?divide@__crt_strtox@@YA_KAAUbig_integer@1@ABU21@@Z 004688c0 f i libucrt:input.obj
 0001:00067d97       ?get@?$input_adapter_character_source@V?$string_input_adapter@D@__crt_stdio_input@@@__crt_strtox@@QAEDXZ 00468d97 f i libucrt:input.obj
 0001:00067dd8       ?get@?$string_input_adapter@D@__crt_stdio_input@@QAEHXZ 00468dd8 f i libucrt:input.obj
 0001:00067dee       ?is_character_allowed_in_string@?$input_processor@DV?$string_input_adapter@D@__crt_stdio_input@@@__crt_stdio_input@@ABE_NW4conversion_mode@2@H@Z 00468dee f i libucrt:input.obj
 0001:00067e3e       ?length@?$format_string_parser@D@__crt_stdio_input@@QBEIXZ 00468e3e f i libucrt:input.obj
 0001:00067e8c       ?normal_mantissa_mask@floating_point_value@__crt_strtox@@QBE_KXZ 00468e8c f i libucrt:input.obj
 0001:00067ea3       ?process@?$input_processor@DV?$string_input_adapter@D@__crt_stdio_input@@@__crt_stdio_input@@QAEHXZ 00468ea3 f i libucrt:input.obj
 0001:00067f28       ?process_character_count_specifier@?$input_processor@DV?$string_input_adapter@D@__crt_stdio_input@@@__crt_stdio_input@@AAE_NXZ 00468f28 f i libucrt:input.obj
 0001:00067f40       ?process_conversion_specifier@?$input_processor@DV?$string_input_adapter@D@__crt_stdio_input@@@__crt_stdio_input@@AAE_NXZ 00468f40 f i libucrt:input.obj
 0001:00067fb4       ?process_floating_point_specifier@?$input_processor@DV?$string_input_adapter@D@__crt_stdio_input@@@__crt_stdio_input@@AAE_NXZ 00468fb4 f i libucrt:input.obj
 0001:00067fe4       ?process_integer_specifier@?$input_processor@DV?$string_input_adapter@D@__crt_stdio_input@@@__crt_stdio_input@@AAE_NI_N@Z 00468fe4 f i libucrt:input.obj
 0001:00068049       ?process_literal_character@?$input_processor@DV?$string_input_adapter@D@__crt_stdio_input@@@__crt_stdio_input@@AAE_NXZ 00469049 f i libucrt:input.obj
 0001:0006807f       ?process_literal_character_tchar@?$input_processor@DV?$string_input_adapter@D@__crt_stdio_input@@@__crt_stdio_input@@AAE_ND@Z 0046907f f i libucrt:input.obj
 0001:000680cd       ?process_state@?$input_processor@DV?$string_input_adapter@D@__crt_stdio_input@@@__crt_stdio_input@@AAE_NXZ 004690cd f i libucrt:input.obj
 0001:0006810f       ?process_string_specifier@?$input_processor@DV?$string_input_adapter@D@__crt_stdio_input@@@__crt_stdio_input@@AAE_NW4conversion_mode@2@@Z 0046910f f i libucrt:input.obj
 0001:00068157       ?process_whitespace@?$input_processor@DV?$string_input_adapter@D@__crt_stdio_input@@@__crt_stdio_input@@AAE_NXZ 00469157 f i libucrt:input.obj
 0001:00068174       ?restore_state@?$input_adapter_character_source@V?$string_input_adapter@D@__crt_stdio_input@@@__crt_strtox@@QAE_N_K@Z 00469174 f i libucrt:input.obj
 0001:00068199       ?scan_conversion_specifier@?$format_string_parser@D@__crt_stdio_input@@AAE_NXZ 00469199 f i libucrt:input.obj
 0001:00068315       ?scan_optional_field_width@?$format_string_parser@D@__crt_stdio_input@@AAE_NXZ 00469315 f i libucrt:input.obj
 0001:000683a9       ?scan_optional_length_modifier@?$format_string_parser@D@__crt_stdio_input@@AAEXXZ 004693a9 f i libucrt:input.obj
 0001:000684be       ?scan_optional_literal_character_trail_bytes_tchar@?$format_string_parser@D@__crt_stdio_input@@AAE_ND@Z 004694be f i libucrt:input.obj
 0001:00068510       ?scan_optional_wide_modifier@?$format_string_parser@D@__crt_stdio_input@@AAEXXZ 00469510 f i libucrt:input.obj
 0001:0006852e       ?scan_scanset_range@?$format_string_parser@D@__crt_stdio_input@@AAE_NXZ 0046952e f i libucrt:input.obj
 0001:0006867e       ?set@?$scanset_buffer@E@__crt_stdio_input@@QAEXE@Z 0046967e f i libucrt:input.obj
 0001:000686a9       ?set_wide_for_c_s_or_scanset@?$format_string_parser@D@__crt_stdio_input@@AAEXXZ 004696a9 f i libucrt:input.obj
 0001:000686ca       ?to_floating_point_length@__crt_stdio_input@@YAIW4length_modifier@1@@Z 004696ca f i libucrt:input.obj
 0001:000686ed       ?to_integer_length@__crt_stdio_input@@YAIW4length_modifier@1@@Z 004696ed f i libucrt:input.obj
 0001:00068740       ?unget@?$input_adapter_character_source@V?$string_input_adapter@D@__crt_stdio_input@@@__crt_strtox@@QAEXD@Z 00469740 f i libucrt:input.obj
 0001:00068787       ?unget@?$string_input_adapter@D@__crt_stdio_input@@QAEXH@Z 00469787 f i libucrt:input.obj
 0001:000687a6       ?validate@?$format_string_parser@D@__crt_stdio_input@@QBE_NXZ 004697a6 f i libucrt:input.obj
 0001:000687c2       ?validate@?$input_adapter_character_source@V?$string_input_adapter@D@__crt_stdio_input@@@__crt_strtox@@QBE_NXZ 004697c2 f i libucrt:input.obj
 0001:000687e3       ?validate@?$string_input_adapter@D@__crt_stdio_input@@QAE_NXZ 004697e3 f i libucrt:input.obj
 0001:00068805       ?write_character@?$input_processor@DV?$string_input_adapter@D@__crt_stdio_input@@@__crt_stdio_input@@AAE_NQA_WIAAPA_WAAID@Z 00469805 f i libucrt:input.obj
 0001:00068872       ?write_integer@?$input_processor@DV?$string_input_adapter@D@__crt_stdio_input@@@__crt_stdio_input@@AAE_N_K@Z 00469872 f i libucrt:input.obj
 0001:000688e1       ___stdio_common_vsscanf    004698e1 f   libucrt:input.obj
 0001:00068986       ??$__crt_time_is_leap_year@H@@YA_NH@Z 00469986 f i libucrt:asctime.obj
 0001:00068b53       ?__crt_time_is_day_valid@@YA_NHHH@Z 00469b53 f i libucrt:asctime.obj
 0001:00068b99       _asctime                   00469b99 f   libucrt:asctime.obj
 0001:00068e81       __localtime64              00469e81 f   libucrt:localtime.obj
 0001:00068ea9       __time64                   00469ea9 f   libucrt:time.obj
 0001:00068f5f       ??$__crt_fast_decode_pointer@P6AHI@Z@@YAP6AHI@ZQ6AHI@Z@Z 00469f5f f i libucrt:new_handler.obj
 0001:00068f5f       ??$__crt_fast_decode_pointer@P6AXH@Z@@YAP6AXH@ZQ6AXH@Z@Z 00469f5f f i libucrt:signal.obj
 0001:00068f5f       ??$__crt_fast_decode_pointer@P6GXPAXK0@Z@@YAP6GXPAXK0@ZQ6GX0K0@Z@Z 00469f5f f i libucrt:exit.obj
 0001:00068f7a       ??$__crt_fast_encode_pointer@P6AHI@Z@@YAP6AHI@ZQ6AHI@Z@Z 00469f7a f i libucrt:new_handler.obj
 0001:00068f7a       ??$__crt_fast_encode_pointer@P6AHXZ@@YAP6AHXZQ6AHXZ@Z 00469f7a f i libucrt:onexit.obj
 0001:00068f7a       ??$__crt_fast_encode_pointer@P6GXPAXK0@Z@@YAP6GXPAXK0@ZQ6GX0K0@Z@Z 00469f7a f i libucrt:exit.obj
 0001:00068f7a       ??$__crt_fast_encode_pointer@PAP6AXXZ@@YAPAP6AXXZQAP6AXXZ@Z 00469f7a f i libucrt:onexit.obj
 0001:000691ef       ___acrt_initialize_thread_local_exit_callback 0046a1ef f   libucrt:exit.obj
 0001:000691fe       __c_exit                   0046a1fe f   libucrt:exit.obj
 0001:0006920d       __cexit                    0046a20d f   libucrt:exit.obj
 0001:0006921c       __exit                     0046a21c f   libucrt:exit.obj
 0001:00069232       __register_thread_local_exe_atexit_callback 0046a232 f   libucrt:exit.obj
 0001:00069258       _exit                      0046a258 f   libucrt:exit.obj
 0001:00069270       _strcpy_s                  0046a270 f   libucrt:strcpy_s.obj
 0001:00069605       __dupenv_s                 0046a605 f   libucrt:getenv.obj
 0001:00069623       __wgetenv_s                0046a623 f   libucrt:getenv.obj
 0001:00069866       ___acrt_stdio_flush_nolock 0046a866 f   libucrt:fflush.obj
 0001:000698cf       __fflush_nolock            0046a8cf f   libucrt:fflush.obj
 0001:00069934       __flushall                 0046a934 f   libucrt:fflush.obj
 0001:0006993d       _fflush                    0046a93d f   libucrt:fflush.obj
 0001:000699be       __getdrive                 0046a9be f   libucrt:drive.obj
 0001:00069a70       __ceil_no_sse41            0046aa70 f   libucrt:ceil_pentium4.obj
 0001:00069ab0       _ceil                      0046aab0 f   libucrt:ceil_pentium4.obj
 0001:00069ad0       __ceil_pentium4            0046aad0 f   libucrt:ceil_pentium4.obj
 0001:00069bad       __fread_nolock_s           0046abad f   libucrt:fread.obj
 0001:00069d81       _fread                     0046ad81 f   libucrt:fread.obj
 0001:00069d9e       _fread_s                   0046ad9e f   libucrt:fread.obj
 0001:00069e3b       __tolower_l                0046ae3b f   libucrt:tolower_toupper.obj
 0001:00069f39       __toupper_l                0046af39 f   libucrt:tolower_toupper.obj
 0001:0006a037       _tolower                   0046b037 f   libucrt:tolower_toupper.obj
 0001:0006a067       _toupper                   0046b067 f   libucrt:tolower_toupper.obj
 0001:0006a097       __wtol                     0046b097 f   libucrt:atox.obj
 0001:0006a0d6       _atoi                      0046b0d6 f   libucrt:atox.obj
 0001:0006a17a       ___acrt_initialize_clock   0046b17a f   libucrt:clock.obj
 0001:0006a1df       _clock                     0046b1df f   libucrt:clock.obj
 0001:0006a239       _rand                      0046b239 f   libucrt:rand.obj
 0001:0006a25a       _srand                     0046b25a f   libucrt:rand.obj
 0001:0006a270       __aligned_free             0046b270 f   libucrt:align.obj
 0001:0006a290       __aligned_malloc           0046b290 f   libucrt:align.obj
 0001:0006a300       __aligned_offset_malloc    0046b300 f   libucrt:align.obj
 0001:0006a390       __aligned_msize            0046b390 f   libucrt:align.obj
 0001:0006a3e0       __aligned_offset_realloc   0046b3e0 f   libucrt:align.obj
 0001:0006a5f0       __aligned_offset_recalloc  0046b5f0 f   libucrt:align.obj
 0001:0006a8a0       __aligned_realloc          0046b8a0 f   libucrt:align.obj
 0001:0006aa40       __aligned_recalloc         0046ba40 f   libucrt:align.obj
 0001:0006b674       ___acrt_initialize_locks   0046c674 f   libucrt:locks.obj
 0001:0006b6b5       ___acrt_lock               0046c6b5 f   libucrt:locks.obj
 0001:0006b6cc       ___acrt_uninitialize_locks 0046c6cc f   libucrt:locks.obj
 0001:0006b6fd       ___acrt_unlock             0046c6fd f   libucrt:locks.obj
 0001:0006b714       __lock_locales             0046c714 f   libucrt:locks.obj
 0001:0006b722       __unlock_locales           0046c722 f   libucrt:locks.obj
 0001:0006b72b       _abort                     0046c72b f   libucrt:abort.obj
 0001:0006b9c4       _setlocale                 0046c9c4 f   libucrt:setlocale.obj
 0001:0006ba7b       ___acrt_errno_from_os_error 0046ca7b f   libucrt:errno.obj
 0001:0006bada       ___acrt_errno_map_os_error 0046cada f   libucrt:errno.obj
 0001:0006bafd       ___acrt_errno_map_os_error_ptd 0046cafd f   libucrt:errno.obj
 0001:0006bb21       ___doserrno                0046cb21 f   libucrt:errno.obj
 0001:0006bb36       __errno                    0046cb36 f   libucrt:errno.obj
 0001:0006bb4b       ____lc_codepage_func       0046cb4b f   libucrt:initctype.obj
 0001:0006bb70       ____lc_locale_name_func    0046cb70 f   libucrt:initctype.obj
 0001:0006bb97       ____mb_cur_max_func        0046cb97 f   libucrt:initctype.obj
 0001:0006bbbf       ___acrt_locale_initialize_ctype 0046cbbf f   libucrt:initctype.obj
 0001:0006c023       ___pctype_func             0046d023 f   libucrt:ctype.obj
 0001:0006c047       __fputc_nolock_internal    0046d047 f   libucrt:fputc.obj
 0001:0006c080       __decomp                   0046d080 f i libucrt:frexp.obj
 0001:0006c190       __sptype                   0046d190 f i libucrt:frexp.obj
 0001:0006c210       _realloc                   0046d210 f   libucrt:realloc.obj
 0001:0006c220       _strcspn                   0046d220 f   libucrt:strcspn.obj
 0001:0006c270       _isspace                   0046d270 f   libucrt:_ctype.obj
 0001:0006c2f4       ??$__acrt_convert_wcs_mbs_cp@D_WV<lambda_62f6974d9771e494a5ea317cc32e971c>@@U__crt_win32_buffer_internal_dynamic_resizing@@@@YAHQBDAAV?$__crt_win32_buffer@_WU__crt_win32_buffer_internal_dynamic_resizing@@@@ABV<lambda_62f6974d9771e494a5ea317cc32e971c>@@I@Z 0046d2f4 f i libucrt:strftime.obj
 0001:0006c3a6       ??$__acrt_convert_wcs_mbs_cp@_WDV<lambda_0fec1a7b3f42a53036604e18c2d5e07e>@@U__crt_win32_buffer_no_resizing@@@@YAHQB_WAAV?$__crt_win32_buffer@DU__crt_win32_buffer_no_resizing@@@@ABV<lambda_0fec1a7b3f42a53036604e18c2d5e07e>@@I@Z 0046d3a6 f i libucrt:strftime.obj
 0001:0006c468       ??$__acrt_mbs_to_wcs_cp@U__crt_win32_buffer_internal_dynamic_resizing@@@@YAHQBDAAV?$__crt_win32_buffer@_WU__crt_win32_buffer_internal_dynamic_resizing@@@@I@Z 0046d468 f i libucrt:strftime.obj
 0001:0006c485       ??R<lambda_0fec1a7b3f42a53036604e18c2d5e07e>@@QBE@IQB_WQADI@Z 0046d485 f i libucrt:strftime.obj
 0001:0006c485       ??R<lambda_28bda7af82a03b66c1cb3803a755f95d>@@QBE@IQB_WQADI@Z 0046d485 f i libucrt:argv_wildcards.obj
 0001:0006c4a9       ?_deallocate@?$__crt_win32_buffer@DU__crt_win32_buffer_internal_dynamic_resizing@@@@AAEXXZ 0046d4a9 f i libucrt:argv_wildcards.obj
 0001:0006c4a9       ?_deallocate@?$__crt_win32_buffer@_WU__crt_win32_buffer_internal_dynamic_resizing@@@@AAEXXZ 0046d4a9 f i libucrt:strftime.obj
 0001:0006c4c3       ?allocate@?$__crt_win32_buffer@DU__crt_win32_buffer_no_resizing@@@@QAEHI@Z 0046d4c3 f i libucrt:strftime.obj
 0001:0006c4ea       ?allocate@?$__crt_win32_buffer@_WU__crt_win32_buffer_internal_dynamic_resizing@@@@QAEHI@Z 0046d4ea f i libucrt:strftime.obj
 0001:0006c529       ?allocate@__crt_win32_buffer_internal_dynamic_resizing@@SAHQAPAXIABV__crt_win32_buffer_empty_debug_info@@@Z 0046d529 f i libucrt:strftime.obj
 0001:0006c54a       ?set_to_nullptr@?$__crt_win32_buffer@DU__crt_win32_buffer_no_resizing@@@@QAEXXZ 0046d54a f i libucrt:strftime.obj
 0001:0006c560       ___strncnt                 0046d560 f   libucrt:strncnt.obj
 0001:0006c580       _strnlen                   0046d580 f   libucrt:strnlen.obj
 0001:0006c6e0       _wcsnlen                   0046d6e0 f   libucrt:strnlen.obj
 0001:0006c8c0       _wcsncpy_s                 0046d8c0 f   libucrt:wcsncpy_s.obj
 0001:0006c9d0       __libm_sse2_exp_precise    0046d9d0 f   libucrt:exp_sse2_precise.obj
 0001:0006ccb0       __libm_sse2_sqrt_precise   0046dcb0 f   libucrt:sqrt_sse2_precise.obj
 0001:0006cdb0       __callnewh                 0046ddb0 f   libucrt:new_handler.obj
 0001:0006cdf0       ___acrt_initialize_new_handler 0046ddf0 f   libucrt:new_handler.obj
 0001:0006ce10       __query_new_handler        0046de10 f   libucrt:new_handler.obj
 0001:0006ce70       __set_new_handler          0046de70 f   libucrt:new_handler.obj
 0001:0006cee0       ?_set_new_handler@@YAP6AHI@ZH@Z 0046dee0 f   libucrt:new_handler.obj
 0001:0006ceed       __seh_filter_exe           0046deed f   libucrt:exception_filter.obj
 0001:0006d2e2       ___acrt_allocate_buffer_for_argv 0046e2e2 f   libucrt:argv_parsing.obj
 0001:0006d331       __configure_narrow_argv    0046e331 f   libucrt:argv_parsing.obj
 0001:0006d7b4       ___dcrt_get_or_create_narrow_environment_nolock 0046e7b4 f   libucrt:environment_initialization.obj
 0001:0006d7b9       ___dcrt_get_or_create_wide_environment_nolock 0046e7b9 f   libucrt:environment_initialization.obj
 0001:0006d7be       ___dcrt_uninitialize_environments_nolock 0046e7be f   libucrt:environment_initialization.obj
 0001:0006d80f       __get_initial_narrow_environment 0046e80f f   libucrt:environment_initialization.obj
 0001:0006d823       __initialize_narrow_environment 0046e823 f   libucrt:environment_initialization.obj
 0001:0006dacb       __crt_atexit               0046eacb f   libucrt:onexit.obj
 0001:0006dae1       __execute_onexit_table     0046eae1 f   libucrt:onexit.obj
 0001:0006db1f       __initialize_onexit_table  0046eb1f f   libucrt:onexit.obj
 0001:0006db48       __register_onexit_function 0046eb48 f   libucrt:onexit.obj
 0001:0006dc76       ___acrt_initialize         0046ec76 f   libucrt:initialization.obj
 0001:0006dc88       ___acrt_uninitialize       0046ec88 f   libucrt:initialization.obj
 0001:0006dcc0       __except1                  0046ecc0 f   libucrt:fpexcept.obj
 0001:0006de00       __handle_exc               0046ee00 f   libucrt:fpexcept.obj
 0001:0006e130       __raise_exc                0046f130 f   libucrt:fpexcept.obj
 0001:0006e160       __raise_exc_ex             0046f160 f   libucrt:fpexcept.obj
 0001:0006e490       __set_errno_from_matherr   0046f490 f   libucrt:fpexcept.obj
 0001:0006e4d0       __umatherr                 0046f4d0 f   libucrt:fpexcept.obj
 0001:0006e5cf       __query_app_type           0046f5cf f   libucrt:report_runtime_error.obj
 0001:0006e5d5       __set_app_type             0046f5d5 f   libucrt:report_runtime_error.obj
 0001:0006e5f0       ___acrt_has_user_matherr   0046f5f0 f   libucrt:matherr.obj
 0001:0006e610       ___acrt_initialize_user_matherr 0046f610 f   libucrt:matherr.obj
 0001:0006e620       ___acrt_invoke_user_matherr 0046f620 f   libucrt:matherr.obj
 0001:0006e660       ___setusermatherr          0046f660 f   libucrt:matherr.obj
 0001:0006e686       __initterm                 0046f686 f   libucrt:initterm.obj
 0001:0006e6b1       __initterm_e               0046f6b1 f   libucrt:initterm.obj
 0001:0006e6df       __get_fmode                0046f6df f   libucrt:setmode.obj
 0001:0006e70c       __set_fmode                0046f70c f   libucrt:setmode.obj
 0001:0006e749       __setmode_nolock           0046f749 f   libucrt:setmode.obj
 0001:0006e81a       ___acrt_initialize_command_line 0046f81a f   libucrt:argv_data.obj
 0001:0006e833       ___p___argc                0046f833 f   libucrt:argv_data.obj
 0001:0006e839       ___p___argv                0046f839 f   libucrt:argv_data.obj
 0001:0006e93f       ??0_expandlocale_locale_name_cache@@QAE@QA_WIQAU__crt_qualified_locale_data@@@Z 0046f93f f i libucrt:wsetlocale.obj
 0001:0006e989       ??1_expandlocale_locale_name_cache@@QAE@XZ 0046f989 f i libucrt:wsetlocale.obj
 0001:0006eb21       ?commit_locale_name@_expandlocale_locale_name_cache@@QAEXQB_WI@Z 0046fb21 f i libucrt:wsetlocale.obj
 0001:0006eb65       ?commit_locale_name_cache_already_updated@_expandlocale_locale_name_cache@@QAEXQB_WI@Z 0046fb65 f i libucrt:wsetlocale.obj
 0001:0006eb9a       ___acrt_copy_locale_name   0046fb9a f   libucrt:wsetlocale.obj
 0001:0006ebfa       ___acrt_set_locale_changed 0046fbfa f   libucrt:wsetlocale.obj
 0001:0006ec05       ___acrt_uninitialize_locale 0046fc05 f   libucrt:wsetlocale.obj
 0001:0006ec2c       ___lc_lctowcs              0046fc2c f   libucrt:wsetlocale.obj
 0001:0006ec9c       ___lc_wcstolc              0046fc9c f   libucrt:wsetlocale.obj
 0001:0006edd9       __configthreadlocale       0046fdd9 f   libucrt:wsetlocale.obj
 0001:0006f240       __wcscats                  00470240 f   libucrt:wsetlocale.obj
 0001:0006f281       __wsetlocale               00470281 f   libucrt:wsetlocale.obj
 0001:0006ff70       __query_new_mode           00470f70 f   libucrt:new_mode.obj
 0001:0006ff80       __set_new_mode             00470f80 f   libucrt:new_mode.obj
 0001:0006ffaf       ___p__commode              00470faf f   libucrt:ncommode.obj
 0001:0006ffc0       __controlfp_s              00470fc0 f   libucrt:contrlfp.obj
 0001:0007002c       @_guard_check_icall@4      0047102c f i libucrt:checkcfg.obj
 0001:00070040       _strncmp                   00471040 f   libucrt:strncmp.obj
 0001:000700c0       _wcsncmp                   004710c0 f   libucrt:wcsncmp.obj
 0001:000703f6       ?internal_get_ptd_head_slow@@YAPAU__acrt_ptd@@XZ 004713f6 f   libucrt:per_thread_data.obj
 0001:000704e9       ___acrt_getptd             004714e9 f   libucrt:per_thread_data.obj
 0001:000704f7       ___acrt_getptd_head        004714f7 f   libucrt:per_thread_data.obj
 0001:0007053a       ___acrt_getptd_noexit      0047153a f   libucrt:per_thread_data.obj
 0001:000705c6       ___acrt_getptd_noexit_explicit 004715c6 f   libucrt:per_thread_data.obj
 0001:0007060f       ___acrt_initialize_ptd     0047160f f   libucrt:per_thread_data.obj
 0001:00070645       ___acrt_uninitialize_ptd   00471645 f   libucrt:per_thread_data.obj
 0001:00070660       __dtest_inline             00471660 f i libucrt:_test.obj
 0001:00070660       __ldtest_inline            00471660 f i libucrt:_test.obj
 0001:000706d0       __fdtest_inline            004716d0 f i libucrt:_test.obj
 0001:00070730       __calloc_base              00471730 f   libucrt:calloc_base.obj
 0001:00070790       __free_base                00471790 f   libucrt:free_base.obj
 0001:000707e0       __malloc_base              004717e0 f   libucrt:malloc_base.obj
 0001:00070bce       ___acrt_AppPolicyGetProcessTerminationMethodInternal@4 00471bce f   libucrt:winapi_thunks.obj
 0001:00070c1d       ___acrt_AppPolicyGetThreadInitializationTypeInternal@4 00471c1d f   libucrt:winapi_thunks.obj
 0001:00070c6c       ___acrt_AreFileApisANSI@0  00471c6c f   libucrt:winapi_thunks.obj
 0001:00070c8b       ___acrt_CompareStringEx@36 00471c8b f   libucrt:winapi_thunks.obj
 0001:00070ce8       ___acrt_EnumSystemLocalesEx@16 00471ce8 f   libucrt:winapi_thunks.obj
 0001:00070d3c       ___acrt_FlsAlloc@4         00471d3c f   libucrt:winapi_thunks.obj
 0001:00070d48       ___acrt_FlsFree@4          00471d48 f   libucrt:winapi_thunks.obj
 0001:00070d54       ___acrt_FlsGetValue2@4     00471d54 f   libucrt:winapi_thunks.obj
 0001:00070d61       ___acrt_FlsGetValue@4      00471d61 f   libucrt:winapi_thunks.obj
 0001:00070d6d       ___acrt_FlsSetValue@8      00471d6d f   libucrt:winapi_thunks.obj
 0001:00070d79       ___acrt_GetLocaleInfoEx@16 00471d79 f   libucrt:winapi_thunks.obj
 0001:00070db8       ___acrt_GetUserDefaultLocaleName@8 00471db8 f   libucrt:winapi_thunks.obj
 0001:00070df4       ___acrt_InitializeCriticalSectionEx@12 00471df4 f   libucrt:winapi_thunks.obj
 0001:00070e00       ___acrt_IsValidLocaleName@4 00471e00 f   libucrt:winapi_thunks.obj
 0001:00070e38       ___acrt_LCIDToLocaleName@16 00471e38 f   libucrt:winapi_thunks.obj
 0001:00070e77       ___acrt_LCMapStringEx@36   00471e77 f   libucrt:winapi_thunks.obj
 0001:00070ed4       ___acrt_LocaleNameToLCID@8 00471ed4 f   libucrt:winapi_thunks.obj
 0001:00070f05       ___acrt_RoInitialize@4     00471f05 f   libucrt:winapi_thunks.obj
 0001:00070f4f       ___acrt_RoUninitialize@0   00471f4f f   libucrt:winapi_thunks.obj
 0001:00070f8c       ___acrt_can_use_vista_locale_apis 00471f8c f   libucrt:winapi_thunks.obj
 0001:00070f97       ___acrt_eagerly_load_locale_apis 00471f97 f   libucrt:winapi_thunks.obj
 0001:00070fce       ___acrt_initialize_winapi_thunks 00471fce f   libucrt:winapi_thunks.obj
 0001:00070ff1       ___acrt_tls2_supported     00471ff1 f   libucrt:winapi_thunks.obj
 0001:00071022       ___acrt_uninitialize_winapi_thunks 00472022 f   libucrt:winapi_thunks.obj
 0001:00071058       __fcloseall                00472058 f   libucrt:closeall.obj
 0001:00071103       ___acrt_stdio_free_buffer_nolock 00472103 f   libucrt:_freebuf.obj
 0001:000712a3       ___acrt_initialize_lowio   004722a3 f   libucrt:ioinit.obj
 0001:00071303       ___acrt_uninitialize_lowio 00472303 f   libucrt:ioinit.obj
 0001:0007132f       ?__acrt_stdio_allocate_stream@@YA?AV__crt_stdio_stream@@XZ 0047232f f   libucrt:stream.obj
 0001:00071398       ?__acrt_stdio_free_stream@@YAXV__crt_stdio_stream@@@Z 00472398 f   libucrt:stream.obj
 0001:00071495       ??$__acrt_stdio_parse_mode@D@@YA?AU__acrt_stdio_stream_mode@@QBD@Z 00472495 f i libucrt:openfile.obj
 0001:00071759       ?__acrt_stdio_parse_mode_D@@YA_NAAU__acrt_stdio_stream_mode@@@Z 00472759 f i libucrt:openfile.obj
 0001:00071774       ?__acrt_stdio_parse_mode_T@@YA_NAAU__acrt_stdio_stream_mode@@@Z 00472774 f i libucrt:openfile.obj
 0001:00071793       ?__acrt_stdio_parse_mode_b@@YA_NAAU__acrt_stdio_stream_mode@@@Z 00472793 f i libucrt:openfile.obj
 0001:000717b3       ?__acrt_stdio_parse_mode_c@@YA_NAAU__acrt_stdio_stream_mode@@AA_N@Z 004727b3 f i libucrt:openfile.obj
 0001:000717d5       ?__acrt_stdio_parse_mode_n@@YA_NAAU__acrt_stdio_stream_mode@@AA_N@Z 004727d5 f i libucrt:openfile.obj
 0001:000717f7       ?__acrt_stdio_parse_mode_plus@@YA_NAAU__acrt_stdio_stream_mode@@AA_N@Z 004727f7 f i libucrt:openfile.obj
 0001:0007182d       ?__acrt_stdio_parse_mode_t@@YA_NAAU__acrt_stdio_stream_mode@@@Z 0047282d f i libucrt:openfile.obj
 0001:0007184d       ?__acrt_stdio_parse_mode_x@@YA_NAAU__acrt_stdio_stream_mode@@@Z 0047284d f i libucrt:openfile.obj
 0001:0007186d       __openfile                 0047286d f   libucrt:openfile.obj
 0001:00071878       __fileno                   00472878 f   libucrt:fileno.obj
 0001:00071930       __close_internal           00472930 f   libucrt:close.obj
 0001:000719d3       __close_nolock             004729d3 f   libucrt:close.obj
 0001:00071a03       __close_nolock_internal    00472a03 f   libucrt:close.obj
 0001:00071c4b       __lseeki64                 00472c4b f   libucrt:lseek.obj
 0001:00071c8b       __lseeki64_internal        00472c8b f   libucrt:lseek.obj
 0001:00071ca9       __lseeki64_nolock          00472ca9 f   libucrt:lseek.obj
 0001:00071ce9       __lseeki64_nolock_internal 00472ce9 f   libucrt:lseek.obj
 0001:000721ee       __read                     004731ee f   libucrt:read.obj
 0001:00072307       __read_nolock              00473307 f   libucrt:read.obj
 0001:00072e39       __write                    00473e39 f   libucrt:write.obj
 0001:00072e70       __write_internal           00473e70 f   libucrt:write.obj
 0001:00072f81       __write_nolock             00473f81 f   libucrt:write.obj
 0001:000733f4       ___acrt_stdio_flush_and_write_narrow_nolock 004743f4 f   libucrt:_flsbuf.obj
 0001:000733ff       ___acrt_should_use_temporary_buffer 004743ff f   libucrt:_sftbuf.obj
 0001:0007343d       ___acrt_stdio_begin_temporary_buffering_nolock 0047443d f   libucrt:_sftbuf.obj
 0001:000734e8       ___acrt_stdio_end_temporary_buffering_nolock 004744e8 f   libucrt:_sftbuf.obj
 0001:00073526       ___acrt_update_locale_info 00474526 f   libucrt:locale_update.obj
 0001:00073553       ___acrt_update_locale_info_explicit 00474553 f   libucrt:locale_update.obj
 0001:00073584       ___acrt_update_multibyte_info 00474584 f   libucrt:locale_update.obj
 0001:000735b1       ___acrt_update_multibyte_info_explicit 004745b1 f   libucrt:locale_update.obj
 0001:000735e2       ?__acrt_fp_classify@@YA?AW4__acrt_fp_class@@ABN@Z 004745e2 f i libucrt:cvt.obj
 0001:00073f91       ___acrt_fp_format          00474f91 f   libucrt:cvt.obj
 0001:00074111       __wctomb_internal          00475111 f   libucrt:wctomb.obj
 0001:00074275       __mbtowc_internal          00475275 f   libucrt:mbtowc.obj
 0001:000743a5       __mbtowc_l                 004753a5 f   libucrt:mbtowc.obj
 0001:000743dd       ?__mblen_utf8@__crt_mbstring@@YAHPBD@Z 004753dd f   libucrt:mbrtoc32.obj
 0001:0007441e       ?__mbrtoc32_utf8@__crt_mbstring@@YAIPA_UPBDIPAU_Mbstatet@@AAV__crt_cached_ptd_host@@@Z 0047541e f   libucrt:mbrtoc32.obj
 0001:000745d7       ?__c16rtomb_utf8@__crt_mbstring@@YAIPAD_SPAU_Mbstatet@@AAV__crt_cached_ptd_host@@@Z 004755d7 f   libucrt:c16rtomb.obj
 0001:000746ae       ?__mbrtowc_utf8@__crt_mbstring@@YAIPA_WPBDIPAU_Mbstatet@@AAV__crt_cached_ptd_host@@@Z 004756ae f   libucrt:mbrtowc.obj
 0001:000746f1       ?__mbsrtowcs_utf8@__crt_mbstring@@YAIPA_WPAPBDIPAU_Mbstatet@@AAV__crt_cached_ptd_host@@@Z 004756f1 f   libucrt:mbrtowc.obj
 0001:00074804       __get_printf_count_output  00475804 f   libucrt:printf_count_output.obj
 0001:00074819       ___acrt_get_begin_thread_init_policy 00475819 f   libucrt:win_policies.obj
 0001:00074853       ___acrt_get_process_end_policy 00475853 f   libucrt:win_policies.obj
 0001:0007487a       _iswctype                  0047587a f   libucrt:iswctype.obj
 0001:000748e3       __isctype_l                004758e3 f   libucrt:isctype.obj
 0001:000749b0       _fegetround                004759b0 f   libucrt:fegetround.obj
 0001:000749bf       ___acrt_initialize_timeset 004759bf f   libucrt:timeset.obj
 0001:000749f4       ___daylight                004759f4 f   libucrt:timeset.obj
 0001:000749fa       ___dstbias                 004759fa f   libucrt:timeset.obj
 0001:00074a00       ___timezone                00475a00 f   libucrt:timeset.obj
 0001:00074a06       ___tzname                  00475a06 f   libucrt:timeset.obj
 0001:00074a0c       ___wide_tzname             00475a0c f   libucrt:timeset.obj
 0001:00074a12       __get_daylight             00475a12 f   libucrt:timeset.obj
 0001:00074a3e       __get_dstbias              00475a3e f   libucrt:timeset.obj
 0001:00074a6a       __get_timezone             00475a6a f   libucrt:timeset.obj
 0001:00074a96       ??$__crt_time_elapsed_leap_years@H@@YAHH@Z 00475a96 f i libucrt:gmtime.obj
 0001:00074cd4       ___getgmtimebuf            00475cd4 f   libucrt:gmtime.obj
 0001:00074d12       __gmtime64_s               00475d12 f   libucrt:gmtime.obj
 0001:00074d1d       ?__acrt_get_utf8_acp_compatibility_codepage@@YAIXZ 00475d1d f i libucrt:tzset.obj
 0001:00075625       ___tzset                   00476625 f   libucrt:tzset.obj
 0001:00075682       __isindst                  00476682 f   libucrt:tzset.obj
 0001:000756d6       ___acrt_app_verifier_enabled 004766d6 f   libucrt:peb_access.obj
 0001:000756e8       ___acrt_is_secure_process  004766e8 f   libucrt:peb_access.obj
 0001:00075700       _wcscpy_s                  00476700 f   libucrt:wcscpy_s.obj
 0001:000757a0       __wcsnicoll                004767a0 f   libucrt:wcsnicol.obj
 0001:00075930       __strnicoll                00476930 f   libucrt:strnicol.obj
 0001:00075b3e       __commit                   00476b3e f   libucrt:commit.obj
 0001:00075bc0       ___libm_error_support      00476bc0 f   libucrt:libm_error.obj
 0001:00075e60       ___acrt_initialize_sse2    00476e60 f   libucrt:mathfcns.obj
 0001:00075e70       __ceil_default             00476e70 f   libucrt:ceil.obj
 0001:000760ee       ___acrt_stdio_refill_and_read_narrow_nolock 004770ee f   libucrt:_filbuf.obj
 0001:000762e6       ___acrt_LCMapStringA       004772e6 f   libucrt:lcmapstringa.obj
 0001:00076330       __expand                   00477330 f   libucrt:expand.obj
 0001:00076340       __expand_base              00477340 f   libucrt:expand.obj
 0001:00076420       __msize_base               00477420 f   libucrt:msize.obj
 0001:00076460       __msize                    00477460 f   libucrt:msize.obj
 0001:0007653d       ___acrt_get_sigabrt_handler 0047753d f   libucrt:signal.obj
 0001:00076564       ___acrt_initialize_signal_handlers 00477564 f   libucrt:signal.obj
 0001:00076582       _raise                     00477582 f   libucrt:signal.obj
 0001:00076a1a       _mbstowcs_s                00477a1a f   libucrt:mbstowcs.obj
 0001:00076dce       __wcstombs_s_l             00477dce f   libucrt:wcstombs.obj
 0001:00076eec       ___acrt_GetLocaleInfoA     00477eec f   libucrt:getlocaleinfoa.obj
 0001:0007709c       ___acrt_GetStringTypeA     0047809c f   libucrt:getstringtypea.obj
 0001:000771a0       ___set_fpsr_sse2           004781a0 f   libucrt:fpctrl.obj
 0001:00077280       __clrfp                    00478280 f   libucrt:fpctrl.obj
 0001:000772a0       __ctrlfp                   004782a0 f   libucrt:fpctrl.obj
 0001:000772d0       __set_statfp               004782d0 f   libucrt:fpctrl.obj
 0001:00077330       __statfp                   00478330 f   libucrt:fpctrl.obj
 0001:00077350       __realloc_base             00478350 f   libucrt:realloc_base.obj
 0001:00077451       ___acrt_MultiByteToWideChar 00478451 f   libucrt:multibytetowidechar.obj
 0001:0007750b       ___acrt_WideCharToMultiByte 0047850b f   libucrt:widechartomultibyte.obj
 0001:000775b0       ___ascii_wcsicmp           004785b0 f   libucrt:wcsicmp.obj
 0001:00077600       __wcsicmp                  00478600 f   libucrt:wcsicmp.obj
 0001:00077650       __wcsicmp_l                00478650 f   libucrt:wcsicmp.obj
 0001:00077800       __CIexp                    00478800 f   libucrt:87ctran.obj
 0001:0007783b       __exp_default              0047883b f   libucrt:87ctran.obj
 0001:00077845       __CIexp_default            00478845 f   libucrt:87ctran.obj
 0001:00077850       _sqrt                      00478850 f   libucrt:sqrt.obj
 0001:00077876       ??$__acrt_convert_wcs_mbs_cp@_WDV<lambda_28bda7af82a03b66c1cb3803a755f95d>@@U__crt_win32_buffer_internal_dynamic_resizing@@@@YAHQB_WAAV?$__crt_win32_buffer@DU__crt_win32_buffer_internal_dynamic_resizing@@@@ABV<lambda_28bda7af82a03b66c1cb3803a755f95d>@@I@Z 00478876 f i libucrt:argv_wildcards.obj
 0001:00077e1b       ?allocate@?$__crt_win32_buffer@DU__crt_win32_buffer_internal_dynamic_resizing@@@@QAEHI@Z 00478e1b f i libucrt:argv_wildcards.obj
 0001:00077ede       ___acrt_expand_narrow_argv_wildcards 00478ede f   libucrt:argv_wildcards.obj
 0001:00077ee9       ___acrt_GetModuleFileNameA 00478ee9 f   libucrt:getmodulefilenamea.obj
 0001:00078506       ___acrt_initialize_multibyte 00479506 f   libucrt:mbctype.obj
 0001:0007854e       ___acrt_update_thread_multibyte_data 0047954e f   libucrt:mbctype.obj
 0001:00078561       __setmbcp_nolock           00479561 f   libucrt:mbctype.obj
 0001:000787b6       __ismbblead                004797b6 f   libucrt:ismbbyte.obj
 0001:00078805       ___dcrt_get_narrow_environment_from_os 00479805 f   libucrt:get_environment_from_os.obj
 0001:000788a5       ___dcrt_get_wide_environment_from_os 004798a5 f   libucrt:get_environment_from_os.obj
 0001:0007902a       ___dcrt_set_variable_in_narrow_environment_nolock 0047a02a f   libucrt:setenv.obj
 0001:00079035       ___dcrt_set_variable_in_wide_environment_nolock 0047a035 f   libucrt:setenv.obj
 0001:00079040       __recalloc_base            0047a040 f   libucrt:recalloc.obj
 0001:000790c0       __recalloc                 0047a0c0 f   libucrt:recalloc.obj
 0001:000790d0       __get_heap_handle          0047a0d0 f   libucrt:heap_handle.obj
 0001:000790e0       ___acrt_initialize_heap    0047a0e0 f   libucrt:heap_handle.obj
 0001:00079100       ___acrt_uninitialize_heap  0047a100 f   libucrt:heap_handle.obj
 0001:00079110       ___acrt_getheap            0047a110 f   libucrt:heap_handle.obj
 0001:00079116       ___acrt_execute_initializers 0047a116 f   libucrt:shared_initialization.obj
 0001:0007917e       ___acrt_execute_uninitializers 0047a17e f   libucrt:shared_initialization.obj
 0001:000791b0       ___acrt_fenv_get_common_round_control 0047a1b0 f   libucrt:_fenvutils.obj
 0001:000791e0       ___acrt_fenv_get_control   0047a1e0 f   libucrt:_fenvutils.obj
 0001:000793c0       ___acrt_fenv_get_status    0047a3c0 f   libucrt:_fenvutils.obj
 0001:00079470       ___acrt_fenv_set_control   0047a470 f   libucrt:_fenvutils.obj
 0001:000796c0       ___acrt_fenv_set_status    0047a6c0 f   libucrt:_fenvutils.obj
 0001:000797d0       _wcscat_s                  0047a7d0 f   libucrt:wcscat_s.obj
 0001:00079871       ___acrt_lowio_create_handle_array 0047a871 f   libucrt:osfinfo.obj
 0001:000798ec       ___acrt_lowio_destroy_handle_array 0047a8ec f   libucrt:osfinfo.obj
 0001:00079921       ___acrt_lowio_ensure_fh_exists 0047a921 f   libucrt:osfinfo.obj
 0001:000799bf       ___acrt_lowio_lock_fh      0047a9bf f   libucrt:osfinfo.obj
 0001:000799e2       ___acrt_lowio_set_os_handle 0047a9e2 f   libucrt:osfinfo.obj
 0001:00079a74       ___acrt_lowio_unlock_fh    0047aa74 f   libucrt:osfinfo.obj
 0001:00079a97       __alloc_osfhnd             0047aa97 f   libucrt:osfinfo.obj
 0001:00079baa       __free_osfhnd              0047abaa f   libucrt:osfinfo.obj
 0001:00079c3b       __get_osfhandle            0047ac3b f   libucrt:osfinfo.obj
 0001:00079ca5       ___acrt_initialize_fmode   0047aca5 f   libucrt:txtmode.obj
 0001:00079cbb       ___acrt_locale_free_monetary 0047acbb f   libucrt:initmon.obj
 0001:00079db9       ___acrt_locale_initialize_monetary 0047adb9 f   libucrt:initmon.obj
 0001:0007a11a       ___acrt_locale_free_numeric 0047b11a f   libucrt:initnum.obj
 0001:0007a183       ___acrt_locale_initialize_numeric 0047b183 f   libucrt:initnum.obj
 0001:0007a641       ___acrt_locale_free_time   0047b641 f   libucrt:inittime.obj
 0001:0007a725       ___acrt_locale_initialize_time 0047b725 f   libucrt:inittime.obj
 0001:0007a7a0       _wcsncat_s                 0047b7a0 f   libucrt:wcsncat_s.obj
 0001:0007a8d0       _wcscspn                   0047b8d0 f   libucrt:wcscspn.obj
 0001:0007a920       _wcspbrk                   0047b920 f   libucrt:wcspbrk.obj
 0001:0007a95f       ___acrt_add_locale_ref     0047b95f f   libucrt:locale_refcounting.obj
 0001:0007a9dc       ___acrt_free_locale        0047b9dc f   libucrt:locale_refcounting.obj
 0001:0007ab24       ___acrt_locale_add_lc_time_reference 0047bb24 f   libucrt:locale_refcounting.obj
 0001:0007ab4d       ___acrt_locale_free_lc_time_if_unreferenced 0047bb4d f   libucrt:locale_refcounting.obj
 0001:0007ab7e       ___acrt_locale_release_lc_time_reference 0047bb7e f   libucrt:locale_refcounting.obj
 0001:0007aba7       ___acrt_release_locale_ref 0047bba7 f   libucrt:locale_refcounting.obj
 0001:0007ac28       ___acrt_update_thread_locale_data 0047bc28 f   libucrt:locale_refcounting.obj
 0001:0007aca9       __updatetlocinfoEx_nolock  0047bca9 f   libucrt:locale_refcounting.obj
 0001:0007b3ea       ___acrt_get_qualified_locale 0047c3ea f   libucrt:get_qualified_locale.obj
 0001:0007bd68       ___acrt_get_qualified_locale_downlevel 0047cd68 f   libucrt:getqloc_downlevel.obj
 0001:0007c030       __clearfp                  0047d030 f   libucrt:ieee87.obj
 0001:0007c150       __control87                0047d150 f   libucrt:ieee87.obj
 0001:0007c669       ___acrt_DownlevelLCIDToLocaleName 0047d669 f   libucrt:lcidtoname_downlevel.obj
 0001:0007c6e7       ___acrt_DownlevelLocaleNameToLCID 0047d6e7 f   libucrt:lcidtoname_downlevel.obj
 0001:0007c720       ___ascii_wcsnicmp          0047d720 f   libucrt:wcsnicmp.obj
 0001:0007c790       __wcsnicmp                 0047d790 f   libucrt:wcsnicmp.obj
 0001:0007c7e0       __wcsnicmp_l               0047d7e0 f   libucrt:wcsnicmp.obj
 0001:0007c9e0       __strnicmp                 0047d9e0 f   libucrt:strnicmp.obj
 0001:0007ca40       __strnicmp_l               0047da40 f   libucrt:strnicmp.obj
 0001:0007d180       __sopen_nolock             0047e180 f   libucrt:open.obj
 0001:0007d1ee       __sopen_s                  0047e1ee f   libucrt:open.obj
 0001:0007d20e       __wsopen_nolock            0047e20e f   libucrt:open.obj
 0001:0007d539       __isatty                   0047e539 f   libucrt:isatty.obj
 0001:0007d58f       __putwch_nolock            0047e58f f   libucrt:putwch.obj
 0001:0007d5c1       ___acrt_stdio_allocate_buffer_nolock 0047e5c1 f   libucrt:_getbuf.obj
 0001:0007d6ce       ___acrt_fp_strflt_to_string 0047e6ce f   libucrt:_fptostr.obj
 0001:0007d7c7       ___acrt_fltout             0047e7c7 f   libucrt:cfout.obj
 0001:0007ec95       ?__c32rtomb_utf8@__crt_mbstring@@YAIPAD_UPAU_Mbstatet@@AAV__crt_cached_ptd_host@@@Z 0047fc95 f   libucrt:c32rtomb.obj
 0001:0007ed43       ?reset_and_return@__crt_mbstring@@YAIIPAU_Mbstatet@@@Z 0047fd43 f   libucrt:common_utf8.obj
 0001:0007ed57       ?return_illegal_sequence@__crt_mbstring@@YAIPAU_Mbstatet@@AAV__crt_cached_ptd_host@@@Z 0047fd57 f   libucrt:common_utf8.obj
 0001:0007ed79       ___acrt_GetStringTypeW     0047fd79 f   libucrt:getstringtypew.obj
 0001:0007ed92       ___acrt_CompareStringW     0047fd92 f   libucrt:comparestringw.obj
 0001:0007f097       ___acrt_CompareStringA     00480097 f   libucrt:comparestringa.obj
 0001:0007f0e0       __frnd                     004800e0 f   libucrt:frnd.obj
 0001:0007f0f7       ?__wcsrtombs_utf8@__crt_mbstring@@YAIPADPAPB_WIPAU_Mbstatet@@AAV__crt_cached_ptd_host@@@Z 004800f7 f   libucrt:wcrtomb.obj
 0001:0007f200       _strncpy_s                 00480200 f   libucrt:strncpy_s.obj
 0001:0007f2f2       __towlower_l               004802f2 f   libucrt:towlower.obj
 0001:0007f3d0       __CIexp_pentium4           004803d0 f   libucrt:exp_pentium4.obj
 0001:0007f3e8       __exp_pentium4             004803e8     libucrt:exp_pentium4.obj
 0001:0007f6b0       __fFEXP                    004806b0 f   libucrt:87tran.obj
 0001:0007f707       __rtinfpopse               00480707     libucrt:87tran.obj
 0001:0007f709       __rtinfnpopse              00480709     libucrt:87tran.obj
 0001:0007f719       __fFLN                     00480719     libucrt:87tran.obj
 0001:0007f7ce       __rtinfpop                 004807ce     libucrt:87tran.obj
 0001:0007f7d0       __rtinfnpop                004807d0     libucrt:87tran.obj
 0001:0007f7e0       __rtforexpinf              004807e0 f   libucrt:87tran.obj
 0001:0007f7ed       __ffexpm1                  004807ed     libucrt:87tran.obj
 0001:0007f8a0       __cintrindisp2             004808a0 f   libucrt:87cdisp.obj
 0001:0007f8f0       __cintrindisp1             004808f0 f   libucrt:87cdisp.obj
 0001:0007f939       __ctrandisp2               00480939 f   libucrt:87cdisp.obj
 0001:0007fac8       __ctrandisp1               00480ac8 f   libucrt:87cdisp.obj
 0001:0007fafb       __fload                    00480afb f   libucrt:87cdisp.obj
 0001:0007fb40       __twoToTOS                 00480b40 f   libucrt:common.obj
 0001:0007fb55       __load_CW                  00480b55 f   libucrt:common.obj
 0001:0007fb6c       __convertTOStoQNaN         00480b6c f   libucrt:common.obj
 0001:0007fb85       __fload_withFB             00480b85 f   libucrt:common.obj
 0001:0007fbc8       __checkTOS_withFB          00480bc8 f   libucrt:common.obj
 0001:0007fbde       __fast_exit                00480bde f   libucrt:common.obj
 0001:0007fbeb       __math_exit                00480beb f   libucrt:common.obj
 0001:0007fc15       __check_overflow_exit      00480c15 f   libucrt:common.obj
 0001:0007fc29       __check_range_exit         00480c29 f   libucrt:common.obj
 0001:0007fcd0       __CIsqrt                   00480cd0 f   libucrt:sqrt_impl.obj
 0001:0007fce4       __sqrt_common              00480ce4     libucrt:sqrt_impl.obj
 0001:0007fd90       _qsort                     00480d90 f   libucrt:qsort.obj
 0001:000801d0       _strpbrk                   004811d0 f   libucrt:strpbrk.obj
 0001:00080210       __mbsdec                   00481210 f   libucrt:mbsdec.obj
 0001:00080227       __mbsdec_l                 00481227 f   libucrt:mbsdec.obj
 0001:000802c0       ___acrt_SetEnvironmentVariableA 004812c0 f   libucrt:setenvironmentvariablea.obj
 0001:00080479       __itow_s                   00481479 f   libucrt:xtoa.obj
 0001:000804b0       ___ascii_strnicmp          004814b0 f   libucrt:_strnicm.obj
 0001:00080511       ??0__crt_seek_guard@@QAE@H_J@Z 00481511 f i libucrt:chsize.obj
 0001:0008055e       __chsize_nolock            0048155e f   libucrt:chsize.obj
 0001:00080595       __chsize_nolock_internal   00481595 f   libucrt:chsize.obj
 0001:0008074b       ___dcrt_lowio_ensure_console_output_initialized 0048174b f   libucrt:initcon.obj
 0001:0008076a       ___dcrt_terminate_console_output 0048176a f   libucrt:initcon.obj
 0001:00080781       ___dcrt_write_console      00481781 f   libucrt:initcon.obj
 0001:000807e0       _fegetenv                  004817e0 f   libucrt:fegetenv.obj
 0001:00080800       _fesetenv                  00481800 f   libucrt:fesetenv.obj
 0001:00080860       _feholdexcept              00481860 f   libucrt:feholdexcept.obj
 0001:000808c0       __libm_sse2_log10_precise  004818c0 f   libucrt:log10_sse2_precise.obj
 0001:00080b70       ___acrt_LCMapStringW       00481b70 f   libucrt:lcmapstringw.obj
 0001:00080bb0       __trandisp1                00481bb0 f   libucrt:87disp.obj
 0001:00080c25       __trandisp2                00481c25 f   libucrt:87disp.obj
 0001:00080cbf       __rttospopde               00481cbf     libucrt:87disp.obj
 0001:00080cc4       __rttospop                 00481cc4     libucrt:87disp.obj
 0001:00080cd0       __rtnospop                 00481cd0 f   libucrt:87disp.obj
 0001:00080ce0       __rttosnpop                00481ce0 f   libucrt:87disp.obj
 0001:00080ce1       __rtnospopde               00481ce1     libucrt:87disp.obj
 0001:00080ce8       __rtzeropop                00481ce8     libucrt:87disp.obj
 0001:00080cea       __rtzeronpop               00481cea     libucrt:87disp.obj
 0001:00080cf0       __rtzerospop               00481cf0 f   libucrt:87disp.obj
 0001:00080cfd       __rtonepop                 00481cfd     libucrt:87disp.obj
 0001:00080d00       __rtonenpop                00481d00 f   libucrt:87disp.obj
 0001:00080d10       __tosnan1                  00481d10 f   libucrt:87disp.obj
 0001:00080d40       __nosnan2                  00481d40 f   libucrt:87disp.obj
 0001:00080d50       __tosnan2                  00481d50 f   libucrt:87disp.obj
 0001:00080d80       __nan2                     00481d80 f   libucrt:87disp.obj
 0001:00080dc0       __rtindfpop                00481dc0 f   libucrt:87disp.obj
 0001:00080dc2       __rtindfnpop               00481dc2     libucrt:87disp.obj
 0001:00080dd3       __rttosnpopde              00481dd3     libucrt:87disp.obj
 0001:00080de0       __rtatan2inf               00481de0 f   libucrt:87disp.obj
 0001:00080dfd       __rtchsifneg               00481dfd     libucrt:87disp.obj
 0001:00080e10       __powhlp                   00481e10 f   libucrt:powhlp.obj
 0001:00081010       __87except                 00482010 f   libucrt:87except.obj
 0001:00081150       __startTwoArgErrorHandling 00482150 f   libucrt:genexcep.obj
 0001:00081167       __startOneArgErrorHandling 00482167 f   libucrt:genexcep.obj
 0001:000811b0       __CIlog10                  004821b0 f   libucrt:log10_impl.obj
 0001:000811eb       __CIlog10_default          004821eb f   libucrt:log10_impl.obj
 0001:000811ff       __log10_default            004821ff     libucrt:log10_impl.obj
 0001:000812c0       __fpclass                  004822c0 f   libucrt:ieeemisc.obj
 0001:00081390       __CIlog10_pentium4         00482390 f   libucrt:log10_pentium4.obj
 0001:000813a8       __log10_pentium4           004823a8     libucrt:log10_pentium4.obj
 0001:00081620       ??$_Copy_construct_from@$$CBU_EXCEPTION_RECORD@@@?$_Ptr_base@$$CBU_EXCEPTION_RECORD@@@std@@IAEXABV?$shared_ptr@$$CBU_EXCEPTION_RECORD@@@1@@Z 00482620 f i libcpmt:excptptr.obj
 0001:0008163f       ??0?$shared_ptr@$$CBU_EXCEPTION_RECORD@@@std@@QAE@ABV01@@Z 0048263f f i libcpmt:excptptr.obj
 0001:00081714       ??1?$shared_ptr@$$CBU_EXCEPTION_RECORD@@@std@@QAE@XZ 00482714 f i libcpmt:excptptr.obj
 0001:00081720       ??4?$shared_ptr@$$CBU_EXCEPTION_RECORD@@@std@@QAEAAV01@$$QAV01@@Z 00482720 f i libcpmt:excptptr.obj
 0001:000817f3       ??_G?$shared_ptr@$$CBU_EXCEPTION_RECORD@@@std@@QAEPAXI@Z 004827f3 f i libcpmt:excptptr.obj
 0001:00081b0d       ?_Decref@_Ref_count_base@std@@QAEXXZ 00482b0d f i libcpmt:excptptr.obj
 0001:00081b36       ?_Decwref@_Ref_count_base@std@@QAEXXZ 00482b36 f i libcpmt:excptptr.obj
 0001:00081cf9       ?_Get_deleter@_Ref_count_base@std@@UBEPAXABVtype_info@@@Z 00482cf9 f i libcpmt:excptptr.obj
 0001:00081d5c       ?__ExceptionPtrCopy@@YAXPAXPBX@Z 00482d5c f   libcpmt:excptptr.obj
 0001:00081d6c       ?__ExceptionPtrCreate@@YAXPAX@Z 00482d6c f   libcpmt:excptptr.obj
 0001:00081d81       ?__ExceptionPtrCurrentException@@YAXPAX@Z 00482d81 f   libcpmt:excptptr.obj
 0001:00081e63       ?__ExceptionPtrDestroy@@YAXPAX@Z 00482e63 f   libcpmt:excptptr.obj
 0001:00081e72       ?__ExceptionPtrRethrow@@YAXPBX@Z 00482e72 f   libcpmt:excptptr.obj
 0001:00081f40       __FindPESection            00482f40 f   LIBCMT:pesect.obj
 0001:00081f90       __IsNonwritableInCurrentImage 00482f90 f   LIBCMT:pesect.obj
 0001:00082050       __ValidateImageBase        00483050 f   LIBCMT:pesect.obj
 0001:00082090       __allrem                   00483090 f   LIBCMT:llrem.obj
 0001:00082150       __alldvrm                  00483150 f   LIBCMT:lldvrm.obj
 0001:00082230       _strrchr                   00483230 f   libvcruntime:strrchr.obj
 0001:00082367       _wcschr                    00483367 f   libvcruntime:wcschr.obj
 0001:00082401       __filter_x86_sse2_floating_point_exception 00483401 f   LIBCMT:x86_exception_filter.obj
 0001:00082401       __filter_x86_sse2_floating_point_exception_default 00483401 f   LIBCMT:x86_exception_filter.obj
 0002:00000000       __imp__InitCommonControlsEx@4 00485000     comctl32:COMCTL32.dll
 0002:00000004       \177COMCTL32_NULL_THUNK_DATA 00485004     comctl32:COMCTL32.dll
 0002:00000008       __imp__SetEndOfFile@4      00485008     kernel32:KERNEL32.dll
 0002:0000000c       __imp__SetStdHandle@8      0048500c     kernel32:KERNEL32.dll
 0002:00000010       __imp__GetProcessHeap@0    00485010     kernel32:KERNEL32.dll
 0002:00000014       __imp__GetTempPathA@8      00485014     kernel32:KERNEL32.dll
 0002:00000018       __imp__GetTempFileNameA@16 00485018     kernel32:KERNEL32.dll
 0002:0000001c       __imp__ContinueDebugEvent@12 0048501c     kernel32:KERNEL32.dll
 0002:00000020       __imp__WaitForDebugEvent@8 00485020     kernel32:KERNEL32.dll
 0002:00000024       __imp__DebugActiveProcess@4 00485024     kernel32:KERNEL32.dll
 0002:00000028       __imp__CloseHandle@4       00485028     kernel32:KERNEL32.dll
 0002:0000002c       __imp__Sleep@4             0048502c     kernel32:KERNEL32.dll
 0002:00000030       __imp__ResumeThread@4      00485030     kernel32:KERNEL32.dll
 0002:00000034       __imp__CreateProcessA@40   00485034     kernel32:KERNEL32.dll
 0002:00000038       __imp__ReadProcessMemory@20 00485038     kernel32:KERNEL32.dll
 0002:0000003c       __imp__GetCommandLineA@0   0048503c     kernel32:KERNEL32.dll
 0002:00000040       __imp__GetFullPathNameA@16 00485040     kernel32:KERNEL32.dll
 0002:00000044       __imp__GetLastError@0      00485044     kernel32:KERNEL32.dll
 0002:00000048       __imp__WaitForSingleObject@8 00485048     kernel32:KERNEL32.dll
 0002:0000004c       __imp__GetCurrentProcess@0 0048504c     kernel32:KERNEL32.dll
 0002:00000050       __imp__SetPriorityClass@8  00485050     kernel32:KERNEL32.dll
 0002:00000054       __imp__GetTickCount@0      00485054     kernel32:KERNEL32.dll
 0002:00000058       __imp__GetModuleFileNameA@12 00485058     kernel32:KERNEL32.dll
 0002:0000005c       __imp__GetModuleHandleA@4  0048505c     kernel32:KERNEL32.dll
 0002:00000060       __imp__GlobalAlloc@8       00485060     kernel32:KERNEL32.dll
 0002:00000064       __imp__GlobalUnlock@4      00485064     kernel32:KERNEL32.dll
 0002:00000068       __imp__GlobalLock@4        00485068     kernel32:KERNEL32.dll
 0002:0000006c       __imp__GlobalFree@4        0048506c     kernel32:KERNEL32.dll
 0002:00000070       __imp__MultiByteToWideChar@24 00485070     kernel32:KERNEL32.dll
 0002:00000074       __imp__CreateFileA@28      00485074     kernel32:KERNEL32.dll
 0002:00000078       __imp__SetUnhandledExceptionFilter@4 00485078     kernel32:KERNEL32.dll
 0002:0000007c       __imp__InitializeCriticalSection@4 0048507c     kernel32:KERNEL32.dll
 0002:00000080       __imp__EnterCriticalSection@4 00485080     kernel32:KERNEL32.dll
 0002:00000084       __imp__GetCurrentProcessId@0 00485084     kernel32:KERNEL32.dll
 0002:00000088       __imp__ExitProcess@4       00485088     kernel32:KERNEL32.dll
 0002:0000008c       __imp__GetCurrentThreadId@0 0048508c     kernel32:KERNEL32.dll
 0002:00000090       __imp__WideCharToMultiByte@32 00485090     kernel32:KERNEL32.dll
 0002:00000094       __imp__CreateThread@24     00485094     kernel32:KERNEL32.dll
 0002:00000098       __imp__SetEnvironmentVariableW@8 00485098     kernel32:KERNEL32.dll
 0002:0000009c       __imp__FreeEnvironmentStringsW@4 0048509c     kernel32:KERNEL32.dll
 0002:000000a0       __imp__GetEnvironmentStringsW@0 004850a0     kernel32:KERNEL32.dll
 0002:000000a4       __imp__GetOEMCP@0          004850a4     kernel32:KERNEL32.dll
 0002:000000a8       __imp__GetACP@0            004850a8     kernel32:KERNEL32.dll
 0002:000000ac       __imp__IsValidCodePage@4   004850ac     kernel32:KERNEL32.dll
 0002:000000b0       __imp__HeapQueryInformation@20 004850b0     kernel32:KERNEL32.dll
 0002:000000b4       __imp__HeapSize@12         004850b4     kernel32:KERNEL32.dll
 0002:000000b8       __imp__HeapReAlloc@16      004850b8     kernel32:KERNEL32.dll
 0002:000000bc       __imp__FlushFileBuffers@4  004850bc     kernel32:KERNEL32.dll
 0002:000000c0       __imp__GetTimeZoneInformation@4 004850c0     kernel32:KERNEL32.dll
 0002:000000c4       __imp__GetFileSizeEx@8     004850c4     kernel32:KERNEL32.dll
 0002:000000c8       __imp__GetConsoleOutputCP@0 004850c8     kernel32:KERNEL32.dll
 0002:000000cc       __imp__WaitForSingleObjectEx@12 004850cc     kernel32:KERNEL32.dll
 0002:000000d0       __imp__SwitchToThread@0    004850d0     kernel32:KERNEL32.dll
 0002:000000d4       __imp__GetExitCodeThread@8 004850d4     kernel32:KERNEL32.dll
 0002:000000d8       __imp__IsProcessorFeaturePresent@4 004850d8     kernel32:KERNEL32.dll
 0002:000000dc       __imp__GetCurrentDirectoryW@8 004850dc     kernel32:KERNEL32.dll
 0002:000000e0       __imp__CreateFileW@28      004850e0     kernel32:KERNEL32.dll
 0002:000000e4       __imp__FindClose@4         004850e4     kernel32:KERNEL32.dll
 0002:000000e8       __imp__FindFirstFileExW@24 004850e8     kernel32:KERNEL32.dll
 0002:000000ec       __imp__FindNextFileW@8     004850ec     kernel32:KERNEL32.dll
 0002:000000f0       __imp__AreFileApisANSI@0   004850f0     kernel32:KERNEL32.dll
 0002:000000f4       __imp__GetModuleHandleW@4  004850f4     kernel32:KERNEL32.dll
 0002:000000f8       __imp__GetProcAddress@8    004850f8     kernel32:KERNEL32.dll
 0002:000000fc       __imp__LocalFree@4         004850fc     kernel32:KERNEL32.dll
 0002:00000100       __imp__FormatMessageA@28   00485100     kernel32:KERNEL32.dll
 0002:00000104       __imp__GetLocaleInfoEx@16  00485104     kernel32:KERNEL32.dll
 0002:00000108       __imp__LeaveCriticalSection@4 00485108     kernel32:KERNEL32.dll
 0002:0000010c       __imp__InitializeCriticalSectionEx@12 0048510c     kernel32:KERNEL32.dll
 0002:00000110       __imp__DeleteCriticalSection@4 00485110     kernel32:KERNEL32.dll
 0002:00000114       __imp__QueryPerformanceCounter@4 00485114     kernel32:KERNEL32.dll
 0002:00000118       __imp__QueryPerformanceFrequency@4 00485118     kernel32:KERNEL32.dll
 0002:0000011c       __imp__ReleaseSRWLockExclusive@4 0048511c     kernel32:KERNEL32.dll
 0002:00000120       __imp__AcquireSRWLockExclusive@4 00485120     kernel32:KERNEL32.dll
 0002:00000124       __imp__TryAcquireSRWLockExclusive@4 00485124     kernel32:KERNEL32.dll
 0002:00000128       __imp__WakeAllConditionVariable@4 00485128     kernel32:KERNEL32.dll
 0002:0000012c       __imp__SleepConditionVariableSRW@16 0048512c     kernel32:KERNEL32.dll
 0002:00000130       __imp__EncodePointer@4     00485130     kernel32:KERNEL32.dll
 0002:00000134       __imp__DecodePointer@4     00485134     kernel32:KERNEL32.dll
 0002:00000138       __imp__CreateEventExW@16   00485138     kernel32:KERNEL32.dll
 0002:0000013c       __imp__CreateSemaphoreExW@24 0048513c     kernel32:KERNEL32.dll
 0002:00000140       __imp__FlushProcessWriteBuffers@0 00485140     kernel32:KERNEL32.dll
 0002:00000144       __imp__GetSystemTimeAsFileTime@4 00485144     kernel32:KERNEL32.dll
 0002:00000148       __imp__GetTickCount64@0    00485148     kernel32:KERNEL32.dll
 0002:0000014c       __imp__FreeLibraryWhenCallbackReturns@8 0048514c     kernel32:KERNEL32.dll
 0002:00000150       __imp__CreateThreadpoolTimer@12 00485150     kernel32:KERNEL32.dll
 0002:00000154       __imp__SetThreadpoolTimer@16 00485154     kernel32:KERNEL32.dll
 0002:00000158       __imp__WaitForThreadpoolTimerCallbacks@8 00485158     kernel32:KERNEL32.dll
 0002:0000015c       __imp__CloseThreadpoolTimer@4 0048515c     kernel32:KERNEL32.dll
 0002:00000160       __imp__CreateThreadpoolWait@12 00485160     kernel32:KERNEL32.dll
 0002:00000164       __imp__SetThreadpoolWait@12 00485164     kernel32:KERNEL32.dll
 0002:00000168       __imp__CloseThreadpoolWait@4 00485168     kernel32:KERNEL32.dll
 0002:0000016c       __imp__GetStringTypeW@16   0048516c     kernel32:KERNEL32.dll
 0002:00000170       __imp__GetCPInfo@8         00485170     kernel32:KERNEL32.dll
 0002:00000174       __imp__GetCurrentThread@0  00485174     kernel32:KERNEL32.dll
 0002:00000178       __imp__GetThreadTimes@20   00485178     kernel32:KERNEL32.dll
 0002:0000017c       __imp__FreeLibrary@4       0048517c     kernel32:KERNEL32.dll
 0002:00000180       __imp__FreeLibraryAndExitThread@8 00485180     kernel32:KERNEL32.dll
 0002:00000184       __imp__GetModuleFileNameW@12 00485184     kernel32:KERNEL32.dll
 0002:00000188       __imp__LoadLibraryExW@12   00485188     kernel32:KERNEL32.dll
 0002:0000018c       __imp__InterlockedPopEntrySList@4 0048518c     kernel32:KERNEL32.dll
 0002:00000190       __imp__InterlockedPushEntrySList@8 00485190     kernel32:KERNEL32.dll
 0002:00000194       __imp__InterlockedFlushSList@4 00485194     kernel32:KERNEL32.dll
 0002:00000198       __imp__QueryDepthSList@4   00485198     kernel32:KERNEL32.dll
 0002:0000019c       __imp__SetLastError@4      0048519c     kernel32:KERNEL32.dll
 0002:000001a0       __imp__LoadLibraryW@4      004851a0     kernel32:KERNEL32.dll
 0002:000001a4       __imp__SetEvent@4          004851a4     kernel32:KERNEL32.dll
 0002:000001a8       __imp__SignalObjectAndWait@16 004851a8     kernel32:KERNEL32.dll
 0002:000001ac       __imp__SetThreadPriority@8 004851ac     kernel32:KERNEL32.dll
 0002:000001b0       __imp__GetThreadPriority@4 004851b0     kernel32:KERNEL32.dll
 0002:000001b4       __imp__TlsAlloc@0          004851b4     kernel32:KERNEL32.dll
 0002:000001b8       __imp__TlsGetValue@4       004851b8     kernel32:KERNEL32.dll
 0002:000001bc       __imp__TlsSetValue@8       004851bc     kernel32:KERNEL32.dll
 0002:000001c0       __imp__TlsFree@4           004851c0     kernel32:KERNEL32.dll
 0002:000001c4       __imp__GetCurrentProcessorNumberEx@4 004851c4     kernel32:KERNEL32.dll
 0002:000001c8       __imp__GetLogicalProcessorInformationEx@12 004851c8     kernel32:KERNEL32.dll
 0002:000001cc       __imp__GetNumaHighestNodeNumber@4 004851cc     kernel32:KERNEL32.dll
 0002:000001d0       __imp__GetThreadGroupAffinity@8 004851d0     kernel32:KERNEL32.dll
 0002:000001d4       __imp__SetThreadGroupAffinity@12 004851d4     kernel32:KERNEL32.dll
 0002:000001d8       __imp__DuplicateHandle@28  004851d8     kernel32:KERNEL32.dll
 0002:000001dc       __imp__ReleaseSemaphore@12 004851dc     kernel32:KERNEL32.dll
 0002:000001e0       __imp__InitializeSListHead@4 004851e0     kernel32:KERNEL32.dll
 0002:000001e4       __imp__VerSetConditionMask@16 004851e4     kernel32:KERNEL32.dll
 0002:000001e8       __imp__VirtualFree@12      004851e8     kernel32:KERNEL32.dll
 0002:000001ec       __imp__GetProcessAffinityMask@12 004851ec     kernel32:KERNEL32.dll
 0002:000001f0       __imp__VerifyVersionInfoW@16 004851f0     kernel32:KERNEL32.dll
 0002:000001f4       __imp__IsDebuggerPresent@0 004851f4     kernel32:KERNEL32.dll
 0002:000001f8       __imp__UnhandledExceptionFilter@4 004851f8     kernel32:KERNEL32.dll
 0002:000001fc       __imp__GetStartupInfoW@4   004851fc     kernel32:KERNEL32.dll
 0002:00000200       __imp__TerminateProcess@8  00485200     kernel32:KERNEL32.dll
 0002:00000204       __imp__RaiseException@16   00485204     kernel32:KERNEL32.dll
 0002:00000208       __imp__RtlUnwind@16        00485208     kernel32:KERNEL32.dll
 0002:0000020c       __imp__InitializeCriticalSectionAndSpinCount@8 0048520c     kernel32:KERNEL32.dll
 0002:00000210       __imp__ReadFile@20         00485210     kernel32:KERNEL32.dll
 0002:00000214       __imp__ExitThread@4        00485214     kernel32:KERNEL32.dll
 0002:00000218       __imp__GetModuleHandleExW@12 00485218     kernel32:KERNEL32.dll
 0002:0000021c       __imp__GetStdHandle@4      0048521c     kernel32:KERNEL32.dll
 0002:00000220       __imp__WriteFile@20        00485220     kernel32:KERNEL32.dll
 0002:00000224       __imp__GetCommandLineW@0   00485224     kernel32:KERNEL32.dll
 0002:00000228       __imp__HeapAlloc@12        00485228     kernel32:KERNEL32.dll
 0002:0000022c       __imp__HeapFree@12         0048522c     kernel32:KERNEL32.dll
 0002:00000230       __imp__FlsAlloc@4          00485230     kernel32:KERNEL32.dll
 0002:00000234       __imp__FlsGetValue@4       00485234     kernel32:KERNEL32.dll
 0002:00000238       __imp__FlsSetValue@8       00485238     kernel32:KERNEL32.dll
 0002:0000023c       __imp__FlsFree@4           0048523c     kernel32:KERNEL32.dll
 0002:00000240       __imp__VirtualProtect@16   00485240     kernel32:KERNEL32.dll
 0002:00000244       __imp__CompareStringW@24   00485244     kernel32:KERNEL32.dll
 0002:00000248       __imp__LCMapStringW@24     00485248     kernel32:KERNEL32.dll
 0002:0000024c       __imp__GetLocaleInfoW@16   0048524c     kernel32:KERNEL32.dll
 0002:00000250       __imp__IsValidLocale@8     00485250     kernel32:KERNEL32.dll
 0002:00000254       __imp__GetUserDefaultLCID@0 00485254     kernel32:KERNEL32.dll
 0002:00000258       __imp__EnumSystemLocalesW@8 00485258     kernel32:KERNEL32.dll
 0002:0000025c       __imp__GetFileType@4       0048525c     kernel32:KERNEL32.dll
 0002:00000260       __imp__SetFilePointerEx@20 00485260     kernel32:KERNEL32.dll
 0002:00000264       __imp__GetConsoleMode@8    00485264     kernel32:KERNEL32.dll
 0002:00000268       __imp__ReadConsoleW@20     00485268     kernel32:KERNEL32.dll
 0002:0000026c       __imp__WriteConsoleW@20    0048526c     kernel32:KERNEL32.dll
 0002:00000270       \177KERNEL32_NULL_THUNK_DATA 00485270     kernel32:KERNEL32.dll
 0002:00000274       __imp__GetDesktopWindow@0  00485274     user32:USER32.dll
 0002:00000278       __imp__GetWindowRect@8     00485278     user32:USER32.dll
 0002:0000027c       __imp__SetWindowTextA@8    0048527c     user32:USER32.dll
 0002:00000280       __imp__GetSystemMetrics@4  00485280     user32:USER32.dll
 0002:00000284       __imp__DialogBoxParamA@20  00485284     user32:USER32.dll
 0002:00000288       __imp__SystemParametersInfoA@16 00485288     user32:USER32.dll
 0002:0000028c       __imp__SendMessageA@16     0048528c     user32:USER32.dll
 0002:00000290       __imp__SetFocus@4          00485290     user32:USER32.dll
 0002:00000294       __imp__GetDlgItem@8        00485294     user32:USER32.dll
 0002:00000298       __imp__EndDialog@8         00485298     user32:USER32.dll
 0002:0000029c       __imp__DialogBoxIndirectParamA@20 0048529c     user32:USER32.dll
 0002:000002a0       __imp__SetWindowPos@28     004852a0     user32:USER32.dll
 0002:000002a4       \177USER32_NULL_THUNK_DATA 004852a4     user32:USER32.dll
 0002:000002a8       __imp__UnDecorateSymbolName@16 004852a8     Dbghelp:dbghelp.dll
 0002:000002ac       __imp__MiniDumpWriteDump@28 004852ac     Dbghelp:dbghelp.dll
 0002:000002b0       \177dbghelp_NULL_THUNK_DATA 004852b0     Dbghelp:dbghelp.dll
 0002:000002b4       ___guard_check_icall_fptr  004852b4     LIBCMT:guard_support.obj
 0002:000002b8       ___castguard_check_failure_os_handled_fptr 004852b8     LIBCMT:guard_support.obj
 0002:000002bc       ___xc_a                    004852bc     LIBCMT:initializers.obj
 0002:000002f8       ___xc_z                    004852f8     LIBCMT:initializers.obj
 0002:000002fc       ___xi_a                    004852fc     LIBCMT:initializers.obj
 0002:0000030c       ___acrt_stdio_initializer  0048530c     libucrt:stdio_initializer.obj
 0002:00000310       ___acrt_clock_initializer  00485310     libucrt:clock_initializer.obj
 0002:00000314       ___acrt_timeset_initializer 00485314     libucrt:timeset_initializer.obj
 0002:00000318       ___acrt_tran_sse2_initializer 00485318     libucrt:sse2_initializer.obj
 0002:0000031c       ___acrt_multibyte_initializer 0048531c     libucrt:multibyte_initializer.obj
 0002:00000320       ___acrt_fmode_initializer  00485320     libucrt:fmode_initializer.obj
 0002:00000324       ___xi_z                    00485324     LIBCMT:initializers.obj
 0002:00000328       ___xp_a                    00485328     LIBCMT:initializers.obj
 0002:00000330       ___acrt_locale_terminator  00485330     libucrt:locale_initializer.obj
 0002:00000334       ___dcrt_console_output_terminator 00485334     libucrt:console_output_initializer.obj
 0002:00000338       ___acrt_stdio_terminator   00485338     libucrt:stdio_initializer.obj
 0002:0000033c       ___xp_z                    0048533c     LIBCMT:initializers.obj
 0002:00000340       ___xt_a                    00485340     LIBCMT:initializers.obj
 0002:00000344       ___xt_z                    00485344     LIBCMT:initializers.obj
 0002:00000360       ??_C@_0BC@EOODALEL@Unknown?5exception@ 00485360     Crinkler.obj
 0002:00000374       ??_C@_0P@GHFPNOJB@bad?5allocation@ 00485374     Crinkler.obj
 0002:00000384       ??_C@_0BF@KINCDENJ@bad?5array?5new?5length@ 00485384     Crinkler.obj
 0002:0000039c       ??_C@_0BB@GCADKGJO@map?1set?5too?5long@ 0048539c     Crinkler.obj
 0002:000003b0       ??_C@_0BA@JFNIOLAK@string?5too?5long@ 004853b0     Crinkler.obj
 0002:000003c0       ??_7ProgressBar@@6B@       004853c0     Crinkler.obj
 0002:000003d8       ??_7ConsoleProgressBar@@6B@ 004853d8     Crinkler.obj
 0002:000003f0       ??_7WindowProgressBar@@6B@ 004853f0     Crinkler.obj
 0002:00000408       ??_7CompositeProgressBar@@6B@ 00485408     Crinkler.obj
 0002:00000420       ??_C@_03MPPIHBHJ@OFF@      00485420     Crinkler.obj
 0002:00000424       ??_C@_07MIDFMCAP@NOTHING@  00485424     Crinkler.obj
 0002:0000042c       ??_C@_05LMAHGIIA@PARTS@    0048542c     Crinkler.obj
 0002:00000434       ??_C@_08KMKOKDGA@SECTIONS@ 00485434     Crinkler.obj
 0002:00000440       ??_C@_06FAOOKADE@MODELS@   00485440     Crinkler.obj
 0002:00000448       ??_C@_03NIFPGLBG@ALL@      00485448     Crinkler.obj
 0002:0000044c       ??_C@_00CNPNBAHC@@         0048544c     Crinkler.obj
 0002:00000450       ??_7_UnrealizedChore@details@Concurrency@@6B@ 00485450     Crinkler.obj
 0002:00000458       ?_Grapheme_Break_property_data@std@@3U?$_Unicode_property_data@W4_Grapheme_Break_property_values@std@@$0FFL@$0A@@1@B 00485458     Crinkler.obj
 0002:00002480       ?_Extended_Pictographic_property_data@std@@3U?$_Unicode_property_data@W4_Extended_Pictographic_property_values@std@@$0EO@$00@1@B 00487480     Crinkler.obj
 0002:00002658       ?_Width_estimate_intervals_v2@std@@3QB_UB 00487658     Crinkler.obj
 0002:00002980       ??_C@_0BA@ELKIONDK@bad?5locale?5name@ 00487980     Crinkler.obj
 0002:00002990       ??_C@_05LAPONLG@false@     00487990     Crinkler.obj
 0002:00002998       ??_C@_04LOAJBDKD@true@     00487998     Crinkler.obj
 0002:000029a0       ??_7format_error@std@@6B@  004879a0     Crinkler.obj
 0002:000029a8       ??$__DIGIT_TABLE@D@std@@3QBDB 004879a8     Crinkler.obj
 0002:00002a70       ?__POW10_OFFSET@std@@3QBGB 00487a70     Crinkler.obj
 0002:00002af0       ?__POW10_OFFSET_2@std@@3QBGB 00487af0     Crinkler.obj
 0002:00002b80       ?__MIN_BLOCK_2@std@@3QBEB  00487b80     Crinkler.obj
 0002:00002bc8       ?__FLOAT_POW5_INV_SPLIT@std@@3QB_KB 00487bc8     Crinkler.obj
 0002:00002cc0       ?__FLOAT_POW5_SPLIT@std@@3QB_KB 00487cc0     Crinkler.obj
 0002:00002e38       ?_Charconv_digits@std@@3QBDB 00487e38     Crinkler.obj
 0002:00002e60       ??_C@_0EO@IIGPOHCI@?6label?5name?5?5?5?5?5?5?5?5?5?5?5?5?5?5?5?5?5?5?5?5@ 00487e60     Crinkler.obj
 0002:00002eb0       ??_C@_09GCOFNFBD@?6?$CF?938?438s@ 00487eb0     Crinkler.obj
 0002:00002ebc       ??_C@_0L@EJPFMDN@?5?5?$CF?936?436s@ 00487ebc     Crinkler.obj
 0002:00002ec8       ??_C@_0N@IFGPEODL@?5?5?5?5?$CF?934?434s@ 00487ec8     Crinkler.obj
 0002:00002ed8       ??_C@_0P@MKLNNCLH@?5?5?5?5?5?5?$CF?932?432s@ 00487ed8     Crinkler.obj
 0002:00002ee8       ??_C@_0BG@KFLHGOHD@?5?$CF9d?5?$CF8?42f?5?$CF9d?5?$CF8?42f?6@ 00487ee8     Crinkler.obj
 0002:00002f00       ??_C@_0BD@KKHBGNDD@?5?$CF9d?5?5?5?5?5?5?5?5?5?5?$CF9d?6@ 00487f00     Crinkler.obj
 0002:00002f14       ??_C@_0DD@LEHFPLCL@Input?5file?5is?5not?5a?5Crinkler?5co@ 00487f14     Crinkler.obj
 0002:00002f48       ??_C@_0DC@IODJPMBD@No?5functions?5were?5imported?5from@ 00487f48     Crinkler.obj
 0002:00002f7c       ??_C@_0BG@DDBEBGFF@Unsupported?5file?5type@ 00487f7c     Crinkler.obj
 0002:00002f94       ??_C@_06HOGKBANE@__imp_@   00487f94     Crinkler.obj
 0002:00002f9c       ??_C@_06EGGDDPIF@msvcrt@   00487f9c     Crinkler.obj
 0002:00002fa4       ??_C@_07OKPPBOMK@runtime@  00487fa4     Crinkler.obj
 0002:00002fac       ??_C@_0P@IFCHICC@mainCRTStartup@ 00487fac     Crinkler.obj
 0002:00002fbc       ??_C@_0BC@EOMPAEPF@WinMainCRTStartup@ 00487fbc     Crinkler.obj
 0002:00002fd0       ??_C@_0DG@PPIGIGJC@Cannot?5find?5entry?5point?5?8?$CFs?8?4?5S@ 00487fd0     Crinkler.obj
 0002:00003008       ??_C@_0DE@MIMMHEBG@Entry?5point?5not?5at?5start?5of?5sec@ 00488008     Crinkler.obj
 0002:00003040       ??_C@_0EF@MFKDHEAK@Cannot?5create?5integer?5symbol?5?8?$CF@ 00488040     Crinkler.obj
 0002:00003088       ??_C@_0FA@JCIGHBGI@Uninitialized?5hunk?5?8?$CFs?8?5forced?5@ 00488088     Crinkler.obj
 0002:000030d8       ??_C@_0DI@CNEFPJKN@Cannot?5find?5symbol?5?8?$CFs?8?5to?5be?5e@ 004880d8     Crinkler.obj
 0002:00003110       ??_C@_0BG@CEHDACLH@__imp__LoadLibraryA?$EA4@ 00488110     Crinkler.obj
 0002:00003128       ??_C@_0BG@OOEFHEAN@__imp__MessageBoxA?$EA16@ 00488128     Crinkler.obj
 0002:00003140       ??_C@_0BG@HEPCMGPN@__DynamicInitializers@ 00488140     Crinkler.obj
 0002:00003158       ??_C@_0BA@FDKAKDDE@Crinkler?5import@ 00488158     Crinkler.obj
 0002:00003168       ??_C@_0DC@FIIPFMOE@DLL?5fallback?5cannot?5be?5used?5wit@ 00488168     Crinkler.obj
 0002:0000319c       ??_C@_06FEMFHOOG@models@   0048819c     Crinkler.obj
 0002:000031a4       ??_C@_07OPDAKGAH@_Models@  004881a4     Crinkler.obj
 0002:000031ac       ??_C@_0BL@IFJFKOOO@Optimizing?5hash?5table?5size@ 004881ac     Crinkler.obj
 0002:000031c8       ??_C@_0BE@GNEDJFBJ@Reestimating?5models@ 004881c8     Crinkler.obj
 0002:000031dc       ??_C@_0BC@BCDNBDNA@Estimating?5models@ 004881dc     Crinkler.obj
 0002:000031f0       ??_C@_0CC@KFFHMKOA@?6Estimated?5compressed?5size?3?5?$CF?42@ 004881f0     Crinkler.obj
 0002:00003214       ??_C@_0N@HMPKBJOB@Reestimating@ 00488214     Crinkler.obj
 0002:00003224       ??_C@_0L@EHLCPIHK@Estimating@ 00488224     Crinkler.obj
 0002:00003230       ??_C@_0BB@HJPGHLBC@?$CFs?5models?5for?5?$CFs@ 00488230     Crinkler.obj
 0002:00003244       ??_C@_08IBBAJKND@Models?3?5@ 00488244     Crinkler.obj
 0002:00003250       ??_C@_0CH@DNLMFIDK@Estimated?5compressed?5size?5of?5?$CFs@ 00488250     Crinkler.obj
 0002:00003280       ??_C@_0N@MGHBILEJ@_SaturatePtr@ 00488280     Crinkler.obj
 0002:00003290       ??_C@_0BE@NNIAIJGH@_SaturateAdjust1Ptr@ 00488290     Crinkler.obj
 0002:000032a4       ??_C@_0BE@JKCAPDLH@_SaturateAdjust2Ptr@ 004882a4     Crinkler.obj
 0002:000032b8       ??_C@_0O@OJGJCEJN@_UnpackedData@ 004882b8     Crinkler.obj
 0002:000032c8       ??_C@_0L@FFEALDGL@_ImageBase@ 004882c8     Crinkler.obj
 0002:000032d4       ??_C@_0BC@PHINPHPA@_SubsystemTypePtr@ 004882d4     Crinkler.obj
 0002:000032e8       ??_C@_0BC@HOOJKFJG@_LinkerVersionPtr@ 004882e8     Crinkler.obj
 0002:000032fc       ??_C@_0BE@OLEHLOAM@_CharacteristicsPtr@ 004882fc     Crinkler.obj
 0002:00003310       ??_C@_0BI@GHKIELLA@_VirtualSizeHighBytePtr@ 00488310     Crinkler.obj
 0002:00003328       ??_C@_0L@JGPOMPEN@_ModelMask@ 00488328     Crinkler.obj
 0002:00003334       ??_C@_0O@JBGLDBBJ@_BaseProbPtr0@ 00488334     Crinkler.obj
 0002:00003344       ??_C@_0O@IIHAAAFI@_BaseProbPtr1@ 00488344     Crinkler.obj
 0002:00003354       ??_C@_0BA@LINMPMMD@_BoostFactorPtr@ 00488354     Crinkler.obj
 0002:00003364       ??_C@_0BG@DHCAILAC@_DepackEndPositionPtr@ 00488364     Crinkler.obj
 0002:0000337c       ??_C@_0P@OPAMMGEP@_HashTableSize@ 0048837c     Crinkler.obj
 0002:0000338c       ??_C@_0N@LHGLKDGG@_VirtualSize@ 0048838c     Crinkler.obj
 0002:0000339c       ??_C@_0N@CJIELOOC@_BaseProbPtr@ 0048839c     Crinkler.obj
 0002:000033ac       ??_C@_0O@JDOFCFPM@_ModelSkipPtr@ 004883ac     Crinkler.obj
 0002:000033bc       ??_C@_0BD@ILPGCFPF@_ExportTableRVAPtr@ 004883bc     Crinkler.obj
 0002:000033d0       ??_C@_0BM@MAJEAMPE@_NumberOfDataDirectoriesPtr@ 004883d0     Crinkler.obj
 0002:000033ec       ??_C@_0N@ICHFCMMK@_SpareNopPtr@ 004883ec     Crinkler.obj
 0002:00003404       ??_C@_0N@MEMPKFID@?$CFs?5size?3?5?$CFd?6@ 00488404     Crinkler.obj
 0002:0000345c       ??_C@_0BO@CHPKKLLL@Part?5?8?$CFs?8?5is?5larger?5than?564k?4@ 0048845c     Crinkler.obj
 0002:0000347c       ??_C@_02GMLFBBN@wb@        0048847c     Crinkler.obj
 0002:00003480       ??_C@_0BN@MCNEOMMD@Cannot?5open?5?8?$CFs?8?5for?5writing@ 00488480     Crinkler.obj
 0002:000034a0       ??_C@_0FI@NJAHGNDF@File?5compressed?5using?5a?5pre?91?44@ 004884a0     Crinkler.obj
 0002:000034f8       ??_C@_0DO@FOPHLFC@File?5compressed?5or?5recompressed@ 004884f8     Crinkler.obj
 0002:00003538       ??_C@_0EI@DEFEKIEP@Only?5files?5compressed?5using?5Cri@ 00488538     Crinkler.obj
 0002:00003580       ??_C@_06NKLGLLAF@Part?$CFd@ 00488580     Crinkler.obj
 0002:00003588       ??_C@_04BCJPDBDA@Code@     00488588     Crinkler.obj
 0002:00003590       ??_C@_04DICKPMGH@Data@     00488590     Crinkler.obj
 0002:00003598       ??_C@_0BI@OKGMBMBC@Original?5file?5size?3?5?$CFd?6@ 00488598     Crinkler.obj
 0002:000035b0       ??_C@_03IPHJCBHH@YES@      004885b0     Crinkler.obj
 0002:000035b4       ??_C@_02NFLNFON@NO@        004885b4     Crinkler.obj
 0002:000035b8       ??_C@_0BK@PBNIFJCJ@Original?5Tiny?5Header?3?5?$CFs?6@ 004885b8     Crinkler.obj
 0002:000035d4       ??_C@_0BL@POODLHIC@Original?5Virtual?5size?3?5?$CFd?6@ 004885d4     Crinkler.obj
 0002:000035f0       ??_C@_07PCJELJIA@CONSOLE@  004885f0     Crinkler.obj
 0002:000035f8       ??_C@_07LHJOABLP@WINDOWS@  004885f8     Crinkler.obj
 0002:00003600       ??_C@_0BN@INIKNHFJ@Original?5Subsystem?5type?3?5?$CFs?6@ 00488600     Crinkler.obj
 0002:00003620       ??_C@_0CC@JOKGDBN@Original?5Large?5address?5aware?3?5?$CF@ 00488620     Crinkler.obj
 0002:00003644       ??_C@_07HIMJODOE@INSTANT@  00488644     Crinkler.obj
 0002:0000364c       ??_C@_09JMLMCKLI@FAST?1SLOW@ 0048864c     Crinkler.obj
 0002:00003658       ??_C@_0BD@HHJOLBIO@FAST?1SLOW?1VERYSLOW@ 00488658     Crinkler.obj
 0002:0000366c       ??_C@_0BP@PHKHPGPG@Original?5Compression?5mode?3?5?$CFs?6@ 0048866c     Crinkler.obj
 0002:0000368c       ??_C@_0CA@OGCPPCPK@Original?5Saturate?5counters?3?5?$CFs?6@ 0048868c     Crinkler.obj
 0002:000036ac       ??_C@_0BI@LBFLFGMO@Original?5Hash?5size?3?5?$CFd?6@ 004886ac     Crinkler.obj
 0002:000036c4       ??_C@_0BA@NNKFBPCH@Total?5size?3?5?$CFd?6@ 004886c4     Crinkler.obj
 0002:000036d4       ??_C@_01EEMJAFIK@?6@       004886d4     Crinkler.obj
 0002:000036d8       ??_C@_0CI@KPJIGMFP@Failed?5to?5write?5to?5temporary?5fi@ 004886d8     Crinkler.obj
 0002:00003700       ??_C@_0EI@NCGMDOCI@Program?5was?5been?5unresponsive?5f@ 00488700     Crinkler.obj
 0002:00003748       ??_C@_0BP@LNKNKJE@Failed?5to?5read?5process?5memory?6@ 00488748     Crinkler.obj
 0002:00003768       ??_C@_0DA@NFHCLMBL@Call?5transformation?5code?5succes@ 00488768     Crinkler.obj
 0002:00003798       ??_C@_0DC@MHPCDMEN@Call?5transformation?5code?5does?5n@ 00488798     Crinkler.obj
 0002:000037cc       ??_C@_0CD@ICCCFOGO@Import?5code?5successfully?5patche@ 004887cc     Crinkler.obj
 0002:000037f0       ??_C@_0CF@NLLOGFPK@Import?5code?5does?5not?5need?5patch@ 004887f0     Crinkler.obj
 0002:00003818       ??_C@_0CG@HODDPGIK@Cannot?5find?5old?5import?5code?5to?5@ 00488818     Crinkler.obj
 0002:00003840       ??_C@_06OENKJGA@Header@    00488840     Crinkler.obj
 0002:00003848       ??_C@_0BA@MLAJHKNA@crinkler?5header@ 00488848     Crinkler.obj
 0002:00003858       ??_C@_07LFLIHBIB@_header@  00488858     Crinkler.obj
 0002:00003860       ??_C@_0N@JCFBFJEN@_DepackEntry@ 00488860     Crinkler.obj
 0002:00003870       ??_C@_06IENGEGME@linked@   00488870     Crinkler.obj
 0002:00003878       ??_C@_0BC@MDEKNPLM@Original?5Exports?3@ 00488878     Crinkler.obj
 0002:0000388c       ??_C@_06LFKKDFDG@?5NONE?6@ 0048888c     Crinkler.obj
 0002:00003894       ??_C@_0BD@POLNKHED@Resulting?5Exports?3@ 00488894     Crinkler.obj
 0002:000038a8       ??_C@_0BD@DOBHADI@?6Recompressing?4?4?4?6@ 004888a8     Crinkler.obj
 0002:000038bc       ??_C@_0CA@LJCOCBA@Real?5compressed?5total?5size?3?5?$CFd?6@ 004888bc     Crinkler.obj
 0002:000038dc       ??_C@_0DM@LILMGLD@Real?5compressed?5total?5size?3?5?$CFd?6@ 004888dc     Crinkler.obj
 0002:00003918       ??_C@_08KJPILKIK@HashHunk@ 00488918     Crinkler.obj
 0002:00003924       ??_C@_0BC@PJLJMEGM@?6Output?5file?3?5?$CFs?6@ 00488924     Crinkler.obj
 0002:00003938       ??_C@_0BG@GMCEEDPD@Final?5file?5size?3?5?$CFd?6?6@ 00488938     Crinkler.obj
 0002:00003950       ??_C@_07JBHCGDOG@CRT$XCU@  00488950     Crinkler.obj
 0002:00003958       ??_C@_0BK@HIDPJJNF@dynamic?5initializer?5calls@ 00488958     Crinkler.obj
 0002:00003974       ??_C@_01LKDEMHDF@s@        00488974     Crinkler.obj
 0002:00003978       ??_C@_0CF@POMNDHLE@?6Included?5?$CFd?5dynamic?5initialize@ 00488978     Crinkler.obj
 0002:000039a0       ??_C@_03DKEJHHJP@?$CFs?3@  004889a0     Crinkler.obj
 0002:000039a4       ??_C@_0CA@POHDLCKM@?6Uncompressed?5size?5of?5?$CF?9?$CKs?5?$CF10d@ 004889a4     Crinkler.obj
 0002:000039c8       ??_C@_0EN@EJMEEKAJ@Part?5?8?$CFs?8?5is?5larger?5than?564k?4?5S@ 004889c8     Crinkler.obj
 0002:00003a18       ??_C@_02JDPG@rb@           00488a18     Crinkler.obj
 0002:00003a1c       ??_C@_0CI@HJBACJIM@Forced?5alignment?5of?5?$CFd?5code?5hun@ 00488a1c     Crinkler.obj
 0002:00003a44       ??_C@_0BJ@EIILJABG@?5?$CIincluding?5entry?5point?$CJ@ 00488a44     Crinkler.obj
 0002:00003a60       ??_C@_02MIICKFIN@?4?6@     00488a60     Crinkler.obj
 0002:00003a64       ??_C@_07PFJDOKIE@_Import@  00488a64     Crinkler.obj
 0002:00003a6c       ??_C@_0N@FBKGGDDM@___ImageBase@ 00488a6c     Crinkler.obj
 0002:00003a7c       ??_C@_0O@KPKOFKBN@_HashShiftPtr@ 00488a7c     Crinkler.obj
 0002:00003a8c       ??_C@_0BC@IAIHMGGJ@_MaxNameLengthPtr@ 00488a8c     Crinkler.obj
 0002:00003aa0       ??_C@_0BF@CBKPDHJG@?6Truncating?5floats?3?6@ 00488aa0     Crinkler.obj
 0002:00003ab8       ??_C@_0BG@LKKDCDLE@?6Read?5reuse?5file?3?5?$CFs?6@ 00488ab8     Crinkler.obj
 0002:00003ad0       ??_C@_0BK@PFFKFBHM@?6Selected?5reuse?5mode?3?5?$CFs?6@ 00488ad0     Crinkler.obj
 0002:00003aec       ??_C@_0BF@KCEFILFM@Total?5text?5size?3?5?$CFd?6@ 00488aec     Crinkler.obj
 0002:00003b04       ??_C@_04OJAHODMC@Text@     00488b04     Crinkler.obj
 0002:00003b0c       ??_C@_0O@HNBJOJF@_HeaderHashes@ 00488b0c     Crinkler.obj
 0002:00003b1c       ??_C@_0CJ@NLPNCFIN@?6File?5size?5with?5reuse?5configura@ 00488b1c     Crinkler.obj
 0002:00003b48       ??_C@_0BI@FCFMOAJL@Writing?5reuse?5file?3?5?$CFs?6@ 00488b48     Crinkler.obj
 0002:00003b60       ??_C@_0BM@FCHBMHDD@Overwriting?5reuse?5file?3?5?$CFs?6@ 00488b60     Crinkler.obj
 0002:00003b7c       ??_C@_0P@PNPOMFP@File?5size?3?5?$CFd?6@ 00488b7c     Crinkler.obj
 0002:00003b8c       ??_C@_0CD@PDAEFAGN@Reverting?5to?5reuse?5configuratio@ 00488b8c     Crinkler.obj
 0002:00003bb0       ??_C@_0BJ@DPGLFJGN@Updating?5reuse?5file?3?5?$CFs?6@ 00488bb0     Crinkler.obj
 0002:00003bcc       ??_C@_0BI@BGOMJCBO@Keeping?5reuse?5file?3?5?$CFs?6@ 00488bcc     Crinkler.obj
 0002:00003be4       ??_C@_0BE@DENNAEKC@Final?5file?5size?3?5?$CFd@ 00488be4     Crinkler.obj
 0002:00003bf8       ??_C@_0BE@PMPKMAM@?5?$CIprevious?5size?5?$CFd?$CJ@ 00488bf8     Crinkler.obj
 0002:00003c0c       ??_C@_0N@FCELNGHN@?5?$CIno?5change?$CJ@ 00488c0c     Crinkler.obj
 0002:00003c1c       ??_C@_02PHMGELLB@?6?6@     00488c1c     Crinkler.obj
 0002:00003c20       ??_C@_0FD@EJBLHGJD@Output?5file?5too?5big?4?5Crinkler?5d@ 00488c20     Crinkler.obj
 0002:00003c74       ??_C@_0CD@DKJMFEJL@Ideal?5compressed?5size?5of?5?$CFs?3?5?$CF?4@ 00488c74     Crinkler.obj
 0002:00003c98       ??_C@_0CD@IJLCADMF@Ideal?5compressed?5total?5size?3?5?$CF?4@ 00488c98     Crinkler.obj
 0002:00003cbc       ??_C@_0BA@IJGCHEFD@compressed?5data@ 00488cbc     Crinkler.obj
 0002:00003ccc       ??_C@_0M@CPCNJFIA@_PackedData@ 00488ccc     Crinkler.obj
 0002:00003cd8       ??_C@_0L@NIOIKHIB@_HashTable@ 00488cd8     Crinkler.obj
 0002:00003ce4       ??_C@_05FPBGKCKL@final@    00488ce4     Crinkler.obj
 0002:00003cec       ??_C@_0N@EKLEAHGF@_ExportTable@ 00488cec     Crinkler.obj
 0002:00003cfc       ??_C@_0CA@EOADLFNL@Unmatched?5?8?$HN?8?5in?5format?5string?4@ 00488cfc     Crinkler.obj
 0002:00003d1c       ??_C@_0BH@MCHHCMKF@Invalid?5format?5string?4@ 00488d1c     Crinkler.obj
 0002:00003d34       ??_C@_0BK@NMCHMIGI@Unknown?5format?5specifier?4@ 00488d34     Crinkler.obj
 0002:00003d50       ??_C@_0BO@FFAGMLDI@Missing?5?8?$HN?8?5in?5format?5string?4@ 00488d50     Crinkler.obj
 0002:00003d70       ??_C@_0DB@GIGELLBG@Can?5not?5switch?5from?5manual?5to?5a@ 00488d70     Crinkler.obj
 0002:00003da4       ??_C@_0BL@KNEDAEPA@invalid?5fill?5character?5?8?$HL?8@ 00488da4     Crinkler.obj
 0002:00003dc0       ??_C@_0DH@FFGBOAOP@Format?5specifier?5requires?5numer@ 00488dc0     Crinkler.obj
 0002:00003df8       ??_C@_0BC@JOAOKPFE@Number?5is?5too?5big@ 00488df8     Crinkler.obj
 0002:00003e0c       ??_C@_0BM@ONFDPAFF@Invalid?5type?5specification?4@ 00488e0c     Crinkler.obj
 0002:00003e28       ??_C@_0CE@OLPMMFCN@Invalid?5presentation?5type?5speci@ 00488e28     Crinkler.obj
 0002:00003e4c       ??_C@_0CD@PLBGEFIO@Invalid?5presentation?5type?5for?5b@ 00488e4c     Crinkler.obj
 0002:00003e70       ??_C@_0CD@IFHOEGFC@Invalid?5presentation?5type?5for?5c@ 00488e70     Crinkler.obj
 0002:00003e94       ??_C@_0CG@PIIJGCKO@Invalid?5presentation?5type?5for?5i@ 00488e94     Crinkler.obj
 0002:00003ebc       ??_C@_0CN@EEOMCCM@Invalid?5presentation?5type?5for?5f@ 00488ebc     Crinkler.obj
 0002:00003eec       ??_C@_0CF@MMFFCGKF@Invalid?5presentation?5type?5for?5s@ 00488eec     Crinkler.obj
 0002:00003f14       ??_C@_0CG@LHDOJLDP@Invalid?5presentation?5type?5for?5p@ 00488f14     Crinkler.obj
 0002:00003f3c       ??_C@_0DM@LDJDLGDF@Hash?1sign?5modifier?5requires?5an?5@ 00488f3c     Crinkler.obj
 0002:00003f78       ??_C@_0EC@JCIMBFLB@Zero?5modifier?5requires?5an?5arith@ 00488f78     Crinkler.obj
 0002:00003fbc       ??_C@_0P@IHBBLECK@?5?1SUBSYSTEM?3?$HL?$HN@ 00488fbc     Crinkler.obj
 0002:00003fcc       ??_C@_0BE@HCHGHOKI@?5?1LARGEADDRESSAWARE@ 00488fcc     Crinkler.obj
 0002:00003fe0       ??_C@_0L@PKNMFOCD@?5?1ENTRY?3?$HL?$HN@ 00488fe0     Crinkler.obj
 0002:00003fec       ??_C@_0N@HIOJGKBK@?5?1TINYHEADER@ 00488fec     Crinkler.obj
 0002:00003ffc       ??_C@_0N@PHHPMIID@?5?1TINYIMPORT@ 00488ffc     Crinkler.obj
 0002:0000400c       ??_C@_0O@DFNHPAEP@?5?1COMPMODE?3?$HL?$HN@ 0048900c     Crinkler.obj
 0002:0000401c       ??_C@_0L@OEDOMGG@?5?1SATURATE@ 0048901c     Crinkler.obj
 0002:00004028       ??_C@_0O@LHBFLLN@?5?1HASHSIZE?3?$HL?$HN@ 00489028     Crinkler.obj
 0002:00004038       ??_C@_0P@IPMLCJOA@?5?1HASHTRIES?3?$HL?$HN@ 00489038     Crinkler.obj
 0002:00004048       ??_C@_0BA@BLPNPONO@?5?1ORDERTRIES?3?$HL?$HN@ 00489048     Crinkler.obj
 0002:00004058       ??_C@_0L@NOPIEJBM@?5?1RANGE?3?$HL?$HN@ 00489058     Crinkler.obj
 0002:00004064       ??_C@_0BD@HKGPACGO@?5?1REPLACEDLL?3?$HL?$HN?$DN?$HL?$HN@ 00489064     Crinkler.obj
 0002:00004078       ??_C@_0BE@OINDMCPO@?5?1FALLBACKDLL?3?$HL?$HN?$DN?$HL?$HN@ 00489078     Crinkler.obj
 0002:0000408c       ??_C@_0P@ICOBEDKN@?5?1UNSAFEIMPORT@ 0048908c     Crinkler.obj
 0002:0000409c       ??_C@_0BC@KBCEAEFB@?5?1TRANSFORM?3CALLS@ 0048909c     Crinkler.obj
 0002:000040b0       ??_C@_0BE@NCIFDFHO@?5?1TRUNCATEFLOATS?3?$HL?$HN@ 004890b0     Crinkler.obj
 0002:000040c4       ??_C@_0BF@FFKAOPNO@?5?1OVERRIDEALIGNMENTS@ 004890c4     Crinkler.obj
 0002:000040dc       ??_C@_03IDBILICM@?3?$HL?$HN@ 004890dc     Crinkler.obj
 0002:000040e0       ??_C@_0O@LKIDOONL@?5?1UNALIGNCODE@ 004890e0     Crinkler.obj
 0002:000040f0       ??_C@_0BB@FDEOEGKP@?5?1NOINITIALIZERS@ 004890f0     Crinkler.obj
 0002:00004104       ??_C@_0BF@PLFJOCBF@?5?1EXPORT?3?$HL?$HN?$DN0x?$HL?308X?$HN@ 00489104     Crinkler.obj
 0002:0000411c       ??_C@_0M@OHFBIJN@?5?1EXPORT?3?$HL?$HN@ 0048911c     Crinkler.obj
 0002:00004128       ??_C@_0P@JHMLJGDB@?5?1EXPORT?3?$HL?$HN?$DN?$HL?$HN@ 00489128     Crinkler.obj
 0002:00004138       ??_C@_03OJHLLCGB@inf@      00489138     Crinkler.obj
 0002:0000413c       ??_C@_08OFCDMILK@nan?$CIind?$CJ@ 0048913c     Crinkler.obj
 0002:00004148       ??_C@_03LHCJEHON@nan@      00489148     Crinkler.obj
 0002:0000414c       ??_C@_09IPFBKMDL@nan?$CIsnan?$CJ@ 0048914c     Crinkler.obj
 0002:00004158       ??_C@_0BN@CAABEHAA@Missing?5precision?5specifier?4@ 00489158     Crinkler.obj
 0002:00004178       ??_C@_0BJ@FNNNKMGD@Invalid?5fill?5?$CItoo?5long?$CJ?4@ 00489178     Crinkler.obj
 0002:000042e4       ??_C@_0CM@EFKJINMJ@Format?5specifier?5requires?5numer@ 004892e4     Crinkler.obj
 0002:00004310       ??_C@_0DB@FGJJGOLD@Can?5not?5switch?5from?5automatic?5t@ 00489310     Crinkler.obj
 0002:00004344       ??_C@_05JHILFKJA@0e?$CL00@ 00489344     Crinkler.obj
 0002:0000437c       ??_C@_05EJCIBGJD@_Step@    0048937c     Crinkler.obj
 0002:00004384       ??_7?$_Fmt_iterator_buffer@V?$back_insert_iterator@V?$vector@DV?$allocator@D@std@@@std@@@std@@DU_Fmt_buffer_traits@2@@std@@6B@ 00489384     Crinkler.obj
 0002:00004388       ??_C@_0CO@ILLNLEBH@Precision?5not?5allowed?5for?5this?5@ 00489388     Crinkler.obj
 0002:000043b8       ?_Adjustment@?CB@???$__to_chars@D@std@@YA?AU?$pair@PADW4errc@std@@@1@QAD0U__floating_decimal_32@1@W4chars_format@1@II@Z@4QBEB 004893b8     Crinkler.obj
 0002:000043e0       ?_Max_shifted_mantissa@?DC@???$__to_chars@D@std@@YA?AU?$pair@PADW4errc@std@@@1@QAD0U__floating_decimal_32@1@W4chars_format@1@II@Z@4QBIB 004893e0     Crinkler.obj
 0002:00004410       ?_Adjustment@?CB@???$__to_chars@D@std@@YA?AU?$pair@PADW4errc@std@@@1@QAD0U__floating_decimal_64@1@W4chars_format@1@N@Z@4QBEB 00489410     Crinkler.obj
 0002:00004548       ?_Max_shifted_mantissa@?DC@???$__to_chars@D@std@@YA?AU?$pair@PADW4errc@std@@@1@QAD0U__floating_decimal_64@1@W4chars_format@1@N@Z@4QB_KB 00489548     Crinkler.obj
 0002:00004600       ??_C@_0BA@FOIKENOD@vector?5too?5long@ 00489600     Crinkler.obj
 0002:00004618       ??_C@_0BE@JHBJMIJI@Argument?5not?5found?4@ 00489618     Crinkler.obj
 0002:0000462c       ??_C@_0BI@KLAHEKGE@String?5pointer?5is?5null?4@ 0048962c     Crinkler.obj
 0002:00004644       ??_C@_0CC@OGKFJOLL@integral?5cannot?5be?5stored?5in?5ch@ 00489644     Crinkler.obj
 0002:0000466c       ??_C@_02HDBOMKFI@0b@       0048966c     Crinkler.obj
 0002:00004670       ??_C@_02OGJKOOPK@0B@       00489670     Crinkler.obj
 0002:00004674       ??_C@_02MDDDDAID@0x@       00489674     Crinkler.obj
 0002:00004678       ??_C@_02FGLHBECB@0X@       00489678     Crinkler.obj
 0002:0000467c       ??_C@_01GBGANLPD@0@        0048967c     Crinkler.obj
 0002:00004680       ??_C@_0BD@GHJPJCGO@Number?5is?5too?5big?4@ 00489680     Crinkler.obj
 0002:00004694       ??_C@_0BJ@FLMOJPKL@Width?5is?5not?5an?5integer?4@ 00489694     Crinkler.obj
 0002:000046b0       ??_C@_0BA@INGMONDA@Negative?5width?4@ 004896b0     Crinkler.obj
 0002:000046c0       ??_C@_0BN@DNNEEKIC@Precision?5is?5not?5an?5integer?4@ 004896c0     Crinkler.obj
 0002:000046e0       ??_C@_0BE@DEGOCOHL@Negative?5precision?4@ 004896e0     Crinkler.obj
 0002:000046f4       __real@00000000            004896f4     Crinkler.obj
 0002:000046f8       __real@0000000000000000    004896f8     Crinkler.obj
 0002:00004700       __real@3a000000            00489700     Crinkler.obj
 0002:00004704       __real@3f800000            00489704     Crinkler.obj
 0002:00004708       __real@3ff0000000000000    00489708     Crinkler.obj
 0002:00004710       __xmm@0000000000000000ffffffffffffffff 00489710     Crinkler.obj
 0002:00004720       __xmm@7fffffff7fffffff7fffffff7fffffff 00489720     Crinkler.obj
 0002:00004730       __xmm@7fffffffffffffff7fffffffffffffff 00489730     Crinkler.obj
 0002:00004740       ??_C@_07KCLLBNKA@Exports@  00489740     Export.obj
 0002:00004748       ??_C@_06NOPGBFOL@EXPORT@   00489748     Export.obj
 0002:00004750       ??_C@_07FLMNHPPG@exports@  00489750     Export.obj
 0002:00004758       ??_C@_0BB@OIHPIFOC@_ExportAddresses@ 00489758     Export.obj
 0002:0000476c       ??_C@_0N@KDNDLIJG@_ExportNames@ 0048976c     Export.obj
 0002:0000477c       ??_C@_0BA@JDHIBPDI@_ExportOrdinals@ 0048977c     Export.obj
 0002:0000478c       ??_C@_0N@JKOCNDDI@_ExportName_@ 0048978c     Export.obj
 0002:0000479c       ??_C@_0P@ILNLDLO@?5?5?$CFs?5?$DN?50x?$CF08X?6@ 0048979c     Export.obj
 0002:000047ac       ??_C@_05LDOEBFOB@?5?5?$CFs?6@ 004897ac     Export.obj
 0002:000047b4       ??_C@_0M@OJMEEIGH@?5?5?$CFs?5?9?$DO?5?$CFs?6@ 004897b4     Export.obj
 0002:000047c0       ??_C@_0LD@IEFAPPNG@?6?$DM?$CBDOCTYPE?5HTML?5PUBLIC?5?$CC?9?1?1W3C?1@ 004897c0     HtmlReport.obj
 0002:00004878       ??_C@_0BMFE@HGOPFPK@?6function?5collapse?$CIel?$CJ?5?$HL?6?7el?4st@ 00489878     HtmlReport.obj
 0002:000064d0       ??_C@_0JKI@MCJHODMM@?6?$DMstyle?5type?$DN?8text?1css?8?$DO?6body?$HL?6@ 0048b4d0     HtmlReport.obj
 0002:00006e78       ??_C@_0CPN@EKFJPDNO@?6?$DMa?5id?$DN?8state_1?8?5href?$DN?8?$CD?8?5oncli@ 0048be78     HtmlReport.obj
 0002:00007178       ??_C@_0JB@KJGHGDDO@?6?$DM?1table?$DO?6?$DMp?$DO?$DMa?5href?$DN?8http?3?1?1cr@ 0048c178     HtmlReport.obj
 0002:00007218       ??_C@_03NKBOLEBK@0?41@     0048c218     HtmlReport.obj
 0002:0000721c       ??_C@_03LOHCHBBO@0?45@     0048c21c     HtmlReport.obj
 0002:00007220       ??_C@_01HIHLOKLC@1@        0048c220     HtmlReport.obj
 0002:00007224       ??_C@_01FDFGLJHB@2@        0048c224     HtmlReport.obj
 0002:00007228       ??_C@_01EKENIIDA@3@        0048c228     HtmlReport.obj
 0002:0000722c       ??_C@_01BMBHCPLG@5@        0048c22c     HtmlReport.obj
 0002:00007230       ??_C@_01COCBENDE@7@        0048c230     HtmlReport.obj
 0002:00007234       ??_C@_01LAKCGALK@9@        0048c234     HtmlReport.obj
 0002:00007238       ??_C@_02MIGHPNDL@12@       0048c238     HtmlReport.obj
 0002:0000723c       ??_C@_08MCGACOPD@a?5lot?5of@ 0048c23c     HtmlReport.obj
 0002:00007248       ??_C@_07DCLBNMLN@generic@  0048c248     HtmlReport.obj
 0002:00007250       ??_7_System_error_category@std@@6B@ 0048c250     HtmlReport.obj
 0002:00007268       ??_C@_06FHFOAHML@system@   0048c268     HtmlReport.obj
 0002:00007270       ?_Unknown_error@?6??message@_System_error_category@std@@UBE?AV?$basic_string@DU?$char_traits@D@std@@V?$allocator@D@2@@3@H@Z@4QBDB 0048c270     HtmlReport.obj
 0002:0000727e       ?_Is_slash@filesystem@std@@3U_Is_slash_oper@12@B 0048c27e     HtmlReport.obj
 0002:00007280       ??_C@_0BN@OOLJICIM@?$DMtd?5byte?9spacing?$DO?$CGnbsp?$DL?$DM?1td?$DO@ 0048c280     HtmlReport.obj
 0002:000072a0       ??_C@_0DH@NFCKPLKJ@?$DMtd?5class?$DN?8sc?$HL?$HN?8?5name?$DN?8byte?8?5by@ 0048c2a0     HtmlReport.obj
 0002:000072d8       ??_C@_0DD@BPAGOJOB@?$DMtd?5class?$DN?8sc?$HL?$HN?8?5name?$DN?8byte?8?5by@ 0048c2d8     HtmlReport.obj
 0002:0000730c       ??_C@_0BA@JEHJMEOJ@?$DMtd?$DO?$CGnbsp?$DL?$DM?1td?$DO@ 0048c30c     HtmlReport.obj
 0002:0000731c       ??_C@_0BG@JOBHPHPA@?$DMtd?$DO?$CGnbsp?$DL?$CGnbsp?$DL?$DM?1td?$DO@ 0048c31c     HtmlReport.obj
 0002:00007334       ??_C@_04KNINFIGH@?$DM?1a?$DO@ 0048c334     HtmlReport.obj
 0002:0000733c       ??_C@_04CDCBNPCK@?$CC?$CJ?8?$DO@ 0048c33c     HtmlReport.obj
 0002:00007344       ??_C@_0BN@FPCCAHJI@?8?5onclick?$DN?8recursiveExpand?$CI?$CC@ 0048c344     HtmlReport.obj
 0002:00007364       ??_C@_0L@LNIEBLFF@?$DMa?5href?$DN?8?$CD@ 0048c364     HtmlReport.obj
 0002:00007370       ??_C@_09BBJECIDC@?$HL?$HN?$CL0x?$HL?3X?$HN@ 0048c370     HtmlReport.obj
 0002:0000737c       ??_C@_09NHPLCBLF@?$HL?$HN?90x?$HL?3X?$HN@ 0048c37c     HtmlReport.obj
 0002:00007388       ??_C@_02EMFKHFLK@?$CFX@    0048c388     HtmlReport.obj
 0002:0000738c       ??_C@_02MCILKGOH@?$HL?$HN@ 0048c38c     HtmlReport.obj
 0002:00007390       ??_C@_0DE@BJNIMJMD@?$DMtitle?$DO?$HL?$HN?3?5?$HL?$HN?5?9?5Crinkler?5compre@ 0048c390     HtmlReport.obj
 0002:000073c4       ??_C@_0DC@GBCAGNMB@?$DMlink?5rel?$DN?8icon?8?5href?$DN?8data?3ima@ 0048c3c4     HtmlReport.obj
 0002:000073f8       ??_C@_0CA@BCKLLODE@?$DMscript?5type?$DN?8text?1javascript?8?$DO@ 0048c3f8     HtmlReport.obj
 0002:00007418       ??_C@_0BG@JMGGIEGC@const?5CODEBASE?5?$DN?5?$HL?$HN?$DL?6@ 0048c418     HtmlReport.obj
 0002:00007430       ??_C@_0BL@CNCFKJHF@const?5BIT_PRECISION?5?$DN?5?$HL?$HN?$DL?6@ 0048c430     HtmlReport.obj
 0002:0000744c       ??_C@_0BD@JBELMNMA@const?5sizefill?5?$DN?5?$FL@ 0048c44c     HtmlReport.obj
 0002:00007460       ??_C@_01IHBHIGKO@?0@       0048c460     HtmlReport.obj
 0002:00007464       ??_C@_04OMLPCBHH@?$HL?$HN?$HL?$HN@ 0048c464     HtmlReport.obj
 0002:0000746c       ??_C@_03DFANBFGH@?$FN?$DL?6@ 0048c46c     HtmlReport.obj
 0002:00007470       ??_C@_09LJLKNN@?$DM?1script?$DO@ 0048c470     HtmlReport.obj
 0002:0000747c       ??_C@_0N@NENGIHFK@Crinkler?53?40@ 0048c47c     HtmlReport.obj
 0002:0000748c       ??_C@_0DI@JKCAKALK@?$DMp?$DO?$DMb?$DOReport?5for?5file?5?$HL?$HN?5genera@ 0048c48c     HtmlReport.obj
 0002:000074c4       ??_C@_0P@PAANNPDA@?$DMp?$DO?$DMb?$DOOptions?3@ 0048c4c4     HtmlReport.obj
 0002:000074d4       ??_C@_08FKEIAKLO@?$DM?1b?$DO?$DM?1p?$DO@ 0048c4d4     HtmlReport.obj
 0002:000074e0       ??_C@_0CD@EBPKMEH@?$DMp?$DO?$DMb?$DOOutput?5file?5size?3?5?$HL?$HN?$DM?1b?$DO?$DM@ 0048c4e0     HtmlReport.obj
 0002:00007508       ??_C@_0EO@HFODHDHN@?$DMp?$DO?$DMtable?$DO?$DMtr?$DO?$DMtd?5rowspan?$DN?82?8?$DO?$DM@ 0048c508     HtmlReport.obj
 0002:00007558       ??_C@_0EL@LJMEEPHM@?$DMtd?5class?$DN?8sc?$HL?$HN?8?5style?$DN?8backgro@ 0048c558     HtmlReport.obj
 0002:000075a4       ??_C@_0BL@COBPAOIL@Less?5than?5?$HL?$HN?5bits?5per?5byte@ 0048c5a4     HtmlReport.obj
 0002:000075c0       ??_C@_0BL@GKCNMOHK@More?5than?5?$HL?$HN?5bits?5per?5byte@ 0048c5c0     HtmlReport.obj
 0002:000075dc       ??_C@_0CA@FNPEEKJ@Between?5?$HL?$HN?5and?5?$HL?$HN?5bits?5per?5byte@ 0048c5dc     HtmlReport.obj
 0002:000075fc       ??_C@_0CA@KMIBAPHP@?8?$DO?$CGnbsp?$DL?$CGnbsp?$DL?$CGnbsp?$DL?$CGnbsp?$DL?$DM?1td?$DO@ 0048c5fc     HtmlReport.obj
 0002:0000761c       ??_C@_0CP@LADILKBG@?$DM?1tr?$DO?6?$DMtr?$DO?$DMtd?5colspan?$DN?82?8?5align@ 0048c61c     HtmlReport.obj
 0002:0000764c       ??_C@_0CH@NBIJDDAD@?$DMtd?5colspan?$DN?82?8?5align?$DN?8center?8?$DO@ 0048c64c     HtmlReport.obj
 0002:00007674       ??_C@_0BM@OOGBFKFJ@?$DMtd?$DO?$DM?1td?$DO?$DM?1tr?$DO?$DM?1table?$DO?$DM?1p?$DO?6@ 0048c674     HtmlReport.obj
 0002:00007690       ??_C@_0BJ@FGLFLAKG@?$DMstyle?5type?$DN?8text?1css?8?$DO?6@ 0048c690     HtmlReport.obj
 0002:000076b0       ??_C@_0EE@CDEDPHL@?4sc?$HL?$HN?5?$HL?$HL?5color?3?5?$CD?$HL?306X?$HN?$DL?5?$HN?$HN?6bod@ 0048c6b0     HtmlReport.obj
 0002:000076f4       ??_C@_09KBAHDLGC@?$DM?1style?$DO?6@ 0048c6f4     HtmlReport.obj
 0002:00007700       ??_C@_0BA@HCMGKG@part_symbol_row@ 0048c700     HtmlReport.obj
 0002:00007710       ??_C@_01JLIPDDHJ@?3@       0048c710     HtmlReport.obj
 0002:00007714       ??_C@_0BD@IKLPMKPF@section_symbol_row@ 0048c714     HtmlReport.obj
 0002:00007728       ??_C@_0BC@KPNHDKPL@public_symbol_row@ 0048c728     HtmlReport.obj
 0002:0000773c       ??_C@_0BD@FCCCJELP@private_symbol_row@ 0048c73c     HtmlReport.obj
 0002:00007750       ??_C@_0ED@GLANJAJK@?$DMtr?$DO?$DMtd?5nowrap?5colspan?$DN?85?8?$DO?$DMdiv@ 0048c750     HtmlReport.obj
 0002:00007794       ??_C@_05HPMBBINO@?$HL?$HN_?$HL?$HN@ 0048c794     HtmlReport.obj
 0002:0000779c       ??_C@_0DH@DODAPPEP@?$DMtr?5class?$DN?8?$HL?$HN_expandable?8?5oncli@ 0048c79c     HtmlReport.obj
 0002:000077d4       ??_C@_0BA@BJHKAOOC@?$DMtr?5class?$DN?8?$HL?$HN?8?$DO@ 0048c7d4     HtmlReport.obj
 0002:000077e4       ??_C@_02HMHJGNPF@?8?$DO@   0048c7e4     HtmlReport.obj
 0002:000077e8       ??_C@_07LEMCJFAN@?$DMa?5id?$DN?8@ 0048c7e8     HtmlReport.obj
 0002:000077f0       ??_C@_06ODLOODK@?$CGnbsp?$DL@ 0048c7f0     HtmlReport.obj
 0002:000077f8       ??_C@_01JOAMLHOP@?9@       0048c7f8     HtmlReport.obj
 0002:00007800       ??_C@_0EK@MPIGPFDP@?$DMth?5nowrap?5class?$DN?8c1?8?$DO?$HL0?$HN?$HL1?308X@ 0048c800     HtmlReport.obj
 0002:0000784c       ??_C@_0BO@BAFCHEFC@?$DMth?5nowrap?5class?$DN?8c3?8?$DO?$HL?$HN?$DM?1th?$DO@ 0048c84c     HtmlReport.obj
 0002:00007870       ??_C@_0EE@FJPIPPFP@?$DMth?5nowrap?5class?$DN?8c4?8?$DO?$HL?3?42f?$HN?$DM?1t@ 0048c870     HtmlReport.obj
 0002:000078b8       ??_C@_0ED@ENNALMDA@?$DMth?5nowrap?5class?$DN?8c4?8?$DO?$CGnbsp?$DL?$DM?1t@ 0048c8b8     HtmlReport.obj
 0002:00007900       ??_C@_0GE@PNKOMJMJ@?$DMth?5nowrap?5class?$DN?8c3?8?$DO?$CGnbsp?$DL?$DM?1t@ 0048c900     HtmlReport.obj
 0002:00007964       ??_C@_05IMPJLBNH@?$DM?1tr?$DO@ 0048c964     HtmlReport.obj
 0002:0000796c       ??_C@_0BJ@EEDKFDKK@?$DM?1table?$DO?$DM?1div?$DO?$DM?1td?$DO?$DM?1tr?$DO@ 0048c96c     HtmlReport.obj
 0002:00007988       ??_C@_0EB@OABELCBE@?$DMtr?$DO?$DMtd?5nowrap?5colspan?$DN?85?8?$DO?$DMdiv@ 0048c988     HtmlReport.obj
 0002:000079cc       ??_C@_0DE@JEIFIKMJ@?$DMtr?$DO?$DMtd?5nowrap?5colspan?$DN?85?8?$DO?$DMtab@ 0048c9cc     HtmlReport.obj
 0002:00007a00       ??_C@_0BO@MFOOJLAK@?$DMtr?5name?$DN?8byte?8?5byte?$DN?8?$HL?$HN?$DL?$HL?$HN?8?$DO@ 0048ca00     HtmlReport.obj
 0002:00007a20       ??_C@_0DD@DAPFLBAL@?$DMtd?5nowrap?5class?$DN?8address?8?$DO?$CGnbs@ 0048ca20     HtmlReport.obj
 0002:00007a54       ??_C@_0DO@MBOEJFHP@?$DMtd?5nowrap?5colspan?$DN4?5class?$DN?8hex@ 0048ca54     HtmlReport.obj
 0002:00007a94       ??_C@_0BL@HJFCKOHI@?$DMtd?5nowrap?5class?$DN?8sc?$HL?$HN?8?$DO?$HL?$HN@ 0048ca94     HtmlReport.obj
 0002:00007ab0       ??_C@_0BI@EJINHDDI@?$DM?1td?$DO?$DM?1tr?$DO?$DM?1table?$DO?$DM?1tr?$DO@ 0048cab0     HtmlReport.obj
 0002:00007ac8       ??_C@_0DH@DODKODLC@?$DMtr?$DO?$DMtd?5nowrap?5class?$DN?8address?8?$DO@ 0048cac8     HtmlReport.obj
 0002:00007b00       ??_C@_0CG@NJFONKHD@?$DMtd?5class?$DN?8sc?$HL?$HN?8?5colspan?$DN?8?$HL?$HN?8?$DO?$HL@ 0048cb00     HtmlReport.obj
 0002:00007b28       ??_C@_0BI@IJIGDMON@?$DM?1tr?$DO?$DM?1table?$DO?$DM?1td?$DO?$DM?1tr?$DO@ 0048cb28     HtmlReport.obj
 0002:00007b40       ??_C@_06MAIPDONP@?$DM?1div?$DO@ 0048cb40     HtmlReport.obj
 0002:00007b48       ??_C@_0BF@DKEGEOLP@?$DM?1table?$DO?$HL?$HN?$DM?1td?$DO?$DM?1tr?$DO@ 0048cb48     HtmlReport.obj
 0002:00007b60       ??_C@_0BN@CBFFAIMI@Cannot?5open?5file?5for?5writing@ 0048cb60     HtmlReport.obj
 0002:00007b80       ??_C@_0BI@CFPLBAOH@invalid?5string?5position@ 0048cb80     HtmlReport.obj
 0002:00007b98       ??_7?$_Fmt_iterator_buffer@V?$back_insert_iterator@V?$basic_string@DU?$char_traits@D@std@@V?$allocator@D@2@@std@@@std@@DU_Fmt_buffer_traits@2@@std@@6B@ 0048cb98     HtmlReport.obj
 0002:00007b9c       __real@3b800000            0048cb9c     HtmlReport.obj
 0002:00007ba0       __real@42c80000            0048cba0     HtmlReport.obj
 0002:00007ba4       ??_C@_06DJFHFKB@__RTC_@    0048cba4     Hunk.obj
 0002:00007bac       ??_C@_0DI@KKLFJPNN@Disable?5?8Basic?5Runtime?5Checks?8?5@ 0048cbac     Hunk.obj
 0002:00007be4       ??_C@_0BC@IBCJPMOM@__security_cookie@ 0048cbe4     Hunk.obj
 0002:00007bf8       ??_C@_0DJ@PKOCGDPL@Disable?5?8Buffer?5Security?5Check?8@ 0048cbf8     Hunk.obj
 0002:00007c34       ??_C@_0BD@IDIIECKB@_crt_debugger_hook@ 0048cc34     Hunk.obj
 0002:00007c48       ??_C@_0BN@EPFFOKHI@Define?5your?5own?5entry?5point?4@ 0048cc48     Hunk.obj
 0002:00007c68       ??_C@_06DCDKBOGN@__ftol@   0048cc68     Hunk.obj
 0002:00007c70       ??_C@_0HE@NMINBAG@Suppress?5_ftol?5calls?5with?5the?5?1@ 0048cc70     Hunk.obj
 0002:00007ce4       ??_C@_05DNADIBKB@__Cxx@    0048cce4     Hunk.obj
 0002:00007cec       ??_C@_0BG@IPKNANKA@Don?8t?5use?5exceptions?4@ 0048ccec     Hunk.obj
 0002:00007d04       ??_C@_0BI@CGHOEJPD@__imp_?$DP?$DP1exception?$EAstd?$EA@ 0048cd04     Hunk.obj
 0002:00007d1c       ??_C@_0P@CEGKDJBK@Don?8t?5use?5STL?4@ 0048cd1c     Hunk.obj
 0002:00007d2c       ??_C@_08GDBMFOGK@__alloca@ 0048cd2c     Hunk.obj
 0002:00007d38       ??_C@_08CEHLGEBN@__chkstk@ 0048cd38     Hunk.obj
 0002:00007d48       ??_C@_0FI@JKGMJPKK@Avoid?5declaring?5large?5arrays?5or@ 0048cd48     Hunk.obj
 0002:00007da0       ??_C@_02LMMGGCAJ@?3?5@     0048cda0     Hunk.obj
 0002:00007da4       ??_C@_0CF@JMLMFMKL@Cannot?5find?5symbol?5?8?$CFs?8?4?6?5?$CK?5HIN@ 0048cda4     Hunk.obj
 0002:00007dcc       ??_C@_0BI@LMOJBKB@Cannot?5find?5symbol?5?8?$CFs?8@ 0048cdcc     Hunk.obj
 0002:00007de4       ??_C@_0M@OGNBNEEM@?$CFs?5sections@ 0048cde4     Hunk.obj
 0002:00007df0       ??_C@_06CIPIPFKB@?4dummy@  0048cdf0     Hunk.obj
 0002:00007df8       ??_C@_03ELJPOBCB@tf_@      0048cdf8     Hunk.obj
 0002:00007dfc       ??_C@_02JDNIPIGD@NA@       0048cdfc     Hunk.obj
 0002:00007e00       ??_C@_05CNONOOAN@tf?$CFd_@ 0048ce00     Hunk.obj
 0002:00007e08       ??_C@_0M@IJPGLJFH@__real?$EA?$CF16X@ 0048ce08     Hunk.obj
 0002:00007e14       ??_C@_04BANGNJGK@?$EA3NA@  0048ce14     Hunk.obj
 0002:00007e1c       ??_C@_0L@LEINBDPJ@__real?$EA?$CF8X@ 0048ce1c     Hunk.obj
 0002:00007e28       ??_C@_04BCJAGHDD@?$EA3MA@  0048ce28     Hunk.obj
 0002:00007e30       ??_C@_0DM@GLGIKEKA@?$CFs?$FL?$CFd?$FN?3?5?$CFf?5?$CI0x?$CF?48X?$CF?48X?564?5bits?$CJ@ 0048ce30     Hunk.obj
 0002:00007e6c       ??_C@_0DE@CPBAGIEP@?$CFs?$FL?$CFd?$FN?3?5?$CFf?5?$CI0x?$CF?48X?532?5bits?$CJ?5?9?$DO?5@ 0048ce6c     Hunk.obj
 0002:00007ea0       ??_C@_05CBJPDLOK@align@    0048cea0     Hunk.obj
 0002:00007ea8       ??_C@_05NJJHCOAI@?$CFd_?$CFd@ 0048cea8     Hunk.obj
 0002:00007eb0       ??_C@_0ED@KIJAKNE@Alignment?5label?5?8?$CFs?8?5outside?5le@ 0048ceb0     Hunk.obj
 0002:00007ef4       ??_C@_0CO@JEOJGHOD@More?5than?5one?5alignment?5label?5i@ 0048cef4     Hunk.obj
 0002:00007f24       ??_C@_0DA@LMFIEOPJ@Alignment?5of?5section?5?8?$CFs?8?5overr@ 0048cf24     Hunk.obj
 0002:00007f54       ??_C@_05GAKFMAOJ@?5?$CL?5?$CFd@ 0048cf54     Hunk.obj
 0002:00007f5c       ??_C@_05OPOFDFEJ@?5?9?5?$CFd@ 0048cf5c     Hunk.obj
 0002:00007f64       ??_C@_0DJ@BDDGBENG@Alignment?5of?5section?5?8?$CFs?8?5overr@ 0048cf64     Hunk.obj
 0002:00007fa0       ??_C@_0N@EABLCPMK@DLLNamesHunk@ 0048cfa0     Hunk.obj
 0002:00007fc8       ??_C@_0CE@FLAJPMKA@Import?5?8?$CFs?8?5cannot?5be?5found?5in?5@ 0048cfc8     ImportHandler.obj
 0002:00007fec       ??_C@_08PNLNEKOB@kernel32@ 0048cfec     ImportHandler.obj
 0002:00007ff8       ??_C@_06KMMDPPA@user32@    0048cff8     ImportHandler.obj
 0002:00008000       ??_C@_0BM@MGJPOFFD@Could?5not?5find?5?8?$CFs?8?5in?5?8?$CFs?8@ 0048d000     ImportHandler.obj
 0002:0000801c       ??_C@_01LFCBOECM@?4@       0048d01c     ImportHandler.obj
 0002:00008020       ??_C@_0EF@ODLJMPNK@Import?5?8?$CFs?8?5from?5?8?$CFs?8?5uses?5forw@ 0048d020     ImportHandler.obj
 0002:00008068       ??_C@_0CN@CLANFMML@?6?9Imports?9?9?9?9?9?9?9?9?9?9?9?9?9?9?9?9?9?9?9?9?9?9@ 0048d068     ImportHandler.obj
 0002:00008098       ??_C@_0P@FMEPPHNH@ImportListHunk@ 0048d098     ImportHandler.obj
 0002:000080a8       ??_C@_0BE@CKOBAAGC@Cyclic?5DLL?5fallback@ 0048d0a8     ImportHandler.obj
 0002:000080bc       ??_C@_03OFAPEBGM@?$CFs?6@  0048d0bc     ImportHandler.obj
 0002:000080c0       ??_C@_0BF@EFOAIGPG@?5?5ordinal?5range?5?$HL?6?5?5@ 0048d0c0     ImportHandler.obj
 0002:000080d8       ??_C@_0BO@NHPKOMKC@?5?5?$CFs?5?$CIordinal?5?$CFd?0?5hash?5?$CF08X?$CJ?6@ 0048d0d8     ImportHandler.obj
 0002:000080f8       ??_C@_0BF@INBHFGBP@?5?5?5?5?$CFs?5?$CIordinal?5?$CFd?$CJ?6@ 0048d0f8     ImportHandler.obj
 0002:00008110       ??_C@_04POOIJLFB@?5?5?$HN?6@ 0048d110     ImportHandler.obj
 0002:00008118       ??_C@_0CP@CAGGDINB@No?5functions?5were?5imported?5from@ 0048d118     ImportHandler.obj
 0002:00008148       ??_C@_0DC@ENPNKFEL@No?5functions?5were?5imported?5from@ 0048d148     ImportHandler.obj
 0002:0000817c       ??_C@_0M@JHDMMMGK@_ImportList@ 0048d17c     ImportHandler.obj
 0002:00008188       ??_C@_0BA@EEJPNIEJ@crinkler?5import@ 0048d188     ImportHandler.obj
 0002:00008198       ??_C@_04IEKGFKDD@?4bss@    0048d198     ImportHandler.obj
 0002:000081a0       ??_C@_05LDKNOBJL@?4data@   0048d1a0     ImportHandler.obj
 0002:000081a8       ??_C@_09DIMPOJCJ@_DLLNames@ 0048d1a8     ImportHandler.obj
 0002:000081b4       ??_C@_0DJ@BAPKNBKF@Kernel32?5needs?5to?5be?5linked?5for@ 0048d1b4     ImportHandler.obj
 0002:000081f0       ??_C@_0CM@KNMIMJFD@Could?5not?5find?5collision?9free?5h@ 0048d1f0     ImportHandler.obj
 0002:0000821c       ??_C@_0BA@KLDDALIO@_HashMultiplier@ 0048d21c     ImportHandler.obj
 0002:0000822c       ??_C@_0BD@JLCPCPCI@?5?5?$CFs?5?$CIordinal?5?$CFd?$CJ?6@ 0048d22c     ImportHandler.obj
 0002:00008240       ??_C@_0BGP@BIBPFOA@?6Note?3?5Programs?5linked?5using?5th@ 0048d240     ImportHandler.obj
 0002:00008410       ??_C@_0BG@EOMJEIFA@vector?$DMbool?$DO?5too?5long@ 0048d410     ImportHandler.obj
 0002:00008428       ??_C@_0FN@LHLFECAA@Link?9time?5code?5generation?5is?5no@ 0048d428     LTCGLoader.obj
 0002:00008488       ??_7Transform@@6B@         0048d488     main.obj
 0002:00008494       ??_7IdentityTransform@@6B@ 0048d494     main.obj
 0002:000084a0       ??_7CmdParam@@6B@          0048d4a0     main.obj
 0002:000084ac       ??_7CallTransform@@6B@     0048d4ac     main.obj
 0002:000084b8       ??_C@_01KDCPPGHE@r@        0048d4b8     main.obj
 0002:000084bc       ??_C@_01KICIPPFI@?2@       0048d4bc     main.obj
 0002:000084c0       ??_C@_01ICJEACDI@?$DL@     0048d4c0     main.obj
 0002:000084c4       ??_C@_08KPFCJPKF@SYSTEM32@ 0048d4c4     main.obj
 0002:000084d0       ??_C@_08MEDCHDM@SYSWOW64@  0048d4d0     main.obj
 0002:000084dc       ??_C@_04HGBGCCEA@?4DLL@    0048d4dc     main.obj
 0002:000084e4       ??_C@_04HBHDLLBA@PATH@     0048d4e4     main.obj
 0002:000084ec       ??_C@_0BF@MOPLNHCG@Cannot?5find?5DLL?5?8?$CFs?8@ 0048d4ec     main.obj
 0002:00008508       ??_C@_0HI@KGGMDAPG@Missing?5export?5table?5in?5?8?$CFs?8?6?6I@ 0048d508     main.obj
 0002:00008580       ??_C@_0CD@PMIBFDPD@Launching?5default?5linker?5at?5?8?$CFs@ 0048d580     main.obj
 0002:000085a4       ??_C@_0CP@FFMLIGOI@Failed?5to?5launch?5default?5linker@ 0048d5a4     main.obj
 0002:000085d4       ??_C@_0CI@HMJCGCDA@Cannot?5find?5default?5linker?5?8?$CFs?8@ 0048d5d4     main.obj
 0002:000085fc       ??_C@_0L@FCHOOCIF@size?5in?5mb@ 0048d5fc     main.obj
 0002:00008608       ??_C@_0CA@LDLACMBJ@number?5of?5megabytes?5for?5hashing@ 0048d608     main.obj
 0002:00008628       ??_C@_08BNDHEBJM@HASHSIZE@ 0048d628     main.obj
 0002:00008634       ??_C@_0BI@CICDDLBO@number?5of?5hashing?5tries@ 0048d634     main.obj
 0002:0000864c       ??_C@_09CAKLIIOD@HASHTRIES@ 0048d64c     main.obj
 0002:00008658       ??_C@_0CD@NCCNPDGM@number?5of?5section?5reordering?5tr@ 0048d658     main.obj
 0002:0000867c       ??_C@_0L@OOHHBDBC@ORDERTRIES@ 0048d67c     main.obj
 0002:00008688       ??_C@_04MLOLHOPP@bits@     0048d688     main.obj
 0002:00008690       ??_C@_0BB@BKBGAGED@truncates?5floats@ 0048d690     main.obj
 0002:000086a4       ??_C@_0P@LCDKPBJ@TRUNCATEFLOATS@ 0048d6a4     main.obj
 0002:000086b4       ??_C@_0CP@GJFGKOMD@override?5section?5alignments?5usi@ 0048d6b4     main.obj
 0002:000086e4       ??_C@_0BD@DPAHOGMI@OVERRIDEALIGNMENTS@ 0048d6e4     main.obj
 0002:000086f8       ??_C@_0CG@CFCOMBPD@force?5alignment?5of?5code?5section@ 0048d6f8     main.obj
 0002:00008720       ??_C@_0M@EJIHLHGL@UNALIGNCODE@ 0048d720     main.obj
 0002:0000872c       ??_C@_0CK@BKBAGIBO@Do?5not?5implicitly?5link?5to?5runti@ 0048d72c     main.obj
 0002:00008758       ??_C@_0N@LIIALNB@NODEFAULTLIB@ 0048d758     main.obj
 0002:00008768       ??_C@_06OJHAJCPM@symbol@   0048d768     main.obj
 0002:00008770       ??_C@_0BH@LKAIGBLI@name?5of?5the?5entrypoint@ 0048d770     main.obj
 0002:00008788       ??_C@_05LGEFKHJN@ENTRY@    0048d788     main.obj
 0002:00008790       ??_C@_07INJEBCIE@out?4exe@ 0048d790     main.obj
 0002:00008798       ??_C@_08BABJIOEM@filename@ 0048d798     main.obj
 0002:000087a4       ??_C@_0BA@GMKDMLLC@output?5filename@ 0048d7a4     main.obj
 0002:000087b4       ??_C@_03KJGMBMID@OUT@      0048d7b4     main.obj
 0002:000087b8       ??_C@_0BF@EDFELLKN@report?5html?5filename@ 0048d7b8     main.obj
 0002:000087d0       ??_C@_06MDMHKGOO@REPORT@   0048d7d0     main.obj
 0002:000087d8       ??_C@_0BE@BOAJNIMO@reuse?5html?5filename@ 0048d7d8     main.obj
 0002:000087ec       ??_C@_05IAEPPEKA@REUSE@    0048d7ec     main.obj
 0002:000087f4       ??_C@_0BC@MDKBPKAJ@select?5reuse?5mode@ 0048d7f4     main.obj
 0002:00008808       ??_C@_09PMHGFICM@REUSEMODE@ 0048d808     main.obj
 0002:00008814       ??_C@_0CD@BGPCBHGE@Show?5a?5dialog?5to?5select?5reuse?5m@ 0048d814     main.obj
 0002:00008838       ??_C@_08CMEFNML@REUSEGUI@  0048d838     main.obj
 0002:00008844       ??_C@_04PCJFHION@help@     0048d844     main.obj
 0002:0000884c       ??_C@_01OGPIMHDM@?$DP@     0048d84c     main.obj
 0002:00008850       ??_C@_0BB@NLHGIGJH@enables?5Crinkler@ 0048d850     main.obj
 0002:00008864       ??_C@_08NBGIFLO@CRINKLER@  0048d864     main.obj
 0002:00008870       ??_C@_0BL@KDMHAFCC@recompress?5a?5Crinkler?5file@ 0048d870     main.obj
 0002:0000888c       ??_C@_0L@ODLMLPAF@RECOMPRESS@ 0048d88c     main.obj
 0002:00008898       ??_C@_0BK@BICCGAJK@crash?5if?5a?5DLL?5is?5missing@ 0048d898     main.obj
 0002:000088b4       ??_C@_0N@EJHDPEHI@UNSAFEIMPORT@ 0048d8b4     main.obj
 0002:000088c4       ??_C@_0BO@DEOBMNFN@show?5a?5graphical?5progress?5bar@ 0048d8c4     main.obj
 0002:000088e4       ??_C@_0M@PEFHCMCO@PROGRESSGUI@ 0048d8e4     main.obj
 0002:000088f0       ??_C@_0BA@NPLEEBJB@use?5tiny?5header@ 0048d8f0     main.obj
 0002:00008900       ??_C@_0L@MFMBJCAI@TINYHEADER@ 0048d900     main.obj
 0002:0000890c       ??_C@_0BA@FACCODAI@use?5tiny?5import@ 0048d90c     main.obj
 0002:0000891c       ??_C@_0L@EKFHDAJB@TINYIMPORT@ 0048d91c     main.obj
 0002:00008928       ??_C@_0BB@FPDDHNCG@select?5subsystem@ 0048d928     main.obj
 0002:0000893c       ??_C@_09CMMNJCPD@SUBSYSTEM@ 0048d93c     main.obj
 0002:00008948       ??_C@_04LMMJFDCN@AUTO@     0048d948     main.obj
 0002:00008950       ??_C@_0BL@GKHMNPCB@use?5separate?5part?5for?5text@ 0048d950     main.obj
 0002:0000896c       ??_C@_08HKEEEIIO@TEXTPART@ 0048d96c     main.obj
 0002:00008978       ??_C@_0BL@LPDGJFAG@allow?5addresses?5beyond?52gb@ 0048d978     main.obj
 0002:00008994       ??_C@_0BC@GFFPJKLJ@LARGEADDRESSAWARE@ 0048d994     main.obj
 0002:000089a8       ??_C@_06IOJAGNKJ@NORMAL@   0048d9a8     main.obj
 0002:000089b0       ??_C@_0M@MJCADJFN@BELOWNORMAL@ 0048d9b0     main.obj
 0002:000089bc       ??_C@_04IMMGDCFE@IDLE@     0048d9bc     main.obj
 0002:000089c4       ??_C@_0BA@OOKOELKN@select?5priority@ 0048d9c4     main.obj
 0002:000089d4       ??_C@_08PHDJDNOC@PRIORITY@ 0048d9d4     main.obj
 0002:000089e0       ??_C@_08MGEFONHF@VERYSLOW@ 0048d9e0     main.obj
 0002:000089ec       ??_C@_04BJJAFLBC@SLOW@     0048d9ec     main.obj
 0002:000089f4       ??_C@_04HNOLJCOK@FAST@     0048d9f4     main.obj
 0002:000089fc       ??_C@_0BB@JFOBKLLA@compression?5mode@ 0048d9fc     main.obj
 0002:00008a10       ??_C@_08LOIPFCFD@COMPMODE@ 0048da10     main.obj
 0002:00008a1c       ??_C@_07MENJGFFE@IMPORTS@  0048da1c     main.obj
 0002:00008a24       ??_C@_06EDNDDPFA@LABELS@   0048da24     main.obj
 0002:00008a2c       ??_C@_05IJDJACGD@print@    0048da2c     main.obj
 0002:00008a34       ??_C@_05ECKPOFCN@PRINT@    0048da34     main.obj
 0002:00008a3c       ??_C@_05JLLGMKNB@CALLS@    0048da3c     main.obj
 0002:00008a44       ??_C@_0BH@JCEMALDI@select?5transformations@ 0048da44     main.obj
 0002:00008a5c       ??_C@_09LFBMEAFB@TRANSFORM@ 0048da5c     main.obj
 0002:00008a68       ??_C@_0CP@CCJMKAEL@saturate?5counters?5?$CIfor?5highly?5r@ 0048da68     main.obj
 0002:00008a98       ??_C@_08LLAHJOKO@SATURATE@ 0048da98     main.obj
 0002:00008aa4       ??_C@_04EACGPHON@dirs@     0048daa4     main.obj
 0002:00008aac       ??_C@_0CH@KGGELHMF@adds?5a?5path?5to?5the?5library?5sear@ 0048daac     main.obj
 0002:00008ad4       ??_C@_07DPECNPAL@LIBPATH@  0048dad4     main.obj
 0002:00008adc       ??_C@_07EBPJLM@dllname@    0048dadc     main.obj
 0002:00008ae4       ??_C@_0CB@PGGCGOFL@use?5range?5importing?5for?5this?5dl@ 0048dae4     main.obj
 0002:00008b08       ??_C@_05OJPIIJFC@RANGE@    0048db08     main.obj
 0002:00008b10       ??_C@_0O@HGBBJMIA@oldDLL?$DNnewDLL@ 0048db10     main.obj
 0002:00008b20       ??_C@_0BL@ILMDFAPN@replace?5a?5dll?5with?5another@ 0048db20     main.obj
 0002:00008b3c       ??_C@_0L@KMABKDH@REPLACEDLL@ 0048db3c     main.obj
 0002:00008b48       ??_C@_0BC@CPKOELLF@firstDLL?$DNotherDLL@ 0048db48     main.obj
 0002:00008b5c       ??_C@_0CP@LAEPPGIA@try?5opening?5another?5dll?5if?5the?5@ 0048db5c     main.obj
 0002:00008b8c       ??_C@_0M@OOIDOLJC@FALLBACKDLL@ 0048db8c     main.obj
 0002:00008b98       ??_C@_0BB@CCMAINCA@name?$DNvalue?1label@ 0048db98     main.obj
 0002:00008bac       ??_C@_0BF@JPNNMKBM@export?5value?5by?5name@ 0048dbac     main.obj
 0002:00008bc4       ??_C@_0BP@BBKNDHHC@remove?5exports?5from?5executable@ 0048dbc4     main.obj
 0002:00008be4       ??_C@_0N@HHNEGJKM@STRIPEXPORTS@ 0048dbe4     main.obj
 0002:00008bf4       ??_C@_0CA@LGJAJNGP@do?5not?5run?5dynamic?5initializers@ 0048dbf4     main.obj
 0002:00008c14       ??_C@_0P@PKAEJKEI@NOINITIALIZERS@ 0048dc14     main.obj
 0002:00008c24       ??_C@_0BC@MJACHCBK@list?5of?5filenames@ 0048dc24     main.obj
 0002:00008c38       ??_C@_05PENKCLCM@FILES@    0048dc38     main.obj
 0002:00008c40       ??_C@_0EO@NELLDNIE@Crinkler?53?40?5?$CIFeb?527?52026?$CJ?5?$CIc?$CJ?5@ 0048dc40     main.obj
 0002:00008c90       ??_C@_02GLHBANAM@?1?$DP@   0048dc90     main.obj
 0002:00008c94       ??_C@_09LGMDKBDL@?1CRINKLER@ 0048dc94     main.obj
 0002:00008ca0       ??_C@_0N@EFOANEIK@CRINKLER?4EXE@ 0048dca0     main.obj
 0002:00008cb0       ??_C@_0M@JJELIMAP@?1RECOMPRESS@ 0048dcb0     main.obj
 0002:00008cbc       ??_C@_07EKNIKJFJ@?$CKdummy?$CK@ 0048dcbc     main.obj
 0002:00008cc4       ??_C@_0DH@OCOFFDMA@Crinkler?5recompression?5takes?5ex@ 0048dcc4     main.obj
 0002:00008cfc       ??_C@_0M@BKKINIEH@Source?3?5?$CFs?6@ 0048dcfc     main.obj
 0002:00008d08       ??_C@_0M@DPALJIHE@Target?3?5?$CFs?6@ 0048dd08     main.obj
 0002:00008d14       ??_C@_0CJ@CMMFFNNK@Subsystem?5type?3?5Inherited?5from?5@ 0048dd14     main.obj
 0002:00008d40       ??_C@_0BE@FFGCEKON@Subsystem?5type?3?5?$CFs?6@ 0048dd40     main.obj
 0002:00008d54       ??_C@_0CO@FNGBFOEK@Large?5address?5aware?3?5Inherited?5@ 0048dd54     main.obj
 0002:00008d84       ??_C@_0BJ@ENJHDKLP@Large?5address?5aware?3?5?$CFs?6@ 0048dd84     main.obj
 0002:00008da0       ??_C@_0DC@COMOFJIP@Compression?5mode?3?5Models?5inheri@ 0048dda0     main.obj
 0002:00008dd4       ??_C@_0BG@PJLAKKFL@Compression?5mode?3?5?$CFs?6@ 0048ddd4     main.obj
 0002:00008dec       ??_C@_0CM@GHLEEMDO@Saturate?5counters?3?5Inherited?5fr@ 0048ddec     main.obj
 0002:00008e18       ??_C@_0BH@EOEGDKPD@Saturate?5counters?3?5?$CFs?6@ 0048de18     main.obj
 0002:00008e30       ??_C@_0CE@FEDGELOP@Hash?5size?3?5Inherited?5from?5origi@ 0048de30     main.obj
 0002:00008e54       ??_C@_0BC@IDEHGKPJ@Hash?5size?3?5?$CFd?5MB?6@ 0048de54     main.obj
 0002:00008e68       ??_C@_0BA@CANCPPLG@Hash?5tries?3?5?$CFd?6@ 0048de68     main.obj
 0002:00008e78       ??_C@_04OKGDLNCL@NONE@     0048de78     main.obj
 0002:00008e80       ??_C@_0M@KJLMAEAB@Report?3?5?$CFs?6@ 0048de80     main.obj
 0002:00008e8c       ??_C@_0P@EFMGCAGH@Replace?5DLLs?3?5@ 0048de8c     main.obj
 0002:00008e9c       ??_C@_02KEGNLNML@?0?5@     0048de9c     main.obj
 0002:00008ea0       ??_C@_08DHHJCFN@?$CFs?5?9?$DO?5?$CFs@ 0048dea0     main.obj
 0002:00008eb0       ??_C@_0EK@JCGIPFDA@In?5recompression?0?5a?5DLL?5can?5onl@ 0048deb0     main.obj
 0002:00008efc       ??_C@_09HBHJDGGP@Exports?3?5@ 0048defc     main.obj
 0002:00008f08       ??_C@_0M@EKKKJBFI@Strip?5away?6@ 0048df08     main.obj
 0002:00008f14       ??_C@_0BE@OOHGPPMD@Keep?5from?5original?6@ 0048df14     main.obj
 0002:00008f28       ??_C@_0BH@CMDCKGDH@Strip?5and?5replace?5by?3?6@ 0048df28     main.obj
 0002:00008f40       ??_C@_0BJ@ECIKKGFA@Keep?5and?5supplement?5by?3?6@ 0048df40     main.obj
 0002:00008f5c       ??_C@_0DN@EMGFAOFL@Export?5stripping?5can?5only?5be?5pe@ 0048df5c     main.obj
 0002:00008f9c       ??_C@_0CP@NFGOFBDF@Transforms?5are?5not?5supported?5wi@ 0048df9c     main.obj
 0002:00008fcc       ??_C@_0BF@LDGAIPPM@Tiny?5compressor?3?5?$CFs?6@ 0048dfcc     main.obj
 0002:00008fe4       ??_C@_0BB@EBNBECOF@Tiny?5import?3?5?$CFs?6@ 0048dfe4     main.obj
 0002:00008ff8       ??_C@_0BB@LIEGOFBN@Order?5tries?3?5?$CFd?6@ 0048dff8     main.obj
 0002:0000900c       ??_C@_0BA@HODJNJO@Reuse?5mode?3?5?$CFs?6@ 0048e00c     main.obj
 0002:0000901c       ??_C@_0BA@FPPMAEFG@Reuse?5file?3?5?$CFs?6@ 0048e01c     main.obj
 0002:0000902c       ??_C@_0CF@NFOCDHEA@Reuse?5mode?3?5OFF?5?$CIno?5file?5specif@ 0048e02c     main.obj
 0002:00009054       ??_C@_0BA@JIMHENII@Transforms?3?5?$CFs?6@ 0048e054     main.obj
 0002:00009064       ??_C@_0BA@HPIDNEIO@Fallback?5DLLs?3?5@ 0048e064     main.obj
 0002:00009074       ??_C@_0N@GEJOHKAJ@Range?5DLLs?3?5@ 0048e074     main.obj
 0002:00009084       ??_C@_02DKCKIIND@?$CFs@    0048e084     main.obj
 0002:00009088       ??_C@_08PDNNMGIM@Exports?3@ 0048e088     main.obj
 0002:00009094       ??_C@_02KCAFKDJ@?$DP?3@    0048e094     main.obj
 0002:00009098       ??_C@_03LCHNFMKO@LIB@      0048e098     main.obj
 0002:0000909c       ??_C@_0BH@GJNDOEMB@Cannot?5open?5file?5?8?$CFs?8?6@ 0048e09c     main.obj
 0002:000090b4       ??_C@_0P@EGIKPAOL@Loading?5?$CFs?4?4?4?6@ 0048e0b4     main.obj
 0002:000090c4       ??_C@_0N@MGJADCGC@Linking?4?4?4?6?6@ 0048e0c4     main.obj
 0002:000090d4       ??_C@_0BG@MNCKNEOD@time?5spent?3?5?$CFdm?$CF02ds?6@ 0048e0d4     main.obj
 0002:000090ec       ??_C@_0O@MGDGCKO@Uninitialized@ 0048e0ec     PartList.obj
 0002:000090fc       ??_C@_0BD@CPABHKEA@ContinuationJump?$CFd@ 0048e0fc     PartList.obj
 0002:00009110       ??_C@_0CB@PLFDACII@Virtual?5size?5overflows?52GB?5limi@ 0048e110     PartList.obj
 0002:000091f4       ??_C@_0BC@KBDMBKEH@deque?$DMT?$DO?5too?5long@ 0048e1f4     PartList.obj
 0002:00009208       ??_C@_0BC@FINGIOCM@Ignore?5reuse?5file@ 0048e208     Reuse.obj
 0002:0000921c       ??_C@_0CA@KAPEKFEK@Ignore?5and?5overwrite?5reuse?5file@ 0048e21c     Reuse.obj
 0002:0000923c       ??_C@_0M@MCLNDAGE@Reuse?5parts@ 0048e23c     Reuse.obj
 0002:00009248       ??_C@_0BJ@IIPADPLN@Reuse?5parts?5and?5sections@ 0048e248     Reuse.obj
 0002:00009264       ??_C@_0CB@ONBDBFNA@Reuse?5parts?0?5sections?5and?5model@ 0048e264     Reuse.obj
 0002:00009288       ??_C@_0BB@PJEKKFC@Reuse?5everything@ 0048e288     Reuse.obj
 0002:0000929c       ??_C@_08CIGKLNEF@?5?$CFx?3?$CFd?$CFn@ 0048e29c     Reuse.obj
 0002:000092a8       ??_C@_0BC@JPHNLAJO@?$CD?5Hash?5table?5size@ 0048e2a8     Reuse.obj
 0002:000092bc       ??_C@_0BI@HOLKOAP@Duplicate?5hash?5size?3?5?$CFs@ 0048e2bc     Reuse.obj
 0002:000092d4       ??_C@_0BD@HOEEIGEP@Duplicate?5part?3?5?$CFs@ 0048e2d4     Reuse.obj
 0002:000092e8       ??_C@_08NDACJNEH@sections@ 0048e2e8     Reuse.obj
 0002:000092f4       ??_C@_0BL@IKFBKLJI@Unknown?5reuse?5file?5tag?3?5?$CFs@ 0048e2f4     Reuse.obj
 0002:00009310       ??_C@_0BE@MMABNDBL@Unexpected?5line?3?5?$CFs@ 0048e310     Reuse.obj
 0002:00009324       ??_C@_0BF@KMNJBAFP@Duplicate?5models?3?5?$CFs@ 0048e324     Reuse.obj
 0002:0000933c       ??_C@_03EBJOKFHF@?5?$CFd@  0048e33c     Reuse.obj
 0002:00009340       ??_C@_0CG@IFGIKMDG@The?5?8Uninitialized?8?5part?5must?5b@ 0048e340     Reuse.obj
 0002:00009368       ??_C@_0DD@KIGGGHEG@Models?5missing?5for?5part?5?8?$CFs?8?0?5u@ 0048e368     Reuse.obj
 0002:0000939c       ??_C@_0CH@CAONMNLN@Models?5specified?5for?5unknown?5pa@ 0048e39c     Reuse.obj
 0002:000093c4       ??_C@_01NOFIACDB@w@        0048e3c4     Reuse.obj
 0002:000093c8       ??_C@_09KDBLPMKP@?6?$CD?5?$CFs?5?$CFs?6@ 0048e3c8     Reuse.obj
 0002:000093d4       ??_C@_04EINJHBMM@?6?$CFs?6@ 0048e3d4     Reuse.obj
 0002:000093dc       ??_C@_03PMGGPEJJ@?$CFd?6@  0048e3dc     Reuse.obj
 0002:000093e0       ??_C@_0BP@FCAAMCLB@Reused?5section?5not?5present?3?5?$CFs@ 0048e3e0     Reuse.obj
 0002:00009400       ??_C@_0DE@KJMHJGCK@Section?5not?5present?5in?5reuse?5fi@ 0048e400     Reuse.obj
 0002:00009434       ??_C@_0BC@NJLKOCOK@Select?5Reuse?5Mode@ 0048e434     Reuse.obj
 0002:000094a8       ??_C@_0BL@GOIGLPKN@unordered_map?1set?5too?5long@ 0048e4a8     Reuse.obj
 0002:000094c4       ??_C@_0BK@OGNNAFAB@invalid?5hash?5bucket?5count@ 0048e4c4     Reuse.obj
 0002:000094e0       __xmm@41f00000000000000000000000000000 0048e4e0     Reuse.obj
 0002:000094f0       ??_C@_0BG@PGNNGALE@?6?$CFs?3?5warning?5LNK?3?5?$CFs?6@ 0048e4f0     Log.obj
 0002:00009508       ??_C@_0BF@DBAAIJEK@?6?$CFs?3?5error?5LNK?3?5?$CFs?6?6@ 0048e508     Log.obj
 0002:00009520       ??_C@_0BD@IMHGKAID@?6?$CFs?3?5error?5LNK?3?5?$CFs@ 0048e520     Log.obj
 0002:00009534       ??_C@_0BC@BADGLCAK@dump?$CF04d_mini?4dmp@ 0048e534     MiniDump.obj
 0002:00009548       ??_C@_0BC@HOCFIICJ@dump?$CF04d_full?4dmp@ 0048e548     MiniDump.obj
 0002:0000955c       ??_C@_0DP@BPGMONP@?6Oops?$CB?5Crinkler?5has?5crashed?4?6Du@ 0048e55c     MiniDump.obj
 0002:0000959c       ??_C@_01DCLJPIOD@?$CB@     0048e59c     NameMangling.obj
 0002:000095e4       ??_C@_04OEDFLLKD@?$CC?$CFs?$CC@ 0048e5e4     CmdLineInterface.obj
 0002:000095ec       ??_C@_0CD@CJFHIBAM@Error?3?5argument?5must?5be?5non?9emp@ 0048e5ec     CmdLineInterface.obj
 0002:00009610       ??_C@_0DN@MLEPENIK@Error?3?5error?5parsing?5token?3?5?8?$CFs@ 0048e610     CmdLineInterface.obj
 0002:00009650       ??_C@_0EJ@NOFPAEKE@Error?3?5error?5parsing?5token?3?5?8?$CFs@ 0048e650     CmdLineInterface.obj
 0002:0000969c       ??_C@_0DI@LNODHCJL@Error?3?5parameter?5cannot?5be?5defi@ 0048e69c     CmdLineInterface.obj
 0002:000096d4       ??_C@_0CE@NAAODADD@Error?3?5cannot?5parse?5token?5?8?$CFs?8?3@ 0048e6d4     CmdLineInterface.obj
 0002:000096f8       ??_C@_0CA@IJDPKHAC@Ignoring?5unknown?5argument?5?8?$CFs?8?6@ 0048e6f8     CmdLineInterface.obj
 0002:00009718       ??_C@_04LOAOMKLI@?$CFs?6?6@ 0048e718     CmdLineInterface.obj
 0002:00009720       ??_C@_0O@IGHNBNGC@?5?5?5options?3?6?6@ 0048e720     CmdLineInterface.obj
 0002:00009730       ??_C@_09BKMLAGIN@?5?5?5?5?5?5?$CFs?6@ 0048e730     CmdLineInterface.obj
 0002:0000973c       ??_C@_07LFFNHEBN@?$CFs?$FL?3?$CFs?$FN@ 0048e73c     CmdParam.obj
 0002:00009744       ??_C@_05CCMOGDN@?$CFs?3?$CFs@ 0048e744     CmdParam.obj
 0002:0000974c       ??_C@_08FEPILOB@?1?$CF?924s?$CFs@ 0048e74c     CmdParam.obj
 0002:00009758       ??_7CmdParamFlags@@6B@     0048e758     CmdParamFlags.obj
 0002:00009764       ??_C@_01DNKMNLPK@?$HM@     0048e764     CmdParamFlags.obj
 0002:00009768       ??_C@_0BE@LHFMHEMF@unknown?5argument?5?$CFs@ 0048e768     CmdParamFlags.obj
 0002:0000977c       ??_7CmdParamInt@@6B@       0048e77c     CmdParamInt.obj
 0002:00009788       ??_C@_04PEOOHEKN@?$CFd?$CFc@ 0048e788     CmdParamInt.obj
 0002:00009790       ??_C@_0DA@BNKHLCAG@argument?5is?5not?5within?5the?5lega@ 0048e790     CmdParamInt.obj
 0002:000097c0       ??_C@_0BK@HJCFFFKP@expected?5integer?5argument@ 0048e7c0     CmdParamInt.obj
 0002:000097dc       ??_7CmdParamMultiAssign@@6B@ 0048e7dc     CmdParamMultiAssign.obj
 0002:000097e8       ??_C@_0BN@MOMEBLFE@identifier?5must?5be?5non?5empty@ 0048e7e8     CmdParamMultiAssign.obj
 0002:00009808       ??_C@_0BP@BLCEBHPL@argument?5must?5be?5an?5assignment@ 0048e808     CmdParamMultiAssign.obj
 0002:00009828       ??_C@_0CN@CDCELBAI@argument?5must?5contain?5exactly?5o@ 0048e828     CmdParamMultiAssign.obj
 0002:00009858       ??_7CmdParamString@@6B@    0048e858     CmdParamString.obj
 0002:00009864       ??_7CmdParamSwitch@@6B@    0048e864     CmdParamSwitch.obj
 0002:00009870       ??_7HunkLoader@@6B@        0048e870     CoffLibraryLoader.obj
 0002:0000987c       ??_7CoffObjectLoader@@6B@  0048e87c     CoffLibraryLoader.obj
 0002:00009888       ??_C@_0BB@JBINBAHL@?1?5?5?5?5?5?5?5?5?5?5?5?5?5?5?5@ 0048e888     CoffLibraryLoader.obj
 0002:0000989c       ??_C@_05LJNAGFEK@?$CFs?$HM?$CFd@ 0048e89c     CoffLibraryLoader.obj
 0002:000098a4       ??_C@_09LGGENLMM@stub_for_@ 0048e8a4     CoffLibraryLoader.obj
 0002:000098b0       ??_C@_0BA@OBIGDAID@c?$FL?$CFs?$FN?$CBconstants@ 0048e8b0     CoffObjectLoader.obj
 0002:000098c0       ??_C@_0N@EKICPMOH@h?$FL?$CFs?$FN?$CI?$CFd?$CJ?$CB?$CFs@ 0048e8c0     CoffObjectLoader.obj
 0002:000098d0       ??_C@_0N@PGOCCEEK@l?$FL?$CFs?$CI?$CFd?$CJ?$FN?$CB?$CFs@ 0048e8d0     CoffObjectLoader.obj
 0002:000098e0       ??_C@_08FJCEIGBA@u?$FL?$CFs?$FN?$CB?$CFs@ 0048e8e0     CoffObjectLoader.obj
 0002:000098ec       ??_7MultiLoader@@6B@       0048e8ec     MultiLoader.obj
 0002:000098f8       ??_7CoffLibraryLoader@@6B@ 0048e8f8     MultiLoader.obj
 0002:00009904       ??_7LTCGLoader@@6B@        0048e904     MultiLoader.obj
 0002:00009910       ??_C@_0L@OBDLOJAH@?5?5?$CFs?3?5?$CF?42f@ 0048e910     EmpiricalHunkSorter.obj
 0002:0000991c       ??_C@_0BP@NOOIOFJD@?5?5Iteration?3?5?$CF5d?5?5Size?3?5?$CF5?42f?6@ 0048e91c     EmpiricalHunkSorter.obj
 0002:0000993c       ??_C@_0BB@HOMGCPO@?5?5Iteration?3?5?$CF5d@ 0048e93c     EmpiricalHunkSorter.obj
 0002:00009950       ??_C@_0P@FOEICEFD@?5?5Size?3?5?$CF5?42f?6@ 0048e950     EmpiricalHunkSorter.obj
 0002:00009960       ??_C@_0BK@NNAEOHAJ@?6?6Reordering?5sections?4?4?4?6@ 0048e960     EmpiricalHunkSorter.obj
 0002:0000997c       ??_C@_0BE@DIGLOIJK@Reordering?5sections@ 0048e97c     EmpiricalHunkSorter.obj
 0002:00009990       ??_C@_0BG@EFLFEGCA@Time?5spent?3?5?$CFdm?$CF02ds?6@ 0048e990     EmpiricalHunkSorter.obj
 0002:00009a20       ??_C@_0BB@JECAAK@call?5detransform@ 0048ea20     CallTransform.obj
 0002:00009a34       ??_C@_0BD@JCJENKGJ@call?5detransformer@ 0048ea34     CallTransform.obj
 0002:00009a48       ??_C@_0L@FLDFHIOH@_CallTrans@ 0048ea48     CallTransform.obj
 0002:00009a54       ??_C@_0BI@FBALKNOI@?6Calls?5transformed?3?5?$CFd?6@ 0048ea54     CallTransform.obj
 0002:00009a6c       ??_C@_0P@DHLDHFFF@_CallTransSize@ 0048ea6c     CallTransform.obj
 0002:00009a7c       ??_C@_0CL@DLNPOEHI@No?5calls?5?9?5call?5transformation?5@ 0048ea7c     CallTransform.obj
 0002:00009aa8       ??_C@_04KHMCCJKM@Stub@     0048eaa8     Transform.obj
 0002:00009ab0       ??_C@_08PHGBCJAH@?6?$HM?9?9?5?$CFs?5@ 0048eab0     ConsoleProgressBar.obj
 0002:00009abc       ??_C@_02KHLKFPFD@?$HM?6@   0048eabc     ConsoleProgressBar.obj
 0002:00009ac0       ??_C@_0M@PIHHDJKD@?5?$CF3dm?$CF02ds?6@ 0048eac0     ConsoleProgressBar.obj
 0002:00009acc       ??_C@_09DMMGBKDP@?$CFd?$CF?$CF?5?9?5?$CFs@ 0048eacc     WindowProgressBar.obj
 0002:00009ad8       ??_C@_09PLNDHFIO@?$CF3dm?$CF02ds@ 0048ead8     WindowProgressBar.obj
 0002:00009ae4       ??_C@_01CLKCMJKC@?5@       0048eae4     Compressor:ModelList.obj
 0002:00009ae8       ??_C@_09IEIKHJKM@?$CFs?$CF02X?3?$CFd@ 0048eae8     Compressor:ModelList.obj
 0002:00009af4       ??_C@_0CO@LGBKBLBJ@Models?3?5?$CF08X?5?5?5Boost?3?5?$CFd?5?5BaseP@ 0048eaf4     Compressor:ModelList.obj
 0002:00009b30       __xmm@711705110d0b071303171d1f25292b2f 0048eb30     Compressor:CompressionStream.obj
 0002:00009b40       ??_C@_07NFANNNEC@UNKNOWN@  0048eb40     Compressor:Compressor.obj
 0002:00009b4c       ??_7?$_Func_impl_no_alloc@P6A_JXZ_J$$V@std@@6B@ 0048eb4c     Compressor:CompressionStateEvaluator.obj
 0002:00009b70       __xmm@007fffff007fffff007fffff007fffff 0048eb70     Compressor:CompressionStateEvaluator.obj
 0002:00009b80       __xmm@3e230a963e230a963e230a963e230a96 0048eb80     Compressor:CompressionStateEvaluator.obj
 0002:00009b90       __xmm@3f8000003f8000003f8000003f800000 0048eb90     Compressor:CompressionStateEvaluator.obj
 0002:00009ba0       __xmm@3fb620733fb620733fb620733fb62073 0048eba0     Compressor:CompressionStateEvaluator.obj
 0002:00009bb0       __xmm@45800000458000004580000045800000 0048ebb0     Compressor:CompressionStateEvaluator.obj
 0002:00009bc0       __xmm@bf15038cbf15038cbf15038cbf15038c 0048ebc0     Compressor:CompressionStateEvaluator.obj
 0002:0000c100       __ymm@0000001f0000001f0000001f0000001f0000001f0000001f0000001f0000001f 00491100     libcpmt:vector_algorithms.obj
 0002:0000c124       ??_7exception@std@@6B@     00491124     libcpmt:xthrow.obj
 0002:0000c130       ??_7bad_alloc@std@@6B@     00491130     libcpmt:xthrow.obj
 0002:0000c13c       ??_7bad_function_call@std@@6B@ 0049113c     libcpmt:xthrow.obj
 0002:0000c144       ??_C@_0BC@DPJNKNAF@bad?5function?5call@ 00491144     libcpmt:xthrow.obj
 0002:0000c15c       ??_7logic_error@std@@6B@   0049115c     libcpmt:xthrow.obj
 0002:0000c168       ??_7invalid_argument@std@@6B@ 00491168     libcpmt:xthrow.obj
 0002:0000c174       ??_7length_error@std@@6B@  00491174     libcpmt:xthrow.obj
 0002:0000c180       ??_7out_of_range@std@@6B@  00491180     libcpmt:xthrow.obj
 0002:0000c18c       ??_7runtime_error@std@@6B@ 0049118c     libcpmt:xthrow.obj
 0002:0000c1cc       ??_C@_0BI@NGCEHDD@device?5or?5resource?5busy@ 004911cc     libcpmt:thread0.obj
 0002:0000c1e4       ??_C@_0BB@FCMFBGOM@invalid?5argument@ 004911e4     libcpmt:thread0.obj
 0002:0000c1f8       ??_C@_0BA@ENLPPKBN@no?5such?5process@ 004911f8     libcpmt:thread0.obj
 0002:0000c208       ??_C@_0BC@ENOOLCNF@not?5enough?5memory@ 00491208     libcpmt:thread0.obj
 0002:0000c21c       ??_C@_0BI@OHIEJAAB@operation?5not?5permitted@ 0049121c     libcpmt:thread0.obj
 0002:0000c234       ??_C@_0BO@BJBOMOEJ@resource?5deadlock?5would?5occur@ 00491234     libcpmt:thread0.obj
 0002:0000c254       ??_C@_0BP@LKNGHENJ@resource?5unavailable?5try?5again@ 00491254     libcpmt:thread0.obj
 0002:0000c278       ??_7bad_array_new_length@std@@6B@ 00491278     libcpmt:thread0.obj
 0002:0000c284       ??_7_System_error@std@@6B@ 00491284     libcpmt:thread0.obj
 0002:0000c290       ??_7system_error@std@@6B@  00491290     libcpmt:thread0.obj
 0002:0000c29c       ??_7_Generic_error_category@std@@6B@ 0049129c     libcpmt:thread0.obj
 0002:0000c2b8       ??_7_Facet_base@std@@6B@   004912b8     libcpmt:locale0.obj
 0002:0000c2c8       ??_7_Locimp@locale@std@@6B@ 004912c8     libcpmt:locale0.obj
 0002:0000c2d4       ??_C@_01NBENCBCI@?$CK@     004912d4     libcpmt:locale0.obj
 0002:0000c2d8       ??_C@_01GFHCPBMG@C@        004912d8     libcpmt:locale0.obj
 0002:0000c2e0       ?__DOUBLE_POW5_INV_SPLIT@std@@3QAY01$$CB_KA 004912e0     libcpmt:xcharconv_ryu_tables.obj
 0002:0000d520       ?__DOUBLE_POW5_SPLIT@std@@3QAY01$$CB_KA 00492520     libcpmt:xcharconv_ryu_tables.obj
 0002:0000e980       ?__POW10_SPLIT@std@@3QAY02$$CB_KA 00493980     libcpmt:xcharconv_ryu_tables.obj
 0002:00015c40       ?__POW10_SPLIT_2@std@@3QAY02$$CB_KA 0049ac40     libcpmt:xcharconv_ryu_tables.obj
 0002:000281f8       ?_Special_X_table@?$_General_precision_tables_2@M@std@@2QBIB 004ad1f8     libcpmt:xcharconv_tables_float.obj
 0002:000282f8       ?_Ordinary_X_table@?$_General_precision_tables_2@M@std@@2QBIB 004ad2f8     libcpmt:xcharconv_tables_float.obj
 0002:000283a8       ?_Special_X_table@?$_General_precision_tables_2@N@std@@2QB_KB 004ad3a8     libcpmt:xcharconv_tables_double.obj
 0002:000289c0       ?_Ordinary_X_table@?$_General_precision_tables_2@N@std@@2QB_KB 004ad9c0     libcpmt:xcharconv_tables_double.obj
 0002:00029390       ?nothrow@std@@3Unothrow_t@1@B 004ae390     libcpmt:nothrow.obj
 0002:00029394       ??_C@_1BK@MGMFAEKH@?$AAk?$AAe?$AAr?$AAn?$AAe?$AAl?$AA3?$AA2?$AA?4?$AAd?$AAl?$AAl@ 004ae394     libcpmt:filesystem.obj
 0002:000293b0       ??_C@_0O@NNMIPI@GetTempPath2W@ 004ae3b0     libcpmt:filesystem.obj
