 Crinkler

 Timestamp is 69a19cc2 (Fri Feb 27 14:31:46 2026)

 Preferred load address is 0000000140000000

 Start         Length     Name                   Class
 0001:00000000 000001d0H .text$di                CODE
 0001:000001d0 00098710H .text$mn                CODE
 0001:000988e0 00000060H .text$mn$00             CODE
 0001:00098940 00000e90H .text$mn$21             CODE
 0001:000997d0 00001770H .text$x                 CODE
 0001:0009af40 00000207H .text$yd                CODE
 0002:00000000 00000588H .idata$5                DATA
 0002:00000588 00000038H .00cfg                  DATA
 0002:000005c0 00000008H .CRT$XCA                DATA
 0002:000005c8 00000008H .CRT$XCAA               DATA
 0002:000005d0 00000028H .CRT$XCC                DATA
 0002:000005f8 00000010H .CRT$XCL                DATA
 0002:00000608 00000030H .CRT$XCU                DATA
 0002:00000638 00000008H .CRT$XCZ                DATA
 0002:00000640 00000008H .CRT$XIA                DATA
 0002:00000648 00000008H .CRT$XIAA               DATA
 0002:00000650 00000008H .CRT$XIAC               DATA
 0002:00000658 00000038H .CRT$XIC                DATA
 0002:00000690 00000008H .CRT$XIZ                DATA
 0002:00000698 00000008H .CRT$XPA                DATA
 0002:000006a0 00000008H .CRT$XPB                DATA
 0002:000006a8 00000010H .CRT$XPX                DATA
 0002:000006b8 00000008H .CRT$XPXA               DATA
 0002:000006c0 00000008H .CRT$XPZ                DATA
 0002:000006c8 00000008H .CRT$XTA                DATA
 0002:000006d0 00000010H .CRT$XTZ                DATA
 0002:000006d8 00000000H .gehcont$y              DATA
 0002:000006d8 00000000H .gfids$y                DATA
 0002:000006d8 00000000H .giats$y                DATA
 0002:000006e0 000364e0H .rdata                  DATA
 0002:00036bc0 000001c0H .rdata$00               DATA
 0002:00036d80 00000000H .rdata$CastGuardVftablesA DATA
 0002:00036d80 00000000H .rdata$CastGuardVftablesC DATA
 0002:00036d80 00002e14H .rdata$r                DATA
 0002:00039b94 000018e0H .rdata$voltmd           DATA
 0002:0003b474 0000047cH .rdata$zzzdbg           DATA
 0002:0003b8f0 00000008H .rtc$IAA                DATA
 0002:0003b8f8 00000008H .rtc$IZZ                DATA
 0002:0003b900 00000008H .rtc$TAA                DATA
 0002:0003b908 00000008H .rtc$TZZ                DATA
 0002:0003b910 00008600H .xdata                  DATA
 0002:00043f10 00000b64H .xdata$x                DATA
 0002:00044a74 00000000H .edata                  DATA
 0002:00044a74 00000050H .idata$2                DATA
 0002:00044ac4 00000014H .idata$3                DATA
 0002:00044ad8 00000588H .idata$4                DATA
 0002:00045060 00000d92H .idata$6                DATA
 0003:00000000 00031bf0H .data                   DATA
 0003:00031bf0 00001640H .data$r                 DATA
 0003:00033230 00001140H .data$rs                DATA
 0003:00034370 0004779cH .bss                    DATA
 0004:00000000 00008100H .pdata                  DATA
 0005:00000000 00008000H logtable                DATA
 0006:00000000 00000100H .fptable                DATA
 0007:00000000 00000100H .rsrc$01                DATA
 0007:00000100 000001b0H .rsrc$02                DATA

  Address         Publics by Value              Rva+Base               Lib:Object

 0000:00000000       __AbsoluteZero             0000000000000000     <absolute>
 0000:00000000       __arm64x_extra_rfe_table   0000000000000000     <absolute>
 0000:00000000       __arm64x_extra_rfe_table_size 0000000000000000     <absolute>
 0000:00000000       __arm64x_native_entrypoint 0000000000000000     <absolute>
 0000:00000000       __arm64x_redirection_metadata 0000000000000000     <absolute>
 0000:00000000       __arm64x_redirection_metadata_count 0000000000000000     <absolute>
 0000:00000000       __dynamic_value_reloc_table 0000000000000000     <absolute>
 0000:00000000       __enclave_config           0000000000000000     <absolute>
 0000:00000000       __guard_check_icall_a64n_fptr 0000000000000000     <absolute>
 0000:00000000       __guard_eh_cont_count      0000000000000000     <absolute>
 0000:00000000       __guard_eh_cont_table      0000000000000000     <absolute>
 0000:00000000       __guard_fids_count         0000000000000000     <absolute>
 0000:00000000       __guard_fids_table         0000000000000000     <absolute>
 0000:00000000       __guard_iat_count          0000000000000000     <absolute>
 0000:00000000       __guard_iat_table          0000000000000000     <absolute>
 0000:00000000       __guard_longjmp_count      0000000000000000     <absolute>
 0000:00000000       __guard_longjmp_table      0000000000000000     <absolute>
 0000:00000000       __hybrid_auxiliary_delayload_iat 0000000000000000     <absolute>
 0000:00000000       __hybrid_auxiliary_delayload_iat_copy 0000000000000000     <absolute>
 0000:00000000       __hybrid_auxiliary_iat     0000000000000000     <absolute>
 0000:00000000       __hybrid_auxiliary_iat_copy 0000000000000000     <absolute>
 0000:00000000       __hybrid_code_map          0000000000000000     <absolute>
 0000:00000000       __hybrid_code_map_count    0000000000000000     <absolute>
 0000:00000000       __hybrid_image_info_bitfield 0000000000000000     <absolute>
 0000:00000000       __x64_code_ranges_to_entry_points 0000000000000000     <absolute>
 0000:00000000       __x64_code_ranges_to_entry_points_count 0000000000000000     <absolute>
 0000:00000100       __guard_flags              0000000000000100     <absolute>
 0000:00000000       __ImageBase                0000000140000000     <linker-defined>
 0001:000001d0       ??$?RD@_Precision_checker@std@@SA_KD@Z 00000001400011d0 f i Crinkler.obj
 0001:000001d0       ??$?RM@_Precision_checker@std@@SA_KM@Z 00000001400011d0 f i Crinkler.obj
 0001:000001d0       ??$?RN@_Precision_checker@std@@SA_KN@Z 00000001400011d0 f i Crinkler.obj
 0001:000001d0       ??$?RO@_Precision_checker@std@@SA_KO@Z 00000001400011d0 f i Crinkler.obj
 0001:000001d0       ??$?RPEBD@_Precision_checker@std@@SA_KQEBD@Z 00000001400011d0 f i Crinkler.obj
 0001:000001d0       ??$?RPEBX@_Precision_checker@std@@SA_KQEBX@Z 00000001400011d0 f i Crinkler.obj
 0001:000001d0       ??$?RUmonostate@std@@@_Precision_checker@std@@SA_KUmonostate@1@@Z 00000001400011d0 f i Crinkler.obj
 0001:000001d0       ??$?RV?$basic_string_view@DU?$char_traits@D@std@@@std@@@_Precision_checker@std@@SA_KV?$basic_string_view@DU?$char_traits@D@std@@@1@@Z 00000001400011d0 f i Crinkler.obj
 0001:000001d0       ??$?RVhandle@?$basic_format_arg@V?$basic_format_context@V?$back_insert_iterator@V?$_Fmt_buffer@D@std@@@std@@D@std@@@std@@@_Precision_checker@std@@SA_KVhandle@?$basic_format_arg@V?$basic_format_context@V?$back_insert_iterator@V?$_Fmt_buffer@D@std@@@std@@D@std@@@1@@Z 00000001400011d0 f i Crinkler.obj
 0001:000001d0       ??$?R_N@_Precision_checker@std@@SA_K_N@Z 00000001400011d0 f i Crinkler.obj
 0001:000001f0       ??$?RD@_Width_checker@std@@SA_KD@Z 00000001400011f0 f i Crinkler.obj
 0001:000001f0       ??$?RM@_Width_checker@std@@SA_KM@Z 00000001400011f0 f i Crinkler.obj
 0001:000001f0       ??$?RN@_Width_checker@std@@SA_KN@Z 00000001400011f0 f i Crinkler.obj
 0001:000001f0       ??$?RO@_Width_checker@std@@SA_KO@Z 00000001400011f0 f i Crinkler.obj
 0001:000001f0       ??$?RPEBD@_Width_checker@std@@SA_KQEBD@Z 00000001400011f0 f i Crinkler.obj
 0001:000001f0       ??$?RPEBX@_Width_checker@std@@SA_KQEBX@Z 00000001400011f0 f i Crinkler.obj
 0001:000001f0       ??$?RUmonostate@std@@@_Width_checker@std@@SA_KUmonostate@1@@Z 00000001400011f0 f i Crinkler.obj
 0001:000001f0       ??$?RV?$basic_string_view@DU?$char_traits@D@std@@@std@@@_Width_checker@std@@SA_KV?$basic_string_view@DU?$char_traits@D@std@@@1@@Z 00000001400011f0 f i Crinkler.obj
 0001:000001f0       ??$?RVhandle@?$basic_format_arg@V?$basic_format_context@V?$back_insert_iterator@V?$_Fmt_buffer@D@std@@@std@@D@std@@@std@@@_Width_checker@std@@SA_KVhandle@?$basic_format_arg@V?$basic_format_context@V?$back_insert_iterator@V?$_Fmt_buffer@D@std@@@std@@D@std@@@1@@Z 00000001400011f0 f i Crinkler.obj
 0001:000001f0       ??$?R_N@_Width_checker@std@@SA_K_N@Z 00000001400011f0 f i Crinkler.obj
 0001:00000210       ??$?__MDU?$char_traits@D@std@@V?$allocator@D@1@@std@@YA?AUstrong_ordering@0@AEBV?$basic_string@DU?$char_traits@D@std@@V?$allocator@D@2@@0@0@Z 0000000140001210 f i Crinkler.obj
 0001:000002a0       ??$_Allocate_manually_vector_aligned@U_Default_allocate_traits@std@@@std@@YAPEAX_K@Z 00000001400012a0 f i Crinkler.obj
 0001:000002f0       ??$_Atomic_address_as@DU?$_Atomic_padded@_N@std@@@std@@YAPECDAEAU?$_Atomic_padded@_N@0@@Z 00000001400012f0 f i Crinkler.obj
 0001:000002f0       ??$_Atomic_address_as@DU?$_Atomic_padded@_N@std@@@std@@YAPEDDAEBU?$_Atomic_padded@_N@0@@Z 00000001400012f0 f i Crinkler.obj
 0001:000002f0       ??$_Atomic_address_as@HU?$_Atomic_padded@H@std@@@std@@YAPEDHAEBU?$_Atomic_padded@H@0@@Z 00000001400012f0 f i Crinkler.obj
 0001:000002f0       ??$_Atomic_address_as@JU?$_Atomic_padded@H@std@@@std@@YAPECJAEAU?$_Atomic_padded@H@0@@Z 00000001400012f0 f i Crinkler.obj
 0001:00000300       ??$_Atomic_reinterpret_as@D_N@std@@YADAEB_N@Z 0000000140001300 f i Crinkler.obj
 0001:00000310       ??$_Construct@$00PEBD@?$basic_string@DU?$char_traits@D@std@@V?$allocator@D@2@@std@@AEAAXQEBD_K@Z 0000000140001310 f i Crinkler.obj
 0001:00000400       ??$_Copy_backward_memmove@PEADPEAD@std@@YAPEADPEAD00@Z 0000000140001400 f i Crinkler.obj
 0001:00000400       ??$_Copy_backward_memmove@PEAPEAVHunk@@PEAPEAV1@@std@@YAPEAPEAVHunk@@PEAPEAV1@00@Z 0000000140001400 f i ImportHandler.obj
 0001:00000400       ??$_Copy_backward_memmove@PEAPEAVPart@@PEAPEAV1@@std@@YAPEAPEAVPart@@PEAPEAV1@00@Z 0000000140001400 f i PartList.obj
 0001:00000400       ??$_Copy_backward_memmove@PEAPEAVSymbol@@PEAPEAV1@@std@@YAPEAPEAVSymbol@@PEAPEAV1@00@Z 0000000140001400 f i Hunk.obj
 0001:00000420       ??$_Copy_memmove@PEADPEAD@std@@YAPEADPEAD00@Z 0000000140001420 f i Crinkler.obj
 0001:00000420       ??$_Copy_memmove@PEAEPEAE@std@@YAPEAEPEAE00@Z 0000000140001420 f i Hunk.obj
 0001:00000420       ??$_Copy_memmove@PEBDPEAD@std@@YAPEADPEBD0PEAD@Z 0000000140001420 f i Crinkler.obj
 0001:00000420       ??$_Copy_memmove@PEBDPEAE@std@@YAPEAEPEBD0PEAE@Z 0000000140001420 f i Hunk.obj
 0001:00000440       ??$_Copy_memmove@PEAHPEAH@std@@YAPEAHPEAH00@Z 0000000140001440 f i Crinkler.obj
 0001:00000440       ??$_Copy_memmove@PEAIPEAI@std@@YAPEAIPEAI00@Z 0000000140001440 f i ImportHandler.obj
 0001:00000460       ??$_Copy_memmove@PEAPEAPEAVHunk@@PEAPEAPEAV1@@std@@YAPEAPEAPEAVHunk@@PEAPEAPEAV1@00@Z 0000000140001460 f i PartList.obj
 0001:00000460       ??$_Copy_memmove@PEAPEAUCompressionReportRecord@@PEAPEAU1@@std@@YAPEAPEAUCompressionReportRecord@@PEAPEAU1@00@Z 0000000140001460 f i Hunk.obj
 0001:00000460       ??$_Copy_memmove@PEAPEAVCmdParam@@PEAPEAV1@@std@@YAPEAPEAVCmdParam@@PEAPEAV1@00@Z 0000000140001460 f i CmdLineInterface.obj
 0001:00000460       ??$_Copy_memmove@PEAPEAVHunk@@PEAPEAV1@@std@@YAPEAPEAVHunk@@PEAPEAV1@00@Z 0000000140001460 f i Crinkler.obj
 0001:00000460       ??$_Copy_memmove@PEAPEAVHunkLoader@@PEAPEAV1@@std@@YAPEAPEAVHunkLoader@@PEAPEAV1@00@Z 0000000140001460 f i MultiLoader.obj
 0001:00000460       ??$_Copy_memmove@PEAPEAVPart@@PEAPEAV1@@std@@YAPEAPEAVPart@@PEAPEAV1@00@Z 0000000140001460 f i PartList.obj
 0001:00000460       ??$_Copy_memmove@PEAPEAVProgressBar@@PEAPEAV1@@std@@YAPEAPEAVProgressBar@@PEAPEAV1@00@Z 0000000140001460 f i CompositeProgressBar.obj
 0001:00000460       ??$_Copy_memmove@PEAPEAVSymbol@@PEAPEAV1@@std@@YAPEAPEAVSymbol@@PEAPEAV1@00@Z 0000000140001460 f i Crinkler.obj
 0001:00000480       ??$_Copy_memmove_n@PEADPEAD@std@@YAPEADPEAD_K0@Z 0000000140001480 f i Crinkler.obj
 0001:00000480       ??$_Copy_memmove_n@PEBDPEAD@std@@YAPEADPEBD_KPEAD@Z 0000000140001480 f i Crinkler.obj
 0001:000004a0       ??$_Copy_memmove_tail@PEAD@std@@YAPEADQEBDQEAD_K2@Z 00000001400014a0 f i Crinkler.obj
 0001:000004a0       ??$_Copy_memmove_tail@PEAE@std@@YAPEAEQEBDQEAE_K2@Z 00000001400014a0 f i Hunk.obj
 0001:000004a0       ??$_Copy_memmove_tail@PEAH@std@@YAPEAHQEBDQEAH_K2@Z 00000001400014a0 f i Crinkler.obj
 0001:000004a0       ??$_Copy_memmove_tail@PEAI@std@@YAPEAIQEBDQEAI_K2@Z 00000001400014a0 f i ImportHandler.obj
 0001:000004a0       ??$_Copy_memmove_tail@PEAPEAPEAVHunk@@@std@@YAPEAPEAPEAVHunk@@QEBDQEAPEAPEAV1@_K2@Z 00000001400014a0 f i PartList.obj
 0001:000004a0       ??$_Copy_memmove_tail@PEAPEAUCompressionReportRecord@@@std@@YAPEAPEAUCompressionReportRecord@@QEBDQEAPEAU1@_K2@Z 00000001400014a0 f i Hunk.obj
 0001:000004a0       ??$_Copy_memmove_tail@PEAPEAVCmdParam@@@std@@YAPEAPEAVCmdParam@@QEBDQEAPEAV1@_K2@Z 00000001400014a0 f i CmdLineInterface.obj
 0001:000004a0       ??$_Copy_memmove_tail@PEAPEAVHunk@@@std@@YAPEAPEAVHunk@@QEBDQEAPEAV1@_K2@Z 00000001400014a0 f i Crinkler.obj
 0001:000004a0       ??$_Copy_memmove_tail@PEAPEAVHunkLoader@@@std@@YAPEAPEAVHunkLoader@@QEBDQEAPEAV1@_K2@Z 00000001400014a0 f i MultiLoader.obj
 0001:000004a0       ??$_Copy_memmove_tail@PEAPEAVPart@@@std@@YAPEAPEAVPart@@QEBDQEAPEAV1@_K2@Z 00000001400014a0 f i PartList.obj
 0001:000004a0       ??$_Copy_memmove_tail@PEAPEAVProgressBar@@@std@@YAPEAPEAVProgressBar@@QEBDQEAPEAV1@_K2@Z 00000001400014a0 f i CompositeProgressBar.obj
 0001:000004a0       ??$_Copy_memmove_tail@PEAPEAVSymbol@@@std@@YAPEAPEAVSymbol@@QEBDQEAPEAV1@_K2@Z 00000001400014a0 f i Crinkler.obj
 0001:000004a0       ??$_Copy_memmove_tail@PEAU?$pair@PEADH@std@@@std@@YAPEAU?$pair@PEADH@0@QEBDQEAU10@_K2@Z 00000001400014a0 f i Export.obj
 0001:000004d0       ??$_Emplace_reallocate@AEBQEAUCompressionReportRecord@@@?$vector@PEAUCompressionReportRecord@@V?$allocator@PEAUCompressionReportRecord@@@std@@@std@@AEAAPEAPEAUCompressionReportRecord@@QEAPEAU2@AEBQEAU2@@Z 00000001400014d0 f i Hunk.obj
 0001:000004d0       ??$_Emplace_reallocate@AEBQEAVCmdParam@@@?$vector@PEAVCmdParam@@V?$allocator@PEAVCmdParam@@@std@@@std@@AEAAPEAPEAVCmdParam@@QEAPEAV2@AEBQEAV2@@Z 00000001400014d0 f i CmdLineInterface.obj
 0001:000004d0       ??$_Emplace_reallocate@AEBQEAVHunk@@@?$vector@PEAVHunk@@V?$allocator@PEAVHunk@@@std@@@std@@AEAAPEAPEAVHunk@@QEAPEAV2@AEBQEAV2@@Z 00000001400014d0 f i Crinkler.obj
 0001:000004d0       ??$_Emplace_reallocate@AEBQEAVProgressBar@@@?$vector@PEAVProgressBar@@V?$allocator@PEAVProgressBar@@@std@@@std@@AEAAPEAPEAVProgressBar@@QEAPEAV2@AEBQEAV2@@Z 00000001400014d0 f i CompositeProgressBar.obj
 0001:000004d0       ??$_Emplace_reallocate@AEBQEAVSymbol@@@?$vector@PEAVSymbol@@V?$allocator@PEAVSymbol@@@std@@@std@@AEAAPEAPEAVSymbol@@QEAPEAV2@AEBQEAV2@@Z 00000001400014d0 f i Hunk.obj
 0001:000004d0       ??$_Emplace_reallocate@PEAVHunkLoader@@@?$vector@PEAVHunkLoader@@V?$allocator@PEAVHunkLoader@@@std@@@std@@AEAAPEAPEAVHunkLoader@@QEAPEAV2@$$QEAPEAV2@@Z 00000001400014d0 f i MultiLoader.obj
 0001:000004d0       ??$_Emplace_reallocate@PEAVSymbol@@@?$vector@PEAVSymbol@@V?$allocator@PEAVSymbol@@@std@@@std@@AEAAPEAPEAVSymbol@@QEAPEAV2@$$QEAPEAV2@@Z 00000001400014d0 f i Crinkler.obj
 0001:00000660       ??$_Erase_tree@V?$allocator@U?$_Tree_node@U?$pair@$$CBV?$basic_string@DU?$char_traits@D@std@@V?$allocator@D@2@@std@@H@std@@PEAX@std@@@std@@@?$_Tree_val@U?$_Tree_simple_types@U?$pair@$$CBV?$basic_string@DU?$char_traits@D@std@@V?$allocator@D@2@@std@@H@std@@@std@@@std@@QEAAXAEAV?$allocator@U?$_Tree_node@U?$pair@$$CBV?$basic_string@DU?$char_traits@D@std@@V?$allocator@D@2@@std@@H@std@@PEAX@std@@@1@PEAU?$_Tree_node@U?$pair@$$CBV?$basic_string@DU?$char_traits@D@std@@V?$allocator@D@2@@std@@H@std@@PEAX@1@@Z 0000000140001660 f i HtmlReport.obj
 0001:00000660       ??$_Erase_tree@V?$allocator@U?$_Tree_node@U?$pair@$$CBV?$basic_string@DU?$char_traits@D@std@@V?$allocator@D@2@@std@@PEAVMemoryFile@@@std@@PEAX@std@@@std@@@?$_Tree_val@U?$_Tree_simple_types@U?$pair@$$CBV?$basic_string@DU?$char_traits@D@std@@V?$allocator@D@2@@std@@PEAVMemoryFile@@@std@@@std@@@std@@QEAAXAEAV?$allocator@U?$_Tree_node@U?$pair@$$CBV?$basic_string@DU?$char_traits@D@std@@V?$allocator@D@2@@std@@PEAVMemoryFile@@@std@@PEAX@std@@@1@PEAU?$_Tree_node@U?$pair@$$CBV?$basic_string@DU?$char_traits@D@std@@V?$allocator@D@2@@std@@PEAVMemoryFile@@@std@@PEAX@1@@Z 0000000140001660 f i main.obj
 0001:00000660       ??$_Erase_tree@V?$allocator@U?$_Tree_node@U?$pair@$$CBV?$basic_string@DU?$char_traits@D@std@@V?$allocator@D@2@@std@@PEAVModelList4k@@@std@@PEAX@std@@@std@@@?$_Tree_val@U?$_Tree_simple_types@U?$pair@$$CBV?$basic_string@DU?$char_traits@D@std@@V?$allocator@D@2@@std@@PEAVModelList4k@@@std@@@std@@@std@@QEAAXAEAV?$allocator@U?$_Tree_node@U?$pair@$$CBV?$basic_string@DU?$char_traits@D@std@@V?$allocator@D@2@@std@@PEAVModelList4k@@@std@@PEAX@std@@@1@PEAU?$_Tree_node@U?$pair@$$CBV?$basic_string@DU?$char_traits@D@std@@V?$allocator@D@2@@std@@PEAVModelList4k@@@std@@PEAX@1@@Z 0000000140001660 f i Reuse.obj
 0001:00000660       ??$_Erase_tree@V?$allocator@U?$_Tree_node@U?$pair@$$CBV?$basic_string@DU?$char_traits@D@std@@V?$allocator@D@2@@std@@PEAVSymbol@@@std@@PEAX@std@@@std@@@?$_Tree_val@U?$_Tree_simple_types@U?$pair@$$CBV?$basic_string@DU?$char_traits@D@std@@V?$allocator@D@2@@std@@PEAVSymbol@@@std@@@std@@@std@@QEAAXAEAV?$allocator@U?$_Tree_node@U?$pair@$$CBV?$basic_string@DU?$char_traits@D@std@@V?$allocator@D@2@@std@@PEAVSymbol@@@std@@PEAX@std@@@1@PEAU?$_Tree_node@U?$pair@$$CBV?$basic_string@DU?$char_traits@D@std@@V?$allocator@D@2@@std@@PEAVSymbol@@@std@@PEAX@1@@Z 0000000140001660 f i Crinkler.obj
 0001:000006e0       ??$_Erase_tree@V?$allocator@U?$_Tree_node@U?$pair@$$CBV?$basic_string@DU?$char_traits@D@std@@V?$allocator@D@2@@std@@V12@@std@@PEAX@std@@@std@@@?$_Tree_val@U?$_Tree_simple_types@U?$pair@$$CBV?$basic_string@DU?$char_traits@D@std@@V?$allocator@D@2@@std@@V12@@std@@@std@@@std@@QEAAXAEAV?$allocator@U?$_Tree_node@U?$pair@$$CBV?$basic_string@DU?$char_traits@D@std@@V?$allocator@D@2@@std@@V12@@std@@PEAX@std@@@1@PEAU?$_Tree_node@U?$pair@$$CBV?$basic_string@DU?$char_traits@D@std@@V?$allocator@D@2@@std@@V12@@std@@PEAX@1@@Z 00000001400016e0 f i Crinkler.obj
 0001:00000770       ??$_Erase_tree@V?$allocator@U?$_Tree_node@V?$basic_string@DU?$char_traits@D@std@@V?$allocator@D@2@@std@@PEAX@std@@@std@@@?$_Tree_val@U?$_Tree_simple_types@V?$basic_string@DU?$char_traits@D@std@@V?$allocator@D@2@@std@@@std@@@std@@QEAAXAEAV?$allocator@U?$_Tree_node@V?$basic_string@DU?$char_traits@D@std@@V?$allocator@D@2@@std@@PEAX@std@@@1@PEAU?$_Tree_node@V?$basic_string@DU?$char_traits@D@std@@V?$allocator@D@2@@std@@PEAX@1@@Z 0000000140001770 f i Crinkler.obj
 0001:000007f0       ??$_Erase_tree@V?$allocator@U?$_Tree_node@VExport@@PEAX@std@@@std@@@?$_Tree_val@U?$_Tree_simple_types@VExport@@@std@@@std@@QEAAXAEAV?$allocator@U?$_Tree_node@VExport@@PEAX@std@@@1@PEAU?$_Tree_node@VExport@@PEAX@1@@Z 00000001400017f0 f i Crinkler.obj
 0001:00000880       ??$_Fill_memset@PEADD@std@@YAXPEADD_K@Z 0000000140001880 f i Crinkler.obj
 0001:00000880       ??$_Fill_memset@PEAEE@std@@YAXPEAEE_K@Z 0000000140001880 f i Crinkler.obj
 0001:00000890       ??$_Find_vectorized@$$CBDD@std@@YAPEBDQEBD0D@Z 0000000140001890 f i Crinkler.obj
 0001:00000890       ??$_Find_vectorized@DD@std@@YAPEADQEAD0D@Z 0000000140001890 f i Crinkler.obj
 0001:000008a0       ??$_Floating_to_chars@$00M@std@@YA?AUto_chars_result@0@PEADQEADMW4chars_format@0@H@Z 00000001400018a0 f i Crinkler.obj
 0001:000009e0       ??$_Floating_to_chars@$00N@std@@YA?AUto_chars_result@0@PEADQEADNW4chars_format@0@H@Z 00000001400019e0 f i Crinkler.obj
 0001:00000b40       ??$_Floating_to_chars@$01M@std@@YA?AUto_chars_result@0@PEADQEADMW4chars_format@0@H@Z 0000000140001b40 f i Crinkler.obj
 0001:00000cc0       ??$_Floating_to_chars@$01N@std@@YA?AUto_chars_result@0@PEADQEADNW4chars_format@0@H@Z 0000000140001cc0 f i Crinkler.obj
 0001:00000e60       ??$_Floating_to_chars@$0A@M@std@@YA?AUto_chars_result@0@PEADQEADMW4chars_format@0@H@Z 0000000140001e60 f i Crinkler.obj
 0001:00000f90       ??$_Floating_to_chars@$0A@N@std@@YA?AUto_chars_result@0@PEADQEADNW4chars_format@0@H@Z 0000000140001f90 f i Crinkler.obj
 0001:000010e0       ??$_Floating_to_chars_fixed_precision@M@std@@YA?AUto_chars_result@0@QEAD0MH@Z 00000001400020e0 f i Crinkler.obj
 0001:00001140       ??$_Floating_to_chars_fixed_precision@N@std@@YA?AUto_chars_result@0@QEAD0NH@Z 0000000140002140 f i Crinkler.obj
 0001:000011a0       ??$_Floating_to_chars_general_precision@M@std@@YA?AUto_chars_result@0@PEADQEADMH@Z 00000001400021a0 f i Crinkler.obj
 0001:00001420       ??$_Floating_to_chars_general_precision@N@std@@YA?AUto_chars_result@0@PEADQEADNH@Z 0000000140002420 f i Crinkler.obj
 0001:000016d0       ??$_Floating_to_chars_hex_precision@M@std@@YA?AUto_chars_result@0@PEADQEADMH@Z 00000001400026d0 f i Crinkler.obj
 0001:000018e0       ??$_Floating_to_chars_hex_precision@N@std@@YA?AUto_chars_result@0@PEADQEADNH@Z 00000001400028e0 f i Crinkler.obj
 0001:00001b20       ??$_Floating_to_chars_hex_shortest@M@std@@YA?AUto_chars_result@0@PEADQEADM@Z 0000000140002b20 f i Crinkler.obj
 0001:00001cc0       ??$_Floating_to_chars_hex_shortest@N@std@@YA?AUto_chars_result@0@PEADQEADN@Z 0000000140002cc0 f i Crinkler.obj
 0001:00001e60       ??$_Floating_to_chars_ryu@M@std@@YA?AUto_chars_result@0@QEAD0MW4chars_format@0@@Z 0000000140002e60 f i Crinkler.obj
 0001:00001e90       ??$_Floating_to_chars_ryu@N@std@@YA?AUto_chars_result@0@QEAD0NW4chars_format@0@@Z 0000000140002e90 f i Crinkler.obj
 0001:00001ec0       ??$_Floating_to_chars_scientific_precision@M@std@@YA?AUto_chars_result@0@QEAD0MH@Z 0000000140002ec0 f i Crinkler.obj
 0001:00001f20       ??$_Floating_to_chars_scientific_precision@N@std@@YA?AUto_chars_result@0@QEAD0NH@Z 0000000140002f20 f i Crinkler.obj
 0001:00001f80       ??$_Fmt_write@DV?$back_insert_iterator@V?$_Fmt_buffer@D@std@@@std@@@std@@YA?AV?$back_insert_iterator@V?$_Fmt_buffer@D@std@@@0@V10@D@Z 0000000140002f80 f i Crinkler.obj
 0001:00001fe0       ??$_Fmt_write@DV?$back_insert_iterator@V?$_Fmt_buffer@D@std@@@std@@@std@@YA?AV?$back_insert_iterator@V?$_Fmt_buffer@D@std@@@0@V10@DU?$_Basic_format_specs@D@0@V_Lazy_locale@0@@Z 0000000140002fe0 f i Crinkler.obj
 0001:00002060       ??$_Fmt_write@DV?$back_insert_iterator@V?$_Fmt_buffer@D@std@@@std@@@std@@YA?AV?$back_insert_iterator@V?$_Fmt_buffer@D@std@@@0@V10@PEBD@Z 0000000140003060 f i Crinkler.obj
 0001:000020f0       ??$_Fmt_write@DV?$back_insert_iterator@V?$_Fmt_buffer@D@std@@@std@@@std@@YA?AV?$back_insert_iterator@V?$_Fmt_buffer@D@std@@@0@V10@PEBDAEBU?$_Basic_format_specs@D@0@V_Lazy_locale@0@@Z 00000001400030f0 f i Crinkler.obj
 0001:00002160       ??$_Fmt_write@DV?$back_insert_iterator@V?$_Fmt_buffer@D@std@@@std@@@std@@YA?AV?$back_insert_iterator@V?$_Fmt_buffer@D@std@@@0@V10@QEBX@Z 0000000140003160 f i Crinkler.obj
 0001:00002250       ??$_Fmt_write@DV?$back_insert_iterator@V?$_Fmt_buffer@D@std@@@std@@@std@@YA?AV?$back_insert_iterator@V?$_Fmt_buffer@D@std@@@0@V10@QEBXAEBU?$_Basic_format_specs@D@0@V_Lazy_locale@0@@Z 0000000140003250 f i Crinkler.obj
 0001:000023e0       ??$_Fmt_write@DV?$back_insert_iterator@V?$_Fmt_buffer@D@std@@@std@@@std@@YA?AV?$back_insert_iterator@V?$_Fmt_buffer@D@std@@@0@V10@Umonostate@0@@Z 00000001400033e0 f i Crinkler.obj
 0001:000023e0       ??$_Fmt_write@DV?$back_insert_iterator@V?$_Fmt_buffer@D@std@@@std@@@std@@YA?AV?$back_insert_iterator@V?$_Fmt_buffer@D@std@@@0@V10@Umonostate@0@AEBU?$_Basic_format_specs@D@0@V_Lazy_locale@0@@Z 00000001400033e0 f i Crinkler.obj
 0001:000023f0       ??$_Fmt_write@DV?$back_insert_iterator@V?$_Fmt_buffer@D@std@@@std@@@std@@YA?AV?$back_insert_iterator@V?$_Fmt_buffer@D@std@@@0@V10@V?$basic_string_view@DU?$char_traits@D@std@@@0@@Z 00000001400033f0 f i Crinkler.obj
 0001:00002480       ??$_Fmt_write@DV?$back_insert_iterator@V?$_Fmt_buffer@D@std@@@std@@@std@@YA?AV?$back_insert_iterator@V?$_Fmt_buffer@D@std@@@0@V10@V?$basic_string_view@DU?$char_traits@D@std@@@0@AEBU?$_Basic_format_specs@D@0@V_Lazy_locale@0@@Z 0000000140003480 f i Crinkler.obj
 0001:00002530       ??$_Fmt_write@DV?$back_insert_iterator@V?$_Fmt_buffer@D@std@@@std@@@std@@YA?AV?$back_insert_iterator@V?$_Fmt_buffer@D@std@@@0@V10@_N@Z 0000000140003530 f i Crinkler.obj
 0001:00002570       ??$_Fmt_write@DV?$back_insert_iterator@V?$_Fmt_buffer@D@std@@@std@@@std@@YA?AV?$back_insert_iterator@V?$_Fmt_buffer@D@std@@@0@V10@_NU?$_Basic_format_specs@D@0@V_Lazy_locale@0@@Z 0000000140003570 f i Crinkler.obj
 0001:000027e0       ??$_Fmt_write@DV?$back_insert_iterator@V?$_Fmt_buffer@D@std@@@std@@H@std@@YA?AV?$back_insert_iterator@V?$_Fmt_buffer@D@std@@@0@V10@H@Z 00000001400037e0 f i Crinkler.obj
 0001:000028c0       ??$_Fmt_write@DV?$back_insert_iterator@V?$_Fmt_buffer@D@std@@@std@@H@std@@YA?AV?$back_insert_iterator@V?$_Fmt_buffer@D@std@@@0@V10@HAEBU?$_Basic_format_specs@D@0@V_Lazy_locale@0@@Z 00000001400038c0 f i Crinkler.obj
 0001:00002900       ??$_Fmt_write@DV?$back_insert_iterator@V?$_Fmt_buffer@D@std@@@std@@I@std@@YA?AV?$back_insert_iterator@V?$_Fmt_buffer@D@std@@@0@V10@I@Z 0000000140003900 f i Crinkler.obj
 0001:000029a0       ??$_Fmt_write@DV?$back_insert_iterator@V?$_Fmt_buffer@D@std@@@std@@I@std@@YA?AV?$back_insert_iterator@V?$_Fmt_buffer@D@std@@@0@V10@IAEBU?$_Basic_format_specs@D@0@V_Lazy_locale@0@@Z 00000001400039a0 f i Crinkler.obj
 0001:000029e0       ??$_Fmt_write@DV?$back_insert_iterator@V?$_Fmt_buffer@D@std@@@std@@M@std@@YA?AV?$back_insert_iterator@V?$_Fmt_buffer@D@std@@@0@V10@M@Z 00000001400039e0 f i Crinkler.obj
 0001:00002aa0       ??$_Fmt_write@DV?$back_insert_iterator@V?$_Fmt_buffer@D@std@@@std@@M@std@@YA?AV?$back_insert_iterator@V?$_Fmt_buffer@D@std@@@0@V10@MAEBU?$_Basic_format_specs@D@0@V_Lazy_locale@0@@Z 0000000140003aa0 f i Crinkler.obj
 0001:000031d0       ??$_Fmt_write@DV?$back_insert_iterator@V?$_Fmt_buffer@D@std@@@std@@N@std@@YA?AV?$back_insert_iterator@V?$_Fmt_buffer@D@std@@@0@V10@N@Z 00000001400041d0 f i Crinkler.obj
 0001:00003290       ??$_Fmt_write@DV?$back_insert_iterator@V?$_Fmt_buffer@D@std@@@std@@N@std@@YA?AV?$back_insert_iterator@V?$_Fmt_buffer@D@std@@@0@V10@NAEBU?$_Basic_format_specs@D@0@V_Lazy_locale@0@@Z 0000000140004290 f i Crinkler.obj
 0001:00003290       ??$_Fmt_write@DV?$back_insert_iterator@V?$_Fmt_buffer@D@std@@@std@@O@std@@YA?AV?$back_insert_iterator@V?$_Fmt_buffer@D@std@@@0@V10@OAEBU?$_Basic_format_specs@D@0@V_Lazy_locale@0@@Z 0000000140004290 f i Crinkler.obj
 0001:000039d0       ??$_Fmt_write@DV?$back_insert_iterator@V?$_Fmt_buffer@D@std@@@std@@O@std@@YA?AV?$back_insert_iterator@V?$_Fmt_buffer@D@std@@@0@V10@O@Z 00000001400049d0 f i Crinkler.obj
 0001:00003a90       ??$_Fmt_write@DV?$back_insert_iterator@V?$_Fmt_buffer@D@std@@@std@@_J@std@@YA?AV?$back_insert_iterator@V?$_Fmt_buffer@D@std@@@0@V10@_J@Z 0000000140004a90 f i Crinkler.obj
 0001:00003b80       ??$_Fmt_write@DV?$back_insert_iterator@V?$_Fmt_buffer@D@std@@@std@@_J@std@@YA?AV?$back_insert_iterator@V?$_Fmt_buffer@D@std@@@0@V10@_JAEBU?$_Basic_format_specs@D@0@V_Lazy_locale@0@@Z 0000000140004b80 f i Crinkler.obj
 0001:00003bc0       ??$_Fmt_write@DV?$back_insert_iterator@V?$_Fmt_buffer@D@std@@@std@@_K@std@@YA?AV?$back_insert_iterator@V?$_Fmt_buffer@D@std@@@0@V10@_K@Z 0000000140004bc0 f i Crinkler.obj
 0001:00003c80       ??$_Fmt_write@DV?$back_insert_iterator@V?$_Fmt_buffer@D@std@@@std@@_K@std@@YA?AV?$back_insert_iterator@V?$_Fmt_buffer@D@std@@@0@V10@_KAEBU?$_Basic_format_specs@D@0@V_Lazy_locale@0@@Z 0000000140004c80 f i Crinkler.obj
 0001:00003cc0       ??$_Format_to_it@DV?$back_insert_iterator@V?$vector@DV?$allocator@D@std@@@std@@@std@@V?$basic_format_context@V?$back_insert_iterator@V?$_Fmt_buffer@D@std@@@std@@D@2@@std@@YA?AV?$back_insert_iterator@V?$vector@DV?$allocator@D@std@@@std@@@0@V10@V?$basic_string_view@DU?$char_traits@D@std@@@0@V?$basic_format_args@V?$basic_format_context@V?$back_insert_iterator@V?$_Fmt_buffer@D@std@@@std@@D@std@@@0@V_Lazy_locale@0@@Z 0000000140004cc0 f i Crinkler.obj
 0001:00003dc0       ??$_Get_arg@V?$basic_format_context@V?$back_insert_iterator@V?$_Fmt_buffer@D@std@@@std@@D@std@@@std@@YA?AV?$basic_format_arg@V?$basic_format_context@V?$back_insert_iterator@V?$_Fmt_buffer@D@std@@@std@@D@std@@@0@AEBV?$basic_format_context@V?$back_insert_iterator@V?$_Fmt_buffer@D@std@@@std@@D@0@_K@Z 0000000140004dc0 f i Crinkler.obj
 0001:00003f50       ??$_Insert_counted_range@PEBD@?$vector@DV?$allocator@D@std@@@std@@AEAAXV?$_Vector_const_iterator@V?$_Vector_val@U?$_Simple_types@D@std@@@std@@@1@PEBD_K@Z 0000000140004f50 f i Crinkler.obj
 0001:000041b0       ??$_Integer_to_chars@E@std@@YA?AUto_chars_result@0@PEADQEADEH@Z 00000001400051b0 f i Crinkler.obj
 0001:000043b0       ??$_Integer_to_chars@H@std@@YA?AUto_chars_result@0@PEADQEADHH@Z 00000001400053b0 f i Crinkler.obj
 0001:000045e0       ??$_Integer_to_chars@I@std@@YA?AUto_chars_result@0@PEADQEADIH@Z 00000001400055e0 f i Crinkler.obj
 0001:000047e0       ??$_Integer_to_chars@_J@std@@YA?AUto_chars_result@0@PEADQEAD_JH@Z 00000001400057e0 f i Crinkler.obj
 0001:00004a30       ??$_Integer_to_chars@_K@std@@YA?AUto_chars_result@0@PEADQEAD_KH@Z 0000000140005a30 f i Crinkler.obj
 0001:00004cf0       ??$_Large_integer_to_chars@D@std@@YA?AU?$pair@PEADW4errc@std@@@0@QEAD0IH@Z 0000000140005cf0 f i Crinkler.obj
 0001:00004eb0       ??$_Maklocchr@D@std@@YADDPEADAEBU_Cvtvec@@@Z 0000000140005eb0 f i Crinkler.obj
 0001:00004ec0       ??$_Maklocstr@D@std@@YAPEADPEBDPEADAEBU_Cvtvec@@@Z 0000000140005ec0 f i Crinkler.obj
 0001:00004f20       ??$_Measure_string_prefix@D@std@@YAPEBDV?$basic_string_view@DU?$char_traits@D@std@@@0@AEAH@Z 0000000140005f20 f i Crinkler.obj
 0001:000050b0       ??$_Move_unchecked@PEADPEAD@std@@YAPEADPEAD00@Z 00000001400060b0 f i Crinkler.obj
 0001:000050c0       ??$_On_type@D@?$_Specs_checker@V?$_Specs_handler@V?$basic_format_parse_context@D@std@@V?$basic_format_context@V?$back_insert_iterator@V?$_Fmt_buffer@D@std@@@std@@D@2@@std@@@std@@QEAAXD@Z 00000001400060c0 f i Crinkler.obj
 0001:00005730       ??$_Parse_arg_id@DAEAU?$_Id_adapter@D@std@@@std@@YAPEBDPEBD0AEAU?$_Id_adapter@D@0@@Z 0000000140006730 f i Crinkler.obj
 0001:00005820       ??$_Parse_arg_id@DU?$_Precision_adapter@DAEAV?$_Specs_checker@V?$_Specs_handler@V?$basic_format_parse_context@D@std@@V?$basic_format_context@V?$back_insert_iterator@V?$_Fmt_buffer@D@std@@@std@@D@2@@std@@@std@@@std@@@std@@YAPEBDPEBD0$$QEAU?$_Precision_adapter@DAEAV?$_Specs_checker@V?$_Specs_handler@V?$basic_format_parse_context@D@std@@V?$basic_format_context@V?$back_insert_iterator@V?$_Fmt_buffer@D@std@@@std@@D@2@@std@@@std@@@0@@Z 0000000140006820 f i Crinkler.obj
 0001:00005a10       ??$_Parse_arg_id@DU?$_Width_adapter@DAEAV?$_Specs_checker@V?$_Specs_handler@V?$basic_format_parse_context@D@std@@V?$basic_format_context@V?$back_insert_iterator@V?$_Fmt_buffer@D@std@@@std@@D@2@@std@@@std@@@std@@@std@@YAPEBDPEBD0$$QEAU?$_Width_adapter@DAEAV?$_Specs_checker@V?$_Specs_handler@V?$basic_format_parse_context@D@std@@V?$basic_format_context@V?$back_insert_iterator@V?$_Fmt_buffer@D@std@@@std@@D@2@@std@@@std@@@0@@Z 0000000140006a10 f i Crinkler.obj
 0001:00005bc0       ??$_Parse_format_specs@DAEAV?$_Specs_checker@V?$_Specs_handler@V?$basic_format_parse_context@D@std@@V?$basic_format_context@V?$back_insert_iterator@V?$_Fmt_buffer@D@std@@@std@@D@2@@std@@@std@@@std@@YAPEBDPEBD0AEAV?$_Specs_checker@V?$_Specs_handler@V?$basic_format_parse_context@D@std@@V?$basic_format_context@V?$back_insert_iterator@V?$_Fmt_buffer@D@std@@@std@@D@2@@std@@@0@@Z 0000000140006bc0 f i Crinkler.obj
 0001:00005fb0       ??$_Parse_format_string@DAEAU?$_Format_handler@D@std@@@std@@YAXV?$basic_string_view@DU?$char_traits@D@std@@@0@AEAU?$_Format_handler@D@0@@Z 0000000140006fb0 f i Crinkler.obj
 0001:00006130       ??$_Parse_replacement_field@DAEAU?$_Format_handler@D@std@@@std@@YAPEBDPEBD0AEAU?$_Format_handler@D@0@@Z 0000000140007130 f i Crinkler.obj
 0001:00006340       ??$_Reallocate_grow_by@V<lambda_1>@?1??append@?$basic_string@DU?$char_traits@D@std@@V?$allocator@D@2@@std@@QEAAAEAV34@QEBD_K@Z@PEBD_K@?$basic_string@DU?$char_traits@D@std@@V?$allocator@D@2@@std@@AEAAAEAV01@_KV<lambda_1>@?1??append@01@QEAAAEAV01@QEBD0@Z@PEBD_K@Z 0000000140007340 f i Crinkler.obj
 0001:000064d0       ??$_Search_vectorized@$$CBD$$CBD@std@@YAPEBDQEBD00_K@Z 00000001400074d0 f i HtmlReport.obj
 0001:000064d0       ??$_Search_vectorized@E$$CBE@std@@YAPEAEQEAE0QEBE_K@Z 00000001400074d0 f i Crinkler.obj
 0001:000064e0       ?AllowGeneralFetchOfReservedContexts@SchedulerBase@details@Concurrency@@MEAA_NXZ 00000001400074e0 f   libconcrt:SchedulerBase.obj
 0001:000064e0       ?DoTransform@IdentityTransform@@UEAA_NPEAVHunk@@H_N@Z 00000001400074e0 f   main.obj
 0001:000064e0       ?SweepWaitNode@SingleWaitBlock@details@Concurrency@@UEAA_NXZ 00000001400074e0 f   libconcrt:event.obj
 0001:000064e0       __acrt_uninitialize_command_line 00000001400074e0 f   libucrt:argv_data.obj
 0001:000064e0       _should_initialize_environment 00000001400074e0 f   LIBCMT:env_mode.obj
 0001:000064f0       ??$_Uninitialized_move@PEADV?$allocator@D@std@@@std@@YAPEADQEAD0PEADAEAV?$allocator@D@0@@Z 00000001400074f0 f i Crinkler.obj
 0001:00006530       ??$_Visit@U?$_Arg_formatter@V?$back_insert_iterator@V?$_Fmt_buffer@D@std@@@std@@D@std@@@?$basic_format_arg@V?$basic_format_context@V?$back_insert_iterator@V?$_Fmt_buffer@D@std@@@std@@D@std@@@std@@QEAA?A_T$$QEAU?$_Arg_formatter@V?$back_insert_iterator@V?$_Fmt_buffer@D@std@@@std@@D@1@@Z 0000000140007530 f i Crinkler.obj
 0001:00006810       ??$_Widen_and_copy@DV?$back_insert_iterator@V?$_Fmt_buffer@D@std@@@std@@@std@@YA?AV?$back_insert_iterator@V?$_Fmt_buffer@D@std@@@0@PEBDQEBDV10@@Z 0000000140007810 f i Crinkler.obj
 0001:000068a0       ??$_Write_aligned@V?$back_insert_iterator@V?$_Fmt_buffer@D@std@@@std@@U?$_Basic_format_specs@D@2@AEAV<lambda_1>@?1???$_Fmt_write@DV?$back_insert_iterator@V?$_Fmt_buffer@D@std@@@std@@@2@YA?AV12@V12@QEBXAEBU32@V_Lazy_locale@2@@Z@@std@@YA?AV?$back_insert_iterator@V?$_Fmt_buffer@D@std@@@0@V10@HAEBU?$_Basic_format_specs@D@0@W4_Fmt_align@0@AEAV<lambda_1>@?1???$_Fmt_write@DV?$back_insert_iterator@V?$_Fmt_buffer@D@std@@@std@@@0@YA?AV10@0QEBX1V_Lazy_locale@0@@Z@@Z 00000001400078a0 f i Crinkler.obj
 0001:00006a10       ??$_Write_aligned@V?$back_insert_iterator@V?$_Fmt_buffer@D@std@@@std@@U?$_Basic_format_specs@D@2@AEAV<lambda_1>@?1???$_Fmt_write@DV?$back_insert_iterator@V?$_Fmt_buffer@D@std@@@std@@M@2@YA?AV12@V12@MAEBU32@V_Lazy_locale@2@@Z@@std@@YA?AV?$back_insert_iterator@V?$_Fmt_buffer@D@std@@@0@V10@HAEBU?$_Basic_format_specs@D@0@W4_Fmt_align@0@AEAV<lambda_1>@?1???$_Fmt_write@DV?$back_insert_iterator@V?$_Fmt_buffer@D@std@@@std@@M@0@YA?AV10@0M1V_Lazy_locale@0@@Z@@Z 0000000140007a10 f i Crinkler.obj
 0001:00006a10       ??$_Write_aligned@V?$back_insert_iterator@V?$_Fmt_buffer@D@std@@@std@@U?$_Basic_format_specs@D@2@AEAV<lambda_1>@?1???$_Fmt_write@DV?$back_insert_iterator@V?$_Fmt_buffer@D@std@@@std@@N@2@YA?AV12@V12@NAEBU32@V_Lazy_locale@2@@Z@@std@@YA?AV?$back_insert_iterator@V?$_Fmt_buffer@D@std@@@0@V10@HAEBU?$_Basic_format_specs@D@0@W4_Fmt_align@0@AEAV<lambda_1>@?1???$_Fmt_write@DV?$back_insert_iterator@V?$_Fmt_buffer@D@std@@@std@@N@0@YA?AV10@0N1V_Lazy_locale@0@@Z@@Z 0000000140007a10 f i Crinkler.obj
 0001:00006a10       ??$_Write_aligned@V?$back_insert_iterator@V?$_Fmt_buffer@D@std@@@std@@U?$_Basic_format_specs@D@2@AEAV<lambda_1>@?1???$_Fmt_write@DV?$back_insert_iterator@V?$_Fmt_buffer@D@std@@@std@@O@2@YA?AV12@V12@OAEBU32@V_Lazy_locale@2@@Z@@std@@YA?AV?$back_insert_iterator@V?$_Fmt_buffer@D@std@@@0@V10@HAEBU?$_Basic_format_specs@D@0@W4_Fmt_align@0@AEAV<lambda_1>@?1???$_Fmt_write@DV?$back_insert_iterator@V?$_Fmt_buffer@D@std@@@std@@O@0@YA?AV10@0O1V_Lazy_locale@0@@Z@@Z 0000000140007a10 f i Crinkler.obj
 0001:00006b80       ??$_Write_aligned@V?$back_insert_iterator@V?$_Fmt_buffer@D@std@@@std@@U?$_Basic_format_specs@D@2@AEAV<lambda_1>@?1???$_Write_integral@DV?$back_insert_iterator@V?$_Fmt_buffer@D@std@@@std@@E@2@YA?AV12@V12@EU32@V_Lazy_locale@2@@Z@@std@@YA?AV?$back_insert_iterator@V?$_Fmt_buffer@D@std@@@0@V10@HAEBU?$_Basic_format_specs@D@0@W4_Fmt_align@0@AEAV<lambda_1>@?1???$_Write_integral@DV?$back_insert_iterator@V?$_Fmt_buffer@D@std@@@std@@E@0@YA?AV10@0EU20@V_Lazy_locale@0@@Z@@Z 0000000140007b80 f i Crinkler.obj
 0001:00006b80       ??$_Write_aligned@V?$back_insert_iterator@V?$_Fmt_buffer@D@std@@@std@@U?$_Basic_format_specs@D@2@AEAV<lambda_1>@?1???$_Write_integral@DV?$back_insert_iterator@V?$_Fmt_buffer@D@std@@@std@@I@2@YA?AV12@V12@IU32@V_Lazy_locale@2@@Z@@std@@YA?AV?$back_insert_iterator@V?$_Fmt_buffer@D@std@@@0@V10@HAEBU?$_Basic_format_specs@D@0@W4_Fmt_align@0@AEAV<lambda_1>@?1???$_Write_integral@DV?$back_insert_iterator@V?$_Fmt_buffer@D@std@@@std@@I@0@YA?AV10@0IU20@V_Lazy_locale@0@@Z@@Z 0000000140007b80 f i Crinkler.obj
 0001:00006b80       ??$_Write_aligned@V?$back_insert_iterator@V?$_Fmt_buffer@D@std@@@std@@U?$_Basic_format_specs@D@2@AEAV<lambda_1>@?1???$_Write_integral@DV?$back_insert_iterator@V?$_Fmt_buffer@D@std@@@std@@_K@2@YA?AV12@V12@_KU32@V_Lazy_locale@2@@Z@@std@@YA?AV?$back_insert_iterator@V?$_Fmt_buffer@D@std@@@0@V10@HAEBU?$_Basic_format_specs@D@0@W4_Fmt_align@0@AEAV<lambda_1>@?1???$_Write_integral@DV?$back_insert_iterator@V?$_Fmt_buffer@D@std@@@std@@_K@0@YA?AV10@0_KU20@V_Lazy_locale@0@@Z@@Z 0000000140007b80 f i Crinkler.obj
 0001:00006cf0       ??$_Write_aligned@V?$back_insert_iterator@V?$_Fmt_buffer@D@std@@@std@@U?$_Basic_format_specs@D@2@AEAV<lambda_1>@?1???$_Write_integral@DV?$back_insert_iterator@V?$_Fmt_buffer@D@std@@@std@@H@2@YA?AV12@V12@HU32@V_Lazy_locale@2@@Z@@std@@YA?AV?$back_insert_iterator@V?$_Fmt_buffer@D@std@@@0@V10@HAEBU?$_Basic_format_specs@D@0@W4_Fmt_align@0@AEAV<lambda_1>@?1???$_Write_integral@DV?$back_insert_iterator@V?$_Fmt_buffer@D@std@@@std@@H@0@YA?AV10@0HU20@V_Lazy_locale@0@@Z@@Z 0000000140007cf0 f i Crinkler.obj
 0001:00006e60       ??$_Write_aligned@V?$back_insert_iterator@V?$_Fmt_buffer@D@std@@@std@@U?$_Basic_format_specs@D@2@AEAV<lambda_1>@?1???$_Write_integral@DV?$back_insert_iterator@V?$_Fmt_buffer@D@std@@@std@@_J@2@YA?AV12@V12@_JU32@V_Lazy_locale@2@@Z@@std@@YA?AV?$back_insert_iterator@V?$_Fmt_buffer@D@std@@@0@V10@HAEBU?$_Basic_format_specs@D@0@W4_Fmt_align@0@AEAV<lambda_1>@?1???$_Write_integral@DV?$back_insert_iterator@V?$_Fmt_buffer@D@std@@@std@@_J@0@YA?AV10@0_JU20@V_Lazy_locale@0@@Z@@Z 0000000140007e60 f i Crinkler.obj
 0001:00006fd0       ??$_Write_aligned@V?$back_insert_iterator@V?$_Fmt_buffer@D@std@@@std@@U?$_Basic_format_specs@D@2@V<lambda_1>@?1???$_Fmt_write@DV?$back_insert_iterator@V?$_Fmt_buffer@D@std@@@std@@@2@YA?AV12@V12@V?$basic_string_view@DU?$char_traits@D@std@@@2@AEBU32@V_Lazy_locale@2@@Z@@std@@YA?AV?$back_insert_iterator@V?$_Fmt_buffer@D@std@@@0@V10@HAEBU?$_Basic_format_specs@D@0@W4_Fmt_align@0@$$QEAV<lambda_1>@?1???$_Fmt_write@DV?$back_insert_iterator@V?$_Fmt_buffer@D@std@@@std@@@0@YA?AV10@0V?$basic_string_view@DU?$char_traits@D@std@@@0@1V_Lazy_locale@0@@Z@@Z 0000000140007fd0 f i Crinkler.obj
 0001:00007170       ??$_Write_integral@DV?$back_insert_iterator@V?$_Fmt_buffer@D@std@@@std@@E@std@@YA?AV?$back_insert_iterator@V?$_Fmt_buffer@D@std@@@0@V10@EU?$_Basic_format_specs@D@0@V_Lazy_locale@0@@Z 0000000140008170 f i Crinkler.obj
 0001:00007610       ??$_Write_integral@DV?$back_insert_iterator@V?$_Fmt_buffer@D@std@@@std@@H@std@@YA?AV?$back_insert_iterator@V?$_Fmt_buffer@D@std@@@0@V10@HU?$_Basic_format_specs@D@0@V_Lazy_locale@0@@Z 0000000140008610 f i Crinkler.obj
 0001:00007ad0       ??$_Write_integral@DV?$back_insert_iterator@V?$_Fmt_buffer@D@std@@@std@@I@std@@YA?AV?$back_insert_iterator@V?$_Fmt_buffer@D@std@@@0@V10@IU?$_Basic_format_specs@D@0@V_Lazy_locale@0@@Z 0000000140008ad0 f i Crinkler.obj
 0001:00007f70       ??$_Write_integral@DV?$back_insert_iterator@V?$_Fmt_buffer@D@std@@@std@@_J@std@@YA?AV?$back_insert_iterator@V?$_Fmt_buffer@D@std@@@0@V10@_JU?$_Basic_format_specs@D@0@V_Lazy_locale@0@@Z 0000000140008f70 f i Crinkler.obj
 0001:00008430       ??$_Write_integral@DV?$back_insert_iterator@V?$_Fmt_buffer@D@std@@@std@@_K@std@@YA?AV?$back_insert_iterator@V?$_Fmt_buffer@D@std@@@0@V10@_KU?$_Basic_format_specs@D@0@V_Lazy_locale@0@@Z 0000000140009430 f i Crinkler.obj
 0001:000088d0       ??$_Write_separated_integer@DV?$back_insert_iterator@V?$_Fmt_buffer@D@std@@@std@@@std@@YA?AV?$back_insert_iterator@V?$_Fmt_buffer@D@std@@@0@PEBDQEBDV?$basic_string_view@DU?$char_traits@D@std@@@0@DHV10@@Z 00000001400098d0 f i Crinkler.obj
 0001:00008a00       ??$_Write_sign@V?$back_insert_iterator@V?$_Fmt_buffer@D@std@@@std@@@std@@YA?AV?$back_insert_iterator@V?$_Fmt_buffer@D@std@@@0@V10@W4_Fmt_sign@0@_N@Z 0000000140009a00 f i Crinkler.obj
 0001:00008aa0       ??$_Zero_range@PEAD@std@@YAPEADQEAD0@Z 0000000140009aa0 f i Export.obj
 0001:00008aa0       ??$_Zero_range@PEAE@std@@YAPEAEQEAE0@Z 0000000140009aa0 f i Hunk.obj
 0001:00008aa0       ??$_Zero_range@PEAH@std@@YAPEAHQEAH0@Z 0000000140009aa0 f i Crinkler.obj
 0001:00008aa0       ??$_Zero_range@PEAI@std@@YAPEAIQEAI0@Z 0000000140009aa0 f i ImportHandler.obj
 0001:00008aa0       ??$_Zero_range@PEAPEAPEAVHunk@@@std@@YAPEAPEAPEAVHunk@@QEAPEAPEAV1@0@Z 0000000140009aa0 f i PartList.obj
 0001:00008aa0       ??$_Zero_range@PEAPEAVHunk@@@std@@YAPEAPEAVHunk@@QEAPEAV1@0@Z 0000000140009aa0 f i CoffObjectLoader.obj
 0001:00008aa0       ??$_Zero_range@PEAPEAVModelList4k@@@std@@YAPEAPEAVModelList4k@@QEAPEAV1@0@Z 0000000140009aa0 f i Crinkler.obj
 0001:00008aa0       ??$_Zero_range@PEAPEBD@std@@YAPEAPEBDQEAPEBD0@Z 0000000140009aa0 f i CoffLibraryLoader.obj
 0001:00008ac0       ??$__append_c_digits@D@std@@YAXIIQEAD@Z 0000000140009ac0 f i Crinkler.obj
 0001:00008b60       ??$__append_n_digits@D@std@@YAXIIQEAD@Z 0000000140009b60 f i Crinkler.obj
 0001:00008c70       ??$__append_nine_digits@D@std@@YAXIQEAD@Z 0000000140009c70 f i Crinkler.obj
 0001:00008d10       ??$__d2fixed_buffered_n@D@std@@YA?AU?$pair@PEADW4errc@std@@@0@PEADQEADNI@Z 0000000140009d10 f i Crinkler.obj
 0001:000092d0       ??$__d2s_buffered_n@D@std@@YA?AU?$pair@PEADW4errc@std@@@0@QEAD0NW4chars_format@0@@Z 000000014000a2d0 f i Crinkler.obj
 0001:00009490       ??$__f2s_buffered_n@D@std@@YA?AU?$pair@PEADW4errc@std@@@0@QEAD0MW4chars_format@0@@Z 000000014000a490 f i Crinkler.obj
 0001:000095c0       ??$__to_chars@D@std@@YA?AU?$pair@PEADW4errc@std@@@0@QEAD0U__floating_decimal_32@0@W4chars_format@0@II@Z 000000014000a5c0 f i Crinkler.obj
 0001:00009970       ??$__to_chars@D@std@@YA?AU?$pair@PEADW4errc@std@@@0@QEAD0U__floating_decimal_64@0@W4chars_format@0@N@Z 000000014000a970 f i Crinkler.obj
 0001:0000a030       ??$format_to@V?$back_insert_iterator@V?$vector@DV?$allocator@D@std@@@std@@@std@@$$V@std@@YA?AV?$back_insert_iterator@V?$vector@DV?$allocator@D@std@@@std@@@0@V10@U?$basic_format_string@D$$V@0@@Z 000000014000b030 f i Crinkler.obj
 0001:0000a070       ??$format_to@V?$back_insert_iterator@V?$vector@DV?$allocator@D@std@@@std@@@std@@AEAH@std@@YA?AV?$back_insert_iterator@V?$vector@DV?$allocator@D@std@@@std@@@0@V10@U?$basic_format_string@DAEAH@0@AEAH@Z 000000014000b070 f i Crinkler.obj
 0001:0000a070       ??$format_to@V?$back_insert_iterator@V?$vector@DV?$allocator@D@std@@@std@@@std@@AEBH@std@@YA?AV?$back_insert_iterator@V?$vector@DV?$allocator@D@std@@@std@@@0@V10@U?$basic_format_string@DAEBH@0@AEBH@Z 000000014000b070 f i HtmlReport.obj
 0001:0000a070       ??$format_to@V?$back_insert_iterator@V?$vector@DV?$allocator@D@std@@@std@@@std@@H@std@@YA?AV?$back_insert_iterator@V?$vector@DV?$allocator@D@std@@@std@@@0@V10@U?$basic_format_string@DH@0@$$QEAH@Z 000000014000b070 f i Crinkler.obj
 0001:0000a0e0       ??$format_to@V?$back_insert_iterator@V?$vector@DV?$allocator@D@std@@@std@@@std@@AEAV?$basic_string@DU?$char_traits@D@std@@V?$allocator@D@2@@2@@std@@YA?AV?$back_insert_iterator@V?$vector@DV?$allocator@D@std@@@std@@@0@V10@U?$basic_format_string@DAEAV?$basic_string@DU?$char_traits@D@std@@V?$allocator@D@2@@std@@@0@AEAV?$basic_string@DU?$char_traits@D@std@@V?$allocator@D@2@@0@@Z 000000014000b0e0 f i Crinkler.obj
 0001:0000a0e0       ??$format_to@V?$back_insert_iterator@V?$vector@DV?$allocator@D@std@@@std@@@std@@AEBV?$basic_string@DU?$char_traits@D@std@@V?$allocator@D@2@@2@@std@@YA?AV?$back_insert_iterator@V?$vector@DV?$allocator@D@std@@@std@@@0@V10@U?$basic_format_string@DAEBV?$basic_string@DU?$char_traits@D@std@@V?$allocator@D@2@@std@@@0@AEBV?$basic_string@DU?$char_traits@D@std@@V?$allocator@D@2@@0@@Z 000000014000b0e0 f i Crinkler.obj
 0001:0000a150       ??$format_to@V?$back_insert_iterator@V?$vector@DV?$allocator@D@std@@@std@@@std@@AEAY07$$CBD@std@@YA?AV?$back_insert_iterator@V?$vector@DV?$allocator@D@std@@@std@@@0@V10@U?$basic_format_string@DAEAY07$$CBD@0@AEAY07$$CBD@Z 000000014000b150 f i Crinkler.obj
 0001:0000a1c0       ??$format_to@V?$back_insert_iterator@V?$vector@DV?$allocator@D@std@@@std@@@std@@AEAV?$basic_string@DU?$char_traits@D@std@@V?$allocator@D@2@@2@AEAV32@@std@@YA?AV?$back_insert_iterator@V?$vector@DV?$allocator@D@std@@@std@@@0@V10@U?$basic_format_string@DAEAV?$basic_string@DU?$char_traits@D@std@@V?$allocator@D@2@@std@@AEAV12@@0@AEAV?$basic_string@DU?$char_traits@D@std@@V?$allocator@D@2@@0@2@Z 000000014000b1c0 f i HtmlReport.obj
 0001:0000a1c0       ??$format_to@V?$back_insert_iterator@V?$vector@DV?$allocator@D@std@@@std@@@std@@AEBV?$basic_string@DU?$char_traits@D@std@@V?$allocator@D@2@@2@AEBV32@@std@@YA?AV?$back_insert_iterator@V?$vector@DV?$allocator@D@std@@@std@@@0@V10@U?$basic_format_string@DAEBV?$basic_string@DU?$char_traits@D@std@@V?$allocator@D@2@@std@@AEBV12@@0@AEBV?$basic_string@DU?$char_traits@D@std@@V?$allocator@D@2@@0@2@Z 000000014000b1c0 f i Crinkler.obj
 0001:0000a230       ??$format_to@V?$back_insert_iterator@V?$vector@DV?$allocator@D@std@@@std@@@std@@AEAV?$basic_string@DU?$char_traits@D@std@@V?$allocator@D@2@@2@AEAH@std@@YA?AV?$back_insert_iterator@V?$vector@DV?$allocator@D@std@@@std@@@0@V10@U?$basic_format_string@DAEAV?$basic_string@DU?$char_traits@D@std@@V?$allocator@D@2@@std@@AEAH@0@AEAV?$basic_string@DU?$char_traits@D@std@@V?$allocator@D@2@@0@AEAH@Z 000000014000b230 f i HtmlReport.obj
 0001:0000a230       ??$format_to@V?$back_insert_iterator@V?$vector@DV?$allocator@D@std@@@std@@@std@@AEBV?$basic_string@DU?$char_traits@D@std@@V?$allocator@D@2@@2@H@std@@YA?AV?$back_insert_iterator@V?$vector@DV?$allocator@D@std@@@std@@@0@V10@U?$basic_format_string@DAEBV?$basic_string@DU?$char_traits@D@std@@V?$allocator@D@2@@std@@H@0@AEBV?$basic_string@DU?$char_traits@D@std@@V?$allocator@D@2@@0@$$QEAH@Z 000000014000b230 f i Crinkler.obj
 0001:0000a2a0       ??$format_to@V?$back_insert_iterator@V?$vector@DV?$allocator@D@std@@@std@@@std@@AEAPEBD@std@@YA?AV?$back_insert_iterator@V?$vector@DV?$allocator@D@std@@@std@@@0@V10@U?$basic_format_string@DAEAPEBD@0@AEAPEBD@Z 000000014000b2a0 f i HtmlReport.obj
 0001:0000a2a0       ??$format_to@V?$back_insert_iterator@V?$vector@DV?$allocator@D@std@@@std@@@std@@PEBD@std@@YA?AV?$back_insert_iterator@V?$vector@DV?$allocator@D@std@@@std@@@0@V10@U?$basic_format_string@DPEBD@0@$$QEAPEBD@Z 000000014000b2a0 f i Crinkler.obj
 0001:0000a310       ??$make_format_args@V?$basic_format_context@V?$back_insert_iterator@V?$_Fmt_buffer@D@std@@@std@@D@std@@$$BY07$$CBD@std@@YA?A_PAEAY07$$CBD@Z 000000014000b310 f i Crinkler.obj
 0001:0000a330       ??$make_format_args@V?$basic_format_context@V?$back_insert_iterator@V?$_Fmt_buffer@D@std@@@std@@D@std@@$$CBV?$basic_string@DU?$char_traits@D@std@@V?$allocator@D@2@@2@$$CBV32@@std@@YA?A_PAEBV?$basic_string@DU?$char_traits@D@std@@V?$allocator@D@2@@0@0@Z 000000014000b330 f i Crinkler.obj
 0001:0000a330       ??$make_format_args@V?$basic_format_context@V?$back_insert_iterator@V?$_Fmt_buffer@D@std@@@std@@D@std@@V?$basic_string@DU?$char_traits@D@std@@V?$allocator@D@2@@2@V32@@std@@YA?A_PAEAV?$basic_string@DU?$char_traits@D@std@@V?$allocator@D@2@@0@0@Z 000000014000b330 f i HtmlReport.obj
 0001:0000a3a0       ??$make_format_args@V?$basic_format_context@V?$back_insert_iterator@V?$_Fmt_buffer@D@std@@@std@@D@std@@$$CBV?$basic_string@DU?$char_traits@D@std@@V?$allocator@D@2@@2@@std@@YA?A_PAEBV?$basic_string@DU?$char_traits@D@std@@V?$allocator@D@2@@0@@Z 000000014000b3a0 f i Crinkler.obj
 0001:0000a3a0       ??$make_format_args@V?$basic_format_context@V?$back_insert_iterator@V?$_Fmt_buffer@D@std@@@std@@D@std@@V?$basic_string@DU?$char_traits@D@std@@V?$allocator@D@2@@2@@std@@YA?A_PAEAV?$basic_string@DU?$char_traits@D@std@@V?$allocator@D@2@@0@@Z 000000014000b3a0 f i Crinkler.obj
 0001:0000a3e0       ??$make_format_args@V?$basic_format_context@V?$back_insert_iterator@V?$_Fmt_buffer@D@std@@@std@@D@std@@$$CBV?$basic_string@DU?$char_traits@D@std@@V?$allocator@D@2@@2@H@std@@YA?A_PAEBV?$basic_string@DU?$char_traits@D@std@@V?$allocator@D@2@@0@AEAH@Z 000000014000b3e0 f i Crinkler.obj
 0001:0000a3e0       ??$make_format_args@V?$basic_format_context@V?$back_insert_iterator@V?$_Fmt_buffer@D@std@@@std@@D@std@@V?$basic_string@DU?$char_traits@D@std@@V?$allocator@D@2@@2@H@std@@YA?A_PAEAV?$basic_string@DU?$char_traits@D@std@@V?$allocator@D@2@@0@AEAH@Z 000000014000b3e0 f i HtmlReport.obj
 0001:0000a450       ??$make_format_args@V?$basic_format_context@V?$back_insert_iterator@V?$_Fmt_buffer@D@std@@@std@@D@std@@$$CBH@std@@YA?A_PAEBH@Z 000000014000b450 f i HtmlReport.obj
 0001:0000a450       ??$make_format_args@V?$basic_format_context@V?$back_insert_iterator@V?$_Fmt_buffer@D@std@@@std@@D@std@@H@std@@YA?A_PAEAH@Z 000000014000b450 f i Crinkler.obj
 0001:0000a470       ??$make_format_args@V?$basic_format_context@V?$back_insert_iterator@V?$_Fmt_buffer@D@std@@@std@@D@std@@PEBD@std@@YA?A_PAEAPEBD@Z 000000014000b470 f i Crinkler.obj
 0001:0000a530       ??$use_facet@V?$numpunct@D@std@@@std@@YAAEBV?$numpunct@D@0@AEBVlocale@0@@Z 000000014000b530 f i Crinkler.obj
 0001:0000a650       ??$vformat_to@V?$back_insert_iterator@V?$vector@DV?$allocator@D@std@@@std@@@std@@@std@@YA?AV?$back_insert_iterator@V?$vector@DV?$allocator@D@std@@@std@@@0@V10@V?$basic_string_view@DU?$char_traits@D@std@@@0@V?$basic_format_args@V?$basic_format_context@V?$back_insert_iterator@V?$_Fmt_buffer@D@std@@@std@@D@std@@@0@@Z 000000014000b650 f i Crinkler.obj
 0001:0000a690       ??$visit_format_arg@U?$_Arg_formatter@V?$back_insert_iterator@V?$_Fmt_buffer@D@std@@@std@@D@std@@V?$basic_format_context@V?$back_insert_iterator@V?$_Fmt_buffer@D@std@@@std@@D@2@@std@@YA?A_T$$QEAU?$_Arg_formatter@V?$back_insert_iterator@V?$_Fmt_buffer@D@std@@@std@@D@0@V?$basic_format_arg@V?$basic_format_context@V?$back_insert_iterator@V?$_Fmt_buffer@D@std@@@std@@D@std@@@0@@Z 000000014000b690 f i Crinkler.obj
 0001:0000a6c0       ??$visit_format_arg@U?$_Default_arg_formatter@V?$back_insert_iterator@V?$_Fmt_buffer@D@std@@@std@@D@std@@V?$basic_format_context@V?$back_insert_iterator@V?$_Fmt_buffer@D@std@@@std@@D@2@@std@@YA?A_T$$QEAU?$_Default_arg_formatter@V?$back_insert_iterator@V?$_Fmt_buffer@D@std@@@std@@D@0@V?$basic_format_arg@V?$basic_format_context@V?$back_insert_iterator@V?$_Fmt_buffer@D@std@@@std@@D@std@@@0@@Z 000000014000b6c0 f i Crinkler.obj
 0001:0000a8e0       ??$visit_format_arg@V_Precision_checker@std@@V?$basic_format_context@V?$back_insert_iterator@V?$_Fmt_buffer@D@std@@@std@@D@2@@std@@YA?A_T$$QEAV_Precision_checker@0@V?$basic_format_arg@V?$basic_format_context@V?$back_insert_iterator@V?$_Fmt_buffer@D@std@@@std@@D@std@@@0@@Z 000000014000b8e0 f i Crinkler.obj
 0001:0000aa10       ??$visit_format_arg@V_Width_checker@std@@V?$basic_format_context@V?$back_insert_iterator@V?$_Fmt_buffer@D@std@@@std@@D@2@@std@@YA?A_T$$QEAV_Width_checker@0@V?$basic_format_arg@V?$basic_format_context@V?$back_insert_iterator@V?$_Fmt_buffer@D@std@@@std@@D@std@@@0@@Z 000000014000ba10 f i Crinkler.obj
 0001:0000ab40       ??0?$basic_string@DU?$char_traits@D@std@@V?$allocator@D@2@@std@@QEAA@AEBV01@@Z 000000014000bb40 f i Crinkler.obj
 0001:0000ac30       ??0Crinkler@@QEAA@XZ       000000014000bc30 f   Crinkler.obj
 0001:0000aeb0       ??0_UnrealizedChore@details@Concurrency@@QEAA@XZ 000000014000beb0 f i Crinkler.obj
 0001:0000aed0       ??0bad_alloc@std@@QEAA@AEBV01@@Z 000000014000bed0 f i Crinkler.obj
 0001:0000af10       ??0bad_alloc@std@@QEAA@XZ  000000014000bf10 f i Crinkler.obj
 0001:0000af40       ??0bad_array_new_length@std@@QEAA@AEBV01@@Z 000000014000bf40 f i Crinkler.obj
 0001:0000af80       ??0bad_array_new_length@std@@QEAA@XZ 000000014000bf80 f i Crinkler.obj
 0001:0000afb0       ??0bad_cast@std@@QEAA@AEBV01@@Z 000000014000bfb0 f i Crinkler.obj
 0001:0000aff0       ??0bad_cast@std@@QEAA@XZ   000000014000bff0 f i Crinkler.obj
 0001:0000b020       ??0exception@std@@QEAA@AEBV01@@Z 000000014000c020 f i Crinkler.obj
 0001:0000b060       ??0format_error@std@@QEAA@AEBV01@@Z 000000014000c060 f i Crinkler.obj
 0001:0000b0a0       ??0format_error@std@@QEAA@PEBD@Z 000000014000c0a0 f i Crinkler.obj
 0001:0000b0f0       ??0invalid_argument@std@@QEAA@AEBV01@@Z 000000014000c0f0 f i Crinkler.obj
 0001:0000b130       ??0invalid_argument@std@@QEAA@PEBD@Z 000000014000c130 f i Crinkler.obj
 0001:0000b180       ??0logic_error@std@@QEAA@AEBV01@@Z 000000014000c180 f i Crinkler.obj
 0001:0000b1c0       ??0runtime_error@std@@QEAA@AEBV01@@Z 000000014000c1c0 f i Crinkler.obj
 0001:0000b200       ??1?$_Hash_vec@V?$allocator@V?$_List_unchecked_iterator@V?$_List_val@U?$_List_simple_types@U?$pair@$$CBV?$basic_string@DU?$char_traits@D@std@@V?$allocator@D@2@@std@@PEAVHunk@@@std@@@std@@@std@@@std@@@std@@@std@@QEAA@XZ 000000014000c200 f i Reuse.obj
 0001:0000b200       ??1?$vector@PEAVCmdParam@@V?$allocator@PEAVCmdParam@@@std@@@std@@QEAA@XZ 000000014000c200 f i CmdLineInterface.obj
 0001:0000b200       ??1?$vector@PEAVHunk@@V?$allocator@PEAVHunk@@@std@@@std@@QEAA@XZ 000000014000c200 f i Crinkler.obj
 0001:0000b200       ??1?$vector@PEAVPart@@V?$allocator@PEAVPart@@@std@@@std@@QEAA@XZ 000000014000c200 f i PartList.obj
 0001:0000b200       ??1?$vector@PEAVProgressBar@@V?$allocator@PEAVProgressBar@@@std@@@std@@QEAA@XZ 000000014000c200 f i Crinkler.obj
 0001:0000b200       ?_Tidy@?$vector@UTinyHashEntry@@V?$allocator@UTinyHashEntry@@@std@@@std@@AEAAXXZ 000000014000c200 f i Crinkler.obj
 0001:0000b270       ??1?$vector@V?$basic_string@DU?$char_traits@D@std@@V?$allocator@D@2@@std@@V?$allocator@V?$basic_string@DU?$char_traits@D@std@@V?$allocator@D@2@@std@@@2@@std@@QEAA@XZ 000000014000c270 f i Crinkler.obj
 0001:0000b270       ?_Tidy@?$vector@V?$basic_string@DU?$char_traits@D@std@@V?$allocator@D@2@@std@@V?$allocator@V?$basic_string@DU?$char_traits@D@std@@V?$allocator@D@2@@std@@@2@@std@@AEAAXXZ 000000014000c270 f i ImportHandler.obj
 0001:0000b310       ??1Crinkler@@QEAA@XZ       000000014000c310 f   Crinkler.obj
 0001:0000b430       ??1_Interruption_exception@details@Concurrency@@UEAA@XZ 000000014000c430 f i libconcrt:Chores.obj
 0001:0000b430       ??1__non_rtti_object@std@@UEAA@XZ 000000014000c430 f i libvcruntime:rtti.obj
 0001:0000b430       ??1bad_alloc@std@@UEAA@XZ  000000014000c430 f i Crinkler.obj
 0001:0000b430       ??1bad_array_new_length@std@@UEAA@XZ 000000014000c430 f i Crinkler.obj
 0001:0000b430       ??1bad_cast@std@@UEAA@XZ   000000014000c430 f i Crinkler.obj
 0001:0000b430       ??1bad_exception@std@@UEAA@XZ 000000014000c430 f i libvcruntime:frame.obj
 0001:0000b430       ??1bad_function_call@std@@UEAA@XZ 000000014000c430 f i libcpmt:xthrow.obj
 0001:0000b430       ??1context_self_unblock@Concurrency@@UEAA@XZ 000000014000c430 f i libconcrt:Exceptions.obj
 0001:0000b430       ??1context_unblock_unbalanced@Concurrency@@UEAA@XZ 000000014000c430 f i libconcrt:Exceptions.obj
 0001:0000b430       ??1exception@std@@UEAA@XZ  000000014000c430 f i Crinkler.obj
 0001:0000b430       ??1format_error@std@@UEAA@XZ 000000014000c430 f i Crinkler.obj
 0001:0000b430       ??1improper_lock@Concurrency@@UEAA@XZ 000000014000c430 f i libconcrt:rtlocks.obj
 0001:0000b430       ??1improper_scheduler_attach@Concurrency@@UEAA@XZ 000000014000c430 f i libconcrt:SchedulerBase.obj
 0001:0000b430       ??1improper_scheduler_reference@Concurrency@@UEAA@XZ 000000014000c430 f i libconcrt:SchedulerBase.obj
 0001:0000b430       ??1invalid_argument@std@@UEAA@XZ 000000014000c430 f i Crinkler.obj
 0001:0000b430       ??1invalid_multiple_scheduling@Concurrency@@UEAA@XZ 000000014000c430 f i libconcrt:TaskCollection.obj
 0001:0000b430       ??1invalid_operation@Concurrency@@UEAA@XZ 000000014000c430 f i libconcrt:ResourceManager.obj
 0001:0000b430       ??1invalid_oversubscribe_operation@Concurrency@@UEAA@XZ 000000014000c430 f i libconcrt:Exceptions.obj
 0001:0000b430       ??1invalid_scheduler_policy_key@Concurrency@@UEAA@XZ 000000014000c430 f i libconcrt:Exceptions.obj
 0001:0000b430       ??1invalid_scheduler_policy_thread_specification@Concurrency@@UEAA@XZ 000000014000c430 f i libconcrt:Exceptions.obj
 0001:0000b430       ??1invalid_scheduler_policy_value@Concurrency@@UEAA@XZ 000000014000c430 f i libconcrt:Exceptions.obj
 0001:0000b430       ??1length_error@std@@UEAA@XZ 000000014000c430 f i libcpmt:xthrow.obj
 0001:0000b430       ??1missing_wait@Concurrency@@UEAA@XZ 000000014000c430 f i libconcrt:Chores.obj
 0001:0000b430       ??1nested_scheduler_missing_detach@Concurrency@@UEAA@XZ 000000014000c430 f i libconcrt:Exceptions.obj
 0001:0000b430       ??1out_of_range@std@@UEAA@XZ 000000014000c430 f i libcpmt:xthrow.obj
 0001:0000b430       ??1runtime_error@std@@UEAA@XZ 000000014000c430 f i Crinkler.obj
 0001:0000b430       ??1scheduler_resource_allocation_error@Concurrency@@UEAA@XZ 000000014000c430 f i libconcrt:utils.obj
 0001:0000b430       ??1scheduler_worker_creation_error@Concurrency@@UEAA@XZ 000000014000c430 f i libconcrt:Exceptions.obj
 0001:0000b430       ??1system_error@std@@UEAA@XZ 000000014000c430 f i HtmlReport.obj
 0001:0000b450       ??4?$vector@IV?$allocator@I@std@@@std@@QEAAAEAV01@$$QEAV01@@Z 000000014000c450 f i Crinkler.obj
 0001:0000b500       ??E?$_Grapheme_break_property_iterator@D@std@@QEAAAEAV01@XZ 000000014000c500 f i Crinkler.obj
 0001:0000b840       ??R<lambda_1>@?1???$_Fmt_write@DV?$back_insert_iterator@V?$_Fmt_buffer@D@std@@@std@@@std@@YA?AV?$back_insert_iterator@V?$_Fmt_buffer@D@std@@@1@V21@QEBXAEBU?$_Basic_format_specs@D@1@V_Lazy_locale@1@@Z@QEBA@0@Z 000000014000c840 f i Crinkler.obj
 0001:0000b940       ??R<lambda_1>@?1???$_Fmt_write@DV?$back_insert_iterator@V?$_Fmt_buffer@D@std@@@std@@M@std@@YA?AV?$back_insert_iterator@V?$_Fmt_buffer@D@std@@@1@V21@MAEBU?$_Basic_format_specs@D@1@V_Lazy_locale@1@@Z@QEBA@0@Z 000000014000c940 f i Crinkler.obj
 0001:0000b940       ??R<lambda_1>@?1???$_Fmt_write@DV?$back_insert_iterator@V?$_Fmt_buffer@D@std@@@std@@N@std@@YA?AV?$back_insert_iterator@V?$_Fmt_buffer@D@std@@@1@V21@NAEBU?$_Basic_format_specs@D@1@V_Lazy_locale@1@@Z@QEBA@0@Z 000000014000c940 f i Crinkler.obj
 0001:0000b940       ??R<lambda_1>@?1???$_Fmt_write@DV?$back_insert_iterator@V?$_Fmt_buffer@D@std@@@std@@O@std@@YA?AV?$back_insert_iterator@V?$_Fmt_buffer@D@std@@@1@V21@OAEBU?$_Basic_format_specs@D@1@V_Lazy_locale@1@@Z@QEBA@0@Z 000000014000c940 f i Crinkler.obj
 0001:0000bc10       ??R<lambda_1>@?1???$_Write_integral@DV?$back_insert_iterator@V?$_Fmt_buffer@D@std@@@std@@E@std@@YA?AV?$back_insert_iterator@V?$_Fmt_buffer@D@std@@@1@V21@EU?$_Basic_format_specs@D@1@V_Lazy_locale@1@@Z@QEBA@0@Z 000000014000cc10 f i Crinkler.obj
 0001:0000bc10       ??R<lambda_1>@?1???$_Write_integral@DV?$back_insert_iterator@V?$_Fmt_buffer@D@std@@@std@@I@std@@YA?AV?$back_insert_iterator@V?$_Fmt_buffer@D@std@@@1@V21@IU?$_Basic_format_specs@D@1@V_Lazy_locale@1@@Z@QEBA@0@Z 000000014000cc10 f i Crinkler.obj
 0001:0000bc10       ??R<lambda_1>@?1???$_Write_integral@DV?$back_insert_iterator@V?$_Fmt_buffer@D@std@@@std@@_K@std@@YA?AV?$back_insert_iterator@V?$_Fmt_buffer@D@std@@@1@V21@_KU?$_Basic_format_specs@D@1@V_Lazy_locale@1@@Z@QEBA@0@Z 000000014000cc10 f i Crinkler.obj
 0001:0000bdb0       ??R<lambda_1>@?1???$_Write_integral@DV?$back_insert_iterator@V?$_Fmt_buffer@D@std@@@std@@H@std@@YA?AV?$back_insert_iterator@V?$_Fmt_buffer@D@std@@@1@V21@HU?$_Basic_format_specs@D@1@V_Lazy_locale@1@@Z@QEBA@0@Z 000000014000cdb0 f i Crinkler.obj
 0001:0000bf50       ??R<lambda_1>@?1???$_Write_integral@DV?$back_insert_iterator@V?$_Fmt_buffer@D@std@@@std@@_J@std@@YA?AV?$back_insert_iterator@V?$_Fmt_buffer@D@std@@@1@V21@_JU?$_Basic_format_specs@D@1@V_Lazy_locale@1@@Z@QEBA@0@Z 000000014000cf50 f i Crinkler.obj
 0001:0000ca40       ??R?$_Arg_formatter@V?$back_insert_iterator@V?$_Fmt_buffer@D@std@@@std@@D@std@@QEAA?AV?$back_insert_iterator@V?$_Fmt_buffer@D@std@@@1@Vhandle@?$basic_format_arg@V?$basic_format_context@V?$back_insert_iterator@V?$_Fmt_buffer@D@std@@@std@@D@std@@@1@@Z 000000014000da40 f i Crinkler.obj
 0001:0000cf90       ??_E?$numpunct@D@std@@MEAAPEAXI@Z 000000014000df90 f i Crinkler.obj
 0001:0000cf90       ??_G?$numpunct@D@std@@MEAAPEAXI@Z 000000014000df90 f i Crinkler.obj
 0001:0000d060       ??_ECompositeProgressBar@@UEAAPEAXI@Z 000000014000e060 f i Crinkler.obj
 0001:0000d060       ??_GCompositeProgressBar@@UEAAPEAXI@Z 000000014000e060 f i Crinkler.obj
 0001:0000d0b0       ??_GCompressionReportRecord@@QEAAPEAXI@Z 000000014000e0b0 f i Crinkler.obj
 0001:0000d190       ??_EConsoleProgressBar@@UEAAPEAXI@Z 000000014000e190 f i Crinkler.obj
 0001:0000d190       ??_GConsoleProgressBar@@UEAAPEAXI@Z 000000014000e190 f i Crinkler.obj
 0001:0000d1c0       ??_EProgressBar@@UEAAPEAXI@Z 000000014000e1c0 f i Crinkler.obj
 0001:0000d1c0       ??_GProgressBar@@UEAAPEAXI@Z 000000014000e1c0 f i Crinkler.obj
 0001:0000d1f0       ??_GReuse@@QEAAPEAXI@Z     000000014000e1f0 f i Crinkler.obj
 0001:0000d2e0       ??_EWindowProgressBar@@UEAAPEAXI@Z 000000014000e2e0 f i Crinkler.obj
 0001:0000d2e0       ??_GWindowProgressBar@@UEAAPEAXI@Z 000000014000e2e0 f i Crinkler.obj
 0001:0000d330       ??_E_Chore@details@Concurrency@@MEAAPEAXI@Z 000000014000e330 f i Crinkler.obj
 0001:0000d330       ??_G_Chore@details@Concurrency@@MEAAPEAXI@Z 000000014000e330 f i Crinkler.obj
 0001:0000d360       ??_E_Facet_base@std@@UEAAPEAXI@Z 000000014000e360 f i Crinkler.obj
 0001:0000d360       ??_G_Facet_base@std@@UEAAPEAXI@Z 000000014000e360 f i Crinkler.obj
 0001:0000d390       ??_E_UnrealizedChore@details@Concurrency@@UEAAPEAXI@Z 000000014000e390 f i Crinkler.obj
 0001:0000d390       ??_G_UnrealizedChore@details@Concurrency@@UEAAPEAXI@Z 000000014000e390 f i Crinkler.obj
 0001:0000d3d0       ??_E_Interruption_exception@details@Concurrency@@UEAAPEAXI@Z 000000014000e3d0 f i libconcrt:Chores.obj
 0001:0000d3d0       ??_E__non_rtti_object@std@@UEAAPEAXI@Z 000000014000e3d0 f i libvcruntime:rtti.obj
 0001:0000d3d0       ??_Ebad_alloc@std@@UEAAPEAXI@Z 000000014000e3d0 f i Crinkler.obj
 0001:0000d3d0       ??_Ebad_array_new_length@std@@UEAAPEAXI@Z 000000014000e3d0 f i Crinkler.obj
 0001:0000d3d0       ??_Ebad_cast@std@@UEAAPEAXI@Z 000000014000e3d0 f i Crinkler.obj
 0001:0000d3d0       ??_Ebad_exception@std@@UEAAPEAXI@Z 000000014000e3d0 f i libvcruntime:frame.obj
 0001:0000d3d0       ??_Ebad_function_call@std@@UEAAPEAXI@Z 000000014000e3d0 f i libcpmt:xthrow.obj
 0001:0000d3d0       ??_Ebad_typeid@std@@UEAAPEAXI@Z 000000014000e3d0 f i libvcruntime:rtti.obj
 0001:0000d3d0       ??_Econtext_self_unblock@Concurrency@@UEAAPEAXI@Z 000000014000e3d0 f i libconcrt:Exceptions.obj
 0001:0000d3d0       ??_Econtext_unblock_unbalanced@Concurrency@@UEAAPEAXI@Z 000000014000e3d0 f i libconcrt:Exceptions.obj
 0001:0000d3d0       ??_Eexception@std@@UEAAPEAXI@Z 000000014000e3d0 f i Crinkler.obj
 0001:0000d3d0       ??_Eformat_error@std@@UEAAPEAXI@Z 000000014000e3d0 f i Crinkler.obj
 0001:0000d3d0       ??_Eimproper_lock@Concurrency@@UEAAPEAXI@Z 000000014000e3d0 f i libconcrt:rtlocks.obj
 0001:0000d3d0       ??_Eimproper_scheduler_attach@Concurrency@@UEAAPEAXI@Z 000000014000e3d0 f i libconcrt:SchedulerBase.obj
 0001:0000d3d0       ??_Eimproper_scheduler_reference@Concurrency@@UEAAPEAXI@Z 000000014000e3d0 f i libconcrt:SchedulerBase.obj
 0001:0000d3d0       ??_Einvalid_argument@std@@UEAAPEAXI@Z 000000014000e3d0 f i Crinkler.obj
 0001:0000d3d0       ??_Einvalid_multiple_scheduling@Concurrency@@UEAAPEAXI@Z 000000014000e3d0 f i libconcrt:TaskCollection.obj
 0001:0000d3d0       ??_Einvalid_operation@Concurrency@@UEAAPEAXI@Z 000000014000e3d0 f i libconcrt:ResourceManager.obj
 0001:0000d3d0       ??_Einvalid_oversubscribe_operation@Concurrency@@UEAAPEAXI@Z 000000014000e3d0 f i libconcrt:Exceptions.obj
 0001:0000d3d0       ??_Einvalid_scheduler_policy_key@Concurrency@@UEAAPEAXI@Z 000000014000e3d0 f i libconcrt:Exceptions.obj
 0001:0000d3d0       ??_Einvalid_scheduler_policy_thread_specification@Concurrency@@UEAAPEAXI@Z 000000014000e3d0 f i libconcrt:Exceptions.obj
 0001:0000d3d0       ??_Einvalid_scheduler_policy_value@Concurrency@@UEAAPEAXI@Z 000000014000e3d0 f i libconcrt:Exceptions.obj
 0001:0000d3d0       ??_Elength_error@std@@UEAAPEAXI@Z 000000014000e3d0 f i libcpmt:xthrow.obj
 0001:0000d3d0       ??_Elogic_error@std@@UEAAPEAXI@Z 000000014000e3d0 f i Crinkler.obj
 0001:0000d3d0       ??_Emissing_wait@Concurrency@@UEAAPEAXI@Z 000000014000e3d0 f i libconcrt:Chores.obj
 0001:0000d3d0       ??_Enested_scheduler_missing_detach@Concurrency@@UEAAPEAXI@Z 000000014000e3d0 f i libconcrt:Exceptions.obj
 0001:0000d3d0       ??_Eout_of_range@std@@UEAAPEAXI@Z 000000014000e3d0 f i libcpmt:xthrow.obj
 0001:0000d3d0       ??_Eruntime_error@std@@UEAAPEAXI@Z 000000014000e3d0 f i Crinkler.obj
 0001:0000d3d0       ??_G_Interruption_exception@details@Concurrency@@UEAAPEAXI@Z 000000014000e3d0 f i libconcrt:Chores.obj
 0001:0000d3d0       ??_G__non_rtti_object@std@@UEAAPEAXI@Z 000000014000e3d0 f i libvcruntime:rtti.obj
 0001:0000d3d0       ??_Gbad_alloc@std@@UEAAPEAXI@Z 000000014000e3d0 f i Crinkler.obj
 0001:0000d3d0       ??_Gbad_array_new_length@std@@UEAAPEAXI@Z 000000014000e3d0 f i Crinkler.obj
 0001:0000d3d0       ??_Gbad_cast@std@@UEAAPEAXI@Z 000000014000e3d0 f i Crinkler.obj
 0001:0000d3d0       ??_Gbad_exception@std@@UEAAPEAXI@Z 000000014000e3d0 f i libvcruntime:frame.obj
 0001:0000d3d0       ??_Gbad_function_call@std@@UEAAPEAXI@Z 000000014000e3d0 f i libcpmt:xthrow.obj
 0001:0000d3d0       ??_Gbad_typeid@std@@UEAAPEAXI@Z 000000014000e3d0 f i libvcruntime:rtti.obj
 0001:0000d3d0       ??_Gcontext_self_unblock@Concurrency@@UEAAPEAXI@Z 000000014000e3d0 f i libconcrt:Exceptions.obj
 0001:0000d3d0       ??_Gcontext_unblock_unbalanced@Concurrency@@UEAAPEAXI@Z 000000014000e3d0 f i libconcrt:Exceptions.obj
 0001:0000d3d0       ??_Gexception@std@@UEAAPEAXI@Z 000000014000e3d0 f i Crinkler.obj
 0001:0000d3d0       ??_Gformat_error@std@@UEAAPEAXI@Z 000000014000e3d0 f i Crinkler.obj
 0001:0000d3d0       ??_Gimproper_lock@Concurrency@@UEAAPEAXI@Z 000000014000e3d0 f i libconcrt:rtlocks.obj
 0001:0000d3d0       ??_Gimproper_scheduler_attach@Concurrency@@UEAAPEAXI@Z 000000014000e3d0 f i libconcrt:SchedulerBase.obj
 0001:0000d3d0       ??_Gimproper_scheduler_reference@Concurrency@@UEAAPEAXI@Z 000000014000e3d0 f i libconcrt:SchedulerBase.obj
 0001:0000d3d0       ??_Ginvalid_argument@std@@UEAAPEAXI@Z 000000014000e3d0 f i Crinkler.obj
 0001:0000d3d0       ??_Ginvalid_multiple_scheduling@Concurrency@@UEAAPEAXI@Z 000000014000e3d0 f i libconcrt:TaskCollection.obj
 0001:0000d3d0       ??_Ginvalid_operation@Concurrency@@UEAAPEAXI@Z 000000014000e3d0 f i libconcrt:ResourceManager.obj
 0001:0000d3d0       ??_Ginvalid_oversubscribe_operation@Concurrency@@UEAAPEAXI@Z 000000014000e3d0 f i libconcrt:Exceptions.obj
 0001:0000d3d0       ??_Ginvalid_scheduler_policy_key@Concurrency@@UEAAPEAXI@Z 000000014000e3d0 f i libconcrt:Exceptions.obj
 0001:0000d3d0       ??_Ginvalid_scheduler_policy_thread_specification@Concurrency@@UEAAPEAXI@Z 000000014000e3d0 f i libconcrt:Exceptions.obj
 0001:0000d3d0       ??_Ginvalid_scheduler_policy_value@Concurrency@@UEAAPEAXI@Z 000000014000e3d0 f i libconcrt:Exceptions.obj
 0001:0000d3d0       ??_Glength_error@std@@UEAAPEAXI@Z 000000014000e3d0 f i libcpmt:xthrow.obj
 0001:0000d3d0       ??_Glogic_error@std@@UEAAPEAXI@Z 000000014000e3d0 f i Crinkler.obj
 0001:0000d3d0       ??_Gmissing_wait@Concurrency@@UEAAPEAXI@Z 000000014000e3d0 f i libconcrt:Chores.obj
 0001:0000d3d0       ??_Gnested_scheduler_missing_detach@Concurrency@@UEAAPEAXI@Z 000000014000e3d0 f i libconcrt:Exceptions.obj
 0001:0000d3d0       ??_Gout_of_range@std@@UEAAPEAXI@Z 000000014000e3d0 f i libcpmt:xthrow.obj
 0001:0000d3d0       ??_Gruntime_error@std@@UEAAPEAXI@Z 000000014000e3d0 f i Crinkler.obj
 0001:0000d420       ?AddExport@Crinkler@@QEAAXVExport@@@Z 000000014000e420 f i Crinkler.obj
 0001:0000d6a0       ?AddRuntimeLibrary@Crinkler@@QEAAXXZ 000000014000e6a0 f   Crinkler.obj
 0001:0000d730       ?CompressParts4k@Crinkler@@AEAAHAEAVPartList@@PEAVHunk@@PEAEHHPEAH@Z 000000014000e730 f   Crinkler.obj
 0001:0000d970       ?CreateDynamicInitializerHunk@Crinkler@@AEAAPEAVHunk@@XZ 000000014000e970 f   Crinkler.obj
 0001:0000dca0       ?CreateModelHunk4k@Crinkler@@AEAAPEAVHunk@@AEAVPartList@@@Z 000000014000eca0 f   Crinkler.obj
 0001:0000ddf0       ??1critical_section@Concurrency@@QEAA@XZ 000000014000edf0 f i libconcrt:rtlocks.obj
 0001:0000ddf0       ?CreateNodeTopology@ResourceManager@details@Concurrency@@UEAAXIPEAIPEAPEAI0@Z 000000014000edf0 f i libconcrt:ResourceManager.obj
 0001:0000ddf0       ?Deinit@ProgressBar@@UEAAXXZ 000000014000edf0 f i Crinkler.obj
 0001:0000ddf0       ?Destroy@WaitAnyBlock@details@Concurrency@@UEAAXXZ 000000014000edf0 f i libconcrt:event.obj
 0001:0000ddf0       ?EndTask@ConsoleProgressBar@@UEAAXXZ 000000014000edf0 f i ConsoleProgressBar.obj
 0001:0000ddf0       ?EndTask@WindowProgressBar@@UEAAXXZ 000000014000edf0 f i WindowProgressBar.obj
 0001:0000ddf0       ?Init@ProgressBar@@UEAAXXZ 000000014000edf0 f i Crinkler.obj
 0001:0000ddf0       ?NotifyAffinitizedWork@FairScheduleGroupSegment@details@Concurrency@@UEAAXXZ 000000014000edf0 f i libconcrt:SchedulerBase.obj
 0001:0000ddf0       ?NotifyResourcesExternallyBusy@ThreadScheduler@details@Concurrency@@UEAAXPEAPEAUIVirtualProcessorRoot@3@I@Z 000000014000edf0 f i libconcrt:ThreadScheduler.obj
 0001:0000ddf0       ?NotifyResourcesExternallyIdle@ThreadScheduler@details@Concurrency@@UEAAXPEAPEAUIVirtualProcessorRoot@3@I@Z 000000014000edf0 f i libconcrt:ThreadScheduler.obj
 0001:0000ddf0       ?RMAwaken@InternalContextBase@details@Concurrency@@EEAAXXZ 000000014000edf0 f i libconcrt:InternalContextBase.obj
 0001:0000ddf0       ?VirtualProcessorActiveNotification@SchedulerBase@details@Concurrency@@MEAAX_NJ@Z 000000014000edf0 f i libconcrt:SchedulerBase.obj
 0001:0000ddf0       ?__empty_global_delete@@YAXPEAX_K@Z 000000014000edf0 f i Crinkler.obj
 0001:0000ddf0       ?__global_delete@@YAXPEAX_K@Z 000000014000edf0 f i Crinkler.obj
 0001:0000ddf0       __sanitizer_annotate_contiguous_container 000000014000edf0 f i libcpmt:asan_noop.obj
 0001:0000ddf0       __sanitizer_annotate_contiguous_container_default 000000014000edf0 f i libcpmt:asan_noop.obj
 0001:0000ddf0       _guard_check_icall_nop     000000014000edf0 f i LIBCMT:guard_support.obj
 0001:0000ddf0       _initialize_denormal_control 000000014000edf0 f i LIBCMT:denormal_control.obj
 0001:0000ddf0       _initialize_invalid_parameter_handler 000000014000edf0 f i LIBCMT:invalid_parameter_handler.obj
 0001:0000de00       ?DeinitProgressBar@Crinkler@@AEAAXXZ 000000014000ee00 f   Crinkler.obj
 0001:0000de10       ?EstimateModels@Crinkler@@AEAAHAEAVPartList@@PEAVHunk@@_N2@Z 000000014000ee10 f   Crinkler.obj
 0001:0000e1c0       ?EvaluatePartsSize4k@Crinkler@@AEAAHAEAVPartList@@PEAVHunk@@@Z 000000014000f1c0 f   Crinkler.obj
 0001:0000e5a0       ?FinalLink@Crinkler@@AEAAPEAVHunk@@AEAVPartList@@PEAV2@111PEAEHH@Z 000000014000f5a0 f   Crinkler.obj
 0001:0000e880       ?FindEntryPoint@Crinkler@@AEAAPEAVSymbol@@XZ 000000014000f880 f   Crinkler.obj
 0001:0000e960       ?GetEntrySymbolName@Crinkler@@AEBA?AV?$basic_string@DU?$char_traits@D@std@@V?$allocator@D@2@@std@@XZ 000000014000f960 f   Crinkler.obj
 0001:0000ea40       ?InitProgressBar@Crinkler@@AEAAXXZ 000000014000fa40 f   Crinkler.obj
 0001:0000eaa0       ?Link@Crinkler@@QEAAXPEBD@Z 000000014000faa0 f   Crinkler.obj
 0001:0000fbc0       ?Load@Crinkler@@QEAAXPEBD@Z 0000000140010bc0 f   Crinkler.obj
 0001:0000fc00       ?Load@Crinkler@@QEAAXPEBDH0@Z 0000000140010c00 f   Crinkler.obj
 0001:0000fc30       ?LoadImportCode@Crinkler@@AEAAX_N000@Z 0000000140010c30 f   Crinkler.obj
 0001:0000fd70       ?OptimizeHashsize@Crinkler@@AEAAHAEAVPartList@@PEAVHunk@@HH@Z 0000000140010d70 f   Crinkler.obj
 0001:00010530       ?OverrideAlignments@Crinkler@@AEAAXAEAVPart@@@Z 0000000140011530 f   Crinkler.obj
 0001:000105c0       ?PrintOptions@Crinkler@@QEAAXV?$back_insert_iterator@V?$vector@DV?$allocator@D@std@@@std@@@std@@@Z 00000001400115c0 f   Crinkler.obj
 0001:00010c70       ?Recompress@Crinkler@@QEAAXPEBD0@Z 0000000140011c70 f   Crinkler.obj
 0001:00012760       ?RemoveUnreferencedHunks@Crinkler@@AEAAXPEAVHunk@@@Z 0000000140013760 f   Crinkler.obj
 0001:00012ed0       ?ReplaceDlls@Crinkler@@AEAAXAEAVPart@@@Z 0000000140013ed0 f   Crinkler.obj
 0001:00013160       ?SetHeaderConstants1k@Crinkler@@AEAAXPEAVHunk@@0HHHIH@Z 0000000140014160 f   Crinkler.obj
 0001:000132b0       ?SetHeaderConstants4k@Crinkler@@AEAAXPEAVHunk@@0AEAVPartList@@HHH@Z 00000001400142b0 f   Crinkler.obj
 0001:00013460       ?SetHeaderConstantsCommon@Crinkler@@AEAAXPEAVHunk@@H@Z 0000000140014460 f   Crinkler.obj
 0001:00013580       ?SetHeaderSaturation@Crinkler@@AEAAXPEAVHunk@@@Z 0000000140014580 f   Crinkler.obj
 0001:00013760       ?_Change_array@?$vector@HV?$allocator@H@std@@@std@@AEAAXQEAH_K1@Z 0000000140014760 f i Crinkler.obj
 0001:00013760       ?_Change_array@?$vector@IV?$allocator@I@std@@@std@@AEAAXQEAI_K1@Z 0000000140014760 f i Compressor:CompressionStream.obj
 0001:000139d0       ?_Deallocate_for_capacity@?$basic_string@DU?$char_traits@D@std@@V?$allocator@D@2@@std@@CAXAEAV?$allocator@D@2@QEAD_K@Z 00000001400149d0 f i Crinkler.obj
 0001:00013a30       ?_Decode_utf@std@@YA?AU?$_Decode_result@D@1@PEBD0AEA_U@Z 0000000140014a30 f i Crinkler.obj
 0001:00013bf0       ?_Decref@facet@locale@std@@UEAAPEAV_Facet_base@3@XZ 0000000140014bf0 f i Crinkler.obj
 0001:00013c00       ?_Delete_this@?$_Func_impl_no_alloc@P6A_JXZ_J$$V@std@@EEAAX_N@Z 0000000140014c00 f   Compressor:CompressionStateEvaluator.obj
 0001:00014120       ?_Get@?$_Func_impl_no_alloc@P6A_JXZ_J$$V@std@@EEBAPEBXXZ 0000000140015120 f   Compressor:CompressionStateEvaluator.obj
 0001:00014130       ?_Getcat@?$numpunct@D@std@@SA_KPEAPEBVfacet@locale@2@PEBV42@@Z 0000000140015130 f i Crinkler.obj
 0001:00014350       ?_Grow@?$_Fmt_iterator_buffer@V?$back_insert_iterator@V?$vector@DV?$allocator@D@std@@@std@@@std@@DU_Fmt_buffer_traits@2@@std@@EEAAX_K@Z 0000000140015350 f i Crinkler.obj
 0001:000143b0       ?_Incref@facet@locale@std@@UEAAXXZ 00000001400153b0 f i Crinkler.obj
 0001:000143c0       ?_Insert_node@?$_Tree_val@U?$_Tree_simple_types@U?$pair@$$CBHH@std@@@std@@@std@@QEAAPEAU?$_Tree_node@U?$pair@$$CBHH@std@@PEAX@2@U?$_Tree_id@PEAU?$_Tree_node@U?$pair@$$CBHH@std@@PEAX@std@@@2@QEAU32@@Z 00000001400153c0 f i Export.obj
 0001:000143c0       ?_Insert_node@?$_Tree_val@U?$_Tree_simple_types@U?$pair@$$CBHPEAVSymbol@@@std@@@std@@@std@@QEAAPEAU?$_Tree_node@U?$pair@$$CBHPEAVSymbol@@@std@@PEAX@2@U?$_Tree_id@PEAU?$_Tree_node@U?$pair@$$CBHPEAVSymbol@@@std@@PEAX@std@@@2@QEAU32@@Z 00000001400153c0 f i Hunk.obj
 0001:000143c0       ?_Insert_node@?$_Tree_val@U?$_Tree_simple_types@U?$pair@$$CBV?$basic_string@DU?$char_traits@D@std@@V?$allocator@D@2@@std@@H@std@@@std@@@std@@QEAAPEAU?$_Tree_node@U?$pair@$$CBV?$basic_string@DU?$char_traits@D@std@@V?$allocator@D@2@@std@@H@std@@PEAX@2@U?$_Tree_id@PEAU?$_Tree_node@U?$pair@$$CBV?$basic_string@DU?$char_traits@D@std@@V?$allocator@D@2@@std@@H@std@@PEAX@std@@@2@QEAU32@@Z 00000001400153c0 f i CmdParamFlags.obj
 0001:000143c0       ?_Insert_node@?$_Tree_val@U?$_Tree_simple_types@U?$pair@$$CBV?$basic_string@DU?$char_traits@D@std@@V?$allocator@D@2@@std@@PEAVMemoryFile@@@std@@@std@@@std@@QEAAPEAU?$_Tree_node@U?$pair@$$CBV?$basic_string@DU?$char_traits@D@std@@V?$allocator@D@2@@std@@PEAVMemoryFile@@@std@@PEAX@2@U?$_Tree_id@PEAU?$_Tree_node@U?$pair@$$CBV?$basic_string@DU?$char_traits@D@std@@V?$allocator@D@2@@std@@PEAVMemoryFile@@@std@@PEAX@std@@@2@QEAU32@@Z 00000001400153c0 f i main.obj
 0001:000143c0       ?_Insert_node@?$_Tree_val@U?$_Tree_simple_types@U?$pair@$$CBV?$basic_string@DU?$char_traits@D@std@@V?$allocator@D@2@@std@@PEAVModelList4k@@@std@@@std@@@std@@QEAAPEAU?$_Tree_node@U?$pair@$$CBV?$basic_string@DU?$char_traits@D@std@@V?$allocator@D@2@@std@@PEAVModelList4k@@@std@@PEAX@2@U?$_Tree_id@PEAU?$_Tree_node@U?$pair@$$CBV?$basic_string@DU?$char_traits@D@std@@V?$allocator@D@2@@std@@PEAVModelList4k@@@std@@PEAX@std@@@2@QEAU32@@Z 00000001400153c0 f i Reuse.obj
 0001:000143c0       ?_Insert_node@?$_Tree_val@U?$_Tree_simple_types@U?$pair@$$CBV?$basic_string@DU?$char_traits@D@std@@V?$allocator@D@2@@std@@PEAVSymbol@@@std@@@std@@@std@@QEAAPEAU?$_Tree_node@U?$pair@$$CBV?$basic_string@DU?$char_traits@D@std@@V?$allocator@D@2@@std@@PEAVSymbol@@@std@@PEAX@2@U?$_Tree_id@PEAU?$_Tree_node@U?$pair@$$CBV?$basic_string@DU?$char_traits@D@std@@V?$allocator@D@2@@std@@PEAVSymbol@@@std@@PEAX@std@@@2@QEAU32@@Z 00000001400153c0 f i Hunk.obj
 0001:000143c0       ?_Insert_node@?$_Tree_val@U?$_Tree_simple_types@U?$pair@$$CBV?$basic_string@DU?$char_traits@D@std@@V?$allocator@D@2@@std@@V12@@std@@@std@@@std@@QEAAPEAU?$_Tree_node@U?$pair@$$CBV?$basic_string@DU?$char_traits@D@std@@V?$allocator@D@2@@std@@V12@@std@@PEAX@2@U?$_Tree_id@PEAU?$_Tree_node@U?$pair@$$CBV?$basic_string@DU?$char_traits@D@std@@V?$allocator@D@2@@std@@V12@@std@@PEAX@std@@@2@QEAU32@@Z 00000001400153c0 f i HtmlReport.obj
 0001:000143c0       ?_Insert_node@?$_Tree_val@U?$_Tree_simple_types@V?$basic_string@DU?$char_traits@D@std@@V?$allocator@D@2@@std@@@std@@@std@@QEAAPEAU?$_Tree_node@V?$basic_string@DU?$char_traits@D@std@@V?$allocator@D@2@@std@@PEAX@2@U?$_Tree_id@PEAU?$_Tree_node@V?$basic_string@DU?$char_traits@D@std@@V?$allocator@D@2@@std@@PEAX@std@@@2@QEAU32@@Z 00000001400153c0 f i Crinkler.obj
 0001:000143c0       ?_Insert_node@?$_Tree_val@U?$_Tree_simple_types@VExport@@@std@@@std@@QEAAPEAU?$_Tree_node@VExport@@PEAX@2@U?$_Tree_id@PEAU?$_Tree_node@VExport@@PEAX@std@@@2@QEAU32@@Z 00000001400153c0 f i Crinkler.obj
 0001:00014620       ?_On_replacement_field@?$_Format_handler@D@std@@QEAAX_KPEBD@Z 0000000140015620 f i Crinkler.obj
 0001:000146d0       ?_On_text@?$_Format_handler@D@std@@QEAAXPEBD0@Z 00000001400156d0 f i Crinkler.obj
 0001:00014760       ?_Receive_range@?$_Worker_proxy@K@Concurrency@@QEAA_NPEAV?$_Range@K@2@@Z 0000000140015760 f i Crinkler.obj
 0001:00014920       ?_SpinOnce@?$_SpinWait@$00@details@Concurrency@@QEAA_NXZ 0000000140015920 f i Crinkler.obj
 0001:00014b10       ?_Throw_bad_array_new_length@std@@YAXXZ 0000000140015b10 f i Crinkler.obj
 0001:00014b10       ?__scrt_throw_std_bad_array_new_length@@YAXXZ 0000000140015b10 f i LIBCMT:throw_bad_alloc.obj
 0001:00014b30       ?_Throw_bad_cast@std@@YAXXZ 0000000140015b30 f i Crinkler.obj
 0001:00014b50       ?_Throw_format_error@std@@YAXPEBD@Z 0000000140015b50 f i Crinkler.obj
 0001:00014b80       ?_Throw_tree_length_error@std@@YAXXZ 0000000140015b80 f i Crinkler.obj
 0001:00014ba0       ??1?$vector@DV?$allocator@D@std@@@std@@QEAA@XZ 0000000140015ba0 f i ImportHandler.obj
 0001:00014ba0       ?_Tidy@?$vector@EV?$allocator@E@std@@@std@@AEAAXXZ 0000000140015ba0 f i Crinkler.obj
 0001:00014c10       ?_Tidy@?$vector@HV?$allocator@H@std@@@std@@AEAAXXZ 0000000140015c10 f i Crinkler.obj
 0001:00014c10       ?_Tidy@?$vector@IV?$allocator@I@std@@@std@@AEAAXXZ 0000000140015c10 f i Crinkler.obj
 0001:00014c80       ?_Tidy@?$vector@UHashBits@@V?$allocator@UHashBits@@@std@@@std@@AEAAXXZ 0000000140015c80 f i Crinkler.obj
 0001:00014d50       ??1?$basic_string@DU?$char_traits@D@std@@V?$allocator@D@2@@std@@QEAA@XZ 0000000140015d50 f i Export.obj
 0001:00014d50       ?_Tidy_deallocate@?$basic_string@DU?$char_traits@D@std@@V?$allocator@D@2@@std@@AEAAXXZ 0000000140015d50 f i Crinkler.obj
 0001:00014dd0       ?_Xlen_string@std@@YAXXZ   0000000140015dd0 f i Crinkler.obj
 0001:00014df0       ?_Xlength@?$vector@DV?$allocator@D@std@@@std@@CAXXZ 0000000140015df0 f i Crinkler.obj
 0001:00014df0       ?_Xlength@?$vector@EV?$allocator@E@std@@@std@@CAXXZ 0000000140015df0 f i Crinkler.obj
 0001:00014df0       ?_Xlength@?$vector@HV?$allocator@H@std@@@std@@CAXXZ 0000000140015df0 f i Crinkler.obj
 0001:00014df0       ?_Xlength@?$vector@IV?$allocator@I@std@@@std@@CAXXZ 0000000140015df0 f i ImportHandler.obj
 0001:00014df0       ?_Xlength@?$vector@PEAUCompressionReportRecord@@V?$allocator@PEAUCompressionReportRecord@@@std@@@std@@CAXXZ 0000000140015df0 f i Hunk.obj
 0001:00014df0       ?_Xlength@?$vector@PEAVCmdParam@@V?$allocator@PEAVCmdParam@@@std@@@std@@CAXXZ 0000000140015df0 f i CmdLineInterface.obj
 0001:00014df0       ?_Xlength@?$vector@PEAVHunk@@V?$allocator@PEAVHunk@@@std@@@std@@CAXXZ 0000000140015df0 f i Crinkler.obj
 0001:00014df0       ?_Xlength@?$vector@PEAVHunkLoader@@V?$allocator@PEAVHunkLoader@@@std@@@std@@CAXXZ 0000000140015df0 f i MultiLoader.obj
 0001:00014df0       ?_Xlength@?$vector@PEAVModelList4k@@V?$allocator@PEAVModelList4k@@@std@@@std@@CAXXZ 0000000140015df0 f i Crinkler.obj
 0001:00014df0       ?_Xlength@?$vector@PEAVPart@@V?$allocator@PEAVPart@@@std@@@std@@CAXXZ 0000000140015df0 f i PartList.obj
 0001:00014df0       ?_Xlength@?$vector@PEAVProgressBar@@V?$allocator@PEAVProgressBar@@@std@@@std@@CAXXZ 0000000140015df0 f i CompositeProgressBar.obj
 0001:00014df0       ?_Xlength@?$vector@PEAVSymbol@@V?$allocator@PEAVSymbol@@@std@@@std@@CAXXZ 0000000140015df0 f i Crinkler.obj
 0001:00014df0       ?_Xlength@?$vector@PEBDV?$allocator@PEBD@std@@@std@@CAXXZ 0000000140015df0 f i CoffLibraryLoader.obj
 0001:00014df0       ?_Xlength@?$vector@U?$pair@PEADH@std@@V?$allocator@U?$pair@PEADH@std@@@2@@std@@CAXXZ 0000000140015df0 f i Export.obj
 0001:00014df0       ?_Xlength@?$vector@U?$pair@V?$basic_string@DU?$char_traits@D@std@@V?$allocator@D@2@@std@@V12@@std@@V?$allocator@U?$pair@V?$basic_string@DU?$char_traits@D@std@@V?$allocator@D@2@@std@@V12@@std@@@2@@std@@CAXXZ 0000000140015df0 f i CmdParamMultiAssign.obj
 0001:00014df0       ?_Xlength@?$vector@UHashBits@@V?$allocator@UHashBits@@@std@@@std@@CAXXZ 0000000140015df0 f i Crinkler.obj
 0001:00014df0       ?_Xlength@?$vector@URelocation@@V?$allocator@URelocation@@@std@@@std@@CAXXZ 0000000140015df0 f i Hunk.obj
 0001:00014df0       ?_Xlength@?$vector@V?$basic_string@DU?$char_traits@D@std@@V?$allocator@D@2@@std@@V?$allocator@V?$basic_string@DU?$char_traits@D@std@@V?$allocator@D@2@@std@@@2@@std@@CAXXZ 0000000140015df0 f i ImportHandler.obj
 0001:00014df0       ?_Xlength@?$vector@V?$vector@PEAVHunk@@V?$allocator@PEAVHunk@@@std@@@std@@V?$allocator@V?$vector@PEAVHunk@@V?$allocator@PEAVHunk@@@std@@@std@@@2@@std@@CAXXZ 0000000140015df0 f i Reuse.obj
 0001:00014df0       ?_Xlength@?$vector@VReusePart@@V?$allocator@VReusePart@@@std@@@std@@CAXXZ 0000000140015df0 f i Reuse.obj
 0001:00014e10       ?__append_d_digits@std@@YAXIIQEAD@Z 0000000140015e10 f i Crinkler.obj
 0001:00014f20       ?__d2d@std@@YA?AU__floating_decimal_64@1@_KI@Z 0000000140015f20 f i Crinkler.obj
 0001:000154c0       ?__d2exp_buffered_n@std@@YA?AUto_chars_result@1@PEADQEADNI@Z 00000001400164c0 f i Crinkler.obj
 0001:00015db0       ?__decimalLength9@std@@YAII@Z 0000000140016db0 f i Crinkler.obj
 0001:00015e20       ?__f2d@std@@YA?AU__floating_decimal_32@1@II@Z 0000000140016e20 f i Crinkler.obj
 0001:00016370       ?__mulShift_mod1e9@std@@YAI_KQEB_KH@Z 0000000140017370 f i Crinkler.obj
 0001:00016440       ?__multipleOfPowerOf5@std@@YA_NII@Z 0000000140017440 f i Crinkler.obj
 0001:00016480       ?__multipleOfPowerOf5@std@@YA_N_KI@Z 0000000140017480 f i Crinkler.obj
 0001:000164e0       ?append@?$basic_string@DU?$char_traits@D@std@@V?$allocator@D@2@@std@@QEAAAEAV12@QEBD_K@Z 00000001400174e0 f i Crinkler.obj
 0001:00016570       ?assign@?$basic_string@DU?$char_traits@D@std@@V?$allocator@D@2@@std@@QEAAAEAV12@QEBD_K@Z 0000000140017570 f i Crinkler.obj
 0001:000166d0       ?do_decimal_point@?$numpunct@D@std@@MEBADXZ 00000001400176d0 f i Crinkler.obj
 0001:000166e0       ?do_falsename@?$numpunct@D@std@@MEBA?AV?$basic_string@DU?$char_traits@D@std@@V?$allocator@D@2@@2@XZ 00000001400176e0 f i Crinkler.obj
 0001:00016730       ?do_grouping@?$numpunct@D@std@@MEBA?AV?$basic_string@DU?$char_traits@D@std@@V?$allocator@D@2@@2@XZ 0000000140017730 f i Crinkler.obj
 0001:00016780       ?do_thousands_sep@?$numpunct@D@std@@MEBADXZ 0000000140017780 f i Crinkler.obj
 0001:00016790       ?do_truename@?$numpunct@D@std@@MEBA?AV?$basic_string@DU?$char_traits@D@std@@V?$allocator@D@2@@2@XZ 0000000140017790 f i Crinkler.obj
 0001:000167e0       ?push_back@?$vector@HV?$allocator@H@std@@@std@@QEAAX$$QEAH@Z 00000001400177e0 f i Crinkler.obj
 0001:000167e0       ?push_back@?$vector@HV?$allocator@H@std@@@std@@QEAAXAEBH@Z 00000001400177e0 f i Crinkler.obj
 0001:00016920       ?what@exception@std@@UEBAPEBDXZ 0000000140017920 f i Crinkler.obj
 0001:00016940       __local_stdio_printf_options 0000000140017940 f i Crinkler.obj
 0001:00016950       printf                     0000000140017950 f i Crinkler.obj
 0001:000169a0       sprintf                    00000001400179a0 f i Crinkler.obj
 0001:00016ea0       ??$_Buffered_rotate_unchecked@PEAU?$pair@PEADH@std@@@std@@YAPEAU?$pair@PEADH@0@QEAU10@00_J101@Z 0000000140017ea0 f i Export.obj
 0001:00017170       ??$_Copy_memmove@PEAU?$pair@PEADH@std@@PEAU12@@std@@YAPEAU?$pair@PEADH@0@PEAU10@00@Z 0000000140018170 f i Export.obj
 0001:00017190       ??$_Erase_tree@V?$allocator@U?$_Tree_node@U?$pair@$$CBHH@std@@PEAX@std@@@std@@@?$_Tree_val@U?$_Tree_simple_types@U?$pair@$$CBHH@std@@@std@@@std@@QEAAXAEAV?$allocator@U?$_Tree_node@U?$pair@$$CBHH@std@@PEAX@std@@@1@PEAU?$_Tree_node@U?$pair@$$CBHH@std@@PEAX@1@@Z 0000000140018190 f i Export.obj
 0001:000171f0       ??$_Get_temporary_buffer@U?$pair@PEADH@std@@@std@@YA?AU?$pair@PEAU?$pair@PEADH@std@@_J@0@_J@Z 00000001400181f0 f i Export.obj
 0001:00017770       ??$_Move_unchecked@PEAU?$pair@PEADH@std@@PEAU12@@std@@YAPEAU?$pair@PEADH@0@PEAU10@00@Z 0000000140018770 f i Export.obj
 0001:000177a0       ??$_Return_temporary_buffer@U?$pair@PEADH@std@@@std@@YAXQEAU?$pair@PEADH@0@@Z 00000001400187a0 f i Export.obj
 0001:000177a0       ??3@YAXPEAX_K@Z            00000001400187a0 f i LIBCMT:delete_scalar_size.obj
 0001:000177a0       ??_V@YAXPEAX@Z             00000001400187a0 f i LIBCMT:delete_array.obj
 0001:000177b0       ??$_Rotate_one_left@PEAU?$pair@PEADH@std@@@std@@YAXPEAU?$pair@PEADH@0@00@Z 00000001400187b0 f i Export.obj
 0001:00017810       ??$_Rotate_one_right@PEAU?$pair@PEADH@std@@@std@@YAXPEAU?$pair@PEADH@0@00@Z 0000000140018810 f i Export.obj
 0001:00017a60       ??$_Uninitialized_move_unchecked@PEAU?$pair@PEADH@std@@PEAU12@@std@@YAPEAU?$pair@PEADH@0@PEAU10@QEAU10@0@Z 0000000140018a60 f i Export.obj
 0001:00017b70       ??0?$basic_string@DU?$char_traits@D@std@@V?$allocator@D@2@@std@@QEAA@QEBD@Z 0000000140018b70 f i Export.obj
 0001:00017bc0       ??0Export@@QEAA@V?$basic_string@DU?$char_traits@D@std@@V?$allocator@D@2@@std@@0@Z 0000000140018bc0 f   Export.obj
 0001:00017c20       ??0Export@@QEAA@V?$basic_string@DU?$char_traits@D@std@@V?$allocator@D@2@@std@@H@Z 0000000140018c20 f   Export.obj
 0001:00017c80       ?CreateExportTable@@YAPEAVHunk@@AEBV?$set@VExport@@U?$less@VExport@@@std@@V?$allocator@VExport@@@3@@std@@@Z 0000000140018c80 f   Export.obj
 0001:00018e60       ?ParseExport@@YA?AVExport@@AEBV?$basic_string@DU?$char_traits@D@std@@V?$allocator@D@2@@std@@0@Z 0000000140019e60 f   Export.obj
 0001:00018f60       ?PrintExports@@YAXAEBV?$set@VExport@@U?$less@VExport@@@std@@V?$allocator@VExport@@@3@@std@@@Z 0000000140019f60 f   Export.obj
 0001:000190a0       ?StripExports@@YA?AV?$set@VExport@@U?$less@VExport@@@std@@V?$allocator@VExport@@@3@@std@@PEAVHunk@@H@Z 000000014001a0a0 f   Export.obj
 0001:00019810       ?FixHeader04@@YAXPEAD@Z    000000014001a810 f   Fix.obj
 0001:00019a00       ?FixHeader10@@YAXPEAD@Z    000000014001aa00 f   Fix.obj
 0001:00019a40       ??$_Construct@$00PEB_W@?$basic_string@_WU?$char_traits@_W@std@@V?$allocator@_W@2@@std@@AEAAXQEB_W_K@Z 000000014001aa40 f i HtmlReport.obj
 0001:00019b50       ??$_Convert_Source_to_wide@PEBDU_Normal_conversion@filesystem@std@@@filesystem@std@@YA?AV?$basic_string@_WU?$char_traits@_W@std@@V?$allocator@_W@2@@1@AEBQEBDU_Normal_conversion@01@@Z 000000014001ab50 f i HtmlReport.obj
 0001:00019ba0       ??$_Convert_Source_to_wide@V?$basic_string_view@_WU?$char_traits@_W@std@@@std@@U_Normal_conversion@filesystem@2@@filesystem@std@@YA?AV?$basic_string@_WU?$char_traits@_W@std@@V?$allocator@_W@2@@1@AEBV?$basic_string_view@_WU?$char_traits@_W@std@@@1@U_Normal_conversion@01@@Z 000000014001aba0 f i HtmlReport.obj
 0001:00019bf0       ??$_Convert_stringoid_to_wide@U_Normal_conversion@filesystem@std@@@filesystem@std@@YA?AV?$basic_string@_WU?$char_traits@_W@std@@V?$allocator@_W@2@@1@V?$basic_string_view@DU?$char_traits@D@std@@@1@U_Normal_conversion@01@@Z 000000014001abf0 f i HtmlReport.obj
 0001:00019ce0       ??$_Convert_stringoid_to_wide@U_Normal_conversion@filesystem@std@@@filesystem@std@@YA?AV?$basic_string@_WU?$char_traits@_W@std@@V?$allocator@_W@2@@1@V?$basic_string_view@_WU?$char_traits@_W@std@@@1@U_Normal_conversion@01@@Z 000000014001ace0 f i HtmlReport.obj
 0001:00019d10       ??$_Convert_wide_to@U?$char_traits@D@std@@V?$allocator@D@2@D@filesystem@std@@YA?AV?$basic_string@DU?$char_traits@D@std@@V?$allocator@D@2@@1@V?$basic_string_view@_WU?$char_traits@_W@std@@@1@AEBV?$allocator@D@1@@Z 000000014001ad10 f i HtmlReport.obj
 0001:00019d60       ??$_Convert_wide_to_narrow@U?$char_traits@D@std@@V?$allocator@D@2@@std@@YA?AV?$basic_string@DU?$char_traits@D@std@@V?$allocator@D@2@@0@W4__std_code_page@@V?$basic_string_view@_WU?$char_traits@_W@std@@@0@AEBV?$allocator@D@0@@Z 000000014001ad60 f i HtmlReport.obj
 0001:00019e50       ??$_Copy_nodes@$0A@@?$_Tree@V?$_Tmap_traits@HPEAVSymbol@@U?$less@H@std@@V?$allocator@U?$pair@$$CBHPEAVSymbol@@@std@@@3@$0A@@std@@@std@@IEAAPEAU?$_Tree_node@U?$pair@$$CBHPEAVSymbol@@@std@@PEAX@1@PEAU21@0@Z 000000014001ae50 f i HtmlReport.obj
 0001:00019ef0       ??$_Erase_head@V?$allocator@U?$_Tree_node@U?$pair@$$CBHPEAVSymbol@@@std@@PEAX@std@@@std@@@?$_Tree_val@U?$_Tree_simple_types@U?$pair@$$CBHPEAVSymbol@@@std@@@std@@@std@@QEAAXAEAV?$allocator@U?$_Tree_node@U?$pair@$$CBHPEAVSymbol@@@std@@PEAX@std@@@1@@Z 000000014001aef0 f i HtmlReport.obj
 0001:00019f70       ??$_Erase_tree@V?$allocator@U?$_Tree_node@U?$pair@$$CBHPEAVSymbol@@@std@@PEAX@std@@@std@@@?$_Tree_val@U?$_Tree_simple_types@U?$pair@$$CBHPEAVSymbol@@@std@@@std@@@std@@QEAAXAEAV?$allocator@U?$_Tree_node@U?$pair@$$CBHPEAVSymbol@@@std@@PEAX@std@@@1@PEAU?$_Tree_node@U?$pair@$$CBHPEAVSymbol@@@std@@PEAX@1@@Z 000000014001af70 f i HtmlReport.obj
 0001:00019fd0       ??$_Find_vectorized@$$CB_W_W@std@@YAPEB_WQEB_W0_W@Z 000000014001afd0 f i HtmlReport.obj
 0001:00019fe0       ??$_Format_to_it@DV?$back_insert_iterator@V?$basic_string@DU?$char_traits@D@std@@V?$allocator@D@2@@std@@@std@@V?$basic_format_context@V?$back_insert_iterator@V?$_Fmt_buffer@D@std@@@std@@D@2@@std@@YA?AV?$back_insert_iterator@V?$basic_string@DU?$char_traits@D@std@@V?$allocator@D@2@@std@@@0@V10@V?$basic_string_view@DU?$char_traits@D@std@@@0@V?$basic_format_args@V?$basic_format_context@V?$back_insert_iterator@V?$_Fmt_buffer@D@std@@@std@@D@std@@@0@V_Lazy_locale@0@@Z 000000014001afe0 f i HtmlReport.obj
 0001:0001a110       ??$_Immortalize_memcpy_image@V_Generic_error_category@std@@@std@@YAAEBV_Generic_error_category@0@XZ 000000014001b110 f i HtmlReport.obj
 0001:0001a110       ?generic_category@std@@YAAEBVerror_category@1@XZ 000000014001b110 f i libcpmt:thread0.obj
 0001:0001a120       ??$_Immortalize_memcpy_image@V_System_error_category@std@@@std@@YAAEBV_System_error_category@0@XZ 000000014001b120 f i HtmlReport.obj
 0001:0001a130       ??$_Reallocate_grow_by@V<lambda_1>@?1??append@?$basic_string@DU?$char_traits@D@std@@V?$allocator@D@2@@std@@QEAAAEAV34@_KD@Z@_KD@?$basic_string@DU?$char_traits@D@std@@V?$allocator@D@2@@std@@AEAAAEAV01@_KV<lambda_1>@?1??append@01@QEAAAEAV01@0D@Z@_KD@Z 000000014001b130 f i HtmlReport.obj
 0001:0001a2c0       ??$_Reallocate_grow_by@V<lambda_1>@?1??append@?$basic_string@_WU?$char_traits@_W@std@@V?$allocator@_W@2@@std@@QEAAAEAV34@_K_W@Z@_K_W@?$basic_string@_WU?$char_traits@_W@std@@V?$allocator@_W@2@@std@@AEAAAEAV01@_KV<lambda_1>@?1??append@01@QEAAAEAV01@0_W@Z@_K_W@Z 000000014001b2c0 f i HtmlReport.obj
 0001:0001a420       ??$_Reallocate_grow_by@V<lambda_1>@?1??insert@?$basic_string@DU?$char_traits@D@std@@V?$allocator@D@2@@std@@QEAAAEAV34@_KQEBD0@Z@_KPEBD_K@?$basic_string@DU?$char_traits@D@std@@V?$allocator@D@2@@std@@AEAAAEAV01@_KV<lambda_1>@?1??insert@01@QEAAAEAV01@0QEBD0@Z@_KPEBD3@Z 000000014001b420 f i HtmlReport.obj
 0001:0001a5e0       ??$_Reallocate_grow_by@V<lambda_1>@?1??reserve@?$basic_string@DU?$char_traits@D@std@@V?$allocator@D@2@@std@@QEAAX_K@Z@$$V@?$basic_string@DU?$char_traits@D@std@@V?$allocator@D@2@@std@@AEAAAEAV01@_KV<lambda_1>@?1??reserve@01@QEAAX0@Z@@Z 000000014001b5e0 f i HtmlReport.obj
 0001:0001a730       ??$_Stringoid_from_Source@PEBD@filesystem@std@@YA?A_PAEBQEBD@Z 000000014001b730 f i HtmlReport.obj
 0001:0001a760       ??$_Stringoid_from_Source@_WU?$char_traits@_W@std@@@filesystem@std@@YA?A_PAEBV?$basic_string_view@_WU?$char_traits@_W@std@@@1@@Z 000000014001b760 f i HtmlReport.obj
 0001:0001a780       ??$format@AEADH@std@@YA?AV?$basic_string@DU?$char_traits@D@std@@V?$allocator@D@2@@0@U?$basic_format_string@DAEADH@0@AEAD$$QEAH@Z 000000014001b780 f i HtmlReport.obj
 0001:0001a7e0       ??$format@AEAV?$basic_string@DU?$char_traits@D@std@@V?$allocator@D@2@@std@@AEAH@std@@YA?AV?$basic_string@DU?$char_traits@D@std@@V?$allocator@D@2@@0@U?$basic_format_string@DAEAV?$basic_string@DU?$char_traits@D@std@@V?$allocator@D@2@@std@@AEAH@0@AEAV10@AEAH@Z 000000014001b7e0 f i HtmlReport.obj
 0001:0001a7e0       ??$format@AEAV?$basic_string@DU?$char_traits@D@std@@V?$allocator@D@2@@std@@H@std@@YA?AV?$basic_string@DU?$char_traits@D@std@@V?$allocator@D@2@@0@U?$basic_format_string@DAEAV?$basic_string@DU?$char_traits@D@std@@V?$allocator@D@2@@std@@H@0@AEAV10@$$QEAH@Z 000000014001b7e0 f i HtmlReport.obj
 0001:0001a840       ??$format_to@V?$back_insert_iterator@V?$vector@DV?$allocator@D@std@@@std@@@std@@AEAHAEAI@std@@YA?AV?$back_insert_iterator@V?$vector@DV?$allocator@D@std@@@std@@@0@V10@U?$basic_format_string@DAEAHAEAI@0@AEAHAEAI@Z 000000014001b840 f i HtmlReport.obj
 0001:0001a8b0       ??$format_to@V?$back_insert_iterator@V?$vector@DV?$allocator@D@std@@@std@@@std@@AEAHAEAIAEAHAEAI@std@@YA?AV?$back_insert_iterator@V?$vector@DV?$allocator@D@std@@@std@@@0@V10@U?$basic_format_string@DAEAHAEAIAEAHAEAI@0@AEAHAEAI23@Z 000000014001b8b0 f i HtmlReport.obj
 0001:0001a940       ??$format_to@V?$back_insert_iterator@V?$vector@DV?$allocator@D@std@@@std@@@std@@AEAPEBDAEAPEBD@std@@YA?AV?$back_insert_iterator@V?$vector@DV?$allocator@D@std@@@std@@@0@V10@U?$basic_format_string@DAEAPEBDAEAPEBD@0@AEAPEBD2@Z 000000014001b940 f i HtmlReport.obj
 0001:0001a9b0       ??$format_to@V?$back_insert_iterator@V?$vector@DV?$allocator@D@std@@@std@@@std@@AEAPEBDAEAY0N@$$CBDPEAD@std@@YA?AV?$back_insert_iterator@V?$vector@DV?$allocator@D@std@@@std@@@0@V10@U?$basic_format_string@DAEAPEBDAEAY0N@$$CBDPEAD@0@AEAPEBDAEAY0N@$$CBD$$QEAPEAD@Z 000000014001b9b0 f i HtmlReport.obj
 0001:0001aa30       ??$format_to@V?$back_insert_iterator@V?$vector@DV?$allocator@D@std@@@std@@@std@@HAEAHAEAE@std@@YA?AV?$back_insert_iterator@V?$vector@DV?$allocator@D@std@@@std@@@0@V10@U?$basic_format_string@DHAEAHAEAE@0@$$QEAHAEAHAEAE@Z 000000014001ba30 f i HtmlReport.obj
 0001:0001aab0       ??$format_to@V?$back_insert_iterator@V?$vector@DV?$allocator@D@std@@@std@@@std@@HAEAHH@std@@YA?AV?$back_insert_iterator@V?$vector@DV?$allocator@D@std@@@std@@@0@V10@U?$basic_format_string@DHAEAHH@0@$$QEAHAEAH2@Z 000000014001bab0 f i HtmlReport.obj
 0001:0001ab30       ??$format_to@V?$back_insert_iterator@V?$vector@DV?$allocator@D@std@@@std@@@std@@HAEBHAEAV?$basic_string@DU?$char_traits@D@std@@V?$allocator@D@2@@2@@std@@YA?AV?$back_insert_iterator@V?$vector@DV?$allocator@D@std@@@std@@@0@V10@U?$basic_format_string@DHAEBHAEAV?$basic_string@DU?$char_traits@D@std@@V?$allocator@D@2@@std@@@0@$$QEAHAEBHAEAV?$basic_string@DU?$char_traits@D@std@@V?$allocator@D@2@@0@@Z 000000014001bb30 f i HtmlReport.obj
 0001:0001abb0       ??$format_to@V?$back_insert_iterator@V?$vector@DV?$allocator@D@std@@@std@@@std@@HPEAD@std@@YA?AV?$back_insert_iterator@V?$vector@DV?$allocator@D@std@@@std@@@0@V10@U?$basic_format_string@DHPEAD@0@$$QEAH$$QEAPEAD@Z 000000014001bbb0 f i HtmlReport.obj
 0001:0001ac20       ??$format_to@V?$back_insert_iterator@V?$vector@DV?$allocator@D@std@@@std@@@std@@I@std@@YA?AV?$back_insert_iterator@V?$vector@DV?$allocator@D@std@@@std@@@0@V10@U?$basic_format_string@DI@0@$$QEAI@Z 000000014001bc20 f i HtmlReport.obj
 0001:0001ac90       ??$format_to@V?$back_insert_iterator@V?$vector@DV?$allocator@D@std@@@std@@@std@@MM@std@@YA?AV?$back_insert_iterator@V?$vector@DV?$allocator@D@std@@@std@@@0@V10@U?$basic_format_string@DMM@0@$$QEAM2@Z 000000014001bc90 f i HtmlReport.obj
 0001:0001ad00       ??$format_to@V?$back_insert_iterator@V?$vector@DV?$allocator@D@std@@@std@@@std@@PEBDAEBH@std@@YA?AV?$back_insert_iterator@V?$vector@DV?$allocator@D@std@@@std@@@0@V10@U?$basic_format_string@DPEBDAEBH@0@$$QEAPEBDAEBH@Z 000000014001bd00 f i HtmlReport.obj
 0001:0001ad70       ??$format_to@V?$back_insert_iterator@V?$vector@DV?$allocator@D@std@@@std@@@std@@PEBDHAEAV?$basic_string@DU?$char_traits@D@std@@V?$allocator@D@2@@2@@std@@YA?AV?$back_insert_iterator@V?$vector@DV?$allocator@D@std@@@std@@@0@V10@U?$basic_format_string@DPEBDHAEAV?$basic_string@DU?$char_traits@D@std@@V?$allocator@D@2@@std@@@0@$$QEAPEBD$$QEAHAEAV?$basic_string@DU?$char_traits@D@std@@V?$allocator@D@2@@0@@Z 000000014001bd70 f i HtmlReport.obj
 0001:0001adf0       ??$make_format_args@V?$basic_format_context@V?$back_insert_iterator@V?$_Fmt_buffer@D@std@@@std@@D@std@@DH@std@@YA?A_PAEADAEAH@Z 000000014001bdf0 f i HtmlReport.obj
 0001:0001ae40       ??$make_format_args@V?$basic_format_context@V?$back_insert_iterator@V?$_Fmt_buffer@D@std@@@std@@D@std@@H$$CBHV?$basic_string@DU?$char_traits@D@std@@V?$allocator@D@2@@2@@std@@YA?A_PAEAHAEBHAEAV?$basic_string@DU?$char_traits@D@std@@V?$allocator@D@2@@0@@Z 000000014001be40 f i HtmlReport.obj
 0001:0001aec0       ??$make_format_args@V?$basic_format_context@V?$back_insert_iterator@V?$_Fmt_buffer@D@std@@@std@@D@std@@HHE@std@@YA?A_PAEAH0AEAE@Z 000000014001bec0 f i HtmlReport.obj
 0001:0001af30       ??$make_format_args@V?$basic_format_context@V?$back_insert_iterator@V?$_Fmt_buffer@D@std@@@std@@D@std@@HHH@std@@YA?A_PAEAH00@Z 000000014001bf30 f i HtmlReport.obj
 0001:0001afa0       ??$make_format_args@V?$basic_format_context@V?$back_insert_iterator@V?$_Fmt_buffer@D@std@@@std@@D@std@@HI@std@@YA?A_PAEAHAEAI@Z 000000014001bfa0 f i HtmlReport.obj
 0001:0001aff0       ??$make_format_args@V?$basic_format_context@V?$back_insert_iterator@V?$_Fmt_buffer@D@std@@@std@@D@std@@HIHI@std@@YA?A_PAEAHAEAI01@Z 000000014001bff0 f i HtmlReport.obj
 0001:0001b090       ??$make_format_args@V?$basic_format_context@V?$back_insert_iterator@V?$_Fmt_buffer@D@std@@@std@@D@std@@HPEAD@std@@YA?A_PAEAHAEAPEAD@Z 000000014001c090 f i HtmlReport.obj
 0001:0001b0e0       ??$make_format_args@V?$basic_format_context@V?$back_insert_iterator@V?$_Fmt_buffer@D@std@@@std@@D@std@@I@std@@YA?A_PAEAI@Z 000000014001c0e0 f i HtmlReport.obj
 0001:0001b100       ??$make_format_args@V?$basic_format_context@V?$back_insert_iterator@V?$_Fmt_buffer@D@std@@@std@@D@std@@MM@std@@YA?A_PAEAM0@Z 000000014001c100 f i HtmlReport.obj
 0001:0001b160       ??$make_format_args@V?$basic_format_context@V?$back_insert_iterator@V?$_Fmt_buffer@D@std@@@std@@D@std@@PEBD$$BY0N@$$CBDPEAD@std@@YA?A_PAEAPEBDAEAY0N@$$CBDAEAPEAD@Z 000000014001c160 f i HtmlReport.obj
 0001:0001b1c0       ??$make_format_args@V?$basic_format_context@V?$back_insert_iterator@V?$_Fmt_buffer@D@std@@@std@@D@std@@PEBD$$CBH@std@@YA?A_PAEAPEBDAEBH@Z 000000014001c1c0 f i HtmlReport.obj
 0001:0001b220       ??$make_format_args@V?$basic_format_context@V?$back_insert_iterator@V?$_Fmt_buffer@D@std@@@std@@D@std@@PEBDHV?$basic_string@DU?$char_traits@D@std@@V?$allocator@D@2@@2@@std@@YA?A_PAEAPEBDAEAHAEAV?$basic_string@DU?$char_traits@D@std@@V?$allocator@D@2@@0@@Z 000000014001c220 f i HtmlReport.obj
 0001:0001b2b0       ??$make_format_args@V?$basic_format_context@V?$back_insert_iterator@V?$_Fmt_buffer@D@std@@@std@@D@std@@PEBDPEBD@std@@YA?A_PAEAPEBD0@Z 000000014001c2b0 f i HtmlReport.obj
 0001:0001b300       ??$vformat@$0A@@std@@YA?AV?$basic_string@DU?$char_traits@D@std@@V?$allocator@D@2@@0@V?$basic_string_view@DU?$char_traits@D@std@@@0@V?$basic_format_args@V?$basic_format_context@V?$back_insert_iterator@V?$_Fmt_buffer@D@std@@@std@@D@std@@@0@@Z 000000014001c300 f i HtmlReport.obj
 0001:0001b3f0       ??$vformat_to@V?$back_insert_iterator@V?$basic_string@DU?$char_traits@D@std@@V?$allocator@D@2@@std@@@std@@@std@@YA?AV?$back_insert_iterator@V?$basic_string@DU?$char_traits@D@std@@V?$allocator@D@2@@std@@@0@V10@V?$basic_string_view@DU?$char_traits@D@std@@@0@V?$basic_format_args@V?$basic_format_context@V?$back_insert_iterator@V?$_Fmt_buffer@D@std@@@std@@D@std@@@0@@Z 000000014001c3f0 f i HtmlReport.obj
 0001:0001b430       ??0?$basic_string@DU?$char_traits@D@std@@V?$allocator@D@2@@std@@QEAA@U_String_constructor_concat_tag@1@AEAV01@1@Z 000000014001c430 f i HtmlReport.obj
 0001:0001b600       ??0_System_error@std@@QEAA@AEBV01@@Z 000000014001c600 f i HtmlReport.obj
 0001:0001b650       ??0system_error@std@@QEAA@AEBV01@@Z 000000014001c650 f i HtmlReport.obj
 0001:0001b6b0       ??0system_error@std@@QEAA@Verror_code@1@@Z 000000014001c6b0 f i HtmlReport.obj
 0001:0001b790       ??4?$basic_string@DU?$char_traits@D@std@@V?$allocator@D@2@@std@@QEAAAEAV01@$$QEAV01@@Z 000000014001c790 f i HtmlReport.obj
 0001:0001b830       ??A?$map@V?$basic_string@DU?$char_traits@D@std@@V?$allocator@D@2@@std@@V12@U?$less@V?$basic_string@DU?$char_traits@D@std@@V?$allocator@D@2@@std@@@2@V?$allocator@U?$pair@$$CBV?$basic_string@DU?$char_traits@D@std@@V?$allocator@D@2@@std@@V12@@std@@@2@@std@@QEAAAEAV?$basic_string@DU?$char_traits@D@std@@V?$allocator@D@2@@1@AEBV21@@Z 000000014001c830 f i HtmlReport.obj
 0001:0001b960       ??_E_Generic_error_category@std@@UEAAPEAXI@Z 000000014001c960 f i HtmlReport.obj
 0001:0001b960       ??_E_System_error_category@std@@UEAAPEAXI@Z 000000014001c960 f i HtmlReport.obj
 0001:0001b960       ??_G_Generic_error_category@std@@UEAAPEAXI@Z 000000014001c960 f i HtmlReport.obj
 0001:0001b960       ??_G_System_error_category@std@@UEAAPEAXI@Z 000000014001c960 f i HtmlReport.obj
 0001:0001b990       ??_E_System_error@std@@UEAAPEAXI@Z 000000014001c990 f i HtmlReport.obj
 0001:0001b990       ??_Esystem_error@std@@UEAAPEAXI@Z 000000014001c990 f i HtmlReport.obj
 0001:0001b990       ??_G_System_error@std@@UEAAPEAXI@Z 000000014001c990 f i HtmlReport.obj
 0001:0001b990       ??_Gsystem_error@std@@UEAAPEAXI@Z 000000014001c990 f i HtmlReport.obj
 0001:0001cb70       ?HtmlReport@@YAXPEAUCompressionReportRecord@@PEBDAEAVHunk@@2PEBH1HPEAVCrinkler@@@Z 000000014001db70 f   HtmlReport.obj
 0001:0001f080       ?_Change_array@?$vector@DV?$allocator@D@std@@@std@@AEAAXQEAD_K1@Z 0000000140020080 f i HtmlReport.obj
 0001:0001f080       ?_Change_array@?$vector@EV?$allocator@E@std@@@std@@AEAAXQEAE_K1@Z 0000000140020080 f i Hunk.obj
 0001:0001f120       ?_Deallocate_for_capacity@?$basic_string@_WU?$char_traits@_W@std@@V?$allocator@_W@2@@std@@CAXAEAV?$allocator@_W@2@QEA_W_K@Z 0000000140020120 f i HtmlReport.obj
 0001:0001f180       ?_Find_root_name_end@filesystem@std@@YAPEB_WQEB_W0@Z 0000000140020180 f i HtmlReport.obj
 0001:0001f290       ?_Grow@?$_Fmt_iterator_buffer@V?$back_insert_iterator@V?$basic_string@DU?$char_traits@D@std@@V?$allocator@D@2@@std@@@std@@DU_Fmt_buffer_traits@2@@std@@EEAAX_K@Z 0000000140020290 f i HtmlReport.obj
 0001:0001f300       ?_Make_ec@std@@YA?AVerror_code@1@W4__std_win_error@@@Z 0000000140020300 f i HtmlReport.obj
 0001:0001f320       ?_Throw_system_error@std@@YAXW4errc@1@@Z 0000000140020320 f i HtmlReport.obj
 0001:0001f360       ?_Throw_system_error_from_std_win_error@std@@YAXW4__std_win_error@@@Z 0000000140020360 f i HtmlReport.obj
 0001:0001f3a0       ?_Tidy_deallocate@?$basic_string@_WU?$char_traits@_W@std@@V?$allocator@_W@2@@std@@AEAAXXZ 00000001400203a0 f i HtmlReport.obj
 0001:0001f420       ?_Xran@?$_String_val@U?$_Simple_types@D@std@@@std@@SAXXZ 0000000140020420 f i HtmlReport.obj
 0001:0001f440       ?deallocate@?$allocator@H@std@@QEAAXQEAH_K@Z 0000000140020440 f i HtmlReport.obj
 0001:0001f440       ?deallocate@?$allocator@I@std@@QEAAXQEAI_K@Z 0000000140020440 f i ImportHandler.obj
 0001:0001f4a0       ?default_error_condition@_System_error_category@std@@UEBA?AVerror_condition@2@H@Z 00000001400204a0 f i HtmlReport.obj
 0001:0001f500       ?default_error_condition@error_category@std@@UEBA?AVerror_condition@2@H@Z 0000000140020500 f i HtmlReport.obj
 0001:0001f510       ?equivalent@error_category@std@@UEBA_NAEBVerror_code@2@H@Z 0000000140020510 f i HtmlReport.obj
 0001:0001f530       ?equivalent@error_category@std@@UEBA_NHAEBVerror_condition@2@@Z 0000000140020530 f i HtmlReport.obj
 0001:0001f5d0       ?insert@?$basic_string@DU?$char_traits@D@std@@V?$allocator@D@2@@std@@QEAAAEAV12@_KQEBD0@Z 00000001400205d0 f i HtmlReport.obj
 0001:0001f6c0       ?make_error_code@std@@YA?AVerror_code@1@W4errc@1@@Z 00000001400206c0 f i HtmlReport.obj
 0001:0001f6e0       ?message@_Generic_error_category@std@@UEBA?AV?$basic_string@DU?$char_traits@D@std@@V?$allocator@D@2@@2@H@Z 00000001400206e0 f i HtmlReport.obj
 0001:0001f730       ?message@_System_error_category@std@@UEBA?AV?$basic_string@DU?$char_traits@D@std@@V?$allocator@D@2@@2@H@Z 0000000140020730 f i HtmlReport.obj
 0001:0001f7f0       ?name@_Generic_error_category@std@@UEBAPEBDXZ 00000001400207f0 f i HtmlReport.obj
 0001:0001f800       ?name@_System_error_category@std@@UEBAPEBDXZ 0000000140020800 f i HtmlReport.obj
 0001:0001f810       ?resize@?$basic_string@DU?$char_traits@D@std@@V?$allocator@D@2@@std@@QEAAX_KD@Z 0000000140020810 f i HtmlReport.obj
 0001:0001f8b0       ?resize@?$basic_string@_WU?$char_traits@_W@std@@V?$allocator@_W@2@@std@@QEAAX_K_W@Z 00000001400208b0 f i HtmlReport.obj
 0001:0001f940       __local_stdio_scanf_options 0000000140020940 f i HtmlReport.obj
 0001:0001f950       sscanf_s                   0000000140020950 f i HtmlReport.obj
 0001:0001f9b0       ??$_Emplace_reallocate@AEBURelocation@@@?$vector@URelocation@@V?$allocator@URelocation@@@std@@@std@@AEAAPEAURelocation@@QEAU2@AEBU2@@Z 00000001400209b0 f i Hunk.obj
 0001:0001fc00       ??$_Find_last_vectorized@$$CBDD@std@@YAPEBDQEBD0D@Z 0000000140020c00 f i Hunk.obj
 0001:0001fc10       ??$_Med3_unchecked@PEAPEAVHunk@@P6A_NPEAV1@0@Z@std@@YAXPEAPEAVHunk@@00P6A_NPEAV1@1@Z@Z 0000000140020c10 f i HeuristicHunkSorter.obj
 0001:0001fc10       ??$_Med3_unchecked@PEAPEAVHunk@@P6A_NPEBV1@0@Z@std@@YAXPEAPEAVHunk@@00P6A_NPEBV1@1@Z@Z 0000000140020c10 f i ImportHandler.obj
 0001:0001fc10       ??$_Med3_unchecked@PEAPEAVSymbol@@P6A_NPEAV1@0@Z@std@@YAXPEAPEAVSymbol@@00P6A_NPEAV1@1@Z@Z 0000000140020c10 f i Hunk.obj
 0001:0001fc90       ??$_Partition_by_median_guess_unchecked@PEAPEAVHunk@@P6A_NPEAV1@0@Z@std@@YA?AU?$pair@PEAPEAVHunk@@PEAPEAV1@@0@PEAPEAVHunk@@0P6A_NPEAV2@1@Z@Z 0000000140020c90 f i HeuristicHunkSorter.obj
 0001:0001fc90       ??$_Partition_by_median_guess_unchecked@PEAPEAVHunk@@P6A_NPEBV1@0@Z@std@@YA?AU?$pair@PEAPEAVHunk@@PEAPEAV1@@0@PEAPEAVHunk@@0P6A_NPEBV2@1@Z@Z 0000000140020c90 f i ImportHandler.obj
 0001:0001fc90       ??$_Partition_by_median_guess_unchecked@PEAPEAVSymbol@@P6A_NPEAV1@0@Z@std@@YA?AU?$pair@PEAPEAVSymbol@@PEAPEAV1@@0@PEAPEAVSymbol@@0P6A_NPEAV2@1@Z@Z 0000000140020c90 f i Hunk.obj
 0001:0001fed0       ??$_Pop_heap_hole_by_index@PEAPEAVHunk@@PEAV1@P6A_NPEAV1@0@Z@std@@YAXPEAPEAVHunk@@_J1$$QEAPEAV1@P6A_NPEAV1@3@Z@Z 0000000140020ed0 f i HeuristicHunkSorter.obj
 0001:0001fed0       ??$_Pop_heap_hole_by_index@PEAPEAVHunk@@PEAV1@P6A_NPEBV1@0@Z@std@@YAXPEAPEAVHunk@@_J1$$QEAPEAV1@P6A_NPEBV1@3@Z@Z 0000000140020ed0 f i ImportHandler.obj
 0001:0001fed0       ??$_Pop_heap_hole_by_index@PEAPEAVSymbol@@PEAV1@P6A_NPEAV1@0@Z@std@@YAXPEAPEAVSymbol@@_J1$$QEAPEAV1@P6A_NPEAV1@3@Z@Z 0000000140020ed0 f i Hunk.obj
 0001:0001ffd0       ??$_Sort_unchecked@PEAPEAVHunk@@P6A_NPEAV1@0@Z@std@@YAXPEAPEAVHunk@@0_JP6A_NPEAV1@2@Z@Z 0000000140020fd0 f i HeuristicHunkSorter.obj
 0001:0001ffd0       ??$_Sort_unchecked@PEAPEAVHunk@@P6A_NPEBV1@0@Z@std@@YAXPEAPEAVHunk@@0_JP6A_NPEBV1@2@Z@Z 0000000140020fd0 f i ImportHandler.obj
 0001:0001ffd0       ??$_Sort_unchecked@PEAPEAVSymbol@@P6A_NPEAV1@0@Z@std@@YAXPEAPEAVSymbol@@0_JP6A_NPEAV1@2@Z@Z 0000000140020fd0 f i Hunk.obj
 0001:000202a0       ??$_Uninitialized_move@PEAURelocation@@V?$allocator@URelocation@@@std@@@std@@YAPEAURelocation@@QEAU1@0PEAU1@AEAV?$allocator@URelocation@@@0@@Z 00000001400212a0 f i Hunk.obj
 0001:00020360       ??0CompressionReportRecord@@QEAA@PEBDHHH@Z 0000000140021360 f i Hunk.obj
 0001:00020400       ??0Hunk@@QEAA@AEBV0@@Z     0000000140021400 f   Hunk.obj
 0001:00020720       ??0Hunk@@QEAA@PEBD00@Z     0000000140021720 f   Hunk.obj
 0001:000208a0       ??0Hunk@@QEAA@PEBD0IHHH@Z  00000001400218a0 f   Hunk.obj
 0001:000209f0       ??1Hunk@@QEAA@XZ           00000001400219f0 f   Hunk.obj
 0001:00020b20       ??A?$map@V?$basic_string@DU?$char_traits@D@std@@V?$allocator@D@2@@std@@PEAVMemoryFile@@U?$less@V?$basic_string@DU?$char_traits@D@std@@V?$allocator@D@2@@std@@@2@V?$allocator@U?$pair@$$CBV?$basic_string@DU?$char_traits@D@std@@V?$allocator@D@2@@std@@PEAVMemoryFile@@@std@@@2@@std@@QEAAAEAPEAVMemoryFile@@AEBV?$basic_string@DU?$char_traits@D@std@@V?$allocator@D@2@@1@@Z 0000000140021b20 f i main.obj
 0001:00020b20       ??A?$map@V?$basic_string@DU?$char_traits@D@std@@V?$allocator@D@2@@std@@PEAVSymbol@@U?$less@V?$basic_string@DU?$char_traits@D@std@@V?$allocator@D@2@@std@@@2@V?$allocator@U?$pair@$$CBV?$basic_string@DU?$char_traits@D@std@@V?$allocator@D@2@@std@@PEAVSymbol@@@std@@@2@@std@@QEAAAEAPEAVSymbol@@AEBV?$basic_string@DU?$char_traits@D@std@@V?$allocator@D@2@@1@@Z 0000000140021b20 f i Hunk.obj
 0001:00020c30       ?AddRelocation@Hunk@@QEAAXURelocation@@@Z 0000000140021c30 f   Hunk.obj
 0001:00020cb0       ?AddSymbol@Hunk@@QEAAXPEAVSymbol@@@Z 0000000140021cb0 f   Hunk.obj
 0001:000211d0       ?AppendZeroes@Hunk@@QEAAXH@Z 00000001400221d0 f   Hunk.obj
 0001:00021320       ?CalculateSize@CompressionReportRecord@@QEAAXHH@Z 0000000140022320 f i Hunk.obj
 0001:000213f0       ?FindSymbol@Hunk@@QEBAPEAVSymbol@@PEBD@Z 00000001400223f0 f   Hunk.obj
 0001:00021580       ?FindUndecoratedSymbol@Hunk@@QEBAPEAVSymbol@@PEBD@Z 0000000140022580 f   Hunk.obj
 0001:00021700       ?GenerateCompressionSummary@Hunk@@QEAAPEAUCompressionReportRecord@@AEAVPartList@@PEAH@Z 0000000140022700 f   Hunk.obj
 0001:00021f60       ?GetID@Hunk@@QEAAAEBV?$basic_string@DU?$char_traits@D@std@@V?$allocator@D@2@@std@@XZ 0000000140022f60 f   Hunk.obj
 0001:00022870       ?GetNameToSymbolMap@Hunk@@QEAAAEAV?$map@V?$basic_string@DU?$char_traits@D@std@@V?$allocator@D@2@@std@@PEAVSymbol@@U?$less@V?$basic_string@DU?$char_traits@D@std@@V?$allocator@D@2@@std@@@2@V?$allocator@U?$pair@$$CBV?$basic_string@DU?$char_traits@D@std@@V?$allocator@D@2@@std@@PEAVSymbol@@@std@@@2@@std@@XZ 0000000140023870 f   Hunk.obj
 0001:00022880       ?GetOffsetToRelocationMap@Hunk@@QEAA?AV?$map@HPEAVSymbol@@U?$less@H@std@@V?$allocator@U?$pair@$$CBHPEAVSymbol@@@std@@@3@@std@@XZ 0000000140023880 f   Hunk.obj
 0001:00022ac0       ?GetOffsetToSymbolMap@Hunk@@QEAA?AV?$map@HPEAVSymbol@@U?$less@H@std@@V?$allocator@U?$pair@$$CBHPEAVSymbol@@@std@@@3@@std@@XZ 0000000140023ac0 f   Hunk.obj
 0001:00022e10       ?Insert@Hunk@@QEAAXHPEBEH@Z 0000000140023e10 f   Hunk.obj
 0001:00022f50       ?IsLikelyText@Hunk@@QEAA_NXZ 0000000140023f50 f   Hunk.obj
 0001:00022f90       ?IsLikelyTextInternal@Hunk@@QEBA_NXZ 0000000140023f90 f   Hunk.obj
 0001:00023080       ?MarkHunkAsLibrary@Hunk@@QEAAXXZ 0000000140024080 f   Hunk.obj
 0001:00023100       ?OverrideAlignment@Hunk@@QEAAXH@Z 0000000140024100 f   Hunk.obj
 0001:000233c0       ?Relocate@Hunk@@QEAAXH@Z   00000001400243c0 f   Hunk.obj
 0001:00023910       ?RoundFloats@Hunk@@QEAAXH@Z 0000000140024910 f   Hunk.obj
 0001:00023f30       ?SetAlignmentBits@Hunk@@QEAAXH@Z 0000000140024f30 f   Hunk.obj
 0001:00023f40       ?SetRawSize@Hunk@@QEAAXH@Z 0000000140024f40 f   Hunk.obj
 0001:00023fd0       ?Trim@Hunk@@QEAAXXZ        0000000140024fd0 f   Hunk.obj
 0001:00024190       ?_Tidy@?$vector@URelocation@@V?$allocator@URelocation@@@std@@@std@@AEAAXXZ 0000000140025190 f i Hunk.obj
 0001:00024260       ?resize@?$vector@EV?$allocator@E@std@@@std@@QEAAX_K@Z 0000000140025260 f i Hunk.obj
 0001:00024390       ??$_Assign_counted_range@PEAV?$basic_string@DU?$char_traits@D@std@@V?$allocator@D@2@@std@@@?$vector@V?$basic_string@DU?$char_traits@D@std@@V?$allocator@D@2@@std@@V?$allocator@V?$basic_string@DU?$char_traits@D@std@@V?$allocator@D@2@@std@@@2@@std@@AEAAXPEAV?$basic_string@DU?$char_traits@D@std@@V?$allocator@D@2@@1@_K@Z 0000000140025390 f i ImportHandler.obj
 0001:00024570       ??$_Copy_memmove_n@PEAIPEAI@std@@YAPEAIPEAI_K0@Z 0000000140025570 f i ImportHandler.obj
 0001:00024590       ??$_Emplace_reallocate@I@?$vector@IV?$allocator@I@std@@@std@@AEAAPEAIQEAI$$QEAI@Z 0000000140025590 f i ImportHandler.obj
 0001:00024720       ??$_Emplace_reallocate@V?$basic_string@DU?$char_traits@D@std@@V?$allocator@D@2@@std@@@?$vector@V?$basic_string@DU?$char_traits@D@std@@V?$allocator@D@2@@std@@V?$allocator@V?$basic_string@DU?$char_traits@D@std@@V?$allocator@D@2@@std@@@2@@std@@AEAAPEAV?$basic_string@DU?$char_traits@D@std@@V?$allocator@D@2@@1@QEAV21@$$QEAV21@@Z 0000000140025720 f i ImportHandler.obj
 0001:00024910       ??$_Fill_zero_memset@PEAI@std@@YAXPEAI_K@Z 0000000140025910 f i ImportHandler.obj
 0001:00024920       ??$_Insertion_sort_unchecked@PEAV?$basic_string@DU?$char_traits@D@std@@V?$allocator@D@2@@std@@U?$less@X@2@@std@@YAPEAV?$basic_string@DU?$char_traits@D@std@@V?$allocator@D@2@@0@QEAV10@0U?$less@X@0@@Z 0000000140025920 f i ImportHandler.obj
 0001:00024cd0       ??$_Is_all_bits_zero@I@std@@YA_NAEBI@Z 0000000140025cd0 f i ImportHandler.obj
 0001:00024ce0       ??$_Make_heap_unchecked@PEAV?$basic_string@DU?$char_traits@D@std@@V?$allocator@D@2@@std@@U?$less@X@2@@std@@YAXPEAV?$basic_string@DU?$char_traits@D@std@@V?$allocator@D@2@@0@0U?$less@X@0@@Z 0000000140025ce0 f i ImportHandler.obj
 0001:000250d0       ??$_Med3_unchecked@PEAV?$basic_string@DU?$char_traits@D@std@@V?$allocator@D@2@@std@@U?$less@X@2@@std@@YAXPEAV?$basic_string@DU?$char_traits@D@std@@V?$allocator@D@2@@0@00U?$less@X@0@@Z 00000001400260d0 f i ImportHandler.obj
 0001:00025190       ??$_Move_backward_unchecked@PEAV?$basic_string@DU?$char_traits@D@std@@V?$allocator@D@2@@std@@PEAV12@@std@@YAPEAV?$basic_string@DU?$char_traits@D@std@@V?$allocator@D@2@@0@PEAV10@00@Z 0000000140026190 f i ImportHandler.obj
 0001:00025270       ??$_Move_unchecked@PEAV?$basic_string@DU?$char_traits@D@std@@V?$allocator@D@2@@std@@PEAV12@@std@@YAPEAV?$basic_string@DU?$char_traits@D@std@@V?$allocator@D@2@@0@PEAV10@00@Z 0000000140026270 f i ImportHandler.obj
 0001:000256e0       ??$_Partition_by_median_guess_unchecked@PEAV?$basic_string@DU?$char_traits@D@std@@V?$allocator@D@2@@std@@U?$less@X@2@@std@@YA?AU?$pair@PEAV?$basic_string@DU?$char_traits@D@std@@V?$allocator@D@2@@std@@PEAV12@@0@PEAV?$basic_string@DU?$char_traits@D@std@@V?$allocator@D@2@@0@0U?$less@X@0@@Z 00000001400266e0 f i ImportHandler.obj
 0001:000259d0       ??$_Pop_heap_hole_by_index@PEAV?$basic_string@DU?$char_traits@D@std@@V?$allocator@D@2@@std@@V12@U?$less@X@2@@std@@YAXPEAV?$basic_string@DU?$char_traits@D@std@@V?$allocator@D@2@@0@_J1$$QEAV10@U?$less@X@0@@Z 00000001400269d0 f i ImportHandler.obj
 0001:00025c00       ??$_Reallocate_grow_by@V<lambda_1>@?1??push_back@?$basic_string@DU?$char_traits@D@std@@V?$allocator@D@2@@std@@QEAAXD@Z@D@?$basic_string@DU?$char_traits@D@std@@V?$allocator@D@2@@std@@AEAAAEAV01@_KV<lambda_1>@?1??push_back@01@QEAAXD@Z@D@Z 0000000140026c00 f i ImportHandler.obj
 0001:00025d70       ??$_Resize@U_Value_init_tag@std@@@?$vector@DV?$allocator@D@std@@@std@@AEAAX_KAEBU_Value_init_tag@1@@Z 0000000140026d70 f i ImportHandler.obj
 0001:00025ef0       ??$_Sort_unchecked@PEAV?$basic_string@DU?$char_traits@D@std@@V?$allocator@D@2@@std@@U?$less@X@2@@std@@YAXPEAV?$basic_string@DU?$char_traits@D@std@@V?$allocator@D@2@@0@0_JU?$less@X@0@@Z 0000000140026ef0 f i ImportHandler.obj
 0001:000260e0       ??$_Traits_compare@U?$char_traits@D@std@@@std@@YAHQEBD_K01@Z 00000001400270e0 f i ImportHandler.obj
 0001:00026140       ??$_Uninitialized_move@PEAV?$basic_string@DU?$char_traits@D@std@@V?$allocator@D@2@@std@@V?$allocator@V?$basic_string@DU?$char_traits@D@std@@V?$allocator@D@2@@std@@@2@@std@@YAPEAV?$basic_string@DU?$char_traits@D@std@@V?$allocator@D@2@@0@QEAV10@0PEAV10@AEAV?$allocator@V?$basic_string@DU?$char_traits@D@std@@V?$allocator@D@2@@std@@@0@@Z 0000000140027140 f i ImportHandler.obj
 0001:00026250       ??$unique@V?$_Vector_iterator@V?$_Vector_val@U?$_Simple_types@V?$basic_string@DU?$char_traits@D@std@@V?$allocator@D@2@@std@@@std@@@std@@@std@@U?$equal_to@X@2@@std@@YA?AV?$_Vector_iterator@V?$_Vector_val@U?$_Simple_types@V?$basic_string@DU?$char_traits@D@std@@V?$allocator@D@2@@std@@@std@@@std@@@0@V10@0U?$equal_to@X@0@@Z 0000000140027250 f i ImportHandler.obj
 0001:00027450       ?AddImportHunks1K@ImportHandler@@SAXAEAVPart@@_NAEAH2@Z 0000000140028450 f   ImportHandler.obj
 0001:000280c0       ?AddImportHunks4K@ImportHandler@@SAXAEAVPart@@AEAPEAVHunk@@AEAV?$map@V?$basic_string@DU?$char_traits@D@std@@V?$allocator@D@2@@std@@V12@U?$less@V?$basic_string@DU?$char_traits@D@std@@V?$allocator@D@2@@std@@@2@V?$allocator@U?$pair@$$CBV?$basic_string@DU?$char_traits@D@std@@V?$allocator@D@2@@std@@V12@@std@@@2@@std@@AEBV?$vector@V?$basic_string@DU?$char_traits@D@std@@V?$allocator@D@2@@std@@V?$allocator@V?$basic_string@DU?$char_traits@D@std@@V?$allocator@D@2@@std@@@2@@5@_NAEA_N@Z 00000001400290c0 f   ImportHandler.obj
 0001:00029de0       ?ForEachExportInDLL@@YAXPEBDV?$function@$$A6AXPEBD@Z@std@@@Z 000000014002ade0 f   ImportHandler.obj
 0001:0002a850       ?_Buy_raw@?$vector@IV?$allocator@I@std@@@std@@AEAAX_K@Z 000000014002b850 f i ImportHandler.obj
 0001:0002a8c0       ?_Buy_raw@?$vector@V?$basic_string@DU?$char_traits@D@std@@V?$allocator@D@2@@std@@V?$allocator@V?$basic_string@DU?$char_traits@D@std@@V?$allocator@D@2@@std@@@2@@std@@AEAAX_K@Z 000000014002b8c0 f i ImportHandler.obj
 0001:0002ab20       ?_Xlen@?$vector@_NV?$allocator@_N@std@@@std@@SAXXZ 000000014002bb20 f i ImportHandler.obj
 0001:0002ab60       ?deallocate@?$allocator@V?$basic_string@DU?$char_traits@D@std@@V?$allocator@D@2@@std@@@std@@QEAAXQEAV?$basic_string@DU?$char_traits@D@std@@V?$allocator@D@2@@2@_K@Z 000000014002bb60 f i ImportHandler.obj
 0001:0002abc0       ?Clicks@LTCGLoader@@UEBA_NPEBDH@Z 000000014002bbc0 f   LTCGLoader.obj
 0001:0002abe0       ?Load@LTCGLoader@@UEAA_NAEAVPart@@PEBDH1_N@Z 000000014002bbe0 f   LTCGLoader.obj
 0001:0002ac00       ??$?HDU?$char_traits@D@std@@V?$allocator@D@1@@std@@YA?AV?$basic_string@DU?$char_traits@D@std@@V?$allocator@D@2@@0@QEBD$$QEAV10@@Z 000000014002bc00 f i main.obj
 0001:0002ad30       ??$_Copy_nodes@$0A@@?$_Tree@V?$_Tset_traits@VExport@@U?$less@VExport@@@std@@V?$allocator@VExport@@@3@$0A@@std@@@std@@IEAAPEAU?$_Tree_node@VExport@@PEAX@1@PEAU21@0@Z 000000014002bd30 f i main.obj
 0001:0002ae10       ??$_Find_first_of_pos_vectorized@DD@std@@YA_KQEBD_K01@Z 000000014002be10 f i main.obj
 0001:0002ae20       ??$_Reallocate_grow_by@V<lambda_1>@?1??replace@?$basic_string@DU?$char_traits@D@std@@V?$allocator@D@2@@std@@QEAAAEAV34@_K_KQEBD0@Z@_K_KPEBD_K@?$basic_string@DU?$char_traits@D@std@@V?$allocator@D@2@@std@@AEAAAEAV01@_KV<lambda_1>@?1??replace@01@QEAAAEAV01@0_KQEBD0@Z@11PEBD1@Z 000000014002be20 f i main.obj
 0001:0002aff0       ??$insert@U?$pair@V?$basic_string@DU?$char_traits@D@std@@V?$allocator@D@2@@std@@V12@@std@@$0A@@?$map@V?$basic_string@DU?$char_traits@D@std@@V?$allocator@D@2@@std@@V12@U?$less@V?$basic_string@DU?$char_traits@D@std@@V?$allocator@D@2@@std@@@2@V?$allocator@U?$pair@$$CBV?$basic_string@DU?$char_traits@D@std@@V?$allocator@D@2@@std@@V12@@std@@@2@@std@@QEAA?AU?$pair@V?$_Tree_iterator@V?$_Tree_val@U?$_Tree_simple_types@U?$pair@$$CBV?$basic_string@DU?$char_traits@D@std@@V?$allocator@D@2@@std@@V12@@std@@@std@@@std@@@std@@_N@1@$$QEAU?$pair@V?$basic_string@DU?$char_traits@D@std@@V?$allocator@D@2@@std@@V12@@1@@Z 000000014002bff0 f i main.obj
 0001:0002b180       ??1CmdParamFlags@@UEAA@XZ  000000014002c180 f i main.obj
 0001:0002b1e0       ??1CmdParamInt@@UEAA@XZ    000000014002c1e0 f i main.obj
 0001:0002b1e0       ??1CmdParamSwitch@@UEAA@XZ 000000014002c1e0 f i main.obj
 0001:0002b220       ??1CmdParamMultiAssign@@UEAA@XZ 000000014002c220 f i main.obj
 0001:0002b300       ??1CmdParamString@@UEAA@XZ 000000014002c300 f i main.obj
 0001:0002b340       ??_ECallTransform@@UEAAPEAXI@Z 000000014002c340 f i main.obj
 0001:0002b340       ??_GCallTransform@@UEAAPEAXI@Z 000000014002c340 f i main.obj
 0001:0002b370       ??_ECmdParam@@UEAAPEAXI@Z  000000014002c370 f i main.obj
 0001:0002b370       ??_GCmdParam@@UEAAPEAXI@Z  000000014002c370 f i main.obj
 0001:0002b3d0       ??_EIdentityTransform@@UEAAPEAXI@Z 000000014002c3d0 f i main.obj
 0001:0002b3d0       ??_ETransform@@UEAAPEAXI@Z 000000014002c3d0 f i main.obj
 0001:0002b3d0       ??_GIdentityTransform@@UEAAPEAXI@Z 000000014002c3d0 f i main.obj
 0001:0002b3d0       ??_GTransform@@UEAAPEAXI@Z 000000014002c3d0 f i main.obj
 0001:0002b400       ?AddFallbackDll@Crinkler@@QEAAXPEBD0@Z 000000014002c400 f i main.obj
 0001:0002b6a0       ?AddReplaceDll@Crinkler@@QEAAXPEBD0@Z 000000014002c6a0 f i main.obj
 0001:0002c770       ?EnterCriticalRegion@ContextBase@details@Concurrency@@QEAAHXZ 000000014002d770 f i libconcrt:ContextBase.obj
 0001:0002c770       ?EnterHyperCriticalRegion@ContextBase@details@Concurrency@@QEAAHXZ 000000014002d770 f i libconcrt:ContextBase.obj
 0001:0002c770       ?ExitCriticalRegion@ContextBase@details@Concurrency@@QEAAHXZ 000000014002d770 f i libconcrt:ContextBase.obj
 0001:0002c770       ?ExitHyperCriticalRegion@ContextBase@details@Concurrency@@QEAAHXZ 000000014002d770 f i libconcrt:ContextBase.obj
 0001:0002c770       ?GetContextKind@ExternalContextBase@details@Concurrency@@EEBA?AW4ContextKind@ContextBase@23@XZ 000000014002d770 f i libconcrt:ExternalContextBase.obj
 0001:0002c770       ?GetDefaultDestination@VirtualProcessor@details@Concurrency@@UEAAPEAUIExecutionContext@3@XZ 000000014002d770 f i libconcrt:VirtualProcessor.obj
 0001:0002c770       ?GetDetransformer@IdentityTransform@@UEAAPEAVHunk@@XZ 000000014002d770 f i main.obj
 0001:0002c770       ?PreRunnableSearch@VirtualProcessor@details@Concurrency@@UEAAPEAVInternalContextBase@23@XZ 000000014002d770 f i libconcrt:VirtualProcessor.obj
 0001:0002c770       ?_DefaultInit@?$combinable@_J@Concurrency@@CA_JXZ 000000014002d770 f i Compressor:CompressionStateEvaluator.obj
 0001:0002c770       ?_Get_deleter@_Ref_count_base@std@@UEBAPEAXAEBVtype_info@@@Z 000000014002d770 f i libcpmt:excptptr.obj
 0001:0002c770       __scrt_exe_initialize_mta  000000014002d770 f i LIBCMT:utility_desktop.obj
 0001:0002c770       __scrt_initialize_winrt    000000014002d770 f i LIBCMT:utility_desktop.obj
 0001:0002c770       __scrt_stub_for_initialize_mta 000000014002d770 f i LIBCMT:utility_desktop.obj
 0001:0002c770       _get_startup_commit_mode   000000014002d770 f i LIBCMT:commit_mode.obj
 0001:0002c770       _get_startup_new_mode      000000014002d770 f i LIBCMT:new_mode.obj
 0001:0002c770       _get_startup_thread_locale_mode 000000014002d770 f i LIBCMT:thread_locale.obj
 0001:0002c770       _matherr                   000000014002d770 f i LIBCMT:matherr.obj
 0001:0002c830       ?LoadDLL@@YAPEBDPEBD@Z     000000014002d830 f   main.obj
 0001:0002d1e0       ?assign@?$basic_string@DU?$char_traits@D@std@@V?$allocator@D@2@@std@@QEAAAEAV12@QEBD@Z 000000014002e1e0 f i main.obj
 0001:0002d350       ?replace@?$basic_string@DU?$char_traits@D@std@@V?$allocator@D@2@@std@@QEAAAEAV12@_K_KQEBD0@Z 000000014002e350 f i main.obj
 0001:0002d500       main                       000000014002e500 f   main.obj
 0001:0002ff60       ??$_Emplace_reallocate@AEBQEAVPart@@@?$vector@PEAVPart@@V?$allocator@PEAVPart@@@std@@@std@@AEAAPEAPEAVPart@@QEAPEAV2@AEBQEAV2@@Z 0000000140030f60 f i PartList.obj
 0001:000300a0       ??$_Find_lower_bound@V?$basic_string@DU?$char_traits@D@std@@V?$allocator@D@2@@std@@@?$_Tree@V?$_Tmap_traits@V?$basic_string@DU?$char_traits@D@std@@V?$allocator@D@2@@std@@HU?$less@V?$basic_string@DU?$char_traits@D@std@@V?$allocator@D@2@@std@@@2@V?$allocator@U?$pair@$$CBV?$basic_string@DU?$char_traits@D@std@@V?$allocator@D@2@@std@@H@std@@@2@$0A@@std@@@std@@IEBA?AU?$_Tree_find_result@PEAU?$_Tree_node@U?$pair@$$CBV?$basic_string@DU?$char_traits@D@std@@V?$allocator@D@2@@std@@H@std@@PEAX@std@@@1@AEBV?$basic_string@DU?$char_traits@D@std@@V?$allocator@D@2@@1@@Z 00000001400310a0 f i CmdParamFlags.obj
 0001:000300a0       ??$_Find_lower_bound@V?$basic_string@DU?$char_traits@D@std@@V?$allocator@D@2@@std@@@?$_Tree@V?$_Tmap_traits@V?$basic_string@DU?$char_traits@D@std@@V?$allocator@D@2@@std@@PEAVModelList4k@@U?$less@V?$basic_string@DU?$char_traits@D@std@@V?$allocator@D@2@@std@@@2@V?$allocator@U?$pair@$$CBV?$basic_string@DU?$char_traits@D@std@@V?$allocator@D@2@@std@@PEAVModelList4k@@@std@@@2@$0A@@std@@@std@@IEBA?AU?$_Tree_find_result@PEAU?$_Tree_node@U?$pair@$$CBV?$basic_string@DU?$char_traits@D@std@@V?$allocator@D@2@@std@@PEAVModelList4k@@@std@@PEAX@std@@@1@AEBV?$basic_string@DU?$char_traits@D@std@@V?$allocator@D@2@@1@@Z 00000001400310a0 f i Reuse.obj
 0001:000300a0       ??$_Find_lower_bound@V?$basic_string@DU?$char_traits@D@std@@V?$allocator@D@2@@std@@@?$_Tree@V?$_Tmap_traits@V?$basic_string@DU?$char_traits@D@std@@V?$allocator@D@2@@std@@PEAVSymbol@@U?$less@V?$basic_string@DU?$char_traits@D@std@@V?$allocator@D@2@@std@@@2@V?$allocator@U?$pair@$$CBV?$basic_string@DU?$char_traits@D@std@@V?$allocator@D@2@@std@@PEAVSymbol@@@std@@@2@$0A@@std@@@std@@IEBA?AU?$_Tree_find_result@PEAU?$_Tree_node@U?$pair@$$CBV?$basic_string@DU?$char_traits@D@std@@V?$allocator@D@2@@std@@PEAVSymbol@@@std@@PEAX@std@@@1@AEBV?$basic_string@DU?$char_traits@D@std@@V?$allocator@D@2@@1@@Z 00000001400310a0 f i PartList.obj
 0001:00030170       ??$_Find_vectorized@PEAVHunk@@PEAV1@@std@@YAPEAPEAVHunk@@QEAPEAV1@0QEAV1@@Z 0000000140031170 f i PartList.obj
 0001:000301d0       ??$_Uninitialized_copy_unchecked@PEAPEAPEAVHunk@@PEAPEAPEAV1@@std@@YAPEAPEAPEAVHunk@@PEAPEAPEAV1@QEAPEAPEAV1@0@Z 00000001400311d0 f i PartList.obj
 0001:000301e0       ??$_Uninitialized_value_construct_n_unchecked1@PEAPEAPEAVHunk@@_K@std@@YAPEAPEAPEAVHunk@@PEAPEAPEAV1@_K@Z 00000001400311e0 f i PartList.obj
 0001:00030300       ??$uninitialized_copy@PEAPEAPEAVHunk@@PEAPEAPEAV1@@std@@YAPEAPEAPEAVHunk@@QEAPEAPEAV1@0PEAPEAPEAV1@@Z 0000000140031300 f i PartList.obj
 0001:00030310       ??0Part@@QEAA@PEBD_N@Z     0000000140031310 f i PartList.obj
 0001:000303c0       ??0PartList@@QEAA@XZ       00000001400313c0 f   PartList.obj
 0001:000303f0       ??0SymbolMap@@QEAA@AEAVPart@@@Z 00000001400313f0 f   PartList.obj
 0001:00030480       ??1?$deque@PEAVHunk@@V?$allocator@PEAVHunk@@@std@@@std@@QEAA@XZ 0000000140031480 f i PartList.obj
 0001:00030560       ??1Part@@QEAA@XZ           0000000140031560 f   PartList.obj
 0001:00030580       ??1PartList@@QEAA@XZ       0000000140031580 f   PartList.obj
 0001:000305f0       ??APart@@QEAAAEAPEAVHunk@@I@Z 00000001400315f0 f   PartList.obj
 0001:00030600       ??APartList@@QEAAAEAVPart@@I@Z 0000000140031600 f   PartList.obj
 0001:00030d00       ??R?$less@V?$basic_string@DU?$char_traits@D@std@@V?$allocator@D@2@@std@@@std@@QEBA_NAEBV?$basic_string@DU?$char_traits@D@std@@V?$allocator@D@2@@1@0@Z 0000000140031d00 f i PartList.obj
 0001:00030da0       ?AddHunkBack@Part@@QEAAXPEAVHunk@@@Z 0000000140031da0 f   PartList.obj
 0001:00030de0       ?AddHunkFront@Part@@QEAAXPEAVHunk@@@Z 0000000140031de0 f   PartList.obj
 0001:00030e60       ?CalcTotalPartAndModelOverhead@PartList@@QEAAHXZ 0000000140031e60 f   PartList.obj
 0001:00030ec0       ?Clear@PartList@@QEAAXXZ   0000000140031ec0 f   PartList.obj
 0001:00031080       ?DeleteUnreferencedHunks@Part@@QEAAXAEBVSymbolMap@@AEBV?$vector@PEAVHunk@@V?$allocator@PEAVHunk@@@std@@@std@@@Z 0000000140032080 f   PartList.obj
 0001:00031650       ?FindBestPartIndex@PartList@@QEBAHPEAVHunk@@@Z 0000000140032650 f   PartList.obj
 0001:000316d0       ?FindSymbol@Part@@QEAAPEAVSymbol@@PEBD@Z 00000001400326d0 f   PartList.obj
 0001:00031740       ?FindSymbol@PartList@@QEAAPEAVSymbol@@PEBD@Z 0000000140032740 f   PartList.obj
 0001:000317b0       ?FindUndecoratedSymbol@Part@@QEAAPEAVSymbol@@PEBDPEAH@Z 00000001400327b0 f   PartList.obj
 0001:00031850       ?ForEachHunk@Part@@QEAAXV?$function@$$A6AXAEAVPart@@PEAVHunk@@1@Z@std@@@Z 0000000140032850 f   PartList.obj
 0001:00031900       ?ForEachHunk@Part@@QEAAXV?$function@$$A6AXPEAVHunk@@@Z@std@@@Z 0000000140032900 f   PartList.obj
 0001:00031990       ?ForEachHunk@PartList@@QEAAXV?$function@$$A6AXAEAVPart@@PEAVHunk@@1@Z@std@@@Z 0000000140032990 f   PartList.obj
 0001:00031a40       ?ForEachHunkWithBreak@Part@@QEAA_NV?$function@$$A6A_NAEAVPart@@PEAVHunk@@1@Z@std@@@Z 0000000140032a40 f   PartList.obj
 0001:00031b20       ?ForEachHunkWithBreak@Part@@QEAA_NV?$function@$$A6A_NPEAVHunk@@@Z@std@@@Z 0000000140032b20 f   PartList.obj
 0001:00031be0       ?ForEachHunkWithBreak@PartList@@QEAA_NV?$function@$$A6A_NAEAVPart@@PEAVHunk@@1@Z@std@@@Z 0000000140032be0 f   PartList.obj
 0001:00031ca0       ?ForEachHunkWithBreak@PartList@@QEAA_NV?$function@$$A6A_NPEAVHunk@@@Z@std@@@Z 0000000140032ca0 f   PartList.obj
 0001:00031d60       ?ForEachPart@PartList@@QEAAXV?$function@$$A6AXAEAVPart@@H@Z@std@@@Z 0000000140032d60 f   PartList.obj
 0001:00031df0       ?GetOrAddPart@PartList@@QEAAAEAVPart@@PEBD_N@Z 0000000140032df0 f   PartList.obj
 0001:00031f20       ?GetPartIndex@PartList@@QEBAHPEBD@Z 0000000140032f20 f   PartList.obj
 0001:00031fc0       ?InsertHunk@Part@@QEAAXHPEAVHunk@@@Z 0000000140032fc0 f   PartList.obj
 0001:00032050       ?Link@PartList@@QEAAPEAVHunk@@PEBDH@Z 0000000140033050 f   PartList.obj
 0001:00032290       ?NeedsContinuationJump@PartList@@QEBA_NPEAVHunk@@0@Z 0000000140033290 f   PartList.obj
 0001:000322b0       ?RemoveHunk@Part@@QEAAXPEAVHunk@@@Z 00000001400332b0 f   PartList.obj
 0001:000322f0       ?RemoveMatchingHunks@Part@@QEAAXV?$function@$$A6A_NPEAVHunk@@@Z@std@@@Z 00000001400332f0 f   PartList.obj
 0001:00032460       ?_Change_array@?$vector@PEAVPart@@V?$allocator@PEAVPart@@@std@@@std@@AEAAXQEAPEAVPart@@_K1@Z 0000000140033460 f i PartList.obj
 0001:00032750       ?_Growmap@?$deque@PEAVHunk@@V?$allocator@PEAVHunk@@@std@@@std@@AEAAX_K@Z 0000000140033750 f i PartList.obj
 0001:00032990       ?_Xlen@?$deque@PEAVHunk@@V?$allocator@PEAVHunk@@@std@@@std@@CAXXZ 0000000140033990 f i PartList.obj
 0001:000329b0       ?push_back@?$vector@PEAVPart@@V?$allocator@PEAVPart@@@std@@@std@@QEAAX$$QEAPEAVPart@@@Z 00000001400339b0 f i PartList.obj
 0001:00032af0       ??$?8DU?$char_traits@D@std@@V?$allocator@D@1@@std@@YA_NAEBV?$basic_string@DU?$char_traits@D@std@@V?$allocator@D@2@@0@0@Z 0000000140033af0 f i Reuse.obj
 0001:00032b40       ??$_Emplace_reallocate@AEAV?$basic_string@DU?$char_traits@D@std@@V?$allocator@D@2@@std@@AEA_N@?$vector@VReusePart@@V?$allocator@VReusePart@@@std@@@std@@AEAAPEAVReusePart@@QEAV2@AEAV?$basic_string@DU?$char_traits@D@std@@V?$allocator@D@2@@1@AEA_N@Z 0000000140033b40 f i Reuse.obj
 0001:00032d30       ??$_Emplace_reallocate@AEAVPart@@@?$vector@VReusePart@@V?$allocator@VReusePart@@@std@@@std@@AEAAPEAVReusePart@@QEAV2@AEAVPart@@@Z 0000000140033d30 f i Reuse.obj
 0001:00032ef0       ??$_Emplace_reallocate@AEBV?$basic_string@DU?$char_traits@D@std@@V?$allocator@D@2@@std@@@?$vector@V?$basic_string@DU?$char_traits@D@std@@V?$allocator@D@2@@std@@V?$allocator@V?$basic_string@DU?$char_traits@D@std@@V?$allocator@D@2@@std@@@2@@std@@AEAAPEAV?$basic_string@DU?$char_traits@D@std@@V?$allocator@D@2@@1@QEAV21@AEBV21@@Z 0000000140033ef0 f i Reuse.obj
 0001:000330b0       ??$_Emplace_reallocate@V?$vector@PEAVHunk@@V?$allocator@PEAVHunk@@@std@@@std@@@?$vector@V?$vector@PEAVHunk@@V?$allocator@PEAVHunk@@@std@@@std@@V?$allocator@V?$vector@PEAVHunk@@V?$allocator@PEAVHunk@@@std@@@std@@@2@@std@@AEAAPEAV?$vector@PEAVHunk@@V?$allocator@PEAVHunk@@@std@@@1@QEAV21@$$QEAV21@@Z 00000001400340b0 f i Reuse.obj
 0001:00033300       ??$_Eqrange@V?$basic_string@DU?$char_traits@D@std@@V?$allocator@D@2@@std@@@?$_Tree@V?$_Tmap_traits@V?$basic_string@DU?$char_traits@D@std@@V?$allocator@D@2@@std@@PEAVModelList4k@@U?$less@V?$basic_string@DU?$char_traits@D@std@@V?$allocator@D@2@@std@@@2@V?$allocator@U?$pair@$$CBV?$basic_string@DU?$char_traits@D@std@@V?$allocator@D@2@@std@@PEAVModelList4k@@@std@@@2@$0A@@std@@@std@@IEBA?AU?$pair@PEAU?$_Tree_node@U?$pair@$$CBV?$basic_string@DU?$char_traits@D@std@@V?$allocator@D@2@@std@@PEAVModelList4k@@@std@@PEAX@std@@PEAU12@@1@AEBV?$basic_string@DU?$char_traits@D@std@@V?$allocator@D@2@@1@@Z 0000000140034300 f i Reuse.obj
 0001:00033490       ??$_Find_last@V?$basic_string@DU?$char_traits@D@std@@V?$allocator@D@2@@std@@@?$_Hash@V?$_Umap_traits@V?$basic_string@DU?$char_traits@D@std@@V?$allocator@D@2@@std@@PEAVHunk@@V?$_Uhash_compare@V?$basic_string@DU?$char_traits@D@std@@V?$allocator@D@2@@std@@U?$hash@V?$basic_string@DU?$char_traits@D@std@@V?$allocator@D@2@@std@@@2@U?$equal_to@V?$basic_string@DU?$char_traits@D@std@@V?$allocator@D@2@@std@@@2@@2@V?$allocator@U?$pair@$$CBV?$basic_string@DU?$char_traits@D@std@@V?$allocator@D@2@@std@@PEAVHunk@@@std@@@2@$0A@@std@@@std@@IEBA?AU?$_Hash_find_last_result@PEAU?$_List_node@U?$pair@$$CBV?$basic_string@DU?$char_traits@D@std@@V?$allocator@D@2@@std@@PEAVHunk@@@std@@PEAX@std@@@1@AEBV?$basic_string@DU?$char_traits@D@std@@V?$allocator@D@2@@1@_K@Z 0000000140034490 f i Reuse.obj
 0001:00033560       ??$_Hash_array_representation@D@std@@YA_KQEBD_K@Z 0000000140034560 f i Reuse.obj
 0001:000335a0       ??$_Try_emplace@AEBV?$basic_string@DU?$char_traits@D@std@@V?$allocator@D@2@@std@@$$V@?$_Hash@V?$_Umap_traits@V?$basic_string@DU?$char_traits@D@std@@V?$allocator@D@2@@std@@PEAVHunk@@V?$_Uhash_compare@V?$basic_string@DU?$char_traits@D@std@@V?$allocator@D@2@@std@@U?$hash@V?$basic_string@DU?$char_traits@D@std@@V?$allocator@D@2@@std@@@2@U?$equal_to@V?$basic_string@DU?$char_traits@D@std@@V?$allocator@D@2@@std@@@2@@2@V?$allocator@U?$pair@$$CBV?$basic_string@DU?$char_traits@D@std@@V?$allocator@D@2@@std@@PEAVHunk@@@std@@@2@$0A@@std@@@std@@IEAA?AU?$pair@PEAU?$_List_node@U?$pair@$$CBV?$basic_string@DU?$char_traits@D@std@@V?$allocator@D@2@@std@@PEAVHunk@@@std@@PEAX@std@@_N@1@AEBV?$basic_string@DU?$char_traits@D@std@@V?$allocator@D@2@@1@@Z 00000001400345a0 f i Reuse.obj
 0001:00033860       ??$_Uninitialized_move@PEAV?$vector@PEAVHunk@@V?$allocator@PEAVHunk@@@std@@@std@@V?$allocator@V?$vector@PEAVHunk@@V?$allocator@PEAVHunk@@@std@@@std@@@2@@std@@YAPEAV?$vector@PEAVHunk@@V?$allocator@PEAVHunk@@@std@@@0@QEAV10@0PEAV10@AEAV?$allocator@V?$vector@PEAVHunk@@V?$allocator@PEAVHunk@@@std@@@std@@@0@@Z 0000000140034860 f i Reuse.obj
 0001:000338c0       ??$_Uninitialized_move@PEAVReusePart@@V?$allocator@VReusePart@@@std@@@std@@YAPEAVReusePart@@QEAV1@0PEAV1@AEAV?$allocator@VReusePart@@@0@@Z 00000001400348c0 f i Reuse.obj
 0001:00033980       ??$erase@V?$_List_iterator@V?$_List_val@U?$_List_simple_types@U?$pair@$$CBV?$basic_string@DU?$char_traits@D@std@@V?$allocator@D@2@@std@@PEAVHunk@@@std@@@std@@@std@@@std@@$0A@@?$_Hash@V?$_Umap_traits@V?$basic_string@DU?$char_traits@D@std@@V?$allocator@D@2@@std@@PEAVHunk@@V?$_Uhash_compare@V?$basic_string@DU?$char_traits@D@std@@V?$allocator@D@2@@std@@U?$hash@V?$basic_string@DU?$char_traits@D@std@@V?$allocator@D@2@@std@@@2@U?$equal_to@V?$basic_string@DU?$char_traits@D@std@@V?$allocator@D@2@@std@@@2@@2@V?$allocator@U?$pair@$$CBV?$basic_string@DU?$char_traits@D@std@@V?$allocator@D@2@@std@@PEAVHunk@@@std@@@2@$0A@@std@@@std@@QEAA?AV?$_List_iterator@V?$_List_val@U?$_List_simple_types@U?$pair@$$CBV?$basic_string@DU?$char_traits@D@std@@V?$allocator@D@2@@std@@PEAVHunk@@@std@@@std@@@std@@@1@V21@@Z 0000000140034980 f i Reuse.obj
 0001:00033a50       ??$fill@PEAV?$_List_unchecked_iterator@V?$_List_val@U?$_List_simple_types@U?$pair@$$CBV?$basic_string@DU?$char_traits@D@std@@V?$allocator@D@2@@std@@PEAVHunk@@@std@@@std@@@std@@@std@@V12@@std@@YAXQEAV?$_List_unchecked_iterator@V?$_List_val@U?$_List_simple_types@U?$pair@$$CBV?$basic_string@DU?$char_traits@D@std@@V?$allocator@D@2@@std@@PEAVHunk@@@std@@@std@@@std@@@0@0AEBV10@@Z 0000000140034a50 f i Reuse.obj
 0001:00033ae0       ??$uninitialized_fill@PEAV?$_List_unchecked_iterator@V?$_List_val@U?$_List_simple_types@U?$pair@$$CBV?$basic_string@DU?$char_traits@D@std@@V?$allocator@D@2@@std@@PEAVHunk@@@std@@@std@@@std@@@std@@V12@@std@@YAXQEAV?$_List_unchecked_iterator@V?$_List_val@U?$_List_simple_types@U?$pair@$$CBV?$basic_string@DU?$char_traits@D@std@@V?$allocator@D@2@@std@@PEAVHunk@@@std@@@std@@@std@@@0@0AEBV10@@Z 0000000140034ae0 f i Reuse.obj
 0001:00033b00       ??0Reuse@@QEAA@AEAVPartList@@H@Z 0000000140034b00 f   Reuse.obj
 0001:00033b70       ??0Reuse@@QEAA@XZ          0000000140034b70 f   Reuse.obj
 0001:00033b90       ??0ReusePart@@QEAA@AEAVPart@@@Z 0000000140034b90 f   Reuse.obj
 0001:00033c80       ??0ReusePart@@QEAA@V?$basic_string@DU?$char_traits@D@std@@V?$allocator@D@2@@std@@_N@Z 0000000140034c80 f   Reuse.obj
 0001:00033d50       ??1?$list@U?$pair@$$CBV?$basic_string@DU?$char_traits@D@std@@V?$allocator@D@2@@std@@PEAVHunk@@@std@@V?$allocator@U?$pair@$$CBV?$basic_string@DU?$char_traits@D@std@@V?$allocator@D@2@@std@@PEAVHunk@@@std@@@2@@std@@QEAA@XZ 0000000140034d50 f i Reuse.obj
 0001:00033dc0       ??1_Reallocation_guard@?$vector@VReusePart@@V?$allocator@VReusePart@@@std@@@std@@QEAA@XZ 0000000140034dc0 f i Reuse.obj
 0001:00033e70       ?AskForReuseMode@@YA?AW4ReuseType@@W41@@Z 0000000140034e70 f   Reuse.obj
 0001:00034190       ?LoadReuseFile@@YAPEAVReuse@@PEBD@Z 0000000140035190 f   Reuse.obj
 0001:00034ff0       ?PartsFromHunkList@Reuse@@QEAA_NAEAVPartList@@AEAVPart@@@Z 0000000140035ff0 f   Reuse.obj
 0001:00035680       ?Save@Reuse@@QEBAXPEBD@Z   0000000140036680 f   Reuse.obj
 0001:00035920       ?_Assign_grow@?$_Hash_vec@V?$allocator@V?$_List_unchecked_iterator@V?$_List_val@U?$_List_simple_types@U?$pair@$$CBV?$basic_string@DU?$char_traits@D@std@@V?$allocator@D@2@@std@@PEAVHunk@@@std@@@std@@@std@@@std@@@std@@@std@@QEAAX_KV?$_List_unchecked_iterator@V?$_List_val@U?$_List_simple_types@U?$pair@$$CBV?$basic_string@DU?$char_traits@D@std@@V?$allocator@D@2@@std@@PEAVHunk@@@std@@@std@@@std@@@2@@Z 0000000140036920 f i Reuse.obj
 0001:000359f0       ?_Change_array@?$vector@VReusePart@@V?$allocator@VReusePart@@@std@@@std@@AEAAXQEAVReusePart@@_K1@Z 00000001400369f0 f i Reuse.obj
 0001:00035d70       ?_Erase@?$_Tree@V?$_Tmap_traits@V?$basic_string@DU?$char_traits@D@std@@V?$allocator@D@2@@std@@PEAVModelList4k@@U?$less@V?$basic_string@DU?$char_traits@D@std@@V?$allocator@D@2@@std@@@2@V?$allocator@U?$pair@$$CBV?$basic_string@DU?$char_traits@D@std@@V?$allocator@D@2@@std@@PEAVModelList4k@@@std@@@2@$0A@@std@@@std@@AEAA_KU?$pair@PEAU?$_Tree_node@U?$pair@$$CBV?$basic_string@DU?$char_traits@D@std@@V?$allocator@D@2@@std@@PEAVModelList4k@@@std@@PEAX@std@@PEAU12@@2@@Z 0000000140036d70 f i Reuse.obj
 0001:00035f20       ?_Extract@?$_Tree_val@U?$_Tree_simple_types@U?$pair@$$CBV?$basic_string@DU?$char_traits@D@std@@V?$allocator@D@2@@std@@PEAVModelList4k@@@std@@@std@@@std@@QEAAPEAU?$_Tree_node@U?$pair@$$CBV?$basic_string@DU?$char_traits@D@std@@V?$allocator@D@2@@std@@PEAVModelList4k@@@std@@PEAX@2@V?$_Tree_unchecked_const_iterator@V?$_Tree_val@U?$_Tree_simple_types@U?$pair@$$CBV?$basic_string@DU?$char_traits@D@std@@V?$allocator@D@2@@std@@PEAVModelList4k@@@std@@@std@@@std@@U_Iterator_base0@2@@2@@Z 0000000140036f20 f i Reuse.obj
 0001:00036310       ?_Forced_rehash@?$_Hash@V?$_Umap_traits@V?$basic_string@DU?$char_traits@D@std@@V?$allocator@D@2@@std@@PEAVHunk@@V?$_Uhash_compare@V?$basic_string@DU?$char_traits@D@std@@V?$allocator@D@2@@std@@U?$hash@V?$basic_string@DU?$char_traits@D@std@@V?$allocator@D@2@@std@@@2@U?$equal_to@V?$basic_string@DU?$char_traits@D@std@@V?$allocator@D@2@@std@@@2@@2@V?$allocator@U?$pair@$$CBV?$basic_string@DU?$char_traits@D@std@@V?$allocator@D@2@@std@@PEAVHunk@@@std@@@2@$0A@@std@@@std@@IEAAX_K@Z 0000000140037310 f i Reuse.obj
 0001:00036590       ?_Lrotate@?$_Tree_val@U?$_Tree_simple_types@U?$pair@$$CBV?$basic_string@DU?$char_traits@D@std@@V?$allocator@D@2@@std@@PEAVModelList4k@@@std@@@std@@@std@@QEAAXPEAU?$_Tree_node@U?$pair@$$CBV?$basic_string@DU?$char_traits@D@std@@V?$allocator@D@2@@std@@PEAVModelList4k@@@std@@PEAX@2@@Z 0000000140037590 f i Reuse.obj
 0001:000365f0       ?_Rrotate@?$_Tree_val@U?$_Tree_simple_types@U?$pair@$$CBV?$basic_string@DU?$char_traits@D@std@@V?$allocator@D@2@@std@@PEAVModelList4k@@@std@@@std@@@std@@QEAAXPEAU?$_Tree_node@U?$pair@$$CBV?$basic_string@DU?$char_traits@D@std@@V?$allocator@D@2@@std@@PEAVModelList4k@@@std@@PEAX@2@@Z 00000001400375f0 f i Reuse.obj
 0001:00036690       ?deallocate@?$allocator@V?$_List_unchecked_iterator@V?$_List_val@U?$_List_simple_types@U?$pair@$$CBV?$basic_string@DU?$char_traits@D@std@@V?$allocator@D@2@@std@@PEAVHunk@@@std@@@std@@@std@@@std@@@std@@QEAAXQEAV?$_List_unchecked_iterator@V?$_List_val@U?$_List_simple_types@U?$pair@$$CBV?$basic_string@DU?$char_traits@D@std@@V?$allocator@D@2@@std@@PEAVHunk@@@std@@@std@@@std@@@2@_K@Z 0000000140037690 f i Reuse.obj
 0001:00036700       fprintf                    0000000140037700 f i Reuse.obj
 0001:00036750       sscanf                     0000000140037750 f i Reuse.obj
 0001:000367b0       ??0Symbol@@QEAA@PEBDHIPEAVHunk@@0@Z 00000001400377b0 f   Symbol.obj
 0001:00036880       ?GetUndecoratedName@Symbol@@QEBA?AV?$basic_string@DU?$char_traits@D@std@@V?$allocator@D@2@@std@@XZ 0000000140037880 f   Symbol.obj
 0001:00036a30       ?Error@Log@@SAXPEBD0ZZ     0000000140037a30 f   Log.obj
 0001:00036aa0       ?NonfatalError@Log@@SAXPEBD0ZZ 0000000140037aa0 f   Log.obj
 0001:00036b20       ?Warning@Log@@SAXPEBD0ZZ   0000000140037b20 f   Log.obj
 0001:00036ba0       vsprintf_s                 0000000140037ba0 f i Log.obj
 0001:00036c10       ??0MemoryFile@@QEAA@PEBD_N@Z 0000000140037c10 f   MemoryFile.obj
 0001:00036cf0       ??1MemoryFile@@QEAA@XZ     0000000140037cf0 f   MemoryFile.obj
 0001:00036d00       ?Write@MemoryFile@@QEBA_NPEBD@Z 0000000140037d00 f   MemoryFile.obj
 0001:00036d50       ?EnableMiniDumps@@YAXXZ    0000000140037d50 f   MiniDump.obj
 0001:00036d80       ?ExitWithDump@@YAJPEAU_EXCEPTION_POINTERS@@@Z 0000000140037d80 f   MiniDump.obj
 0001:00036f30       ?Align@@YAHHH@Z            0000000140037f30 f   Misc.obj
 0001:00036f50       ?ReadBigEndian@@YAHPEBE@Z  0000000140037f50 f   Misc.obj
 0001:00036f70       ?RoundInt64@@YA_K_KH@Z     0000000140037f70 f   Misc.obj
 0001:00036fc0       ?StripCrinklerSymbolPrefix@@YA?AV?$basic_string@DU?$char_traits@D@std@@V?$allocator@D@2@@std@@PEBD@Z 0000000140037fc0 f   NameMangling.obj
 0001:00037080       ?StripSymbolPrefix@@YA?AV?$basic_string@DU?$char_traits@D@std@@V?$allocator@D@2@@std@@PEBD@Z 0000000140038080 f   NameMangling.obj
 0001:00037120       ?UndecorateSymbolName@@YA?AV?$basic_string@DU?$char_traits@D@std@@V?$allocator@D@2@@std@@PEBD@Z 0000000140038120 f   NameMangling.obj
 0001:00037260       ??$_Emplace_reallocate@PEBDH@?$vector@V?$basic_string@DU?$char_traits@D@std@@V?$allocator@D@2@@std@@V?$allocator@V?$basic_string@DU?$char_traits@D@std@@V?$allocator@D@2@@std@@@2@@std@@AEAAPEAV?$basic_string@DU?$char_traits@D@std@@V?$allocator@D@2@@1@QEAV21@$$QEAPEBD$$QEAH@Z 0000000140038260 f i StringMisc.obj
 0001:00037440       ?Base64Encode@@YA?AV?$basic_string@DU?$char_traits@D@std@@V?$allocator@D@2@@std@@PEBDH@Z 0000000140038440 f   StringMisc.obj
 0001:000376e0       ?EndsWith@@YA_NPEBD0@Z     00000001400386e0 f   StringMisc.obj
 0001:00037750       ?IntoLines@@YA?AV?$vector@V?$basic_string@DU?$char_traits@D@std@@V?$allocator@D@2@@std@@V?$allocator@V?$basic_string@DU?$char_traits@D@std@@V?$allocator@D@2@@std@@@2@@std@@PEBDH@Z 0000000140038750 f   StringMisc.obj
 0001:00037820       ?StartsWith@@YA_NPEBD0@Z   0000000140038820 f   StringMisc.obj
 0001:00037850       ?StripPath@@YA?AV?$basic_string@DU?$char_traits@D@std@@V?$allocator@D@2@@std@@AEBV12@@Z 0000000140038850 f   StringMisc.obj
 0001:00037910       ?ToLower@@YA?AV?$basic_string@DU?$char_traits@D@std@@V?$allocator@D@2@@std@@AEBV12@@Z 0000000140038910 f   StringMisc.obj
 0001:00037990       ?ToUpper@@YA?AV?$basic_string@DU?$char_traits@D@std@@V?$allocator@D@2@@std@@AEBV12@@Z 0000000140038990 f   StringMisc.obj
 0001:00037a10       sprintf_s                  0000000140038a10 f i StringMisc.obj
 0001:00037a70       ??0CmdLineInterface@@QEAA@PEBDH@Z 0000000140038a70 f   CmdLineInterface.obj
 0001:00037ad0       ??1CmdLineInterface@@QEAA@XZ 0000000140038ad0 f   CmdLineInterface.obj
 0001:00037b00       ?AddParams@CmdLineInterface@@QEAAXPEAVCmdParam@@ZZ 0000000140038b00 f   CmdLineInterface.obj
 0001:00037b60       ?AddTokens@CmdLineInterface@@AEAAXPEBD@Z 0000000140038b60 f   CmdLineInterface.obj
 0001:00037d50       ?Parse@CmdLineInterface@@QEAA_NXZ 0000000140038d50 f   CmdLineInterface.obj
 0001:00038810       ?PrintHeader@CmdLineInterface@@QEAAXXZ 0000000140039810 f   CmdLineInterface.obj
 0001:00038830       ?PrintSyntax@CmdLineInterface@@QEAAXXZ 0000000140039830 f   CmdLineInterface.obj
 0001:00038900       ?RemoveToken@CmdLineInterface@@QEAA_NPEBD@Z 0000000140039900 f   CmdLineInterface.obj
 0001:00038ad0       ?SetCmdParameters@CmdLineInterface@@QEAA_NHQEAPEAD@Z 0000000140039ad0 f   CmdLineInterface.obj
 0001:00038c40       ??0CmdParam@@QEAA@PEBD00H@Z 0000000140039c40 f   CmdParam.obj
 0001:00038d00       ?ToString@CmdParam@@UEBA?AV?$basic_string@DU?$char_traits@D@std@@V?$allocator@D@2@@std@@XZ 0000000140039d00 f   CmdParam.obj
 0001:00038e10       ??0CmdParamFlags@@QEAA@PEBD0HH0HZZ 0000000140039e10 f   CmdParamFlags.obj
 0001:00039290       ??_ECmdParamFlags@@UEAAPEAXI@Z 000000014003a290 f i CmdParamFlags.obj
 0001:00039290       ??_GCmdParamFlags@@UEAAPEAXI@Z 000000014003a290 f i CmdParamFlags.obj
 0001:00039320       ?Parse@CmdParamFlags@@UEAAHPEBDPEADH@Z 000000014003a320 f   CmdParamFlags.obj
 0001:00039650       ??0CmdParamInt@@QEAA@PEBD00HHHH@Z 000000014003a650 f   CmdParamInt.obj
 0001:000396a0       ??_ECmdParamInt@@UEAAPEAXI@Z 000000014003a6a0 f i CmdParamInt.obj
 0001:000396a0       ??_GCmdParamInt@@UEAAPEAXI@Z 000000014003a6a0 f i CmdParamInt.obj
 0001:00039700       ?Parse@CmdParamInt@@UEAAHPEBDPEADH@Z 000000014003a700 f   CmdParamInt.obj
 0001:000397b0       ??$_Emplace_reallocate@U?$pair@V?$basic_string@DU?$char_traits@D@std@@V?$allocator@D@2@@std@@V12@@std@@@?$vector@U?$pair@V?$basic_string@DU?$char_traits@D@std@@V?$allocator@D@2@@std@@V12@@std@@V?$allocator@U?$pair@V?$basic_string@DU?$char_traits@D@std@@V?$allocator@D@2@@std@@V12@@std@@@2@@std@@AEAAPEAU?$pair@V?$basic_string@DU?$char_traits@D@std@@V?$allocator@D@2@@std@@V12@@1@QEAU21@$$QEAU21@@Z 000000014003a7b0 f i CmdParamMultiAssign.obj
 0001:000399e0       ??$_Uninitialized_move@PEAU?$pair@V?$basic_string@DU?$char_traits@D@std@@V?$allocator@D@2@@std@@V12@@std@@V?$allocator@U?$pair@V?$basic_string@DU?$char_traits@D@std@@V?$allocator@D@2@@std@@V12@@std@@@2@@std@@YAPEAU?$pair@V?$basic_string@DU?$char_traits@D@std@@V?$allocator@D@2@@std@@V12@@0@QEAU10@0PEAU10@AEAV?$allocator@U?$pair@V?$basic_string@DU?$char_traits@D@std@@V?$allocator@D@2@@std@@V12@@std@@@0@@Z 000000014003a9e0 f i CmdParamMultiAssign.obj
 0001:00039a80       ??0CmdParamMultiAssign@@QEAA@PEBD00H@Z 000000014003aa80 f   CmdParamMultiAssign.obj
 0001:00039ad0       ??1?$vector@U?$pair@V?$basic_string@DU?$char_traits@D@std@@V?$allocator@D@2@@std@@V12@@std@@V?$allocator@U?$pair@V?$basic_string@DU?$char_traits@D@std@@V?$allocator@D@2@@std@@V12@@std@@@2@@std@@QEAA@XZ 000000014003aad0 f i CmdParamMultiAssign.obj
 0001:00039b80       ??_ECmdParamMultiAssign@@UEAAPEAXI@Z 000000014003ab80 f i CmdParamMultiAssign.obj
 0001:00039b80       ??_GCmdParamMultiAssign@@UEAAPEAXI@Z 000000014003ab80 f i CmdParamMultiAssign.obj
 0001:00039be0       ?Parse@CmdParamMultiAssign@@UEAAHPEBDPEADH@Z 000000014003abe0 f   CmdParamMultiAssign.obj
 0001:0003a170       ?push_back@?$vector@U?$pair@V?$basic_string@DU?$char_traits@D@std@@V?$allocator@D@2@@std@@V12@@std@@V?$allocator@U?$pair@V?$basic_string@DU?$char_traits@D@std@@V?$allocator@D@2@@std@@V12@@std@@@2@@std@@QEAAX$$QEAU?$pair@V?$basic_string@DU?$char_traits@D@std@@V?$allocator@D@2@@std@@V12@@2@@Z 000000014003b170 f i CmdParamMultiAssign.obj
 0001:0003a1f0       ??0CmdParamString@@QEAA@PEBD00H0@Z 000000014003b1f0 f   CmdParamString.obj
 0001:0003a330       ??_ECmdParamString@@UEAAPEAXI@Z 000000014003b330 f i CmdParamString.obj
 0001:0003a330       ??_GCmdParamString@@UEAAPEAXI@Z 000000014003b330 f i CmdParamString.obj
 0001:0003a390       ?Parse@CmdParamString@@UEAAHPEBDPEADH@Z 000000014003b390 f   CmdParamString.obj
 0001:0003a4c0       ??0CmdParamSwitch@@QEAA@PEBD0H@Z 000000014003b4c0 f   CmdParamSwitch.obj
 0001:0003a500       ??_ECmdParamSwitch@@UEAAPEAXI@Z 000000014003b500 f i CmdParamSwitch.obj
 0001:0003a500       ??_GCmdParamSwitch@@UEAAPEAXI@Z 000000014003b500 f i CmdParamSwitch.obj
 0001:0003a560       ?Parse@CmdParamSwitch@@UEAAHPEBDPEADH@Z 000000014003b560 f   CmdParamSwitch.obj
 0001:0003a570       ??_ECoffObjectLoader@@UEAAPEAXI@Z 000000014003b570 f i CoffLibraryLoader.obj
 0001:0003a570       ??_GCoffObjectLoader@@UEAAPEAXI@Z 000000014003b570 f i CoffLibraryLoader.obj
 0001:0003a5b0       ??_ECoffLibraryLoader@@UEAAPEAXI@Z 000000014003b5b0 f i MultiLoader.obj
 0001:0003a5b0       ??_EHunkLoader@@UEAAPEAXI@Z 000000014003b5b0 f i CoffLibraryLoader.obj
 0001:0003a5b0       ??_ELTCGLoader@@UEAAPEAXI@Z 000000014003b5b0 f i MultiLoader.obj
 0001:0003a5b0       ??_GCoffLibraryLoader@@UEAAPEAXI@Z 000000014003b5b0 f i MultiLoader.obj
 0001:0003a5b0       ??_GHunkLoader@@UEAAPEAXI@Z 000000014003b5b0 f i CoffLibraryLoader.obj
 0001:0003a5b0       ??_GLTCGLoader@@UEAAPEAXI@Z 000000014003b5b0 f i MultiLoader.obj
 0001:0003a5e0       ?Clicks@CoffLibraryLoader@@UEBA_NPEBDH@Z 000000014003b5e0 f   CoffLibraryLoader.obj
 0001:0003a630       ?Load@CoffLibraryLoader@@UEAA_NAEAVPart@@PEBDH1_N@Z 000000014003b630 f   CoffLibraryLoader.obj
 0001:0003acf0       ?MakeCallStub@@YAPEAVHunk@@PEBD@Z 000000014003bcf0 f   CoffLibraryLoader.obj
 0001:0003b190       ??$_Resize@U_Value_init_tag@std@@@?$vector@PEAVHunk@@V?$allocator@PEAVHunk@@@std@@@std@@AEAAX_KAEBU_Value_init_tag@1@@Z 000000014003c190 f i CoffObjectLoader.obj
 0001:0003b350       ??1CoffObjectLoader@@UEAA@XZ 000000014003c350 f   CoffObjectLoader.obj
 0001:0003b360       ?Clicks@CoffObjectLoader@@UEBA_NPEBDH@Z 000000014003c360 f   CoffObjectLoader.obj
 0001:0003b4b0       ?Load@CoffObjectLoader@@UEAA_NAEAVPart@@PEBDH1_N@Z 000000014003c4b0 f   CoffObjectLoader.obj
 0001:0003c220       ?LoadFromFile@HunkLoader@@QEAA_NAEAVPart@@PEBD@Z 000000014003d220 f   HunkLoader.obj
 0001:0003c290       ??0MultiLoader@@QEAA@XZ    000000014003d290 f   MultiLoader.obj
 0001:0003c3a0       ??1MultiLoader@@UEAA@XZ    000000014003d3a0 f   MultiLoader.obj
 0001:0003c470       ??_EMultiLoader@@UEAAPEAXI@Z 000000014003d470 f i MultiLoader.obj
 0001:0003c470       ??_GMultiLoader@@UEAAPEAXI@Z 000000014003d470 f i MultiLoader.obj
 0001:0003c4b0       ?Clicks@MultiLoader@@UEBA_NPEBDH@Z 000000014003d4b0 f   MultiLoader.obj
 0001:0003c520       ?Load@MultiLoader@@UEAA_NAEAVPart@@PEBDH1_N@Z 000000014003d520 f   MultiLoader.obj
 0001:0003c800       ?SortHunkList@EmpiricalHunkSorter@@SAHAEAVPartList@@AEAVTransform@@_NHPEAVProgressBar@@2@Z 000000014003d800 f   EmpiricalHunkSorter.obj
 0001:0003caf0       ?TryHunkCombination@EmpiricalHunkSorter@@CAHAEAVPartList@@AEAVTransform@@_N2@Z 000000014003daf0 f   EmpiricalHunkSorter.obj
 0001:0003d2e0       ?SortHunkList@HeuristicHunkSorter@@SAXAEAVPartList@@@Z 000000014003e2e0 f   HeuristicHunkSorter.obj
 0001:0003d420       ?DoTransform@CallTransform@@UEAA_NPEAVHunk@@H_N@Z 000000014003e420 f   CallTransform.obj
 0001:0003d520       ?GetDetransformer@CallTransform@@UEAAPEAVHunk@@XZ 000000014003e520 f   CallTransform.obj
 0001:0003d5b0       ?LinkAndTransform@Transform@@QEAA_NAEAVPartList@@PEAVSymbol@@HPEAPEAVHunk@@2_N@Z 000000014003e5b0 f   Transform.obj
 0001:0003d710       ?AddProgressBar@CompositeProgressBar@@QEAAXPEAVProgressBar@@@Z 000000014003e710 f   CompositeProgressBar.obj
 0001:0003d750       ?BeginTask@CompositeProgressBar@@UEAAXPEBD@Z 000000014003e750 f   CompositeProgressBar.obj
 0001:0003d7a0       ?Deinit@CompositeProgressBar@@UEAAXXZ 000000014003e7a0 f   CompositeProgressBar.obj
 0001:0003d7e0       ?EndTask@CompositeProgressBar@@UEAAXXZ 000000014003e7e0 f   CompositeProgressBar.obj
 0001:0003d820       ?Init@CompositeProgressBar@@UEAAXXZ 000000014003e820 f   CompositeProgressBar.obj
 0001:0003d860       ?Update@CompositeProgressBar@@UEAAXHH@Z 000000014003e860 f   CompositeProgressBar.obj
 0001:0003d8c0       ?BeginTask@ConsoleProgressBar@@UEAAXPEBD@Z 000000014003e8c0 f   ConsoleProgressBar.obj
 0001:0003d960       ?Update@ConsoleProgressBar@@UEAAXHH@Z 000000014003e960 f   ConsoleProgressBar.obj
 0001:0003da20       ?BeginTask@WindowProgressBar@@UEAAXPEBD@Z 000000014003ea20 f   WindowProgressBar.obj
 0001:0003dbb0       ?DlgProc@@YA_JPEAUHWND__@@I_K_J@Z 000000014003ebb0 f   WindowProgressBar.obj
 0001:0003dc50       ?Init@WindowProgressBar@@UEAAXXZ 000000014003ec50 f   WindowProgressBar.obj
 0001:0003dcf0       ?ThreadProc@@YAKPEAX@Z     000000014003ecf0 f   WindowProgressBar.obj
 0001:0003dd30       ?Update@WindowProgressBar@@UEAAXHH@Z 000000014003ed30 f   WindowProgressBar.obj
 0001:0003de7d       MiniDumpWriteDump          000000014003ee7d f   Dbghelp:dbghelp.dll
 0001:0003de90       distorm_decode64           000000014003ee90 f   distorm:distorm.obj
 0001:0003df00       distorm_version            000000014003ef00 f   distorm:distorm.obj
 0001:0003df10       internal_decode            000000014003ef10 f   distorm:decoder.obj
 0001:0003e6d0       ADDR_SIZE_AFFECT           000000014003f6d0 f   distorm:decoder.obj
 0001:0003e700       OP_SIZE_AFFECT             000000014003f700 f   distorm:decoder.obj
 0001:0003f0e0       strcpy_WS                  00000001400400e0 f   distorm:wstring.obj
 0001:0003f110       strcpylen_WS               0000000140040110 f   distorm:wstring.obj
 0001:0003f130       strcatlen_WS               0000000140040130 f   distorm:wstring.obj
 0001:0003f160       is_prefix                  0000000140040160 f   distorm:prefix.obj
 0001:0003f280       decode_prefixes            0000000140040280 f   distorm:prefix.obj
 0001:0003f980       get_unused_prefixes_list   0000000140040980 f   distorm:prefix.obj
 0001:0003fb10       str_seg_text               0000000140040b10 f   distorm:prefix.obj
 0001:0003fbe0       get_prefix_flag            0000000140040be0 f   distorm:prefix.obj
 0001:0003fdc0       str_hex_b                  0000000140040dc0 f   distorm:textdefs.obj
 0001:0003fdf0       str_code_hb                0000000140040df0 f   distorm:textdefs.obj
 0001:0003fe30       str_hex_sp_b               0000000140040e30 f   distorm:textdefs.obj
 0001:0003fe50       str_code_sp_hb             0000000140040e50 f   distorm:textdefs.obj
 0001:0003fea0       str_hex_sp_w               0000000140040ea0 f   distorm:textdefs.obj
 0001:0003ff10       str_code_hw                0000000140040f10 f   distorm:textdefs.obj
 0001:0003ffc0       str_hex_sp_dw              0000000140040fc0 f   distorm:textdefs.obj
 0001:00040070       str_code_hdw               0000000140041070 f   distorm:textdefs.obj
 0001:000401a0       str_hex_sp_qw              00000001400411a0 f   distorm:textdefs.obj
 0001:00040320       str_code_hqw               0000000140041320 f   distorm:textdefs.obj
 0001:00040590       str_off64                  0000000140041590 f   distorm:textdefs.obj
 0001:000407d0       locate_inst                00000001400417d0 f   distorm:instructions.obj
 0001:00040940       locate_3dnow_inst          0000000140041940 f   distorm:instructions.obj
 0001:000409b0       str_indirection_text       00000001400419b0 f   distorm:instructions.obj
 0001:00040ec0       extract_operand            0000000140041ec0 f   distorm:operands.obj
 0001:00043ea0       ??0ModelList4k@@QEAA@AEBV0@@Z 0000000140044ea0 f   Compressor:ModelList.obj
 0001:00043ea0       ??4ModelList4k@@QEAAAEAV0@AEBV0@@Z 0000000140044ea0 f   Compressor:ModelList.obj
 0001:00043ee0       ??0ModelList4k@@QEAA@XZ    0000000140044ee0 f   Compressor:ModelList.obj
 0001:00043ef0       ??AModelList4k@@QEAAAEAUModel@@I@Z 0000000140044ef0 f   Compressor:ModelList.obj
 0001:00043ef0       ??AModelList4k@@QEBAAEBUModel@@I@Z 0000000140044ef0 f   Compressor:ModelList.obj
 0001:00043f00       ?AddModel@ModelList4k@@QEAAXUModel@@@Z 0000000140044f00 f   Compressor:ModelList.obj
 0001:00043f20       ?DetectCompressionType@ModelList4k@@QEBA?AW4CompressionType@@XZ 0000000140044f20 f   Compressor:ModelList.obj
 0001:00044040       ?GetMaskList@ModelList4k@@QEBAIPEAE_N@Z 0000000140045040 f   Compressor:ModelList.obj
 0001:00044140       ?Print@ModelList1k@@QEBAXXZ 0000000140045140 f   Compressor:ModelList.obj
 0001:00044170       ?Print@ModelList4k@@QEBAXPEAU_iobuf@@@Z 0000000140045170 f   Compressor:ModelList.obj
 0001:00044210       ?SetFromModelsAndMask@ModelList4k@@QEAAXPEBEHPEA_N@Z 0000000140045210 f   Compressor:ModelList.obj
 0001:000442e0       ??$_Allocate@$0BA@U_Default_allocate_traits@std@@@std@@YAPEAX_K@Z 00000001400452e0 f i Compressor:CompressionStream.obj
 0001:00044350       ??$_Resize@U_Value_init_tag@std@@@?$vector@HV?$allocator@H@std@@@std@@AEAAX_KAEBU_Value_init_tag@1@@Z 0000000140045350 f i Compressor:CompressionStream.obj
 0001:000444f0       ??0CompressionStream@@QEAA@PEAEPEAHH_N@Z 00000001400454f0 f   Compressor:CompressionStream.obj
 0001:00044540       ?Close@CompressionStream@@QEAAHXZ 0000000140045540 f   Compressor:CompressionStream.obj
 0001:00044560       ?CompressFromHashBits@CompressionStream@@QEAAXAEBUHashBits@@PEAUTinyHashEntry@@HH@Z 0000000140045560 f   Compressor:CompressionStream.obj
 0001:00044870       ?ComputeHashBits@@YA?AUHashBits@@PEBEHPEAEAEBVModelList4k@@_N3@Z 0000000140045870 f   Compressor:CompressionStream.obj
 0001:00045170       ?EvaluateSize@CompressionStream@@QEAAHPEBEHAEBVModelList4k@@HPEADH@Z 0000000140046170 f   Compressor:CompressionStream.obj
 0001:000456d0       ?_Insert_x@?$vector@_NV?$allocator@_N@std@@@std@@QEAA_KV?$_Vb_const_iterator@U?$_Wrap_alloc@V?$allocator@I@std@@@std@@@2@_K@Z 00000001400466d0 f i Compressor:CompressionStream.obj
 0001:000459e0       ?push_back@?$vector@_NV?$allocator@_N@std@@@std@@QEAAXAEB_N@Z 00000001400469e0 f i Compressor:CompressionStream.obj
 0001:00045b50       ?reserve@?$vector@IV?$allocator@I@std@@@std@@QEAAX_K@Z 0000000140046b50 f i Compressor:CompressionStream.obj
 0001:00045bf0       ??$?0_J@?$_Optimistic_temporary_buffer@VModelList4k@@@std@@QEAA@_J@Z 0000000140046bf0 f i Compressor:Compressor.obj
 0001:00046650       ??$_Buffered_rotate_unchecked@PEAVModelList4k@@@std@@YAPEAVModelList4k@@QEAV1@00_J101@Z 0000000140047650 f i Compressor:Compressor.obj
 0001:00046ac0       ??$_Move_backward_unchecked@PEAVModelList4k@@PEAV1@@std@@YAPEAVModelList4k@@PEAV1@00@Z 0000000140047ac0 f i Compressor:Compressor.obj
 0001:00046b20       ??$_Move_unchecked@PEAVModelList4k@@PEAV1@@std@@YAPEAVModelList4k@@PEAV1@00@Z 0000000140047b20 f i Compressor:Compressor.obj
 0001:00046b20       ??$_Uninitialized_move_unchecked@PEAVModelList4k@@PEAV1@@std@@YAPEAVModelList4k@@PEAV1@QEAV1@0@Z 0000000140047b20 f i Compressor:Compressor.obj
 0001:000474e0       ??$_Rotate_one_left@PEAVModelList4k@@@std@@YAXPEAVModelList4k@@00@Z 00000001400484e0 f i Compressor:Compressor.obj
 0001:00047550       ??$_Rotate_one_right@PEAVModelList4k@@@std@@YAXPEAVModelList4k@@00@Z 0000000140048550 f i Compressor:Compressor.obj
 0001:000476d0       ??$reverse@PEAVModelList4k@@@std@@YAXQEAVModelList4k@@0@Z 00000001400486d0 f i Compressor:Compressor.obj
 0001:00048c70       ?ApproximateModels1k@@YA?AVModelList1k@@PEBEHPEAHP6AXPEAXHH@Z2@Z 0000000140049c70 f   Compressor:Compressor.obj
 0001:00048ea0       ?ApproximateModels4k@@YA?AVModelList4k@@PEBEHQEBEW4CompressionType@@_NHPEAHP6AXPEAXHH@Z5@Z 0000000140049ea0 f   Compressor:Compressor.obj
 0001:00049560       ?ApproximateWeights@@YAIAEAVCompressionState@@AEAVModelList4k@@@Z 000000014004a560 f   Compressor:Compressor.obj
 0001:000496b0       ?Compress1k@@YAHPEBEHPEAEHAEAVModelList1k@@PEAH3@Z 000000014004a6b0 f   Compressor:Compressor.obj
 0001:00049970       ?Compress4k@@YAHPEBEHPEBHPEAEHPEAPEAVModelList4k@@_NHHPEAH@Z 000000014004a970 f   Compressor:Compressor.obj
 0001:00049d90       ?CompressFromHashBits4k@@YAHPEBUHashBits@@PEAUTinyHashEntry@@HPEAEH_NHHPEAH@Z 000000014004ad90 f   Compressor:Compressor.obj
 0001:00049e50       ?CompressionTypeName@@YAPEBDW4CompressionType@@@Z 000000014004ae50 f   Compressor:Compressor.obj
 0001:00049e90       ?Evaluate1K@@YAHPEAEHPEAH111I@Z 000000014004ae90 f   Compressor:Compressor.obj
 0001:0004a550       ?EvaluateSize4k@@YAHPEBEHPEBHPEAHPEAPEAVModelList4k@@H_N@Z 000000014004b550 f   Compressor:Compressor.obj
 0001:0004af40       ?InitCompressor@@YAXXZ     000000014004bf40 f   Compressor:Compressor.obj
 0001:0004af50       ?InstantModels4k@@YA?AVModelList4k@@XZ 000000014004bf50 f   Compressor:Compressor.obj
 0001:0004b0e0       ?OptimizeWeights@@YAIAEAVCompressionState@@AEAVModelList4k@@@Z 000000014004c0e0 f   Compressor:Compressor.obj
 0001:0004b2d0       ?AritCode@@YAXPEAUAritState@@IIH@Z 000000014004c2d0 f   Compressor:AritCode.obj
 0001:0004b3d0       ?AritCodeEnd@@YAHPEAUAritState@@@Z 000000014004c3d0 f   Compressor:AritCode.obj
 0001:0004b430       ?AritCodeInit@@YAXPEAUAritState@@PEAX@Z 000000014004c430 f   Compressor:AritCode.obj
 0001:0004b450       ?AritCodePos@@YAIPEAUAritState@@@Z 000000014004c450 f   Compressor:AritCode.obj
 0001:0004b4b0       ?ModelHash@@YAIPEBEHI@Z    000000014004c4b0 f   Compressor:Model.obj
 0001:0004b500       ?ModelHashStart@@YAII@Z    000000014004c500 f   Compressor:Model.obj
 0001:0004b8a0       ??0CompressionState@@QEAA@PEBEHH_NPEAVCompressionStateEvaluator@@0@Z 000000014004c8a0 f   Compressor:CompressionState.obj
 0001:0004b9f0       ??1CompressionState@@QEAA@XZ 000000014004c9f0 f   Compressor:CompressionState.obj
 0001:0004bf60       ?ApplyModel@CompressionState@@AEAA?AUModelPredictions@@PEBEHE@Z 000000014004cf60 f   Compressor:CompressionState.obj
 0001:0004c300       ?SetModels@CompressionState@@QEAAHAEBVModelList4k@@@Z 000000014004d300 f   Compressor:CompressionState.obj
 0001:0004c330       ?UpdateWeights@@YAXPEAUWeights@@H_N@Z 000000014004d330 f   Compressor:CompressionState.obj
 0001:0004c6a0       ?InitCounterStates@@YAXXZ  000000014004d6a0 f   Compressor:CounterState.obj
 0001:0004ca00       ??0CompressionStateEvaluator@@QEAA@XZ 000000014004da00 f   Compressor:CompressionStateEvaluator.obj
 0001:0004ca40       ??1CompressionStateEvaluator@@QEAA@XZ 000000014004da40 f   Compressor:CompressionStateEvaluator.obj
 0001:0004d670       ?ChangeWeight@CompressionStateEvaluator@@AEAA_JHH@Z 000000014004e670 f   Compressor:CompressionStateEvaluator.obj
 0001:0004d8f0       ?Evaluate@CompressionStateEvaluator@@QEAA_JAEBVModelList4k@@@Z 000000014004e8f0 f   Compressor:CompressionStateEvaluator.obj
 0001:0004d9f0       ?Init@CompressionStateEvaluator@@QEAA_NPEAUModelPredictions@@HHM@Z 000000014004e9f0 f   Compressor:CompressionStateEvaluator.obj
 0001:0004dcb0       ?_Copy@?$_Func_impl_no_alloc@P6A_JXZ_J$$V@std@@EEBAPEAV?$_Func_base@_J$$V@2@PEAX@Z 000000014004ecb0 f i Compressor:CompressionStateEvaluator.obj
 0001:0004dcb0       ?_Move@?$_Func_impl_no_alloc@P6A_JXZ_J$$V@std@@EEAAPEAV?$_Func_base@_J$$V@2@PEAX@Z 000000014004ecb0 f i Compressor:CompressionStateEvaluator.obj
 0001:0004dcd0       ?_Do_call@?$_Func_impl_no_alloc@P6A_JXZ_J$$V@std@@EEAA_JXZ 000000014004ecd0 f i Compressor:CompressionStateEvaluator.obj
 0001:0004dce0       ?_Target_type@?$_Func_impl_no_alloc@P6A_JXZ_J$$V@std@@EEBAAEBVtype_info@@XZ 000000014004ece0 f i Compressor:CompressionStateEvaluator.obj
 0001:0004dce8       ??0_Init_locks@std@@QEAA@XZ 000000014004ece8 f   libcpmt:xlock.obj
 0001:0004dd2c       ??0_Lockit@std@@QEAA@H@Z   000000014004ed2c f   libcpmt:xlock.obj
 0001:0004dd68       ??1_Init_locks@std@@QEAA@XZ 000000014004ed68 f   libcpmt:xlock.obj
 0001:0004dda4       ??1_Lockit@std@@QEAA@XZ    000000014004eda4 f   libcpmt:xlock.obj
 0001:0004e9f0       __std_find_first_of_trivial_pos_1 000000014004f9f0 f   libcpmt:vector_algorithms.obj
 0001:0004ea90       __std_find_last_trivial_1  000000014004fa90 f   libcpmt:vector_algorithms.obj
 0001:0004eaa0       __std_find_trivial_1       000000014004faa0 f   libcpmt:vector_algorithms.obj
 0001:0004eab0       __std_find_trivial_2       000000014004fab0 f   libcpmt:vector_algorithms.obj
 0001:0004eac0       __std_find_trivial_8       000000014004fac0 f   libcpmt:vector_algorithms.obj
 0001:0004ead0       __std_search_1             000000014004fad0 f   libcpmt:vector_algorithms.obj
 0001:0004ead8       ??0bad_function_call@std@@QEAA@AEBV01@@Z 000000014004fad8 f i libcpmt:xthrow.obj
 0001:0004eb14       ??0bad_function_call@std@@QEAA@XZ 000000014004fb14 f i libcpmt:xthrow.obj
 0001:0004eb2c       ??0length_error@std@@QEAA@AEBV01@@Z 000000014004fb2c f i libcpmt:xthrow.obj
 0001:0004eb68       ??0length_error@std@@QEAA@PEBD@Z 000000014004fb68 f i libcpmt:xthrow.obj
 0001:0004ebb0       ??0out_of_range@std@@QEAA@AEBV01@@Z 000000014004fbb0 f i libcpmt:xthrow.obj
 0001:0004ebec       ??0out_of_range@std@@QEAA@PEBD@Z 000000014004fbec f i libcpmt:xthrow.obj
 0001:0004ec34       ??0runtime_error@std@@QEAA@PEBD@Z 000000014004fc34 f i libcpmt:xthrow.obj
 0001:0004ec7c       ?_Xbad_alloc@std@@YAXXZ    000000014004fc7c f   libcpmt:xthrow.obj
 0001:0004ec7c       ?__scrt_throw_std_bad_alloc@@YAXXZ 000000014004fc7c f   LIBCMT:throw_bad_alloc.obj
 0001:0004ec9c       ?_Xbad_function_call@std@@YAXXZ 000000014004fc9c f   libcpmt:xthrow.obj
 0001:0004ecbc       ?_Xlength_error@std@@YAXPEBD@Z 000000014004fcbc f   libcpmt:xthrow.obj
 0001:0004ece0       ?_Xout_of_range@std@@YAXPEBD@Z 000000014004fce0 f   libcpmt:xthrow.obj
 0001:0004ed04       ?_Xruntime_error@std@@YAXPEBD@Z 000000014004fd04 f   libcpmt:xthrow.obj
 0001:0004ed28       ?what@bad_function_call@std@@UEBAPEBDXZ 000000014004fd28 f i libcpmt:xthrow.obj
 0001:0004ed30       ?GetCurrentThreadId@platform@details@Concurrency@@YAJXZ 000000014004fd30 f   libcpmt:ppltasks.obj
 0001:0004ed30       _Thrd_id                   000000014004fd30 f   libcpmt:cthread.obj
 0001:0004ed38       _Thrd_join                 000000014004fd38 f   libcpmt:cthread.obj
 0001:0004eda0       ??1?$lock_guard@Vmutex@std@@@std@@QEAA@XZ 000000014004fda0 f i libcpmt:xnotify.obj
 0001:0004eda8       _Cnd_do_broadcast_at_thread_exit 000000014004fda8 f   libcpmt:xnotify.obj
 0001:0004eea0       ??$_Construct@$01PEBD@?$basic_string@DU?$char_traits@D@std@@V?$allocator@D@2@@std@@AEAAXQEBD_K@Z 000000014004fea0 f i libcpmt:thread0.obj
 0001:0004efb8       ??0?$basic_string@DU?$char_traits@D@std@@V?$allocator@D@2@@std@@QEAA@$$QEAV01@@Z 000000014004ffb8 f i libcpmt:thread0.obj
 0001:0004f02c       ??0_System_error@std@@IEAA@Verror_code@1@AEBV?$basic_string@DU?$char_traits@D@std@@V?$allocator@D@2@@1@@Z 000000014005002c f i libcpmt:thread0.obj
 0001:0004f110       ??0system_error@std@@QEAA@HAEBVerror_category@1@PEBD@Z 0000000140050110 f i libcpmt:thread0.obj
 0001:0004f250       ?_Makestr@_System_error@std@@CA?AV?$basic_string@DU?$char_traits@D@std@@V?$allocator@D@2@@2@Verror_code@2@V32@@Z 0000000140050250 f i libcpmt:thread0.obj
 0001:0004f308       ?_Throw_Cpp_error@std@@YAXH@Z 0000000140050308 f   libcpmt:thread0.obj
 0001:0004f350       ??4?$_Yarn@D@std@@QEAAAEAV01@PEBD@Z 0000000140050350 f i libcpmt:locale0.obj
 0001:0004f3cc       ??_E_Locimp@locale@std@@MEAAPEAXI@Z 00000001400503cc f i libcpmt:locale0.obj
 0001:0004f3cc       ??_G_Locimp@locale@std@@MEAAPEAXI@Z 00000001400503cc f i libcpmt:locale0.obj
 0001:0004f42c       ?_Facet_Register@std@@YAXPEAV_Facet_base@1@@Z 000000014005042c f   libcpmt:locale0.obj
 0001:0004f468       ?_Getgloballocale@locale@std@@CAPEAV_Locimp@12@XZ 0000000140050468 f   libcpmt:locale0.obj
 0001:0004f470       ?_Init@locale@std@@CAPEAV_Locimp@12@_N@Z 0000000140050470 f   libcpmt:locale0.obj
 0001:0004f50c       ?_Locimp_dtor@_Locimp@locale@std@@CAXPEAV123@@Z 000000014005050c f   libcpmt:locale0.obj
 0001:0004f588       ?_Locinfo_ctor@_Locinfo@std@@SAXPEAV12@PEBD@Z 0000000140050588 f   libcpmt:locale0.obj
 0001:0004f5f4       ?_Locinfo_dtor@_Locinfo@std@@SAXPEAV12@@Z 00000001400505f4 f   libcpmt:locale0.obj
 0001:0004f610       ?_New_Locimp@_Locimp@locale@std@@CAPEAV123@_N@Z 0000000140050610 f   libcpmt:locale0.obj
 0001:0004f680       ?_Setgloballocale@locale@std@@CAXPEAX@Z 0000000140050680 f   libcpmt:locale0.obj
 0001:0004f6b4       _Deletegloballocale        00000001400506b4 f   libcpmt:locale0.obj
 0001:0004f728       _Getcvt                    0000000140050728 f   libcpmt:xwctomb.obj
 0001:0004f7d0       __std_fs_code_page         00000001400507d0 f   libcpmt:filesystem.obj
 0001:0004f7f8       __std_fs_convert_narrow_to_wide 00000001400507f8 f   libcpmt:filesystem.obj
 0001:0004f840       __std_fs_convert_wide_to_narrow 0000000140050840 f   libcpmt:filesystem.obj
 0001:0004f97c       __std_system_error_allocate_message 000000014005097c f   libcpmt:syserror_import_lib.obj
 0001:0004fa54       __std_system_error_deallocate_message 0000000140050a54 f   libcpmt:syserror_import_lib.obj
 0001:0004fa5c       ?_Syserror_map@std@@YAPEBDH@Z 0000000140050a5c f   libcpmt:syserror.obj
 0001:0004fa84       ?_Winerror_map@std@@YAHH@Z 0000000140050a84 f   libcpmt:syserror.obj
 0001:0004faa8       ??1_NonReentrantBlockingLock@details@Concurrency@@QEAA@XZ 0000000140050aa8 f   libconcrt:rtlocks.obj
 0001:0004faa8       ??1_ReentrantBlockingLock@details@Concurrency@@QEAA@XZ 0000000140050aa8 f   libconcrt:rtlocks.obj
 0001:0004faa8       _Mtxdst                    0000000140050aa8 f   libcpmt:xmtx.obj
 0001:0004fab0       _Mtxinit                   0000000140050ab0 f   libcpmt:xmtx.obj
 0001:0004fac0       ?_Acquire@_NonReentrantBlockingLock@details@Concurrency@@QEAAXXZ 0000000140050ac0 f   libconcrt:rtlocks.obj
 0001:0004fac0       ?_Acquire@_ReentrantBlockingLock@details@Concurrency@@QEAAXXZ 0000000140050ac0 f   libconcrt:rtlocks.obj
 0001:0004fac0       _Mtxlock                   0000000140050ac0 f   libcpmt:xmtx.obj
 0001:0004fac8       ?_Release@_NonReentrantBlockingLock@details@Concurrency@@QEAAXXZ 0000000140050ac8 f   libconcrt:rtlocks.obj
 0001:0004fac8       ?_Release@_ReentrantBlockingLock@details@Concurrency@@QEAAXXZ 0000000140050ac8 f   libconcrt:rtlocks.obj
 0001:0004fac8       _Mtxunlock                 0000000140050ac8 f   libcpmt:xmtx.obj
 0001:0004fad0       _Timespec64_get_sys        0000000140050ad0 f   libcpmt:xtime.obj
 0001:0004fb0c       _Xtime_get_ticks           0000000140050b0c f   libcpmt:xtime.obj
 0001:0004fb3c       _Mtx_lock                  0000000140050b3c f   libcpmt:mutex.obj
 0001:0004fb44       _Mtx_unlock                0000000140050b44 f   libcpmt:mutex.obj
 0001:0004fc9c       _Cnd_broadcast             0000000140050c9c f   libcpmt:cond.obj
 0001:0004fcb4       _Cnd_wait                  0000000140050cb4 f   libcpmt:cond.obj
 0001:0004fcfc       ?_Atexit@@YAXP6AXXZ@Z      0000000140050cfc f   libcpmt:iosptrs.obj
 0001:0004fd84       __crtGetSystemTimePreciseAsFileTime 0000000140050d84 f   libcpmt:winapisupp.obj
 0001:0004fdac       ??0AllocatorBucket@details@Concurrency@@QEAA@XZ 0000000140050dac f   libconcrt:SubAllocator.obj
 0001:0004fdd0       ??1AllocatorBucket@details@Concurrency@@QEAA@XZ 0000000140050dd0 f   libconcrt:SubAllocator.obj
 0001:0004fe04       ?Alloc@AllocatorBucket@details@Concurrency@@QEAAPEATAllocationEntry@23@XZ 0000000140050e04 f   libconcrt:SubAllocator.obj
 0001:0004fe2c       ?Alloc@SubAllocator@details@Concurrency@@QEAAPEAX_K@Z 0000000140050e2c f   libconcrt:SubAllocator.obj
 0001:0004fea0       ?Free@AllocatorBucket@details@Concurrency@@QEAA_NPEATAllocationEntry@23@@Z 0000000140050ea0 f   libconcrt:SubAllocator.obj
 0001:0004fed0       ?Free@Concurrency@@YAXPEAX@Z 0000000140050ed0 f   libconcrt:SubAllocator.obj
 0001:0004ff1c       ?Free@SubAllocator@details@Concurrency@@QEAAXPEAX@Z 0000000140050f1c f   libconcrt:SubAllocator.obj
 0001:0004ff68       ?GetBucketIndex@SubAllocator@details@Concurrency@@SAH_K@Z 0000000140050f68 f   libconcrt:SubAllocator.obj
 0001:0004ffc0       ?StaticAlloc@SubAllocator@details@Concurrency@@SAPEAX_K@Z 0000000140050fc0 f   libconcrt:SubAllocator.obj
 0001:00050010       ?Block@Context@Concurrency@@SAXXZ 0000000140051010 f   libconcrt:Context.obj
 0001:00050050       ?CurrentContext@Context@Concurrency@@SAPEAV12@XZ 0000000140051050 f   libconcrt:Context.obj
 0001:0005007c       ?_CurrentContext@_Context@details@Concurrency@@SA?AV123@XZ 000000014005107c f   libconcrt:Context.obj
 0001:000500b4       ?_IsSynchronouslyBlocked@_Context@details@Concurrency@@QEBA_NXZ 00000001400510b4 f   libconcrt:Context.obj
 0001:000500c8       ?_Yield@_Context@details@Concurrency@@SAXXZ 00000001400510c8 f   libconcrt:Context.obj
 0001:00050108       ?GetNumberOfVirtualProcessors@CurrentScheduler@Concurrency@@SAIXZ 0000000140051108 f   libconcrt:CurrentScheduler.obj
 0001:00050138       ?_GetNumberOfVirtualProcessors@_CurrentScheduler@details@Concurrency@@SAIXZ 0000000140051138 f   libconcrt:CurrentScheduler.obj
 0001:0005015c       ??0_NonReentrantBlockingLock@details@Concurrency@@QEAA@XZ 000000014005115c f   libconcrt:rtlocks.obj
 0001:0005015c       ??0_ReentrantBlockingLock@details@Concurrency@@QEAA@XZ 000000014005115c f   libconcrt:rtlocks.obj
 0001:0005018c       ??0_ReaderWriterLock@details@Concurrency@@QEAA@XZ 000000014005118c f   libconcrt:rtlocks.obj
 0001:000501a0       ??0critical_section@Concurrency@@QEAA@XZ 00000001400511a0 f   libconcrt:rtlocks.obj
 0001:000501d4       ??0improper_lock@Concurrency@@QEAA@AEBV01@@Z 00000001400511d4 f i libconcrt:rtlocks.obj
 0001:00050210       ??0scoped_lock@critical_section@Concurrency@@QEAA@AEAV12@@Z 0000000140051210 f   libconcrt:rtlocks.obj
 0001:0005028c       ??1scoped_lock@critical_section@Concurrency@@QEAA@XZ 000000014005128c f   libconcrt:rtlocks.obj
 0001:000502a0       ?Block@LockQueueNode@details@Concurrency@@QEAAXI@Z 00000001400512a0 f i libconcrt:rtlocks.obj
 0001:00050354       ?_AcquireRead@_ReaderWriterLock@details@Concurrency@@QEAAXXZ 0000000140051354 f   libconcrt:rtlocks.obj
 0001:00050394       ?_AcquireWrite@_ReaderWriterLock@details@Concurrency@@QEAAXXZ 0000000140051394 f   libconcrt:rtlocks.obj
 0001:000503d0       ?_Acquire_lock@critical_section@Concurrency@@QEAA_NPEAX_N@Z 00000001400513d0 f   libconcrt:rtlocks.obj
 0001:000505c8       ?_FlushWriteOwners@_ReaderWriterLock@details@Concurrency@@QEAAXXZ 00000001400515c8 f   libconcrt:rtlocks.obj
 0001:000505e8       ?_Flush_current_owner@critical_section@Concurrency@@QEAAXXZ 00000001400515e8 f   libconcrt:rtlocks.obj
 0001:00050610       ?_Initialize@_SpinCount@details@Concurrency@@SAXXZ 0000000140051610 f   libconcrt:rtlocks.obj
 0001:00050634       ?_ReleaseRead@_ReaderWriterLock@details@Concurrency@@QEAAXXZ 0000000140051634 f   libconcrt:rtlocks.obj
 0001:00050638       ?_ReleaseWrite@_ReaderWriterLock@details@Concurrency@@QEAAXXZ 0000000140051638 f   libconcrt:rtlocks.obj
 0001:00050644       ?_SpinOnce@?$_SpinWait@$0A@@details@Concurrency@@QEAA_NXZ 0000000140051644 f i libconcrt:rtlocks.obj
 0001:000506e4       ?_Switch_to_active@critical_section@Concurrency@@AEAAXPEAX@Z 00000001400516e4 f   libconcrt:rtlocks.obj
 0001:00050778       ?_TryAcquireWrite@_ReaderWriterLock@details@Concurrency@@QEAA_NXZ 0000000140051778 f   libconcrt:rtlocks.obj
 0001:00050790       ?_Value@_SpinCount@details@Concurrency@@SAIXZ 0000000140051790 f   libconcrt:rtlocks.obj
 0001:00050798       ?_WaitEquals@_ReaderWriterLock@details@Concurrency@@CAXAEDJJJ@Z 0000000140051798 f   libconcrt:rtlocks.obj
 0001:0005080c       ?lock@critical_section@Concurrency@@QEAAXXZ 000000014005180c f   libconcrt:rtlocks.obj
 0001:00050888       ?unlock@critical_section@Concurrency@@QEAAXXZ 0000000140051888 f   libconcrt:rtlocks.obj
 0001:000509ac       _concrt_static_cleanup     00000001400519ac f   libconcrt:utils.obj
 0001:000509c4       ??0scheduler_resource_allocation_error@Concurrency@@QEAA@AEBV01@@Z 00000001400519c4 f i libconcrt:utils.obj
 0001:00050a10       ??1GlobalCore@details@Concurrency@@QEAA@XZ 0000000140051a10 f i libconcrt:utils.obj
 0001:00050a20       ??_Escheduler_resource_allocation_error@Concurrency@@UEAAPEAXI@Z 0000000140051a20 f i libconcrt:utils.obj
 0001:00050a20       ??_Escheduler_worker_creation_error@Concurrency@@UEAAPEAXI@Z 0000000140051a20 f i libconcrt:Exceptions.obj
 0001:00050a20       ??_Gscheduler_resource_allocation_error@Concurrency@@UEAAPEAXI@Z 0000000140051a20 f i libconcrt:utils.obj
 0001:00050a20       ??_Gscheduler_worker_creation_error@Concurrency@@UEAAPEAXI@Z 0000000140051a20 f i libconcrt:Exceptions.obj
 0001:00050a64       ?DecodePointer@Security@details@Concurrency@@SAPEAXPEAX@Z 0000000140051a64 f   libconcrt:utils.obj
 0001:00050a64       ?EncodePointer@Security@details@Concurrency@@SAPEAXPEAX@Z 0000000140051a64 f   libconcrt:utils.obj
 0001:00050a70       ?DeleteAsyncTimerAndUnloadLibrary@details@Concurrency@@YAXPEAU_TP_TIMER@@@Z 0000000140051a70 f   libconcrt:utils.obj
 0001:00050abc       ?FreeLibraryAndDestroyThread@details@Concurrency@@YAXK@Z 0000000140051abc f   libconcrt:utils.obj
 0001:00050af4       ?InitializeCookie@Security@details@Concurrency@@SA_KXZ 0000000140051af4 f   libconcrt:utils.obj
 0001:00050b58       ?LoadLibraryAndCreateThread@details@Concurrency@@YAPEAXPEAU_SECURITY_ATTRIBUTES@@_KP6AKPEAX@Z2KPEAK@Z 0000000140051b58 f   libconcrt:utils.obj
 0001:00050ba8       ?ReferenceLoadLibrary@details@Concurrency@@YAXXZ 0000000140051ba8 f   libconcrt:utils.obj
 0001:00050c50       ?RegisterAsyncTimerAndLoadLibrary@details@Concurrency@@YAPEAU_TP_TIMER@@KP6AXPEAU_TP_CALLBACK_INSTANCE@@PEAXPEAU3@@Z1_N@Z 0000000140051c50 f   libconcrt:utils.obj
 0001:00050cc8       ?RegisterAsyncWaitAndLoadLibrary@details@Concurrency@@YAPEAU_TP_WAIT@@PEAXP6AXPEAU_TP_CALLBACK_INSTANCE@@0PEAU3@K@Z0@Z 0000000140051cc8 f   libconcrt:utils.obj
 0001:00050d1c       ?UnRegisterAsyncTimerAndUnloadLibrary@details@Concurrency@@YAXPEAU_TP_CALLBACK_INSTANCE@@PEAU_TP_TIMER@@@Z 0000000140051d1c f   libconcrt:utils.obj
 0001:00050d6c       ?UnRegisterAsyncWaitAndUnloadLibrary@details@Concurrency@@YAXPEAU_TP_CALLBACK_INSTANCE@@PEAU_TP_WAIT@@@Z 0000000140051d6c f   libconcrt:utils.obj
 0001:00050db8       ?_Acquire@_CriticalNonReentrantLock@details@Concurrency@@QEAAXXZ 0000000140051db8 f   libconcrt:utils.obj
 0001:00050db8       ?_Acquire@_HyperNonReentrantLock@details@Concurrency@@QEAAXXZ 0000000140051db8 f   libconcrt:utils.obj
 0001:00050e0c       ?_Release@_CriticalNonReentrantLock@details@Concurrency@@QEAAXXZ 0000000140051e0c f   libconcrt:utils.obj
 0001:00050e0c       ?_Release@_HyperNonReentrantLock@details@Concurrency@@QEAAXXZ 0000000140051e0c f   libconcrt:utils.obj
 0001:00050e18       ?_Sleep0@details@Concurrency@@YAXXZ 0000000140051e18 f   libconcrt:utils.obj
 0001:00050e20       ?_TryAcquire@_CriticalNonReentrantLock@details@Concurrency@@QEAA_NXZ 0000000140051e20 f   libconcrt:utils.obj
 0001:00050e58       ?_UnderlyingYield@details@Concurrency@@YAXXZ 0000000140051e58 f   libconcrt:utils.obj
 0001:00050e88       ??0_Interruption_exception@details@Concurrency@@QEAA@AEBV012@@Z 0000000140051e88 f i libconcrt:Chores.obj
 0001:00050ec4       ??0_Interruption_exception@details@Concurrency@@QEAA@XZ 0000000140051ec4 f i libconcrt:Chores.obj
 0001:00050edc       ??0missing_wait@Concurrency@@QEAA@AEBV01@@Z 0000000140051edc f i libconcrt:Chores.obj
 0001:00050f18       ??_ECancellationTokenRegistration_TaskProc@details@Concurrency@@UEAAPEAXI@Z 0000000140051f18 f i libconcrt:Chores.obj
 0001:00050f18       ??_GCancellationTokenRegistration_TaskProc@details@Concurrency@@UEAAPEAXI@Z 0000000140051f18 f i libconcrt:Chores.obj
 0001:00050f44       ??_E_RefCounter@details@Concurrency@@UEAAPEAXI@Z 0000000140051f44 f i libconcrt:Chores.obj
 0001:00050f44       ??_G_RefCounter@details@Concurrency@@UEAAPEAXI@Z 0000000140051f44 f i libconcrt:Chores.obj
 0001:00050f70       ?AddTail@?$SafeRWList@UListEntry@details@Concurrency@@VNoCount@CollectionTypes@23@V_ReaderWriterLock@23@@details@Concurrency@@QEAAXPEAUListEntry@23@@Z 0000000140051f70 f i libconcrt:Chores.obj
 0001:00050fdc       ?_CancelViaToken@_UnrealizedChore@details@Concurrency@@CAXPEAVContextBase@23@@Z 0000000140051fdc f   libconcrt:Chores.obj
 0001:0005100c       ?_CheckTaskCollection@_UnrealizedChore@details@Concurrency@@IEAAXXZ 000000014005200c f   libconcrt:Chores.obj
 0001:00051078       ?_DeregisterCallback@_CancellationTokenState@details@Concurrency@@QEAAXPEAV_CancellationTokenRegistration@23@@Z 0000000140052078 f i libconcrt:Chores.obj
 0001:000511d0       ?_Destroy@_RefCounter@details@Concurrency@@MEAAXXZ 00000001400521d0 f i libconcrt:Chores.obj
 0001:000511f0       ?_Exec@CancellationTokenRegistration_TaskProc@details@Concurrency@@MEAAXXZ 00000001400521f0 f i libconcrt:Chores.obj
 0001:00051208       ?_InternalFree@_UnrealizedChore@details@Concurrency@@CAXPEAV123@@Z 0000000140052208 f   libconcrt:Chores.obj
 0001:0005121c       ?_Invoke@_CancellationTokenRegistration@details@Concurrency@@AEAAXXZ 000000014005221c f i libconcrt:Chores.obj
 0001:000512d8       ?_None@_CancellationTokenState@details@Concurrency@@SAPEAV123@XZ 00000001400522d8 f i libconcrt:Chores.obj
 0001:000512e0       ?_PrepareSteal@_UnrealizedChore@details@Concurrency@@QEAAXPEAVContextBase@23@@Z 00000001400522e0 f   libconcrt:Chores.obj
 0001:000512f8       ?_PrepareStealStructured@_UnrealizedChore@details@Concurrency@@AEAAXPEAVContextBase@23@@Z 00000001400522f8 f   libconcrt:Chores.obj
 0001:0005133c       ?_PrepareStealUnstructured@_UnrealizedChore@details@Concurrency@@AEAAXPEAVContextBase@23@@Z 000000014005233c f   libconcrt:Chores.obj
 0001:000513f4       ?_RegisterCallback@_CancellationTokenState@details@Concurrency@@QEAAPEAV_CancellationTokenRegistration@23@P6AXPEAX@Z0H@Z 00000001400523f4 f i libconcrt:Chores.obj
 0001:000514ec       ?_RegisterCallback@_CancellationTokenState@details@Concurrency@@QEAAXPEAV_CancellationTokenRegistration@23@@Z 00000001400524ec f i libconcrt:Chores.obj
 0001:000515d4       ?_SetDetached@_UnrealizedChore@details@Concurrency@@QEAAX_N@Z 00000001400525d4 f   libconcrt:Chores.obj
 0001:000515d8       ?_StructuredChoreWrapper@_UnrealizedChore@details@Concurrency@@CAXPEAV123@@Z 00000001400525d8 f   libconcrt:Chores.obj
 0001:00051788       ??0_TaskCollection@details@Concurrency@@AEAA@PEAV012@_N@Z 0000000140052788 f   libconcrt:TaskCollection.obj
 0001:0005190c       ??0invalid_multiple_scheduling@Concurrency@@QEAA@AEBV01@@Z 000000014005290c f i libconcrt:TaskCollection.obj
 0001:00051948       ??1?$_MallocaArrayHolder@PEAVevent@Concurrency@@@details@Concurrency@@UEAA@XZ 0000000140052948 f i libconcrt:TaskCollection.obj
 0001:00051978       ??1_Scoped_lock_read@?$SafeRWList@UListEntry@details@Concurrency@@VNoCount@CollectionTypes@23@V_ReaderWriterLock@23@@details@Concurrency@@QEAA@XZ 0000000140052978 f i libconcrt:TaskCollection.obj
 0001:00051990       ??1_StructuredTaskCollection@details@Concurrency@@QEAA@XZ 0000000140052990 f   libconcrt:TaskCollection.obj
 0001:00051a04       ??1_TaskCollection@details@Concurrency@@QEAA@XZ 0000000140052a04 f   libconcrt:TaskCollection.obj
 0001:00051b14       ??1exception_ptr@std@@QEAA@XZ 0000000140052b14 f i libconcrt:TaskCollection.obj
 0001:00051b1c       ??_E?$_MallocaArrayHolder@PEAVevent@Concurrency@@@details@Concurrency@@UEAAPEAXI@Z 0000000140052b1c f i libconcrt:TaskCollection.obj
 0001:00051b1c       ??_G?$_MallocaArrayHolder@PEAVevent@Concurrency@@@details@Concurrency@@UEAAPEAXI@Z 0000000140052b1c f i libconcrt:TaskCollection.obj
 0001:00051b70       ?Find@?$Hash@PEAV_TaskCollection@details@Concurrency@@PEAV123@@details@Concurrency@@QEAAPEAUListNode@123@AEBQEAV_TaskCollection@23@PEAPEAV523@@Z 0000000140052b70 f i libconcrt:TaskCollection.obj
 0001:00051bf0       ?FindAndDelete@?$Hash@PEAV_TaskCollection@details@Concurrency@@PEAV123@@details@Concurrency@@QEAA_NAEBQEAV_TaskCollection@23@PEAPEAV423@@Z 0000000140052bf0 f i libconcrt:TaskCollection.obj
 0001:00051ca0       ?GetArbitraryAlias@ContextBase@details@Concurrency@@QEAAPEAV_TaskCollection@23@PEAV423@@Z 0000000140052ca0 f i libconcrt:TaskCollection.obj
 0001:00051d24       ?Insert@?$Hash@PEAV_TaskCollection@details@Concurrency@@PEAV123@@details@Concurrency@@QEAAPEAUListNode@123@AEBQEAV_TaskCollection@23@0@Z 0000000140052d24 f i libconcrt:TaskCollection.obj
 0001:00051e04       ?_Abort@_StructuredTaskCollection@details@Concurrency@@AEAAXXZ 0000000140052e04 f   libconcrt:TaskCollection.obj
 0001:00051f00       ?_Abort@_TaskCollection@details@Concurrency@@AEAAX_N@Z 0000000140052f00 f   libconcrt:TaskCollection.obj
 0001:000520a0       ?_AbortiveSweep@_TaskCollection@details@Concurrency@@AEAAXPEAX@Z 00000001400530a0 f   libconcrt:TaskCollection.obj
 0001:00052118       ?_Alias@_TaskCollection@details@Concurrency@@AEAAPEAV123@XZ 0000000140053118 f   libconcrt:TaskCollection.obj
 0001:00052204       ?_Cancel@_StructuredTaskCollection@details@Concurrency@@QEAAXXZ 0000000140053204 f   libconcrt:TaskCollection.obj
 0001:0005228c       ?_Cancel@_TaskCollection@details@Concurrency@@AEAAX_NPEAV123@@Z 000000014005328c f   libconcrt:TaskCollection.obj
 0001:00052374       ?_CancelDirectAliases@_TaskCollection@details@Concurrency@@AEAAX_NPEAV123@@Z 0000000140053374 f   libconcrt:TaskCollection.obj
 0001:000523ac       ?_CancelFromArbitraryThread@_TaskCollection@details@Concurrency@@AEAAX_N@Z 00000001400533ac f   libconcrt:TaskCollection.obj
 0001:00052470       ?_CancelStolenContexts@_TaskCollection@details@Concurrency@@AEAAX_N0@Z 0000000140053470 f   libconcrt:TaskCollection.obj
 0001:00052518       ?_CleanupToken@_StructuredTaskCollection@details@Concurrency@@AEAAXXZ 0000000140053518 f   libconcrt:TaskCollection.obj
 0001:00052584       ?_CollectionMatchPredicate@_TaskCollection@details@Concurrency@@CA_NPEAV_UnrealizedChore@23@PEAX@Z 0000000140053584 f   libconcrt:TaskCollection.obj
 0001:00052590       ?_CountUp@_StructuredTaskCollection@details@Concurrency@@AEAAXXZ 0000000140053590 f   libconcrt:TaskCollection.obj
 0001:000525c0       ?_FullAliasWait@_TaskCollection@details@Concurrency@@AEAAXPEAV123@@Z 00000001400535c0 f   libconcrt:TaskCollection.obj
 0001:00052750       ?_GetStealTrackingList@_TaskCollection@details@Concurrency@@AEBAPEAXXZ 0000000140053750 f   libconcrt:TaskCollection.obj
 0001:00052758       ?_Initialize@_StructuredTaskCollection@details@Concurrency@@AEAAXXZ 0000000140053758 f   libconcrt:TaskCollection.obj
 0001:000527b8       ?_IsMarkedForAbnormalExit@_TaskCollection@details@Concurrency@@QEBA_NXZ 00000001400537b8 f   libconcrt:TaskCollection.obj
 0001:000527c8       ?_IsStaleAlias@_TaskCollection@details@Concurrency@@AEBA_NXZ 00000001400537c8 f   libconcrt:TaskCollection.obj
 0001:000527d4       ?_NotifyCompletedChoreAndFree@_TaskCollection@details@Concurrency@@AEAAXPEAV_UnrealizedChore@23@@Z 00000001400537d4 f   libconcrt:TaskCollection.obj
 0001:0005283c       ?_OriginalCollection@_TaskCollection@details@Concurrency@@QEBAPEAV123@XZ 000000014005383c f   libconcrt:TaskCollection.obj
 0001:00052844       ?_ReleaseAlias@_TaskCollection@details@Concurrency@@AEAAXXZ 0000000140053844 f   libconcrt:TaskCollection.obj
 0001:00052880       ?_Reset@_TaskCollection@details@Concurrency@@AEAAXPEAV123@@Z 0000000140053880 f   libconcrt:TaskCollection.obj
 0001:000529b4       ?_RunAndWait@_StructuredTaskCollection@details@Concurrency@@QEAA?AW4_TaskCollectionStatus@23@PEAV_UnrealizedChore@23@@Z 00000001400539b4 f   libconcrt:TaskCollection.obj
 0001:00052cec       ?_Schedule@_StructuredTaskCollection@details@Concurrency@@QEAAXPEAV_UnrealizedChore@23@@Z 0000000140053cec f   libconcrt:TaskCollection.obj
 0001:00052d74       ?_SetCancelState@_TaskCollection@details@Concurrency@@AEAA_NJ@Z 0000000140053d74 f   libconcrt:TaskCollection.obj
 0001:00052da0       ?_SweepAbortedChore@_TaskCollection@details@Concurrency@@CA_NPEAV_UnrealizedChore@23@PEAX@Z 0000000140053da0 f   libconcrt:TaskCollection.obj
 0001:00052dc0       ?_TaskCleanup@_TaskCollection@details@Concurrency@@AEAA_N_N@Z 0000000140053dc0 f   libconcrt:TaskCollection.obj
 0001:00052e5c       ?_WaitOnStolenChores@_StructuredTaskCollection@details@Concurrency@@AEAAXJ@Z 0000000140053e5c f   libconcrt:TaskCollection.obj
 0001:00052e9c       ??0ContextBase@details@Concurrency@@QEAA@PEAVSchedulerBase@12@_N@Z 0000000140053e9c f   libconcrt:ContextBase.obj
 0001:00052fe0       ??0_Cancellation_beacon@details@Concurrency@@QEAA@XZ 0000000140053fe0 f   libconcrt:ContextBase.obj
 0001:00053020       ??1?$Hash@PEAV_TaskCollection@details@Concurrency@@PEAV123@@details@Concurrency@@QEAA@XZ 0000000140054020 f i libconcrt:ContextBase.obj
 0001:0005303c       ??1?$StructuredWorkStealingQueue@V_UnrealizedChore@details@Concurrency@@V_CriticalNonReentrantLock@23@@details@Concurrency@@QEAA@XZ 000000014005403c f i libconcrt:ContextBase.obj
 0001:0005305c       ??1?$WorkStealingQueue@V_UnrealizedChore@details@Concurrency@@V_CriticalNonReentrantLock@23@@details@Concurrency@@QEAA@XZ 000000014005405c f i libconcrt:ContextBase.obj
 0001:0005307c       ??1CancellationBeaconStack@ContextBase@details@Concurrency@@QEAA@XZ 000000014005407c f i libconcrt:ContextBase.obj
 0001:000530dc       ??1Context@Concurrency@@MEAA@XZ 00000001400540dc f i libconcrt:ContextBase.obj
 0001:000530e8       ??1ContextBase@details@Concurrency@@UEAA@XZ 00000001400540e8 f i libconcrt:ContextBase.obj
 0001:00053174       ??1QuickBitSet@details@Concurrency@@QEAA@XZ 0000000140054174 f i libconcrt:ContextBase.obj
 0001:00053180       ??1_Cancellation_beacon@details@Concurrency@@QEAA@XZ 0000000140054180 f   libconcrt:ContextBase.obj
 0001:000531b0       ??1_Scoped_lock@_CriticalNonReentrantLock@details@Concurrency@@QEAA@XZ 00000001400541b0 f i libconcrt:ContextBase.obj
 0001:000531b0       ??1_Scoped_lock@_HyperNonReentrantLock@details@Concurrency@@QEAA@XZ 00000001400541b0 f i libconcrt:SchedulerBase.obj
 0001:000531c4       ??_EContext@Concurrency@@MEAAPEAXI@Z 00000001400541c4 f i libconcrt:ContextBase.obj
 0001:000531c4       ??_GContext@Concurrency@@MEAAPEAXI@Z 00000001400541c4 f i libconcrt:ContextBase.obj
 0001:000531f0       ??_EContextBase@details@Concurrency@@UEAAPEAXI@Z 00000001400541f0 f i libconcrt:ContextBase.obj
 0001:000531f0       ??_GContextBase@details@Concurrency@@UEAAPEAXI@Z 00000001400541f0 f i libconcrt:ContextBase.obj
 0001:00053224       ?Add@?$ListArray@VWorkQueue@details@Concurrency@@@details@Concurrency@@QEAAHPEAVWorkQueue@23@@Z 0000000140054224 f i libconcrt:ContextBase.obj
 0001:000533b8       ?AddStealer@ContextBase@details@Concurrency@@QEAAXPEAV123@_N@Z 00000001400543b8 f   libconcrt:ContextBase.obj
 0001:00053408       ?CancelCollection@ContextBase@details@Concurrency@@QEAAXH@Z 0000000140054408 f   libconcrt:ContextBase.obj
 0001:00053478       ?CancelCollectionComplete@ContextBase@details@Concurrency@@QEAA_NH@Z 0000000140054478 f   libconcrt:ContextBase.obj
 0001:000534b4       ?CancelStealers@ContextBase@details@Concurrency@@QEAAXPEAV_TaskCollectionBase@23@@Z 00000001400544b4 f   libconcrt:ContextBase.obj
 0001:000535d0       ?CheckForDeletion@?$ListArray@VWorkQueue@details@Concurrency@@@details@Concurrency@@AEAAXXZ 00000001400545d0 f i libconcrt:ContextBase.obj
 0001:00053660       ?CheckForDeletionBridge@?$ListArray@VWorkQueue@details@Concurrency@@@details@Concurrency@@CAXPEAV123@@Z 0000000140054660 f i libconcrt:ContextBase.obj
 0001:00053668       ?Claim@Slot@?$Mailbox@V_UnrealizedChore@details@Concurrency@@@details@Concurrency@@QEAA_NPEAPEAV_UnrealizedChore@34@@Z 0000000140054668 f i libconcrt:ContextBase.obj
 0001:000536dc       ?Cleanup@ContextBase@details@Concurrency@@QEAAXXZ 00000001400546dc f   libconcrt:ContextBase.obj
 0001:00053738       ?ClearAliasTable@ContextBase@details@Concurrency@@QEAAXXZ 0000000140054738 f   libconcrt:ContextBase.obj
 0001:000537fc       ?ClearContextTls@ContextBase@details@Concurrency@@AEAAXXZ 00000001400547fc f   libconcrt:ContextBase.obj
 0001:0005380c       ?CreateStructuredWorkQueue@ContextBase@details@Concurrency@@QEAAXXZ 000000014005480c f   libconcrt:ContextBase.obj
 0001:000538b0       ?CreateWorkQueue@ContextBase@details@Concurrency@@QEAAXXZ 00000001400548b0 f   libconcrt:ContextBase.obj
 0001:0005394c       ?DetachStealers@ContextBase@details@Concurrency@@QEAAXXZ 000000014005494c f   libconcrt:ContextBase.obj
 0001:00053b24       ?EnterCriticalRegionHelper@ContextBase@details@Concurrency@@UEAAHXZ 0000000140054b24 f i libconcrt:ContextBase.obj
 0001:00053b2c       ?EnterHyperCriticalRegionHelper@ContextBase@details@Concurrency@@UEAAHXZ 0000000140054b2c f i libconcrt:ContextBase.obj
 0001:00053b38       ?ExitCriticalRegionHelper@ContextBase@details@Concurrency@@UEAAHXZ 0000000140054b38 f i libconcrt:ContextBase.obj
 0001:00053b40       ?ExitHyperCriticalRegionHelper@ContextBase@details@Concurrency@@UEAAHXZ 0000000140054b40 f i libconcrt:ContextBase.obj
 0001:00053b50       ?FlagCancellationBeacons@ContextBase@details@Concurrency@@QEAAXH@Z 0000000140054b50 f   libconcrt:ContextBase.obj
 0001:00053bc8       ?GetCriticalRegionType@ContextBase@details@Concurrency@@UEBA?AW4CriticalRegionType@3@XZ 0000000140054bc8 f i libconcrt:ContextBase.obj
 0001:00053bdc       ?GetId@ContextBase@details@Concurrency@@UEBAIXZ 0000000140054bdc f   libconcrt:ContextBase.obj
 0001:00053be0       ?GetIndirectAlias@ContextBase@details@Concurrency@@QEBAPEAV_TaskCollection@23@XZ 0000000140054be0 f   libconcrt:ContextBase.obj
 0001:00053be8       ?GetScheduleGroup@ContextBase@details@Concurrency@@QEBAPEAVScheduleGroupBase@23@XZ 0000000140054be8 f   libconcrt:ContextBase.obj
 0001:00053bfc       ?GetScheduleGroupId@ContextBase@details@Concurrency@@UEBAIXZ 0000000140054bfc f   libconcrt:ContextBase.obj
 0001:00053c20       ?GetScheduleGroupSegment@ContextBase@details@Concurrency@@QEBAPEAVScheduleGroupSegmentBase@23@XZ 0000000140054c20 f   libconcrt:ContextBase.obj
 0001:00053c28       ?GetScheduler@ContextBase@details@Concurrency@@QEBAPEAVSchedulerBase@23@XZ 0000000140054c28 f   libconcrt:ContextBase.obj
 0001:00053c30       ?Grow@CancellationBeaconStack@ContextBase@details@Concurrency@@AEAAXXZ 0000000140054c30 f i libconcrt:ContextBase.obj
 0001:00053d08       ?GrowAndPush@?$StructuredWorkStealingQueue@VInternalContextBase@details@Concurrency@@V_HyperNonReentrantLock@23@@details@Concurrency@@AEAAXPEAVInternalContextBase@23@VSlot@?$Mailbox@VInternalContextBase@details@Concurrency@@@23@@Z 0000000140054d08 f i libconcrt:InternalContextBase.obj
 0001:00053d08       ?GrowAndPush@?$StructuredWorkStealingQueue@V_UnrealizedChore@details@Concurrency@@V_CriticalNonReentrantLock@23@@details@Concurrency@@AEAAXPEAV_UnrealizedChore@23@VSlot@?$Mailbox@V_UnrealizedChore@details@Concurrency@@@23@@Z 0000000140054d08 f i libconcrt:ContextBase.obj
 0001:00053eb8       ?IsCanceledAtDepth@ContextBase@details@Concurrency@@AEAA_NPEAV_TaskCollectionBase@23@H@Z 0000000140054eb8 f   libconcrt:ContextBase.obj
 0001:00053fd0       ?IsCancellationVisible@ContextBase@details@Concurrency@@QEBA_NPEAV_TaskCollectionBase@23@_N@Z 0000000140054fd0 f   libconcrt:ContextBase.obj
 0001:00054024       ?Pop@?$StructuredWorkStealingQueue@VInternalContextBase@details@Concurrency@@V_HyperNonReentrantLock@23@@details@Concurrency@@QEAAPEAVInternalContextBase@23@XZ 0000000140055024 f i libconcrt:VirtualProcessor.obj
 0001:00054024       ?Pop@?$StructuredWorkStealingQueue@V_UnrealizedChore@details@Concurrency@@V_CriticalNonReentrantLock@23@@details@Concurrency@@QEAAPEAV_UnrealizedChore@23@XZ 0000000140055024 f i libconcrt:ContextBase.obj
 0001:000540d4       ?Pop@?$WorkStealingQueue@V_UnrealizedChore@details@Concurrency@@V_CriticalNonReentrantLock@23@@details@Concurrency@@QEAAPEAV_UnrealizedChore@23@XZ 00000001400550d4 f i libconcrt:ContextBase.obj
 0001:000541ac       ?PopContextFromTls@ContextBase@details@Concurrency@@AEAAPEAV123@XZ 00000001400551ac f   libconcrt:ContextBase.obj
 0001:000541e4       ?PopGoverningTokenState@ContextBase@details@Concurrency@@QEAAXPEAV_CancellationTokenState@23@@Z 00000001400551e4 f   libconcrt:ContextBase.obj
 0001:0005427c       ?PopStructured@ContextBase@details@Concurrency@@QEAAPEAV_UnrealizedChore@23@XZ 000000014005527c f   libconcrt:ContextBase.obj
 0001:00054288       ?Push@?$StructuredWorkStealingQueue@VInternalContextBase@details@Concurrency@@V_HyperNonReentrantLock@23@@details@Concurrency@@QEAAXPEAVInternalContextBase@23@@Z 0000000140055288 f i libconcrt:InternalContextBase.obj
 0001:00054288       ?Push@?$StructuredWorkStealingQueue@V_UnrealizedChore@details@Concurrency@@V_CriticalNonReentrantLock@23@@details@Concurrency@@QEAAXPEAV_UnrealizedChore@23@@Z 0000000140055288 f i libconcrt:ContextBase.obj
 0001:00054338       ?PushCancellationBeacon@ContextBase@details@Concurrency@@QEAAPEAU_Beacon_reference@23@XZ 0000000140055338 f   libconcrt:ContextBase.obj
 0001:000543f8       ?PushContextToTls@ContextBase@details@Concurrency@@AEAAXPEAV123@@Z 00000001400553f8 f   libconcrt:ContextBase.obj
 0001:0005440c       ?PushGoverningTokenState@ContextBase@details@Concurrency@@QEAAXPEAV_CancellationTokenState@23@H@Z 000000014005540c f   libconcrt:ContextBase.obj
 0001:00054418       ?PushStructured@ContextBase@details@Concurrency@@QEAAXPEAV_UnrealizedChore@23@@Z 0000000140055418 f   libconcrt:ContextBase.obj
 0001:000544bc       ?RecomputeMaximumCancellationDepth@ContextBase@details@Concurrency@@AEAAXXZ 00000001400554bc f   libconcrt:ContextBase.obj
 0001:00054560       ?ReferenceForCancellation@ContextBase@details@Concurrency@@QEAAXXZ 0000000140055560 f   libconcrt:ContextBase.obj
 0001:00054568       ?ReleaseWorkQueue@ContextBase@details@Concurrency@@IEAAXXZ 0000000140055568 f   libconcrt:ContextBase.obj
 0001:00054638       ?Remove@?$ListArray@VWorkQueue@details@Concurrency@@@details@Concurrency@@QEAA_NPEAVWorkQueue@23@H_N@Z 0000000140055638 f i libconcrt:ContextBase.obj
 0001:00054778       ?RemoveStealer@ContextBase@details@Concurrency@@QEAAXPEAV123@@Z 0000000140055778 f   libconcrt:ContextBase.obj
 0001:000547f0       ?SetAsCurrentTls@ContextBase@details@Concurrency@@IEAAXXZ 00000001400557f0 f   libconcrt:ContextBase.obj
 0001:00054800       ?StaticDelete@Segment@?$Mailbox@VInternalContextBase@details@Concurrency@@@details@Concurrency@@SAXPEAU1234@@Z 0000000140055800 f i libconcrt:VirtualProcessor.obj
 0001:00054800       ?StaticDelete@Segment@?$Mailbox@V_UnrealizedChore@details@Concurrency@@@details@Concurrency@@SAXPEAU1234@@Z 0000000140055800 f i libconcrt:ContextBase.obj
 0001:00054834       ?StaticEnterCriticalRegion@ContextBase@details@Concurrency@@SAXXZ 0000000140055834 f   libconcrt:ContextBase.obj
 0001:00054834       ?StaticEnterHyperCriticalRegion@ContextBase@details@Concurrency@@SAXXZ 0000000140055834 f   libconcrt:ContextBase.obj
 0001:00054834       ?StaticExitCriticalRegion@ContextBase@details@Concurrency@@SAXXZ 0000000140055834 f   libconcrt:ContextBase.obj
 0001:00054834       ?StaticExitHyperCriticalRegion@ContextBase@details@Concurrency@@SAXXZ 0000000140055834 f   libconcrt:ContextBase.obj
 0001:0005483c       ?SweepAliasTable@ContextBase@details@Concurrency@@QEAAXXZ 000000014005583c f   libconcrt:ContextBase.obj
 0001:00054944       ?SweepUnstructured@ContextBase@details@Concurrency@@QEAAXP6A_NPEAV_UnrealizedChore@23@PEAX@Z12@Z 0000000140055944 f   libconcrt:ContextBase.obj
 0001:00054950       ?SyncPop@?$WorkStealingQueue@V_UnrealizedChore@details@Concurrency@@V_CriticalNonReentrantLock@23@@details@Concurrency@@AEAAPEAV_UnrealizedChore@23@XZ 0000000140055950 f i libconcrt:ContextBase.obj
 0001:00054a54       ?ThrowContextEvent@ContextBase@details@Concurrency@@KAXW4ConcRT_EventType@3@EKK@Z 0000000140055a54 f   libconcrt:ContextBase.obj
 0001:00054acc       ?TokenHidesCancellation@ContextBase@details@Concurrency@@QEBA_NPEAV_TaskCollectionBase@23@_N@Z 0000000140055acc f   libconcrt:ContextBase.obj
 0001:00054b28       ?TryPop@?$WorkStealingQueue@V_UnrealizedChore@details@Concurrency@@V_CriticalNonReentrantLock@23@@details@Concurrency@@QEAAPEAV_UnrealizedChore@23@H@Z 0000000140055b28 f i libconcrt:ContextBase.obj
 0001:00054bf4       ?TryPopUnstructured@ContextBase@details@Concurrency@@QEAAPEAV_UnrealizedChore@23@H@Z 0000000140055bf4 f   libconcrt:ContextBase.obj
 0001:00054c04       ?Wipe@?$Hash@PEAV_TaskCollection@details@Concurrency@@PEAV123@@details@Concurrency@@QEAAXXZ 0000000140055c04 f i libconcrt:ContextBase.obj
 0001:00054c94       ?_Confirm_cancel@_Cancellation_beacon@details@Concurrency@@QEAA_NXZ 0000000140055c94 f   libconcrt:ContextBase.obj
 0001:00054ce4       ??0Etw@details@Concurrency@@AEAA@XZ 0000000140055ce4 f   libconcrt:Trace.obj
 0001:00054e1c       ??1_Scoped_lock@_NonReentrantLock@details@Concurrency@@QEAA@XZ 0000000140055e1c f i libconcrt:Trace.obj
 0001:00054e28       ?ControlCallback@details@Concurrency@@YAKW4WMIDPREQUESTCODE@@PEAXPEAK1@Z 0000000140055e28 f   libconcrt:Trace.obj
 0001:00054f1c       ?GetEnableFlags@Etw@details@Concurrency@@QEAAK_K@Z 0000000140055f1c f   libconcrt:Trace.obj
 0001:00054f64       ?GetEnableLevel@Etw@details@Concurrency@@QEAAE_K@Z 0000000140055f64 f   libconcrt:Trace.obj
 0001:00054fac       ?GetLoggerHandle@Etw@details@Concurrency@@QEAA_KPEAX@Z 0000000140055fac f   libconcrt:Trace.obj
 0001:00054ff8       ?PPL_Trace_Event@details@Concurrency@@YAXAEBU_GUID@@W4ConcRT_EventType@2@E@Z 0000000140055ff8 f   libconcrt:Trace.obj
 0001:00055068       ?RegisterGuids@Etw@details@Concurrency@@QEAAKP6AKW4WMIDPREQUESTCODE@@PEAXPEAK1@ZPEBU_GUID@@KPEAU_TRACE_GUID_REGISTRATION@@PEA_K@Z 0000000140056068 f   libconcrt:Trace.obj
 0001:000550f8       ?Trace@Etw@details@Concurrency@@QEAAK_KPEAU_EVENT_TRACE_HEADER@@@Z 00000001400560f8 f   libconcrt:Trace.obj
 0001:00055148       ?UnregisterGuids@Etw@details@Concurrency@@QEAAK_K@Z 0000000140056148 f   libconcrt:Trace.obj
 0001:00055188       ?_RegisterConcRTEventTracing@details@Concurrency@@YAXXZ 0000000140056188 f   libconcrt:Trace.obj
 0001:0005524c       ?_Trace_ppl_function@Concurrency@@YAXAEBU_GUID@@EW4ConcRT_EventType@1@@Z 000000014005624c f   libconcrt:Trace.obj
 0001:000552a4       ?_UnregisterConcRTEventTracing@details@Concurrency@@YAXXZ 00000001400562a4 f   libconcrt:Trace.obj
 0001:000552f4       ?_GetCombinableSize@details@Concurrency@@YA_KXZ 00000001400562f4 f   libconcrt:ppl.obj
 0001:00055338       ??1DefaultWaiterPool@platform@details@Concurrency@@QEAA@XZ 0000000140056338 f i libconcrt:Platform.obj
 0001:000553a4       ?__CloseThreadHandle@platform@details@Concurrency@@YAXPEAX@Z 00000001400563a4 f   libconcrt:Platform.obj
 0001:000553ac       ?__CreateAutoResetEvent@platform@details@Concurrency@@YAPEAX_N@Z 00000001400563ac f   libconcrt:Platform.obj
 0001:00055404       ?__CreateThread@platform@details@Concurrency@@YAPEAXPEAU_SECURITY_ATTRIBUTES@@_KP6AKPEAX@Z2KPEAK@Z 0000000140056404 f   libconcrt:Platform.obj
 0001:0005540c       ?__GetCurrentProcessorNumberEx@platform@details@Concurrency@@YAXPEAU_PROCESSOR_NUMBER@@@Z 000000014005640c f   libconcrt:Platform.obj
 0001:00055414       ?__GetLogicalProcessorInformationEx@platform@details@Concurrency@@YAPEAU_SYSTEM_LOGICAL_PROCESSOR_INFORMATION_EX@@W4_LOGICAL_PROCESSOR_RELATIONSHIP@@PEAK@Z 0000000140056414 f   libconcrt:Platform.obj
 0001:000554f0       ?__GetNumaHighestNodeNumber@platform@details@Concurrency@@YAKXZ 00000001400564f0 f   libconcrt:Platform.obj
 0001:0005553c       ?__GetThreadGroupAffinity@platform@details@Concurrency@@YAHPEAXPEAU_GROUP_AFFINITY@@@Z 000000014005653c f   libconcrt:Platform.obj
 0001:00055550       ?__GetThreadPriority@platform@details@Concurrency@@YAHPEAX@Z 0000000140056550 f   libconcrt:Platform.obj
 0001:00055558       ?__GetTickCount64@platform@details@Concurrency@@YA_KXZ 0000000140056558 f   libconcrt:Platform.obj
 0001:00055560       ?__InitializeCriticalSectionEx@platform@details@Concurrency@@YAHPEAU_RTL_CRITICAL_SECTION@@K@Z 0000000140056560 f   libconcrt:Platform.obj
 0001:0005556c       ?__SetThreadGroupAffinity@platform@details@Concurrency@@YAHPEAXPEBU_GROUP_AFFINITY@@@Z 000000014005656c f   libconcrt:Platform.obj
 0001:00055584       ?__SetThreadPriority@platform@details@Concurrency@@YAXPEAXH@Z 0000000140056584 f   libconcrt:Platform.obj
 0001:000555c8       ?__SignalObjectAndWait@platform@details@Concurrency@@YAKPEAX0KH@Z 00000001400565c8 f   libconcrt:Platform.obj
 0001:000555d0       ?__Sleep@platform@details@Concurrency@@YAXK@Z 00000001400565d0 f   libconcrt:Platform.obj
 0001:000555d8       ?__SwitchToThread@platform@details@Concurrency@@YAXXZ 00000001400565d8 f   libconcrt:Platform.obj
 0001:000555e0       ?__TlsAlloc@platform@details@Concurrency@@YAKXZ 00000001400565e0 f   libconcrt:Platform.obj
 0001:00055624       ?__TlsFree@platform@details@Concurrency@@YAXK@Z 0000000140056624 f   libconcrt:Platform.obj
 0001:0005562c       ?__TlsGetValue@platform@details@Concurrency@@YAPEAXK@Z 000000014005662c f   libconcrt:Platform.obj
 0001:00055634       ?__TlsSetValue@platform@details@Concurrency@@YAXKPEAX@Z 0000000140056634 f   libconcrt:Platform.obj
 0001:00055678       ?__WaitForThread@platform@details@Concurrency@@YAKPEAXK@Z 0000000140056678 f   libconcrt:Platform.obj
 0001:00055684       ??0?$ListArray@U?$ListArrayInlineLink@VWorkQueue@details@Concurrency@@@details@Concurrency@@@details@Concurrency@@QEAA@PEAVSchedulerBase@12@HH@Z 0000000140056684 f i libconcrt:ScheduleGroupBase.obj
 0001:00055684       ??0?$ListArray@VExternalStatistics@details@Concurrency@@@details@Concurrency@@QEAA@PEAVSchedulerBase@12@HH@Z 0000000140056684 f i libconcrt:SchedulerBase.obj
 0001:00055684       ??0?$ListArray@VScheduleGroupBase@details@Concurrency@@@details@Concurrency@@QEAA@PEAVSchedulerBase@12@HH@Z 0000000140056684 f i libconcrt:SchedulerBase.obj
 0001:00055684       ??0?$ListArray@VScheduleGroupSegmentBase@details@Concurrency@@@details@Concurrency@@QEAA@PEAVSchedulerBase@12@HH@Z 0000000140056684 f i libconcrt:SchedulingRing.obj
 0001:00055684       ??0?$ListArray@VVirtualProcessor@details@Concurrency@@@details@Concurrency@@QEAA@PEAVSchedulerBase@12@HH@Z 0000000140056684 f i libconcrt:SchedulingNode.obj
 0001:00055684       ??0?$ListArray@VWorkQueue@details@Concurrency@@@details@Concurrency@@QEAA@PEAVSchedulerBase@12@HH@Z 0000000140056684 f i libconcrt:ScheduleGroupBase.obj
 0001:000557c8       ??0NumaInformation@SchedulerBase@details@Concurrency@@QEAA@XZ 00000001400567c8 f i libconcrt:SchedulerBase.obj
 0001:000557dc       ??0SchedulerBase@details@Concurrency@@QEAA@AEBVSchedulerPolicy@2@@Z 00000001400567dc f   libconcrt:SchedulerBase.obj
 0001:00055b20       ??0improper_scheduler_attach@Concurrency@@QEAA@AEBV01@@Z 0000000140056b20 f i libconcrt:SchedulerBase.obj
 0001:00055b5c       ??0improper_scheduler_reference@Concurrency@@QEAA@AEBV01@@Z 0000000140056b5c f i libconcrt:SchedulerBase.obj
 0001:00055b98       ??1?$Hash@II@details@Concurrency@@QEAA@XZ 0000000140056b98 f i libconcrt:SchedulerBase.obj
 0001:00055bb4       ??1?$ListArray@VExternalStatistics@details@Concurrency@@@details@Concurrency@@QEAA@XZ 0000000140056bb4 f i libconcrt:SchedulerBase.obj
 0001:00055ca8       ??1?$ListArray@VScheduleGroupBase@details@Concurrency@@@details@Concurrency@@QEAA@XZ 0000000140056ca8 f i libconcrt:SchedulerBase.obj
 0001:00055dcc       ??1NumaInformation@SchedulerBase@details@Concurrency@@QEAA@XZ 0000000140056dcc f i libconcrt:SchedulerBase.obj
 0001:00055dec       ??1ReferenceCountedQuickBitSet@details@Concurrency@@QEAA@XZ 0000000140056dec f i libconcrt:SchedulerBase.obj
 0001:00055e0c       ??1ScheduleGroup@Concurrency@@MEAA@XZ 0000000140056e0c f i libconcrt:SchedulerBase.obj
 0001:00055e18       ??1Scheduler@Concurrency@@MEAA@XZ 0000000140056e18 f i libconcrt:SchedulerBase.obj
 0001:00055e24       ??1SchedulerBase@details@Concurrency@@UEAA@XZ 0000000140056e24 f   libconcrt:SchedulerBase.obj
 0001:00055efc       ??_ECacheLocalScheduleGroup@details@Concurrency@@UEAAPEAXI@Z 0000000140056efc f i libconcrt:SchedulerBase.obj
 0001:00055efc       ??_EScheduleGroupBase@details@Concurrency@@UEAAPEAXI@Z 0000000140056efc f i libconcrt:ScheduleGroupBase.obj
 0001:00055efc       ??_GCacheLocalScheduleGroup@details@Concurrency@@UEAAPEAXI@Z 0000000140056efc f i libconcrt:SchedulerBase.obj
 0001:00055efc       ??_GScheduleGroupBase@details@Concurrency@@UEAAPEAXI@Z 0000000140056efc f i libconcrt:ScheduleGroupBase.obj
 0001:00055f28       ??_ECacheLocalScheduleGroupSegment@details@Concurrency@@UEAAPEAXI@Z 0000000140056f28 f i libconcrt:SchedulerBase.obj
 0001:00055f28       ??_EFairScheduleGroupSegment@details@Concurrency@@UEAAPEAXI@Z 0000000140056f28 f i libconcrt:SchedulerBase.obj
 0001:00055f28       ??_GCacheLocalScheduleGroupSegment@details@Concurrency@@UEAAPEAXI@Z 0000000140056f28 f i libconcrt:SchedulerBase.obj
 0001:00055f28       ??_GFairScheduleGroupSegment@details@Concurrency@@UEAAPEAXI@Z 0000000140056f28 f i libconcrt:SchedulerBase.obj
 0001:00055f5c       ??_EFairScheduleGroup@details@Concurrency@@UEAAPEAXI@Z 0000000140056f5c f i libconcrt:SchedulerBase.obj
 0001:00055f5c       ??_GFairScheduleGroup@details@Concurrency@@UEAAPEAXI@Z 0000000140056f5c f i libconcrt:SchedulerBase.obj
 0001:00055f88       ??_ERealizedChore@details@Concurrency@@UEAAPEAXI@Z 0000000140056f88 f i libconcrt:SchedulerBase.obj
 0001:00055f88       ??_GRealizedChore@details@Concurrency@@UEAAPEAXI@Z 0000000140056f88 f i libconcrt:SchedulerBase.obj
 0001:00055fb4       ??_EScheduleGroup@Concurrency@@MEAAPEAXI@Z 0000000140056fb4 f i libconcrt:SchedulerBase.obj
 0001:00055fb4       ??_GScheduleGroup@Concurrency@@MEAAPEAXI@Z 0000000140056fb4 f i libconcrt:SchedulerBase.obj
 0001:00055fe0       ??_EScheduler@Concurrency@@MEAAPEAXI@Z 0000000140056fe0 f i libconcrt:SchedulerBase.obj
 0001:00055fe0       ??_GScheduler@Concurrency@@MEAAPEAXI@Z 0000000140056fe0 f i libconcrt:SchedulerBase.obj
 0001:0005600c       ??_ESchedulerBase@details@Concurrency@@UEAAPEAXI@Z 000000014005700c f i libconcrt:SchedulerBase.obj
 0001:0005600c       ??_GSchedulerBase@details@Concurrency@@UEAAPEAXI@Z 000000014005700c f i libconcrt:SchedulerBase.obj
 0001:00056040       ?Add@?$ListArray@VScheduleGroupBase@details@Concurrency@@@details@Concurrency@@QEAAHPEAVScheduleGroupBase@23@@Z 0000000140057040 f i libconcrt:SchedulerBase.obj
 0001:000561d4       ?AddContext@SchedulerBase@details@Concurrency@@QEAAXPEAVInternalContextBase@23@@Z 00000001400571d4 f   libconcrt:SchedulerBase.obj
 0001:00056234       ?AddTail@?$SafeRWList@VWaitNode@SchedulerBase@details@Concurrency@@VNoCount@CollectionTypes@34@V_ReaderWriterLock@34@@details@Concurrency@@QEAAXPEAVWaitNode@SchedulerBase@23@@Z 0000000140057234 f i libconcrt:SchedulerBase.obj
 0001:000562a0       ?AddVirtualProcessors@SchedulerBase@details@Concurrency@@IEAAXPEAPEAUIVirtualProcessorRoot@3@I@Z 00000001400572a0 f   libconcrt:SchedulerBase.obj
 0001:00056388       ?AllocateSegment@CacheLocalScheduleGroup@details@Concurrency@@MEAAPEAVScheduleGroupSegmentBase@23@PEAVSchedulingRing@23@PEAVlocation@3@@Z 0000000140057388 f i libconcrt:SchedulerBase.obj
 0001:0005640c       ?AllocateSegment@FairScheduleGroup@details@Concurrency@@MEAAPEAVScheduleGroupSegmentBase@23@PEAVSchedulingRing@23@PEAVlocation@3@@Z 000000014005740c f i libconcrt:SchedulerBase.obj
 0001:00056498       ?Attach@SchedulerBase@details@Concurrency@@UEAAXXZ 0000000140057498 f   libconcrt:SchedulerBase.obj
 0001:00056500       ?AttachExternalContext@SchedulerBase@details@Concurrency@@AEAAPEAVExternalContextBase@23@_N@Z 0000000140057500 f   libconcrt:SchedulerBase.obj
 0001:000565a8       ?AttemptSchedulerSweep@SchedulerBase@details@Concurrency@@IEAAXXZ 00000001400575a8 f   libconcrt:SchedulerBase.obj
 0001:000565cc       ?CancelAllContexts@SchedulerBase@details@Concurrency@@MEAAXXZ 00000001400575cc f   libconcrt:SchedulerBase.obj
 0001:00056610       ?ChangeThrottlingTimer@SchedulerBase@details@Concurrency@@AEAAXK@Z 0000000140057610 f   libconcrt:SchedulerBase.obj
 0001:00056644       ?CheckForDeletion@?$ListArray@VScheduleGroupBase@details@Concurrency@@@details@Concurrency@@AEAAXXZ 0000000140057644 f i libconcrt:SchedulerBase.obj
 0001:000566b0       ?CheckForDeletionBridge@?$ListArray@VExternalStatistics@details@Concurrency@@@details@Concurrency@@CAXPEAV123@@Z 00000001400576b0 f i libconcrt:SchedulerBase.obj
 0001:0005670c       ?CheckForDeletionBridge@?$ListArray@VScheduleGroupBase@details@Concurrency@@@details@Concurrency@@CAXPEAV123@@Z 000000014005770c f i libconcrt:SchedulerBase.obj
 0001:00056714       ?CheckOneShotStaticDestruction@SchedulerBase@details@Concurrency@@SAXXZ 0000000140057714 f   libconcrt:SchedulerBase.obj
 0001:00056754       ?CheckStaticConstruction@SchedulerBase@details@Concurrency@@CAXXZ 0000000140057754 f   libconcrt:SchedulerBase.obj
 0001:00056804       ?Cleanup@SchedulerBase@details@Concurrency@@AEAAXXZ 0000000140057804 f   libconcrt:SchedulerBase.obj
 0001:00056918       ?CommitSafePoints@SchedulerBase@details@Concurrency@@QEAAXXZ 0000000140057918 f   libconcrt:SchedulerBase.obj
 0001:00056980       ?CommitToVersion@SchedulerBase@details@Concurrency@@AEAAXK@Z 0000000140057980 f   libconcrt:SchedulerBase.obj
 0001:00056a50       ?ComputeSafePointCommitVersion@SchedulerBase@details@Concurrency@@AEAAKXZ 0000000140057a50 f   libconcrt:SchedulerBase.obj
 0001:00056b64       ?CopyFrom@QuickBitSet@details@Concurrency@@IEAAXAEBV123@@Z 0000000140057b64 f i libconcrt:SchedulerBase.obj
 0001:00056c50       ?CreateContextFromDefaultScheduler@SchedulerBase@details@Concurrency@@SAPEAVContextBase@23@XZ 0000000140057c50 f   libconcrt:SchedulerBase.obj
 0001:00056c90       ?CreateScheduleGroup@SchedulerBase@details@Concurrency@@UEAAPEAVScheduleGroup@3@AEAVlocation@3@@Z 0000000140057c90 f i libconcrt:SchedulerBase.obj
 0001:00056c98       ?CreateScheduleGroup@SchedulerBase@details@Concurrency@@UEAAPEAVScheduleGroup@3@XZ 0000000140057c98 f i libconcrt:SchedulerBase.obj
 0001:00056cc0       ?CreateWithoutInitializing@SchedulerBase@details@Concurrency@@SAPEAV123@AEBVSchedulerPolicy@3@@Z 0000000140057cc0 f   libconcrt:SchedulerBase.obj
 0001:00056cf0       ?CurrentScheduler@SchedulerBase@details@Concurrency@@SAPEAV123@XZ 0000000140057cf0 f   libconcrt:SchedulerBase.obj
 0001:00056d24       ?DecrementInternalContextCount@SchedulerBase@details@Concurrency@@QEAAXXZ 0000000140057d24 f   libconcrt:SchedulerBase.obj
 0001:00056d44       ?DeferredGetInternalContext@SchedulerBase@details@Concurrency@@QEAAXXZ 0000000140057d44 f   libconcrt:SchedulerBase.obj
 0001:00056d68       ?DestroySchedulerEventHandlers@SchedulerBase@details@Concurrency@@MEAAXXZ 0000000140057d68 f   libconcrt:SchedulerBase.obj
 0001:00056d9c       ?DetachExternalContext@SchedulerBase@details@Concurrency@@AEAAXPEAVExternalContextBase@23@_N@Z 0000000140057d9c f   libconcrt:SchedulerBase.obj
 0001:00056e0c       ?FastCurrentContext@SchedulerBase@details@Concurrency@@SAPEAVContextBase@23@XZ 0000000140057e0c f   libconcrt:SchedulerBase.obj
 0001:00056e18       ?FastCurrentScheduler@SchedulerBase@details@Concurrency@@SAPEAV123@XZ 0000000140057e18 f   libconcrt:SchedulerBase.obj
 0001:00056e3c       ?Fill@QuickBitSet@details@Concurrency@@QEAAXXZ 0000000140057e3c f i libconcrt:SchedulerBase.obj
 0001:00056edc       ?Finalize@SchedulerBase@details@Concurrency@@AEAAXXZ 0000000140057edc f   libconcrt:SchedulerBase.obj
 0001:00057070       ?Find@?$Hash@II@details@Concurrency@@QEAAPEAUListNode@123@AEBIPEAI@Z 0000000140058070 f i libconcrt:SchedulerBase.obj
 0001:000570ec       ?FindCurrentNode@SchedulerBase@details@Concurrency@@QEAAPEAVSchedulingNode@23@XZ 00000001400580ec f   libconcrt:SchedulerBase.obj
 0001:00057150       ?FindNodeByLocation@SchedulerBase@details@Concurrency@@QEAAPEAVSchedulingNode@23@PEAVlocation@3@@Z 0000000140058150 f   libconcrt:SchedulerBase.obj
 0001:000571b8       ?FindScheduleGroupSegment@SchedulingRing@details@Concurrency@@AEAAPEAVScheduleGroupSegmentBase@23@HHPEAHPEAV?$ListArray@VScheduleGroupSegmentBase@details@Concurrency@@@23@@Z 00000001400581b8 f i libconcrt:SchedulerBase.obj
 0001:0005723c       ?FindVirtualProcessor@SchedulingNode@details@Concurrency@@QEAAPEAVVirtualProcessor@23@HHPEAH@Z 000000014005823c f i libconcrt:SchedulerBase.obj
 0001:000572c8       ?FoundAvailableVirtualProcessor@SchedulerBase@details@Concurrency@@QEAA_NAEAVClaimTicket@VirtualProcessor@23@Vlocation@3@K@Z 00000001400582c8 f   libconcrt:SchedulerBase.obj
 0001:0005743c       ?FoundBlockedContexts@SchedulerBase@details@Concurrency@@AEAA_NXZ 000000014005843c f   libconcrt:SchedulerBase.obj
 0001:00057470       ?FoundUnstartedChores@SchedulerBase@details@Concurrency@@AEAA_NXZ 0000000140058470 f   libconcrt:SchedulerBase.obj
 0001:0005762c       ?GetAnonymousScheduleGroupSegment@SchedulerBase@details@Concurrency@@QEAAPEAVScheduleGroupSegmentBase@23@XZ 000000014005862c f   libconcrt:SchedulerBase.obj
 0001:00057640       ?GetBitSet@SchedulerBase@details@Concurrency@@QEAA?AVQuickBitSet@23@PEBVlocation@3@@Z 0000000140058640 f   libconcrt:SchedulerBase.obj
 0001:00057740       ?GetDefaultScheduler@SchedulerBase@details@Concurrency@@CAPEAV123@XZ 0000000140058740 f   libconcrt:SchedulerBase.obj
 0001:0005781c       ?GetExternalContext@SchedulerBase@details@Concurrency@@AEAAPEAVExternalContextBase@23@_N@Z 000000014005881c f   libconcrt:SchedulerBase.obj
 0001:00057894       ?GetInternalContext@SchedulerBase@details@Concurrency@@QEAAPEAVInternalContextBase@23@_N@Z 0000000140058894 f   libconcrt:SchedulerBase.obj
 0001:000579c8       ?GetNewContextId@SchedulerBase@details@Concurrency@@QEAAIXZ 00000001400589c8 f   libconcrt:SchedulerBase.obj
 0001:000579d8       ?GetNewScheduleGroupId@SchedulerBase@details@Concurrency@@QEAAIXZ 00000001400589d8 f   libconcrt:SchedulerBase.obj
 0001:000579e8       ?GetNewWorkQueueId@SchedulerBase@details@Concurrency@@SAIXZ 00000001400589e8 f   libconcrt:SchedulerBase.obj
 0001:000579f8       ?GetNextAffineScheduleGroupSegment@SchedulingRing@details@Concurrency@@QEAAPEAVScheduleGroupSegmentBase@23@PEAHH@Z 00000001400589f8 f i libconcrt:SchedulerBase.obj
 0001:00057a64       ?GetNextNonAffineScheduleGroupSegment@SchedulingRing@details@Concurrency@@QEAAPEAVScheduleGroupSegmentBase@23@PEAHH@Z 0000000140058a64 f i libconcrt:SchedulerBase.obj
 0001:00057ad0       ?GetNextPriorityObject@SchedulerBase@details@Concurrency@@QEAAPEAUBoostedObject@23@XZ 0000000140058ad0 f   libconcrt:SchedulerBase.obj
 0001:00057b58       ?GetNextSchedulingRing@SchedulerBase@details@Concurrency@@QEAAPEAVSchedulingRing@23@PEBV423@PEAV423@@Z 0000000140058b58 f   libconcrt:SchedulerBase.obj
 0001:00057ba4       ?GetNextSchedulingRing@SchedulerBase@details@Concurrency@@QEAAPEAVSchedulingRing@23@XZ 0000000140058ba4 f   libconcrt:SchedulerBase.obj
 0001:00057be0       ?GetNumberOfVirtualProcessors@SchedulerBase@details@Concurrency@@UEBAIXZ 0000000140058be0 f i libconcrt:SchedulerBase.obj
 0001:00057be4       ?GetPolicy@SchedulerBase@details@Concurrency@@UEBA?AVSchedulerPolicy@3@XZ 0000000140058be4 f   libconcrt:SchedulerBase.obj
 0001:00057c04       ?GetRealizedChore@SchedulerBase@details@Concurrency@@QEAAPEAVRealizedChore@23@P6AXPEAX@Z0@Z 0000000140058c04 f   libconcrt:SchedulerBase.obj
 0001:00057c6c       ?GetRunnableContext@CacheLocalScheduleGroupSegment@details@Concurrency@@EEAAPEAVInternalContextBase@23@XZ 0000000140058c6c f i libconcrt:SchedulerBase.obj
 0001:00057c6c       ?GetRunnableContext@FairScheduleGroupSegment@details@Concurrency@@EEAAPEAVInternalContextBase@23@XZ 0000000140058c6c f i libconcrt:SchedulerBase.obj
 0001:00057cd4       ?GetSubAllocator@SchedulerBase@details@Concurrency@@SAPEAVSubAllocator@23@_N@Z 0000000140058cd4 f   libconcrt:SchedulerBase.obj
 0001:00057d74       ?GetValidSchedulingRingIndex@SchedulerBase@details@Concurrency@@AEAAHH@Z 0000000140058d74 f   libconcrt:SchedulerBase.obj
 0001:00057dac       ?Grow@QuickBitSet@details@Concurrency@@QEAAXI@Z 0000000140058dac f i libconcrt:SchedulerBase.obj
 0001:00057ea8       ?Grow@ReferenceCountedQuickBitSet@details@Concurrency@@QEAAXI@Z 0000000140058ea8 f i libconcrt:SchedulerBase.obj
 0001:00057f58       ?HasCompletedShutdown@SchedulerBase@details@Concurrency@@QEAA_NXZ 0000000140058f58 f   libconcrt:SchedulerBase.obj
 0001:00057f6c       ?GetId@InternalContextBase@details@Concurrency@@UEBAIXZ 0000000140058f6c f i libconcrt:InternalContextBase.obj
 0001:00057f6c       ?Id@ScheduleGroupBase@details@Concurrency@@UEBAIXZ 0000000140058f6c f i libconcrt:SchedulerBase.obj
 0001:00057f70       ?Id@SchedulerBase@details@Concurrency@@UEBAIXZ 0000000140058f70 f i libconcrt:SchedulerBase.obj
 0001:00057f78       ?Initialize@SchedulerBase@details@Concurrency@@AEAAXXZ 0000000140058f78 f   libconcrt:SchedulerBase.obj
 0001:000584d8       ?InitializeSchedulerEventHandlers@SchedulerBase@details@Concurrency@@MEAAXXZ 00000001400594d8 f   libconcrt:SchedulerBase.obj
 0001:000584e0       ?Insert@?$Hash@II@details@Concurrency@@QEAAPEAUListNode@123@AEBI0@Z 00000001400594e0 f i libconcrt:SchedulerBase.obj
 0001:000585bc       ?InternalCreateScheduleGroup@SchedulerBase@details@Concurrency@@AEAAPEAVScheduleGroup@3@PEAVlocation@3@@Z 00000001400595bc f   libconcrt:SchedulerBase.obj
 0001:000586c4       ?InvokeAtNextSafePoint@SafePointInvocation@details@Concurrency@@QEAAXP6AXPEAX@Z0PEAVSchedulerBase@23@@Z 00000001400596c4 f   libconcrt:SchedulerBase.obj
 0001:000586f0       ?InvokeOnSafePoint@SchedulerBase@details@Concurrency@@AEAAXPEAVSafePointInvocation@23@@Z 00000001400596f0 f   libconcrt:SchedulerBase.obj
 0001:0005876c       ?IsAvailableLocation@SchedulerBase@details@Concurrency@@UEBA_NAEBVlocation@3@@Z 000000014005976c f   libconcrt:SchedulerBase.obj
 0001:000587d0       ?MailChore@FairScheduleGroup@details@Concurrency@@UEAA?AVSlot@?$Mailbox@V_UnrealizedChore@details@Concurrency@@@23@PEAV_UnrealizedChore@23@PEAVlocation@3@PEAPEAVScheduleGroupSegmentBase@23@@Z 00000001400597d0 f i libconcrt:SchedulerBase.obj
 0001:000587e4       ?MarkSafePoint@SchedulerBase@details@Concurrency@@QEAA_NPEAVSafePointMarker@23@@Z 00000001400597e4 f   libconcrt:SchedulerBase.obj
 0001:00058800       ?NotifyThrottledContext@SchedulerBase@details@Concurrency@@AEAA_NPEAVInternalContextBase@23@@Z 0000000140059800 f   libconcrt:SchedulerBase.obj
 0001:000588b4       ?PerformServiceScan@SchedulerBase@details@Concurrency@@AEAAX_K@Z 00000001400598b4 f   libconcrt:SchedulerBase.obj
 0001:00058b88       ?PhaseOneShutdown@SchedulerBase@details@Concurrency@@AEAAXXZ 0000000140059b88 f   libconcrt:SchedulerBase.obj
 0001:00058c68       ?PhaseTwoShutdown@SchedulerBase@details@Concurrency@@AEAAXXZ 0000000140059c68 f   libconcrt:SchedulerBase.obj
 0001:00058d40       ?PushRunnableToInactive@SchedulerBase@details@Concurrency@@UEAA_NPEAVInternalContextBase@23@Vlocation@3@@Z 0000000140059d40 f   libconcrt:SchedulerBase.obj
 0001:00058df4       ?Reference@ScheduleGroupBase@details@Concurrency@@UEAAIXZ 0000000140059df4 f i libconcrt:SchedulerBase.obj
 0001:00058e0c       ?Reference@SchedulerBase@details@Concurrency@@UEAAIXZ 0000000140059e0c f   libconcrt:SchedulerBase.obj
 0001:00058e98       ?RegisterShutdownEvent@SchedulerBase@details@Concurrency@@UEAAXPEAX@Z 0000000140059e98 f   libconcrt:SchedulerBase.obj
 0001:00058f88       ?Release@ScheduleGroupBase@details@Concurrency@@UEAAIXZ 0000000140059f88 f i libconcrt:SchedulerBase.obj
 0001:00058fe0       ?Release@SchedulerBase@details@Concurrency@@UEAAIXZ 0000000140059fe0 f   libconcrt:SchedulerBase.obj
 0001:00059004       ?ReleaseExternalContext@SchedulerBase@details@Concurrency@@AEAAXPEAVExternalContextBase@23@@Z 000000014005a004 f   libconcrt:SchedulerBase.obj
 0001:00059078       ?ReleaseInternalContext@SchedulerBase@details@Concurrency@@QEAAXPEAVInternalContextBase@23@_N@Z 000000014005a078 f   libconcrt:SchedulerBase.obj
 0001:000590c4       ?ReleaseRealizedChore@SchedulerBase@details@Concurrency@@QEAAXPEAVRealizedChore@23@@Z 000000014005a0c4 f   libconcrt:SchedulerBase.obj
 0001:00059130       ?ReleaseReservedContexts@SchedulerBase@details@Concurrency@@QEAAXXZ 000000014005a130 f   libconcrt:SchedulerBase.obj
 0001:000591c4       ?Remove@?$ListArray@VExternalStatistics@details@Concurrency@@@details@Concurrency@@QEAA_NPEAVExternalStatistics@23@H_N@Z 000000014005a1c4 f i libconcrt:SchedulerBase.obj
 0001:0005935c       ?Remove@?$ListArray@VScheduleGroupBase@details@Concurrency@@@details@Concurrency@@QEAA_NPEAVScheduleGroupBase@23@H_N@Z 000000014005a35c f i libconcrt:SchedulerBase.obj
 0001:000594c4       ?RemoveHead@?$SafeRWList@VWaitNode@SchedulerBase@details@Concurrency@@VNoCount@CollectionTypes@34@V_ReaderWriterLock@34@@details@Concurrency@@QEAAPEAVWaitNode@SchedulerBase@23@XZ 000000014005a4c4 f i libconcrt:SchedulerBase.obj
 0001:00059528       ?RemovePrioritizedObject@SchedulerBase@details@Concurrency@@QEAAXPEAUBoostedObject@23@@Z 000000014005a528 f   libconcrt:SchedulerBase.obj
 0001:000595ac       ?RemoveScheduleGroup@SchedulerBase@details@Concurrency@@QEAAXPEAVScheduleGroupBase@23@@Z 000000014005a5ac f   libconcrt:SchedulerBase.obj
 0001:000595c0       ?RemoveSegments@FairScheduleGroup@details@Concurrency@@MEAAXXZ 000000014005a5c0 f i libconcrt:SchedulerBase.obj
 0001:000595dc       ?RemoveVirtualProcessors@SchedulerBase@details@Concurrency@@IEAAXPEAPEAUIVirtualProcessorRoot@3@I@Z 000000014005a5dc f   libconcrt:SchedulerBase.obj
 0001:00059700       ?Resurrect@SchedulerBase@details@Concurrency@@AEAAXXZ 000000014005a700 f   libconcrt:SchedulerBase.obj
 0001:0005977c       ?ReturnSubAllocator@SchedulerBase@details@Concurrency@@SAXPEAVSubAllocator@23@@Z 000000014005a77c f   libconcrt:SchedulerBase.obj
 0001:000597ec       ?SafeFastCurrentContext@SchedulerBase@details@Concurrency@@SAPEAVContextBase@23@XZ 000000014005a7ec f   libconcrt:SchedulerBase.obj
 0001:00059808       ?SafeFastCurrentScheduler@SchedulerBase@details@Concurrency@@SAPEAV123@XZ 000000014005a808 f   libconcrt:SchedulerBase.obj
 0001:00059840       ?SafeReference@SchedulerBase@details@Concurrency@@AEAA_NXZ 000000014005a840 f   libconcrt:SchedulerBase.obj
 0001:00059864       ?ScheduleTask@SchedulerBase@details@Concurrency@@UEAAXP6AXPEAX@Z0@Z 000000014005a864 f   libconcrt:SchedulerBase.obj
 0001:000598dc       ?ScheduleTask@SchedulerBase@details@Concurrency@@UEAAXP6AXPEAX@Z0AEAVlocation@3@@Z 000000014005a8dc f   libconcrt:SchedulerBase.obj
 0001:00059960       ?SetNextSchedulingRing@SchedulerBase@details@Concurrency@@QEAAXPEAVSchedulingRing@23@@Z 000000014005a960 f   libconcrt:SchedulerBase.obj
 0001:00059994       ?StartupNewVirtualProcessor@SchedulerBase@details@Concurrency@@UEAAXPEAVScheduleGroupSegmentBase@23@Vlocation@3@@Z 000000014005a994 f i libconcrt:SchedulerBase.obj
 0001:000599d0       ?StartupVirtualProcessor@SchedulerBase@details@Concurrency@@QEAA_NPEAVScheduleGroupSegmentBase@23@Vlocation@3@K@Z 000000014005a9d0 f   libconcrt:SchedulerBase.obj
 0001:00059a74       ?StaticDestruction@SchedulerBase@details@Concurrency@@CAXXZ 000000014005aa74 f   libconcrt:SchedulerBase.obj
 0001:00059b28       ?Statistics@SchedulerBase@details@Concurrency@@IEAAXPEAI00@Z 000000014005ab28 f   libconcrt:SchedulerBase.obj
 0001:00059d6c       ?SweepSchedulerForFinalize@SchedulerBase@details@Concurrency@@AEAAXXZ 000000014005ad6c f   libconcrt:SchedulerBase.obj
 0001:00059e40       ?ThrottlerDispatch@SchedulerBase@details@Concurrency@@AEAAXXZ 000000014005ae40 f   libconcrt:SchedulerBase.obj
 0001:00059f7c       ?ThrottlerDispatchBridge@SchedulerBase@details@Concurrency@@CAXPEAU_TP_CALLBACK_INSTANCE@@PEAXPEAU_TP_TIMER@@@Z 000000014005af7c f i libconcrt:SchedulerBase.obj
 0001:00059f84       ?ThrottlerTrampoline@SchedulerBase@details@Concurrency@@CAXPEAXE@Z 000000014005af84 f   libconcrt:SchedulerBase.obj
 0001:00059fcc       ?ThrottlingTime@SchedulerBase@details@Concurrency@@QEAAKK@Z 000000014005afcc f   libconcrt:SchedulerBase.obj
 0001:0005a09c       ?ThrowSchedulerEvent@SchedulerBase@details@Concurrency@@CAXW4ConcRT_EventType@3@EI@Z 000000014005b09c f   libconcrt:SchedulerBase.obj
 0001:0005a110       ?TriggerCommitSafePoints@SchedulerBase@details@Concurrency@@QEAAXPEAVSafePointMarker@23@@Z 000000014005b110 f   libconcrt:SchedulerBase.obj
 0001:0005a174       ?TypeOfWorkPending@SchedulerBase@details@Concurrency@@MEAA?AW4PendingWorkType@123@XZ 000000014005b174 f   libconcrt:SchedulerBase.obj
 0001:0005a1bc       ?UpdateCommitVersion@SchedulerBase@details@Concurrency@@AEAAKK@Z 000000014005b1bc f   libconcrt:SchedulerBase.obj
 0001:0005a208       ?UpdatePendingVersion@SchedulerBase@details@Concurrency@@AEAAKXZ 000000014005b208 f   libconcrt:SchedulerBase.obj
 0001:0005a24c       ?VirtualProcessorActive@SchedulerBase@details@Concurrency@@QEAA_N_N@Z 000000014005b24c f   libconcrt:SchedulerBase.obj
 0001:0005a344       ?VirtualProcessorIdle@SchedulerBase@details@Concurrency@@QEAAX_N@Z 000000014005b344 f   libconcrt:SchedulerBase.obj
 0001:0005a3b8       ?Wipe@?$Hash@II@details@Concurrency@@QEAAXXZ 000000014005b3b8 f i libconcrt:SchedulerBase.obj
 0001:0005a448       ??0context_self_unblock@Concurrency@@QEAA@XZ 000000014005b448 f   libconcrt:Exceptions.obj
 0001:0005a460       ??0context_unblock_unbalanced@Concurrency@@QEAA@XZ 000000014005b460 f   libconcrt:Exceptions.obj
 0001:0005a478       ??0improper_lock@Concurrency@@QEAA@PEBD@Z 000000014005b478 f   libconcrt:Exceptions.obj
 0001:0005a4c0       ??0improper_scheduler_attach@Concurrency@@QEAA@XZ 000000014005b4c0 f   libconcrt:Exceptions.obj
 0001:0005a4d8       ??0improper_scheduler_reference@Concurrency@@QEAA@XZ 000000014005b4d8 f   libconcrt:Exceptions.obj
 0001:0005a4f0       ??0invalid_multiple_scheduling@Concurrency@@QEAA@XZ 000000014005b4f0 f   libconcrt:Exceptions.obj
 0001:0005a508       ??0invalid_oversubscribe_operation@Concurrency@@QEAA@XZ 000000014005b508 f   libconcrt:Exceptions.obj
 0001:0005a520       ??0invalid_scheduler_policy_key@Concurrency@@QEAA@PEBD@Z 000000014005b520 f   libconcrt:Exceptions.obj
 0001:0005a568       ??0invalid_scheduler_policy_thread_specification@Concurrency@@QEAA@XZ 000000014005b568 f   libconcrt:Exceptions.obj
 0001:0005a580       ??0invalid_scheduler_policy_value@Concurrency@@QEAA@PEBD@Z 000000014005b580 f   libconcrt:Exceptions.obj
 0001:0005a5c8       ??0missing_wait@Concurrency@@QEAA@XZ 000000014005b5c8 f   libconcrt:Exceptions.obj
 0001:0005a5e0       ??0nested_scheduler_missing_detach@Concurrency@@QEAA@XZ 000000014005b5e0 f   libconcrt:Exceptions.obj
 0001:0005a5f8       ??0scheduler_resource_allocation_error@Concurrency@@QEAA@J@Z 000000014005b5f8 f   libconcrt:Exceptions.obj
 0001:0005a610       ??0scheduler_worker_creation_error@Concurrency@@QEAA@J@Z 000000014005b610 f   libconcrt:Exceptions.obj
 0001:0005a628       ??0HardwareAffinity@details@Concurrency@@QEAA@PEAX@Z 000000014005b628 f   libconcrt:ResourceManager.obj
 0001:0005a650       ??0ResourceManager@details@Concurrency@@AEAA@XZ 000000014005b650 f   libconcrt:ResourceManager.obj
 0001:0005a710       ??0invalid_operation@Concurrency@@QEAA@AEBV01@@Z 000000014005b710 f i libconcrt:ResourceManager.obj
 0001:0005a74c       ??0invalid_operation@Concurrency@@QEAA@XZ 000000014005b74c f i libconcrt:ResourceManager.obj
 0001:0005a764       ??1GlobalNode@details@Concurrency@@QEAA@XZ 000000014005b764 f i libconcrt:ResourceManager.obj
 0001:0005a774       ??1ResourceManager@details@Concurrency@@AEAA@XZ 000000014005b774 f   libconcrt:ResourceManager.obj
 0001:0005a898       ??1_Scoped_lock@_NonReentrantBlockingLock@details@Concurrency@@QEAA@XZ 000000014005b898 f i libconcrt:ResourceManager.obj
 0001:0005a898       ??1_Scoped_lock@_ReentrantBlockingLock@details@Concurrency@@QEAA@XZ 000000014005b898 f i libconcrt:SchedulerProxy.obj
 0001:0005a8ac       ?AdjustDynamicAllocation@ResourceManager@details@Concurrency@@AEAAIIII@Z 000000014005b8ac f   libconcrt:ResourceManager.obj
 0001:0005a980       ?ApplyAffinityRestrictions@ResourceManager@details@Concurrency@@CAXPEAU_GROUP_AFFINITY@@@Z 000000014005b980 f   libconcrt:ResourceManager.obj
 0001:0005aa14       ?ApplyTo@HardwareAffinity@details@Concurrency@@QEAAXPEAX@Z 000000014005ba14 f   libconcrt:ResourceManager.obj
 0001:0005aa24       ?CaptureProcessAffinity@ResourceManager@details@Concurrency@@CAXXZ 000000014005ba24 f   libconcrt:ResourceManager.obj
 0001:0005ab24       ?CleanupTopologyInformation@ResourceManager@details@Concurrency@@CAXXZ 000000014005bb24 f   libconcrt:ResourceManager.obj
 0001:0005ab50       ?CommitStolenCores@ResourceManager@details@Concurrency@@AEAAXPEAVSchedulerProxy@23@@Z 000000014005bb50 f   libconcrt:ResourceManager.obj
 0001:0005ac74       ?CreateAllocatedNodeData@ResourceManager@details@Concurrency@@QEAAPEAUSchedulerNode@23@XZ 000000014005bc74 f   libconcrt:ResourceManager.obj
 0001:0005ae04       ?CreateDynamicRMWorker@ResourceManager@details@Concurrency@@AEAAXXZ 000000014005be04 f   libconcrt:ResourceManager.obj
 0001:0005ae80       ?CreateResourceManager@Concurrency@@YAPEAUIResourceManager@1@XZ 000000014005be80 f   libconcrt:ResourceManager.obj
 0001:0005ae88       ?CreateSchedulerProxy@ResourceManager@details@Concurrency@@AEAAPEAVSchedulerProxy@23@PEAUIScheduler@3@@Z 000000014005be88 f   libconcrt:ResourceManager.obj
 0001:0005aefc       ?CreateSingleton@ResourceManager@details@Concurrency@@SAPEAV123@XZ 000000014005befc f   libconcrt:ResourceManager.obj
 0001:0005afe8       ?CurrentSubscriptionLevel@ResourceManager@details@Concurrency@@QEAAIII@Z 000000014005bfe8 f   libconcrt:ResourceManager.obj
 0001:0005b088       ?DestroyAllocatedNodeData@ResourceManager@details@Concurrency@@QEAAXPEAUSchedulerNode@23@@Z 000000014005c088 f   libconcrt:ResourceManager.obj
 0001:0005b0d4       ?DetermineTopology@ResourceManager@details@Concurrency@@AEAAXXZ 000000014005c0d4 f   libconcrt:ResourceManager.obj
 0001:0005b22c       ?DiscardExistingSchedulerStatistics@ResourceManager@details@Concurrency@@AEAAXXZ 000000014005c22c f   libconcrt:ResourceManager.obj
 0001:0005b2b4       ?DistributeCoresToSurvivingScheduler@ResourceManager@details@Concurrency@@AEAA_NXZ 000000014005c2b4 f   libconcrt:ResourceManager.obj
 0001:0005b4a8       ?DistributeExclusiveCores@ResourceManager@details@Concurrency@@AEAAXIIIII@Z 000000014005c4a8 f   libconcrt:ResourceManager.obj
 0001:0005b644       ?DistributeIdleCores@ResourceManager@details@Concurrency@@AEAAXII@Z 000000014005c644 f   libconcrt:ResourceManager.obj
 0001:0005b810       ?DoCoreMigration@ResourceManager@details@Concurrency@@AEAAXXZ 000000014005c810 f   libconcrt:ResourceManager.obj
 0001:0005baa8       ?DynamicAssignCores@ResourceManager@details@Concurrency@@AEAAXPEAVSchedulerProxy@23@II_N@Z 000000014005caa8 f   libconcrt:ResourceManager.obj
 0001:0005bb50       ?DynamicMigrateCores@ResourceManager@details@Concurrency@@AEAAXPEAUDynamicAllocationData@23@PEAVSchedulerProxy@23@II@Z 000000014005cb50 f   libconcrt:ResourceManager.obj
 0001:0005bd1c       ?DynamicRMThreadProc@ResourceManager@details@Concurrency@@CAKPEAX@Z 000000014005cd1c f   libconcrt:ResourceManager.obj
 0001:0005bd34       ?DynamicResourceManager@ResourceManager@details@Concurrency@@AEAAXXZ 000000014005cd34 f   libconcrt:ResourceManager.obj
 0001:0005be3c       ?FindBestFitExclusiveAllocation@ResourceManager@details@Concurrency@@AEAAIAEAI0PEAUDynamicAllocationData@23@II@Z 000000014005ce3c f   libconcrt:ResourceManager.obj
 0001:0005c1fc       ?FindBestFitIdleAllocation@ResourceManager@details@Concurrency@@AEAAIIPEAUDynamicAllocationData@23@I@Z 000000014005d1fc f   libconcrt:ResourceManager.obj
 0001:0005c328       ?FindCoreForPartiallyFilledNode@ResourceManager@details@Concurrency@@AEAA_NAEAI0PEAUDynamicAllocationData@23@I@Z 000000014005d328 f   libconcrt:ResourceManager.obj
 0001:0005c47c       ?FlushStoreBuffers@ResourceManager@details@Concurrency@@QEAAXXZ 000000014005d47c f   libconcrt:ResourceManager.obj
 0001:0005c484       ?GetAvailableNodeCount@ResourceManager@details@Concurrency@@UEBAIXZ 000000014005d484 f i libconcrt:ResourceManager.obj
 0001:0005c488       ?GetCoreCount@ResourceManager@details@Concurrency@@SAIXZ 000000014005d488 f   libconcrt:ResourceManager.obj
 0001:0005c510       ?GetCurrentNodeAndCore@ResourceManager@details@Concurrency@@QEAAIPEAI@Z 000000014005d510 f   libconcrt:ResourceManager.obj
 0001:0005c5b0       ?GetExecutionResourceCount@TopologyObject@GlobalNode@details@Concurrency@@UEBAIXZ 000000014005d5b0 f i libconcrt:ResourceManager.obj
 0001:0005c5b8       ?GetFirstExecutionResource@TopologyObject@GlobalNode@details@Concurrency@@UEBAPEAUITopologyExecutionResource@4@XZ 000000014005d5b8 f i libconcrt:ResourceManager.obj
 0001:0005c5c8       ?GetFirstNode@ResourceManager@details@Concurrency@@UEBAPEAUITopologyNode@3@XZ 000000014005d5c8 f i libconcrt:ResourceManager.obj
 0001:0005c5d4       ?GetId@TopologyObject@GlobalCore@details@Concurrency@@UEBAIXZ 000000014005d5d4 f i libconcrt:ResourceManager.obj
 0001:0005c5dc       ?GetId@TopologyObject@GlobalNode@details@Concurrency@@UEBAIXZ 000000014005d5dc f i libconcrt:ResourceManager.obj
 0001:0005c5e4       ?GetNext@TopologyObject@GlobalCore@details@Concurrency@@UEBAPEAUITopologyExecutionResource@4@XZ 000000014005d5e4 f   libconcrt:ResourceManager.obj
 0001:0005c62c       ?GetNext@TopologyObject@GlobalNode@details@Concurrency@@UEBAPEAUITopologyNode@4@XZ 000000014005d62c f   libconcrt:ResourceManager.obj
 0001:0005c65c       ?GetNodeCount@ResourceManager@details@Concurrency@@SAIXZ 000000014005d65c f   libconcrt:ResourceManager.obj
 0001:0005c6e4       ?GetNumaNode@TopologyObject@GlobalNode@details@Concurrency@@UEBAKXZ 000000014005d6e4 f i libconcrt:ResourceManager.obj
 0001:0005c6ec       ?GetOSVersion@Concurrency@@YA?AW4OSVersion@IResourceManager@1@XZ 000000014005d6ec f   libconcrt:ResourceManager.obj
 0001:0005c6f4       ?GetProcessorCount@Concurrency@@YAIXZ 000000014005d6f4 f   libconcrt:ResourceManager.obj
 0001:0005c6fc       ?GetProcessorNodeCount@Concurrency@@YAIXZ 000000014005d6fc f   libconcrt:ResourceManager.obj
 0001:0005c704       ?GetSchedulerId@Concurrency@@YAIXZ 000000014005d704 f   libconcrt:ResourceManager.obj
 0001:0005c714       ?HandleBorrowedCores@ResourceManager@details@Concurrency@@AEAAXPEAVSchedulerProxy@23@PEAUAllocationData@23@@Z 000000014005d714 f   libconcrt:ResourceManager.obj
 0001:0005c864       ?HandleSharedCores@ResourceManager@details@Concurrency@@AEAAXPEAVSchedulerProxy@23@PEAUDynamicAllocationData@23@@Z 000000014005d864 f   libconcrt:ResourceManager.obj
 0001:0005c9a8       ?IncreaseFullyLoadedSchedulerAllocations@ResourceManager@details@Concurrency@@AEAAXXZ 000000014005d9a8 f   libconcrt:ResourceManager.obj
 0001:0005ca10       ?Initialize@GlobalNode@details@Concurrency@@QEAAXPEAVResourceManager@23@GG_KII@Z 000000014005da10 f i libconcrt:ResourceManager.obj
 0001:0005cbd4       ?InitializeRMBuffers@ResourceManager@details@Concurrency@@AEAAXXZ 000000014005dbd4 f   libconcrt:ResourceManager.obj
 0001:0005ccc8       ?InitializeSystemInformation@ResourceManager@details@Concurrency@@CAX_N@Z 000000014005dcc8 f   libconcrt:ResourceManager.obj
 0001:0005ce5c       ?IsWindowsVersionOrGreater@@YA_NGGG@Z 000000014005de5c f i libconcrt:ResourceManager.obj
 0001:0005cf28       ?PerformAllocation@ResourceManager@details@Concurrency@@QEAAPEAVExecutionResource@23@PEAVSchedulerProxy@23@_N1@Z 000000014005df28 f   libconcrt:ResourceManager.obj
 0001:0005d120       ?PopulateCommonAllocationData@ResourceManager@details@Concurrency@@AEAAXIPEAVSchedulerProxy@23@PEAUAllocationData@23@@Z 000000014005e120 f   libconcrt:ResourceManager.obj
 0001:0005d24c       ?PopulateDynamicAllocationData@ResourceManager@details@Concurrency@@AEAAXXZ 000000014005e24c f   libconcrt:ResourceManager.obj
 0001:0005d3b0       ?PreProcessDynamicAllocationData@ResourceManager@details@Concurrency@@AEAAXXZ 000000014005e3b0 f   libconcrt:ResourceManager.obj
 0001:0005d4ac       ?PreProcessStaticAllocationData@ResourceManager@details@Concurrency@@AEAAXXZ 000000014005e4ac f   libconcrt:ResourceManager.obj
 0001:0005d4f0       ?PrepareReceiversForCoreTransfer@ResourceManager@details@Concurrency@@AEAAII@Z 000000014005e4f0 f   libconcrt:ResourceManager.obj
 0001:0005d768       ?RedistributeCoresAmongAll@ResourceManager@details@Concurrency@@AEAAIPEAVSchedulerProxy@23@III@Z 000000014005e768 f   libconcrt:ResourceManager.obj
 0001:0005db30       ?Reference@ResourceManager@details@Concurrency@@UEAAIXZ 000000014005eb30 f   libconcrt:ResourceManager.obj
 0001:0005db40       ?RegisterScheduler@ResourceManager@details@Concurrency@@UEAAPEAUISchedulerProxy@3@PEAUIScheduler@3@I@Z 000000014005eb40 f   libconcrt:ResourceManager.obj
 0001:0005dba4       ?Release@ResourceManager@details@Concurrency@@UEAAIXZ 000000014005eba4 f   libconcrt:ResourceManager.obj
 0001:0005dc8c       ?ReleaseCoresOnExistingSchedulers@ResourceManager@details@Concurrency@@AEAAIPEAVSchedulerProxy@23@II@Z 000000014005ec8c f   libconcrt:ResourceManager.obj
 0001:0005dd30       ?ReleaseSchedulerResources@ResourceManager@details@Concurrency@@AEAA_NPEAVSchedulerProxy@23@0I@Z 000000014005ed30 f   libconcrt:ResourceManager.obj
 0001:0005de60       ?RemoveExecutionResource@ResourceManager@details@Concurrency@@QEAAXPEAVExecutionResource@23@@Z 000000014005ee60 f   libconcrt:ResourceManager.obj
 0001:0005df00       ?RequestInitialVirtualProcessors@ResourceManager@details@Concurrency@@QEAAPEAUIExecutionResource@3@PEAVSchedulerProxy@23@_N@Z 000000014005ef00 f   libconcrt:ResourceManager.obj
 0001:0005e098       ?ReserveAtHigherUseCounts@ResourceManager@details@Concurrency@@AEAAIPEAVSchedulerProxy@23@I@Z 000000014005f098 f   libconcrt:ResourceManager.obj
 0001:0005e0fc       ?ReserveCores@ResourceManager@details@Concurrency@@AEAAIPEAVSchedulerProxy@23@II@Z 000000014005f0fc f   libconcrt:ResourceManager.obj
 0001:0005e314       ?ResetGlobalAllocationData@ResourceManager@details@Concurrency@@AEAAXXZ 000000014005f314 f   libconcrt:ResourceManager.obj
 0001:0005e374       ?RetrieveSystemVersionInformation@ResourceManager@details@Concurrency@@CAXXZ 000000014005f374 f   libconcrt:ResourceManager.obj
 0001:0005e3b0       ?RoundUpScaledAllocations@ResourceManager@details@Concurrency@@CAXPEAPEAUAllocationData@23@II@Z 000000014005f3b0 f   libconcrt:ResourceManager.obj
 0001:0005e56c       ?SendResourceNotifications@ResourceManager@details@Concurrency@@QEAAXPEAVSchedulerProxy@23@@Z 000000014005f56c f   libconcrt:ResourceManager.obj
 0001:0005e748       ?SetupStaticAllocationData@ResourceManager@details@Concurrency@@AEAAXPEAVSchedulerProxy@23@_N@Z 000000014005f748 f   libconcrt:ResourceManager.obj
 0001:0005e868       ?Shutdown@ResourceManager@details@Concurrency@@QEAAXPEAVSchedulerProxy@23@@Z 000000014005f868 f   libconcrt:ResourceManager.obj
 0001:0005e980       ?SubscribeCurrentThread@ResourceManager@details@Concurrency@@QEAAPEAVExecutionResource@23@PEAVSchedulerProxy@23@@Z 000000014005f980 f   libconcrt:ResourceManager.obj
 0001:0005e9f0       ?ToggleRMIdleState@ResourceManager@details@Concurrency@@AEAAXPEAUSchedulerNode@23@PEAUSchedulerCore@23@PEAUGlobalNode@23@PEAUGlobalCore@23@PEAUAllocationData@23@@Z 000000014005f9f0 f   libconcrt:ResourceManager.obj
 0001:0005ea5c       ?Version@ResourceManager@details@Concurrency@@SA?AW4OSVersion@IResourceManager@3@XZ 000000014005fa5c f   libconcrt:ResourceManager.obj
 0001:0005eae0       ??0exception_ptr@std@@QEAA@AEBV01@@Z 000000014005fae0 f i libconcrt:TaskCollectionBase.obj
 0001:0005eb08       ?_FinishCancelState@_TaskCollectionBase@details@Concurrency@@IEAAX_K@Z 000000014005fb08 f   libconcrt:TaskCollectionBase.obj
 0001:0005eb40       ?_GetTokenState@_TaskCollectionBase@details@Concurrency@@QEAAPEAV_CancellationTokenState@23@PEAPEAV_CancellationTokenRegistration@23@@Z 000000014005fb40 f   libconcrt:TaskCollectionBase.obj
 0001:0005eb6c       ?_MarkCancellation@_TaskCollectionBase@details@Concurrency@@IEAA_NXZ 000000014005fb6c f   libconcrt:TaskCollectionBase.obj
 0001:0005eb8c       ?_RaisedCancel@_TaskCollectionBase@details@Concurrency@@IEAAXXZ 000000014005fb8c f   libconcrt:TaskCollectionBase.obj
 0001:0005ebb0       ?_RaisedException@_TaskCollectionBase@details@Concurrency@@IEAAXXZ 000000014005fbb0 f   libconcrt:TaskCollectionBase.obj
 0001:0005ec50       ?_RethrowException@_TaskCollectionBase@details@Concurrency@@IEAAXXZ 000000014005fc50 f   libconcrt:TaskCollectionBase.obj
 0001:0005ecd8       ?_WillInterruptForPendingCancel@_TaskCollectionBase@details@Concurrency@@IEAA_NXZ 000000014005fcd8 f   libconcrt:TaskCollectionBase.obj
 0001:0005ed8c       ?rethrow_exception@std@@YAXVexception_ptr@1@@Z 000000014005fd8c f i libconcrt:TaskCollectionBase.obj
 0001:0005ed9c       ??0MultiWaitBlock@details@Concurrency@@QEAA@_K_N1@Z 000000014005fd9c f i libconcrt:event.obj
 0001:0005ee44       ??0MultiWaitBlockHolder@details@Concurrency@@QEAA@_N_K00@Z 000000014005fe44 f   libconcrt:event.obj
 0001:0005ef38       ??0event@Concurrency@@QEAA@XZ 000000014005ff38 f   libconcrt:event.obj
 0001:0005ef64       ??1?$_MallocaArrayHolder@PEAVContext@Concurrency@@@details@Concurrency@@UEAA@XZ 000000014005ff64 f i libconcrt:event.obj
 0001:0005ef94       ??1MultiWaitBlockHolder@details@Concurrency@@QEAA@XZ 000000014005ff94 f   libconcrt:event.obj
 0001:0005efd0       ??1event@Concurrency@@QEAA@XZ 000000014005ffd0 f   libconcrt:event.obj
 0001:0005f070       ??_E?$_MallocaArrayHolder@PEAVContext@Concurrency@@@details@Concurrency@@UEAAPEAXI@Z 0000000140060070 f i libconcrt:event.obj
 0001:0005f070       ??_G?$_MallocaArrayHolder@PEAVContext@Concurrency@@@details@Concurrency@@UEAAPEAXI@Z 0000000140060070 f i libconcrt:event.obj
 0001:0005f0c4       ?Destroy@SingleWaitBlock@details@Concurrency@@UEAAXXZ 00000001400600c4 f   libconcrt:event.obj
 0001:0005f0c4       ?Reset@SingleWaitBlock@details@Concurrency@@UEAA_NXZ 00000001400600c4 f   libconcrt:event.obj
 0001:0005f0c4       ?Reset@WaitAnyBlock@details@Concurrency@@UEAA_NXZ 00000001400600c4 f   libconcrt:event.obj
 0001:0005f0c4       ?SweepResetNode@SingleWaitBlock@details@Concurrency@@UEAA_NXZ 00000001400600c4 f   libconcrt:event.obj
 0001:0005f0c4       ?SweepResetNode@WaitAnyBlock@details@Concurrency@@UEAA_NXZ 00000001400600c4 f   libconcrt:event.obj
 0001:0005f0c8       ?Destroy@WaitAllBlock@details@Concurrency@@UEAAXXZ 00000001400600c8 f   libconcrt:event.obj
 0001:0005f0d0       ?DispatchEventTimer@MultiWaitBlock@details@Concurrency@@SAXPEAU_TP_CALLBACK_INSTANCE@@PEAXPEAU_TP_TIMER@@@Z 00000001400600d0 f   libconcrt:event.obj
 0001:0005f154       ?NotifyCompletedNode@MultiWaitBlock@details@Concurrency@@QEAAXXZ 0000000140060154 f   libconcrt:event.obj
 0001:0005f17c       ?Reset@WaitAllBlock@details@Concurrency@@UEAA_NXZ 000000014006017c f   libconcrt:event.obj
 0001:0005f1ac       ?Satisfy@SingleWaitBlock@details@Concurrency@@UEAA_NPEAPEAVContext@3@PEAVEventWaitNode@23@@Z 00000001400601ac f   libconcrt:event.obj
 0001:0005f204       ?Satisfy@WaitAllBlock@details@Concurrency@@UEAA_NPEAPEAVContext@3@PEAVEventWaitNode@23@@Z 0000000140060204 f   libconcrt:event.obj
 0001:0005f254       ?Satisfy@WaitAnyBlock@details@Concurrency@@UEAA_NPEAPEAVContext@3@PEAVEventWaitNode@23@@Z 0000000140060254 f   libconcrt:event.obj
 0001:0005f2a0       ?Set@StructuredEvent@details@Concurrency@@QEAAXXZ 00000001400602a0 f   libconcrt:event.obj
 0001:0005f2f0       ?SingleSatisfy@MultiWaitBlock@details@Concurrency@@MEAAXPEAPEAVContext@3@PEAVEventWaitNode@23@@Z 00000001400602f0 f   libconcrt:event.obj
 0001:0005f3b4       ?Sweep@details@Concurrency@@YAPEAVEventWaitNode@12@PEAV312@_N@Z 00000001400603b4 f   libconcrt:event.obj
 0001:0005f420       ?SweepResetNode@WaitAllBlock@details@Concurrency@@UEAA_NXZ 0000000140060420 f   libconcrt:event.obj
 0001:0005f45c       ?SweepWaitNode@WaitAllBlock@details@Concurrency@@UEAA_NXZ 000000014006045c f   libconcrt:event.obj
 0001:0005f4a0       ?SweepWaitNode@WaitAnyBlock@details@Concurrency@@UEAA_NXZ 00000001400604a0 f   libconcrt:event.obj
 0001:0005f4d8       ?Wait@StructuredEvent@details@Concurrency@@QEAAXXZ 00000001400604d8 f   libconcrt:event.obj
 0001:0005f574       ?set@event@Concurrency@@QEAAXXZ 0000000140060574 f   libconcrt:event.obj
 0001:0005f754       ?wait@event@Concurrency@@QEAA_KI@Z 0000000140060754 f   libconcrt:event.obj
 0001:0005f880       ?wait_for_multiple@event@Concurrency@@SA_KPEAPEAV12@_K_NI@Z 0000000140060880 f   libconcrt:event.obj
 0001:0005fba8       ??0?$StructuredWorkStealingQueue@VInternalContextBase@details@Concurrency@@V_HyperNonReentrantLock@23@@details@Concurrency@@QEAA@PEAV_HyperNonReentrantLock@12@@Z 0000000140060ba8 f i libconcrt:VirtualProcessor.obj
 0001:0005fba8       ??0?$StructuredWorkStealingQueue@V_UnrealizedChore@details@Concurrency@@V_CriticalNonReentrantLock@23@@details@Concurrency@@QEAA@PEAV_CriticalNonReentrantLock@12@@Z 0000000140060ba8 f i libconcrt:WorkQueue.obj
 0001:0005fc2c       ??0?$WorkStealingQueue@V_UnrealizedChore@details@Concurrency@@V_CriticalNonReentrantLock@23@@details@Concurrency@@QEAA@PEAV_CriticalNonReentrantLock@12@@Z 0000000140060c2c f i libconcrt:WorkQueue.obj
 0001:0005fca8       ??0WorkQueue@details@Concurrency@@QEAA@XZ 0000000140060ca8 f   libconcrt:WorkQueue.obj
 0001:0005fd44       ?DeferToAffineSearchers@Slot@?$Mailbox@VInternalContextBase@details@Concurrency@@@details@Concurrency@@QEBA_NXZ 0000000140060d44 f i libconcrt:SchedulingNode.obj
 0001:0005fd44       ?DeferToAffineSearchers@Slot@?$Mailbox@V_UnrealizedChore@details@Concurrency@@@details@Concurrency@@QEBA_NXZ 0000000140060d44 f i libconcrt:WorkQueue.obj
 0001:0005fdd0       ?RedetachFromScheduleGroupAtSafePoint@WorkQueue@details@Concurrency@@QEAAXPEAVScheduleGroupSegmentBase@23@@Z 0000000140060dd0 f   libconcrt:WorkQueue.obj
 0001:0005fdf8       ?Reinitialize@WorkQueue@details@Concurrency@@AEAAXXZ 0000000140060df8 f   libconcrt:WorkQueue.obj
 0001:0005fe64       ?RetireAtSafePoint@WorkQueue@details@Concurrency@@QEAAXPEAVScheduleGroupSegmentBase@23@@Z 0000000140060e64 f   libconcrt:WorkQueue.obj
 0001:0005fe8c       ?StaticRedetachFromScheduleGroup@WorkQueue@details@Concurrency@@CAXPEAV123@@Z 0000000140060e8c f   libconcrt:WorkQueue.obj
 0001:0005fe9c       ?StaticRetire@WorkQueue@details@Concurrency@@CAXPEAV123@@Z 0000000140060e9c f   libconcrt:WorkQueue.obj
 0001:0005feac       ?Steal@WorkQueue@details@Concurrency@@QEAAPEAV_UnrealizedChore@23@_N@Z 0000000140060eac f   libconcrt:WorkQueue.obj
 0001:0005ff00       ?Sweep@?$WorkStealingQueue@V_UnrealizedChore@details@Concurrency@@V_CriticalNonReentrantLock@23@@details@Concurrency@@QEAAXP6A_NPEAV_UnrealizedChore@23@PEAX@Z12@Z 0000000140060f00 f i libconcrt:WorkQueue.obj
 0001:0005ffe4       ?SweepUnstructured@WorkQueue@details@Concurrency@@QEAAXP6A_NPEAV_UnrealizedChore@23@PEAX@Z12@Z 0000000140060fe4 f   libconcrt:WorkQueue.obj
 0001:0005fff0       ?TryToSteal@WorkQueue@details@Concurrency@@QEAAPEAV_UnrealizedChore@23@_NAEA_N@Z 0000000140060ff0 f   libconcrt:WorkQueue.obj
 0001:0006005c       ?UnlockedSteal@?$StructuredWorkStealingQueue@VInternalContextBase@details@Concurrency@@V_HyperNonReentrantLock@23@@details@Concurrency@@QEAAPEAVInternalContextBase@23@_N@Z 000000014006105c f i libconcrt:SchedulingNode.obj
 0001:0006005c       ?UnlockedSteal@?$StructuredWorkStealingQueue@V_UnrealizedChore@details@Concurrency@@V_CriticalNonReentrantLock@23@@details@Concurrency@@QEAAPEAV_UnrealizedChore@23@_N@Z 000000014006105c f i libconcrt:WorkQueue.obj
 0001:00060170       ?UnlockedSteal@?$WorkStealingQueue@V_UnrealizedChore@details@Concurrency@@V_CriticalNonReentrantLock@23@@details@Concurrency@@QEAAPEAV_UnrealizedChore@23@_N0@Z 0000000140061170 f i libconcrt:WorkQueue.obj
 0001:000602ac       ?UnlockedSteal@WorkQueue@details@Concurrency@@AEAAPEAV_UnrealizedChore@23@_N@Z 00000001400612ac f   libconcrt:WorkQueue.obj
 0001:000603c0       ??0?$Mailbox@V_UnrealizedChore@details@Concurrency@@@details@Concurrency@@QEAA@PEAVSchedulerBase@12@AEBVQuickBitSet@12@_NI@Z 00000001400613c0 f i libconcrt:ScheduleGroupBase.obj
 0001:00060480       ??0ScheduleGroupBase@details@Concurrency@@QEAA@PEAVSchedulerBase@12@PEAVlocation@2@@Z 0000000140061480 f   libconcrt:ScheduleGroupBase.obj
 0001:0006050c       ??0ScheduleGroupSegmentBase@details@Concurrency@@IEAA@PEAVScheduleGroupBase@12@PEAVSchedulingRing@12@PEAVlocation@2@@Z 000000014006150c f   libconcrt:ScheduleGroupBase.obj
 0001:00060620       ??0Segment@?$Mailbox@V_UnrealizedChore@details@Concurrency@@@details@Concurrency@@QEAA@PEAVSchedulerBase@23@AEBVQuickBitSet@23@II@Z 0000000140061620 f i libconcrt:ScheduleGroupBase.obj
 0001:000606ac       ??1?$ListArray@U?$ListArrayInlineLink@VWorkQueue@details@Concurrency@@@details@Concurrency@@@details@Concurrency@@QEAA@XZ 00000001400616ac f i libconcrt:ScheduleGroupBase.obj
 0001:000607a0       ??1?$ListArray@VWorkQueue@details@Concurrency@@@details@Concurrency@@QEAA@XZ 00000001400617a0 f i libconcrt:ScheduleGroupBase.obj
 0001:0006095c       ??1?$Mailbox@V_UnrealizedChore@details@Concurrency@@@details@Concurrency@@QEAA@XZ 000000014006195c f i libconcrt:ScheduleGroupBase.obj
 0001:000609c8       ??1ScheduleGroupSegmentBase@details@Concurrency@@UEAA@XZ 00000001400619c8 f   libconcrt:ScheduleGroupBase.obj
 0001:00060a4c       ??_EScheduleGroupSegmentBase@details@Concurrency@@UEAAPEAXI@Z 0000000140061a4c f i libconcrt:ScheduleGroupBase.obj
 0001:00060a4c       ??_GScheduleGroupSegmentBase@details@Concurrency@@UEAAPEAXI@Z 0000000140061a4c f i libconcrt:ScheduleGroupBase.obj
 0001:00060a80       ?Add@?$ListArray@U?$ListArrayInlineLink@VWorkQueue@details@Concurrency@@@details@Concurrency@@@details@Concurrency@@QEAAHPEAU?$ListArrayInlineLink@VWorkQueue@details@Concurrency@@@23@@Z 0000000140061a80 f i libconcrt:ScheduleGroupBase.obj
 0001:00060a80       ?Add@?$ListArray@VExternalStatistics@details@Concurrency@@@details@Concurrency@@QEAAHPEAVExternalStatistics@23@@Z 0000000140061a80 f i libconcrt:ScheduleGroupBase.obj
 0001:00060c10       ?Add@?$ListArray@VScheduleGroupSegmentBase@details@Concurrency@@@details@Concurrency@@QEAAHPEAVScheduleGroupSegmentBase@23@@Z 0000000140061c10 f i libconcrt:ScheduleGroupBase.obj
 0001:00060da4       ?AddRunnableContext@ScheduleGroupSegmentBase@details@Concurrency@@IEAAXPEAVInternalContextBase@23@Vlocation@3@@Z 0000000140061da4 f   libconcrt:ScheduleGroupBase.obj
 0001:00060ec8       ?CheckForDeletionBridge@?$ListArray@U?$ListArrayInlineLink@VWorkQueue@details@Concurrency@@@details@Concurrency@@@details@Concurrency@@CAXPEAV123@@Z 0000000140061ec8 f i libconcrt:ScheduleGroupBase.obj
 0001:00060f1c       ?CreateSegment@ScheduleGroupBase@details@Concurrency@@IEAAPEAVScheduleGroupSegmentBase@23@PEAVlocation@3@PEAVSchedulingRing@23@@Z 0000000140061f1c f   libconcrt:ScheduleGroupBase.obj
 0001:00061010       ?DemandInitialize@?$Mailbox@V_UnrealizedChore@details@Concurrency@@@details@Concurrency@@AEAAXXZ 0000000140062010 f i libconcrt:ScheduleGroupBase.obj
 0001:000610a0       ?Dequeue@?$Mailbox@V_UnrealizedChore@details@Concurrency@@@details@Concurrency@@QEAA_NPEAPEAV_UnrealizedChore@23@@Z 00000001400620a0 f i libconcrt:ScheduleGroupBase.obj
 0001:00061198       ?DetachActiveWorkQueue@ScheduleGroupSegmentBase@details@Concurrency@@IEAAXPEAVWorkQueue@23@@Z 0000000140062198 f   libconcrt:ScheduleGroupBase.obj
 0001:00061220       ?FindSegment@ScheduleGroupBase@details@Concurrency@@MEAAPEAVScheduleGroupSegmentBase@23@PEAVlocation@3@PEAVSchedulingRing@23@@Z 0000000140062220 f   libconcrt:ScheduleGroupBase.obj
 0001:00061298       ?GetDetachedWorkQueue@ScheduleGroupSegmentBase@details@Concurrency@@IEAAPEAVWorkQueue@23@XZ 0000000140062298 f   libconcrt:ScheduleGroupBase.obj
 0001:0006139c       ?GetInternalContext@ScheduleGroupSegmentBase@details@Concurrency@@IEAAPEAVInternalContextBase@23@PEAU_Chore@23@_N@Z 000000014006239c f   libconcrt:ScheduleGroupBase.obj
 0001:000613fc       ?GetRealizedChore@ScheduleGroupSegmentBase@details@Concurrency@@IEAAPEAVRealizedChore@23@XZ 00000001400623fc f   libconcrt:ScheduleGroupBase.obj
 0001:0006145c       ?HasRealizedChores@ScheduleGroupSegmentBase@details@Concurrency@@IEBA_NXZ 000000014006245c f   libconcrt:ScheduleGroupBase.obj
 0001:00061468       ?HasUnrealizedChores@ScheduleGroupSegmentBase@details@Concurrency@@IEAA_NXZ 0000000140062468 f   libconcrt:ScheduleGroupBase.obj
 0001:0006147c       ?Initialize@ScheduleGroupBase@details@Concurrency@@QEAAXPEAVlocation@3@@Z 000000014006247c f   libconcrt:ScheduleGroupBase.obj
 0001:000614bc       ?Initialize@ScheduleGroupSegmentBase@details@Concurrency@@IEAAXPEAVScheduleGroupBase@23@PEAVSchedulingRing@23@PEAVlocation@3@@Z 00000001400624bc f   libconcrt:ScheduleGroupBase.obj
 0001:000615e8       ?LocateMailboxSegment@?$Mailbox@V_UnrealizedChore@details@Concurrency@@@details@Concurrency@@AEAAPEAUSegment@123@I_N@Z 00000001400625e8 f i libconcrt:ScheduleGroupBase.obj
 0001:00061698       ?LocateSegment@ScheduleGroupBase@details@Concurrency@@UEAAPEAVScheduleGroupSegmentBase@23@PEAVlocation@3@_N@Z 0000000140062698 f   libconcrt:ScheduleGroupBase.obj
 0001:0006181c       ?LocateUnrealizedChores@ScheduleGroupSegmentBase@details@Concurrency@@IEAAPEAVWorkQueue@23@XZ 000000014006281c f   libconcrt:ScheduleGroupBase.obj
 0001:00061908       ?RedetachQueue@ScheduleGroupSegmentBase@details@Concurrency@@QEAAXPEAVWorkQueue@23@@Z 0000000140062908 f   libconcrt:ScheduleGroupBase.obj
 0001:00061918       ?ReleaseInternalContext@ScheduleGroupSegmentBase@details@Concurrency@@IEAAXPEAVInternalContextBase@23@@Z 0000000140062918 f   libconcrt:ScheduleGroupBase.obj
 0001:00061950       ?Remove@?$ListArray@U?$ListArrayInlineLink@VWorkQueue@details@Concurrency@@@details@Concurrency@@@details@Concurrency@@QEAA_NPEAU?$ListArrayInlineLink@VWorkQueue@details@Concurrency@@@23@H_N@Z 0000000140062950 f i libconcrt:ScheduleGroupBase.obj
 0001:00061a90       ?Remove@ScheduleGroupSegmentBase@details@Concurrency@@IEAAXXZ 0000000140062a90 f   libconcrt:ScheduleGroupBase.obj
 0001:00061ac4       ?RemoveSegments@ScheduleGroupBase@details@Concurrency@@MEAAXXZ 0000000140062ac4 f   libconcrt:ScheduleGroupBase.obj
 0001:00061b28       ?RetireDetachedQueue@ScheduleGroupSegmentBase@details@Concurrency@@QEAAXPEAVWorkQueue@23@@Z 0000000140062b28 f   libconcrt:ScheduleGroupBase.obj
 0001:00061b84       ?SafelyDeleteDetachedWorkQueue@ScheduleGroupSegmentBase@details@Concurrency@@IEAA_NPEAVWorkQueue@23@@Z 0000000140062b84 f   libconcrt:ScheduleGroupBase.obj
 0001:00061be4       ?ScheduleTask@ScheduleGroupBase@details@Concurrency@@QEAAXP6AXPEAX@Z0AEAVlocation@3@@Z 0000000140062be4 f   libconcrt:ScheduleGroupBase.obj
 0001:00061c20       ?ScheduleTask@ScheduleGroupBase@details@Concurrency@@UEAAXP6AXPEAX@Z0@Z 0000000140062c20 f   libconcrt:ScheduleGroupBase.obj
 0001:00061c5c       ?ScheduleTask@ScheduleGroupSegmentBase@details@Concurrency@@QEAAXP6AXPEAX@Z0@Z 0000000140062c5c f   libconcrt:ScheduleGroupBase.obj
 0001:00061e08       ?StealUnrealizedChore@ScheduleGroupSegmentBase@details@Concurrency@@IEAAPEAV_UnrealizedChore@23@_N@Z 0000000140062e08 f   libconcrt:ScheduleGroupBase.obj
 0001:0006215c       ??0SchedulerPolicy@Concurrency@@QEAA@AEBV01@@Z 000000014006315c f   libconcrt:SchedulerPolicyBase.obj
 0001:000621a4       ??0SchedulerPolicy@Concurrency@@QEAA@_KZZ 00000001400631a4 f   libconcrt:SchedulerPolicyBase.obj
 0001:000621d8       ??0invalid_scheduler_policy_key@Concurrency@@QEAA@AEBV01@@Z 00000001400631d8 f i libconcrt:SchedulerPolicyBase.obj
 0001:00062214       ??0invalid_scheduler_policy_thread_specification@Concurrency@@QEAA@AEBV01@@Z 0000000140063214 f i libconcrt:SchedulerPolicyBase.obj
 0001:00062250       ??0invalid_scheduler_policy_value@Concurrency@@QEAA@AEBV01@@Z 0000000140063250 f i libconcrt:SchedulerPolicyBase.obj
 0001:0006228c       ??1SchedulerPolicy@Concurrency@@QEAA@XZ 000000014006328c f   libconcrt:SchedulerPolicyBase.obj
 0001:0006229c       ??4SchedulerPolicy@Concurrency@@QEAAAEAV01@AEBV01@@Z 000000014006329c f   libconcrt:SchedulerPolicyBase.obj
 0001:000622c0       ?GetPolicyValue@SchedulerPolicy@Concurrency@@QEBAIW4PolicyElementKey@2@@Z 00000001400632c0 f   libconcrt:SchedulerPolicyBase.obj
 0001:00062300       ?_Initialize@SchedulerPolicy@Concurrency@@AEAAX_KPEAPEAD@Z 0000000140063300 f   libconcrt:SchedulerPolicyBase.obj
 0001:00062438       ?_ResolvePolicyValues@SchedulerPolicy@Concurrency@@AEAAXXZ 0000000140063438 f   libconcrt:SchedulerPolicyBase.obj
 0001:0006249c       ?_StringFromPolicyKey@SchedulerPolicy@Concurrency@@CAPEBDI@Z 000000014006349c f   libconcrt:SchedulerPolicyBase.obj
 0001:000624b4       ?_ValidPolicyValue@SchedulerPolicy@Concurrency@@CA_NW4PolicyElementKey@2@I@Z 00000001400634b4 f   libconcrt:SchedulerPolicyBase.obj
 0001:00062564       ?_ValidateConcRTPolicy@SchedulerPolicy@Concurrency@@QEBAXXZ 0000000140063564 f   libconcrt:SchedulerPolicyBase.obj
 0001:000625d0       ??0VirtualProcessor@details@Concurrency@@QEAA@XZ 00000001400635d0 f   libconcrt:VirtualProcessor.obj
 0001:00062708       ??1VirtualProcessor@details@Concurrency@@UEAA@XZ 0000000140063708 f   libconcrt:VirtualProcessor.obj
 0001:0006275c       ??_EVirtualProcessor@details@Concurrency@@UEAAPEAXI@Z 000000014006375c f i libconcrt:VirtualProcessor.obj
 0001:0006275c       ??_GVirtualProcessor@details@Concurrency@@UEAAPEAXI@Z 000000014006375c f i libconcrt:VirtualProcessor.obj
 0001:00062790       ?Affinitize@VirtualProcessor@details@Concurrency@@MEAAXPEAVInternalContextBase@23@@Z 0000000140063790 f   libconcrt:VirtualProcessor.obj
 0001:000627f0       ?CheckAffinityNotification@VirtualProcessor@details@Concurrency@@QEAA_NXZ 00000001400637f0 f   libconcrt:VirtualProcessor.obj
 0001:00062844       ?CheckForDeletion@?$ListArray@VVirtualProcessor@details@Concurrency@@@details@Concurrency@@AEAAXXZ 0000000140063844 f i libconcrt:VirtualProcessor.obj
 0001:000628a8       ?CheckForDeletionBridge@?$ListArray@VVirtualProcessor@details@Concurrency@@@details@Concurrency@@CAXPEAV123@@Z 00000001400638a8 f i libconcrt:VirtualProcessor.obj
 0001:000628b0       ?ClaimExclusiveOwnership@VirtualProcessor@details@Concurrency@@QEAA_NAEAVClaimTicket@123@K_N@Z 00000001400638b0 f   libconcrt:VirtualProcessor.obj
 0001:00062930       ?Deactivate@VirtualProcessor@details@Concurrency@@QEAA_NPEAUIExecutionContext@3@@Z 0000000140063930 f   libconcrt:VirtualProcessor.obj
 0001:00062948       ?EnsureAllTasksVisible@VirtualProcessor@details@Concurrency@@QEAAXPEAUIExecutionContext@3@@Z 0000000140063948 f   libconcrt:VirtualProcessor.obj
 0001:00062960       ?ExerciseClaim@VirtualProcessor@details@Concurrency@@AEAA_NW4AvailabilityType@123@PEAVScheduleGroupSegmentBase@23@PEAVInternalContextBase@23@@Z 0000000140063960 f   libconcrt:VirtualProcessor.obj
 0001:00062a30       ?ExerciseWith@ClaimTicket@VirtualProcessor@details@Concurrency@@QEAA_NPEAVInternalContextBase@34@@Z 0000000140063a30 f   libconcrt:VirtualProcessor.obj
 0001:00062a68       ?GetCurrentSubAllocator@VirtualProcessor@details@Concurrency@@QEAAPEAVSubAllocator@23@XZ 0000000140063a68 f   libconcrt:VirtualProcessor.obj
 0001:00062a94       ?Initialize@VirtualProcessor@details@Concurrency@@MEAAXPEAVSchedulingNode@23@PEAUIVirtualProcessorRoot@3@@Z 0000000140063a94 f   libconcrt:VirtualProcessor.obj
 0001:00062ce0       ?InterlockedClear@ReferenceCountedQuickBitSet@details@Concurrency@@QEAAII@Z 0000000140063ce0 f i libconcrt:VirtualProcessor.obj
 0001:00062d80       ?InterlockedSet@ReferenceCountedQuickBitSet@details@Concurrency@@QEAAII@Z 0000000140063d80 f i libconcrt:VirtualProcessor.obj
 0001:00062e20       ?MakeAvailable@VirtualProcessor@details@Concurrency@@IEAAXW4AvailabilityType@123@_N@Z 0000000140063e20 f   libconcrt:VirtualProcessor.obj
 0001:00062ea0       ?MarkForRetirement@VirtualProcessor@details@Concurrency@@AEAAXXZ 0000000140063ea0 f   libconcrt:VirtualProcessor.obj
 0001:00062f90       ?Oversubscribe@VirtualProcessor@details@Concurrency@@EEAAPEAV123@XZ 0000000140063f90 f   libconcrt:VirtualProcessor.obj
 0001:00062fd0       ?Remove@?$ListArray@VVirtualProcessor@details@Concurrency@@@details@Concurrency@@QEAA_NPEAVVirtualProcessor@23@H_N@Z 0000000140063fd0 f i libconcrt:VirtualProcessor.obj
 0001:00063110       ?Retire@VirtualProcessor@details@Concurrency@@MEAAXXZ 0000000140064110 f   libconcrt:VirtualProcessor.obj
 0001:000632f8       ?SafePoint@VirtualProcessor@details@Concurrency@@QEAA_NXZ 00000001400642f8 f   libconcrt:VirtualProcessor.obj
 0001:0006330c       ?StartupWorkerContext@VirtualProcessor@details@Concurrency@@EEAA_NPEAVScheduleGroupSegmentBase@23@PEAVInternalContextBase@23@@Z 000000014006430c f   libconcrt:VirtualProcessor.obj
 0001:000633fc       ?ThrowVirtualProcessorEvent@VirtualProcessor@details@Concurrency@@CAXW4ConcRT_EventType@3@EKK@Z 00000001400643fc f   libconcrt:VirtualProcessor.obj
 0001:00063474       ?ToInternalContext@VirtualProcessor@details@Concurrency@@MEAAPEAVInternalContextBase@23@PEAUIExecutionContext@3@@Z 0000000140064474 f   libconcrt:VirtualProcessor.obj
 0001:00063478       ?UpdateWorkState@VirtualProcessor@details@Concurrency@@QEAAX_N0@Z 0000000140064478 f   libconcrt:VirtualProcessor.obj
 0001:00063530       ?Wipe@QuickBitSet@details@Concurrency@@QEAAXXZ 0000000140064530 f i libconcrt:VirtualProcessor.obj
 0001:000635d0       ??0SchedulingNode@details@Concurrency@@QEAA@AEBVQuickBitSet@12@KPEAVSchedulingRing@12@@Z 00000001400645d0 f   libconcrt:SchedulingNode.obj
 0001:00063690       ??1?$ListArray@VVirtualProcessor@details@Concurrency@@@details@Concurrency@@QEAA@XZ 0000000140064690 f i libconcrt:SchedulingNode.obj
 0001:000637b8       ??1SchedulingNode@details@Concurrency@@QEAA@XZ 00000001400647b8 f   libconcrt:SchedulingNode.obj
 0001:000637f4       ?Add@?$ListArray@VVirtualProcessor@details@Concurrency@@@details@Concurrency@@QEAAHPEAVVirtualProcessor@23@@Z 00000001400647f4 f i libconcrt:SchedulingNode.obj
 0001:00063988       ?AddVirtualProcessor@SchedulingNode@details@Concurrency@@QEAAPEAVVirtualProcessor@23@PEAUIVirtualProcessorRoot@3@_N@Z 0000000140064988 f   libconcrt:SchedulingNode.obj
 0001:00063ad8       ?FindMatchingVirtualProcessor@SchedulingNode@details@Concurrency@@QEAAPEAVVirtualProcessor@23@PEAUIVirtualProcessorRoot@3@@Z 0000000140064ad8 f   libconcrt:SchedulingNode.obj
 0001:00063b70       ?FindVirtualProcessorByLocation@SchedulingNode@details@Concurrency@@QEAAPEAVVirtualProcessor@23@PEBVlocation@3@@Z 0000000140064b70 f   libconcrt:SchedulingNode.obj
 0001:00063c2c       ?FoundAvailableVirtualProcessor@SchedulingNode@details@Concurrency@@AEAA_NAEAVClaimTicket@VirtualProcessor@23@Vlocation@3@K@Z 0000000140064c2c f   libconcrt:SchedulingNode.obj
 0001:00063d20       ?GetLocation@SchedulingNode@details@Concurrency@@QEAA?AVlocation@3@XZ 0000000140064d20 f   libconcrt:SchedulingNode.obj
 0001:00063d68       ??0InternalContextBase@details@Concurrency@@QEAA@PEAVSchedulerBase@12@@Z 0000000140064d68 f   libconcrt:InternalContextBase.obj
 0001:00063e30       ??0context_self_unblock@Concurrency@@QEAA@AEBV01@@Z 0000000140064e30 f i libconcrt:InternalContextBase.obj
 0001:00063e6c       ??0context_unblock_unbalanced@Concurrency@@QEAA@AEBV01@@Z 0000000140064e6c f i libconcrt:InternalContextBase.obj
 0001:00063ea8       ??0invalid_oversubscribe_operation@Concurrency@@QEAA@AEBV01@@Z 0000000140064ea8 f i libconcrt:InternalContextBase.obj
 0001:00063ee4       ??0nested_scheduler_missing_detach@Concurrency@@QEAA@AEBV01@@Z 0000000140064ee4 f i libconcrt:InternalContextBase.obj
 0001:00063f20       ??1InternalContextBase@details@Concurrency@@UEAA@XZ 0000000140064f20 f   libconcrt:InternalContextBase.obj
 0001:00063f50       ??1ScopedCriticalRegion@ContextBase@details@Concurrency@@QEAA@XZ 0000000140064f50 f i libconcrt:InternalContextBase.obj
 0001:00063f64       ??_EInternalContextBase@details@Concurrency@@WBA@EAAPEAXI@Z 0000000140064f64 f i libconcrt:InternalContextBase.obj
 0001:00063f70       ??_EInternalContextBase@details@Concurrency@@UEAAPEAXI@Z 0000000140064f70 f i libconcrt:InternalContextBase.obj
 0001:00063f70       ??_GInternalContextBase@details@Concurrency@@UEAAPEAXI@Z 0000000140064f70 f i libconcrt:InternalContextBase.obj
 0001:00063fa4       ?AddToRunnables@InternalContextBase@details@Concurrency@@MEAAXVlocation@3@@Z 0000000140064fa4 f   libconcrt:InternalContextBase.obj
 0001:00064198       ?Alloc@InternalContextBase@details@Concurrency@@UEAAPEAX_K@Z 0000000140065198 f   libconcrt:InternalContextBase.obj
 0001:00064200       ?Block@InternalContextBase@details@Concurrency@@UEAAXXZ 0000000140065200 f   libconcrt:InternalContextBase.obj
 0001:000643d4       ?Cancel@InternalContextBase@details@Concurrency@@MEAAXXZ 00000001400653d4 f   libconcrt:InternalContextBase.obj
 0001:00064474       ?Cleanup@InternalContextBase@details@Concurrency@@IEAAXXZ 0000000140065474 f   libconcrt:InternalContextBase.obj
 0001:00064498       ?CleanupDispatchedContextOnCancel@InternalContextBase@details@Concurrency@@IEAAXXZ 0000000140065498 f   libconcrt:InternalContextBase.obj
 0001:000644c0       ?Dispatch@InternalContextBase@details@Concurrency@@UEAAXPEAUDispatchState@3@@Z 00000001400654c0 f   libconcrt:InternalContextBase.obj
 0001:00064698       ?ExecuteChoreInline@InternalContextBase@details@Concurrency@@IEAAXPEAVWorkItem@23@@Z 0000000140065698 f   libconcrt:InternalContextBase.obj
 0001:000646f0       ?ExecutedAssociatedChore@InternalContextBase@details@Concurrency@@IEAA_NXZ 00000001400656f0 f   libconcrt:InternalContextBase.obj
 0001:00064784       ?FindWorkForBlockingOrNesting@InternalContextBase@details@Concurrency@@AEAAPEAV123@AEA_N0@Z 0000000140065784 f   libconcrt:InternalContextBase.obj
 0001:00064908       ?Free@InternalContextBase@details@Concurrency@@UEAAXPEAX@Z 0000000140065908 f   libconcrt:InternalContextBase.obj
 0001:00064948       ?GetAndResetOversubscribedVProc@InternalContextBase@details@Concurrency@@QEAAPEAVVirtualProcessor@23@PEAV423@@Z 0000000140065948 f   libconcrt:InternalContextBase.obj
 0001:00064970       ?GetId@InternalContextBase@details@Concurrency@@WBA@EBAIXZ 0000000140065970 f i libconcrt:InternalContextBase.obj
 0001:0006497c       ?GetProcessorMaskId@details@Concurrency@@YAIPEAVInternalContextBase@12@@Z 000000014006597c f   libconcrt:InternalContextBase.obj
 0001:0006498c       ?GetProxy@InternalContextBase@details@Concurrency@@UEAAPEAUIThreadProxy@3@XZ 000000014006598c f   libconcrt:InternalContextBase.obj
 0001:00064994       ?GetScheduler@InternalContextBase@details@Concurrency@@UEAAPEAUIScheduler@3@XZ 0000000140065994 f   libconcrt:InternalContextBase.obj
 0001:000649a8       ?GetVirtualProcessorId@InternalContextBase@details@Concurrency@@UEBAIXZ 00000001400659a8 f   libconcrt:InternalContextBase.obj
 0001:000649f0       ?IsSynchronouslyBlocked@InternalContextBase@details@Concurrency@@UEBA_NXZ 00000001400659f0 f i libconcrt:InternalContextBase.obj
 0001:000649fc       ?IsVirtualProcessorRetired@InternalContextBase@details@Concurrency@@IEAA_NXZ 00000001400659fc f   libconcrt:InternalContextBase.obj
 0001:00064a70       ?LeaveScheduler@InternalContextBase@details@Concurrency@@AEAAXXZ 0000000140065a70 f   libconcrt:InternalContextBase.obj
 0001:00064ba4       ?Oversubscribe@InternalContextBase@details@Concurrency@@UEAAX_N@Z 0000000140065ba4 f   libconcrt:InternalContextBase.obj
 0001:00064c40       ?PrepareForUse@InternalContextBase@details@Concurrency@@QEAAXPEAVScheduleGroupSegmentBase@23@PEAU_Chore@23@_N@Z 0000000140065c40 f   libconcrt:InternalContextBase.obj
 0001:00064c90       ?PrepareToRun@InternalContextBase@details@Concurrency@@MEAAXPEAVVirtualProcessor@23@@Z 0000000140065c90 f i libconcrt:InternalContextBase.obj
 0001:00064ca0       ?ReclaimVirtualProcessor@InternalContextBase@details@Concurrency@@IEAAXXZ 0000000140065ca0 f   libconcrt:InternalContextBase.obj
 0001:00064d14       ?RejoinScheduler@InternalContextBase@details@Concurrency@@AEAAXXZ 0000000140065d14 f   libconcrt:InternalContextBase.obj
 0001:00064d4c       ?RemoveFromUse@InternalContextBase@details@Concurrency@@QEAAXXZ 0000000140065d4c f   libconcrt:InternalContextBase.obj
 0001:00064d84       ?SetProxy@InternalContextBase@details@Concurrency@@UEAAXPEAUIThreadProxy@3@@Z 0000000140065d84 f   libconcrt:InternalContextBase.obj
 0001:00064dbc       ?SpinUntilBlocked@InternalContextBase@details@Concurrency@@IEAAXXZ 0000000140065dbc f   libconcrt:InternalContextBase.obj
 0001:00064dfc       ?SpinYield@InternalContextBase@details@Concurrency@@UEAAXXZ 0000000140065dfc f   libconcrt:InternalContextBase.obj
 0001:00064f04       ?SwapScheduleGroupSegment@InternalContextBase@details@Concurrency@@QEAAXPEAVScheduleGroupSegmentBase@23@_N@Z 0000000140065f04 f   libconcrt:InternalContextBase.obj
 0001:00064fd0       ?SwitchOut@InternalContextBase@details@Concurrency@@IEAA_NW4ReasonForSwitch@123@@Z 0000000140065fd0 f   libconcrt:InternalContextBase.obj
 0001:00065154       ?SwitchTo@InternalContextBase@details@Concurrency@@IEAAXPEAV123@W4ReasonForSwitch@123@@Z 0000000140066154 f   libconcrt:InternalContextBase.obj
 0001:0006531c       ?Unblock@InternalContextBase@details@Concurrency@@UEAAXXZ 000000014006631c f   libconcrt:InternalContextBase.obj
 0001:00065454       ?WaitForWork@InternalContextBase@details@Concurrency@@IEAAXXZ 0000000140066454 f   libconcrt:InternalContextBase.obj
 0001:000655ac       ?WorkWasFound@InternalContextBase@details@Concurrency@@IEAA_NPEAVWorkItem@23@@Z 00000001400665ac f   libconcrt:InternalContextBase.obj
 0001:00065624       ?Yield@InternalContextBase@details@Concurrency@@UEAAXXZ 0000000140066624 f   libconcrt:InternalContextBase.obj
 0001:0006581c       ??0SchedulingRing@details@Concurrency@@QEAA@PEAVSchedulerBase@12@H@Z 000000014006681c f   libconcrt:SchedulingRing.obj
 0001:000658d8       ??1?$ListArray@VScheduleGroupSegmentBase@details@Concurrency@@@details@Concurrency@@QEAA@XZ 00000001400668d8 f i libconcrt:SchedulingRing.obj
 0001:00065a00       ??1SchedulingRing@details@Concurrency@@QEAA@XZ 0000000140066a00 f   libconcrt:SchedulingRing.obj
 0001:00065a2c       ?Activate@SchedulingRing@details@Concurrency@@QEAAXXZ 0000000140066a2c f   libconcrt:SchedulingRing.obj
 0001:00065a38       ?CheckForDeletion@?$ListArray@VScheduleGroupSegmentBase@details@Concurrency@@@details@Concurrency@@AEAAXXZ 0000000140066a38 f i libconcrt:SchedulingRing.obj
 0001:00065a9c       ?CheckForDeletionBridge@?$ListArray@VScheduleGroupSegmentBase@details@Concurrency@@@details@Concurrency@@CAXPEAV123@@Z 0000000140066a9c f i libconcrt:SchedulingRing.obj
 0001:00065aa4       ?Remove@?$ListArray@VScheduleGroupSegmentBase@details@Concurrency@@@details@Concurrency@@QEAA_NPEAVScheduleGroupSegmentBase@23@H_N@Z 0000000140066aa4 f i libconcrt:SchedulingRing.obj
 0001:00065be4       ?RemoveScheduleGroupSegment@SchedulingRing@details@Concurrency@@AEAAXPEAVScheduleGroupSegmentBase@23@@Z 0000000140066be4 f   libconcrt:SchedulingRing.obj
 0001:00065c14       ??IQuickBitSet@details@Concurrency@@QEBA?AV012@AEBV012@@Z 0000000140066c14 f i libconcrt:CacheLocalScheduleGroup.obj
 0001:00065cb8       ?AddToRunnablesCollection@CacheLocalScheduleGroupSegment@details@Concurrency@@EEAAXPEAVInternalContextBase@23@@Z 0000000140066cb8 f   libconcrt:CacheLocalScheduleGroup.obj
 0001:00065cb8       ?AddToRunnablesCollection@FairScheduleGroupSegment@details@Concurrency@@EEAAXPEAVInternalContextBase@23@@Z 0000000140066cb8 f   libconcrt:FairScheduleGroup.obj
 0001:00065d14       ?Enqueue@?$Mailbox@V_UnrealizedChore@details@Concurrency@@@details@Concurrency@@QEAA?AVSlot@123@PEAV_UnrealizedChore@23@@Z 0000000140066d14 f i libconcrt:CacheLocalScheduleGroup.obj
 0001:00065db0       ?MailChore@CacheLocalScheduleGroup@details@Concurrency@@UEAA?AVSlot@?$Mailbox@V_UnrealizedChore@details@Concurrency@@@23@PEAV_UnrealizedChore@23@PEAVlocation@3@PEAPEAVScheduleGroupSegmentBase@23@@Z 0000000140066db0 f   libconcrt:CacheLocalScheduleGroup.obj
 0001:00065df8       ?NotifyAffinitizedWork@CacheLocalScheduleGroupSegment@details@Concurrency@@UEAAXXZ 0000000140066df8 f   libconcrt:CacheLocalScheduleGroup.obj
 0001:00065e5c       ?PostAffinityMessage@SchedulerBase@details@Concurrency@@QEAAXAEBVQuickBitSet@23@@Z 0000000140066e5c f i libconcrt:CacheLocalScheduleGroup.obj
 0001:00065f08       ?FindSegment@FairScheduleGroup@details@Concurrency@@MEAAPEAVScheduleGroupSegmentBase@23@PEAVlocation@3@PEAVSchedulingRing@23@@Z 0000000140066f08 f   libconcrt:FairScheduleGroup.obj
 0001:00065f3c       ?LocateSegment@FairScheduleGroup@details@Concurrency@@UEAAPEAVScheduleGroupSegmentBase@23@PEAVlocation@3@_N@Z 0000000140066f3c f   libconcrt:FairScheduleGroup.obj
 0001:00065fec       ??0ExternalContextBase@details@Concurrency@@QEAA@PEAVSchedulerBase@12@_N@Z 0000000140066fec f   libconcrt:ExternalContextBase.obj
 0001:000660b4       ??1ExternalContextBase@details@Concurrency@@UEAA@XZ 00000001400670b4 f   libconcrt:ExternalContextBase.obj
 0001:000660dc       ??_EExternalContextBase@details@Concurrency@@UEAAPEAXI@Z 00000001400670dc f i libconcrt:ExternalContextBase.obj
 0001:000660dc       ??_GExternalContextBase@details@Concurrency@@UEAAPEAXI@Z 00000001400670dc f i libconcrt:ExternalContextBase.obj
 0001:00066110       ?Alloc@ExternalContextBase@details@Concurrency@@UEAAPEAX_K@Z 0000000140067110 f   libconcrt:ExternalContextBase.obj
 0001:00066160       ?Block@ExternalContextBase@details@Concurrency@@UEAAXXZ 0000000140067160 f   libconcrt:ExternalContextBase.obj
 0001:000661dc       ?Cleanup@ExternalContextBase@details@Concurrency@@AEAAXXZ 00000001400671dc f   libconcrt:ExternalContextBase.obj
 0001:0006624c       ?Free@ExternalContextBase@details@Concurrency@@UEAAXPEAX@Z 000000014006724c f   libconcrt:ExternalContextBase.obj
 0001:0006629c       ?GetVirtualProcessorId@ExternalContextBase@details@Concurrency@@UEBAIXZ 000000014006729c f i libconcrt:ExternalContextBase.obj
 0001:000662a0       ?ImplicitDetachHandler@ExternalContextBase@details@Concurrency@@CAXPEAU_TP_CALLBACK_INSTANCE@@PEAXPEAU_TP_WAIT@@K@Z 00000001400672a0 f   libconcrt:ExternalContextBase.obj
 0001:000662d4       ?IsSynchronouslyBlocked@ExternalContextBase@details@Concurrency@@UEBA_NXZ 00000001400672d4 f i libconcrt:ExternalContextBase.obj
 0001:000662e0       ?Oversubscribe@ExternalContextBase@details@Concurrency@@UEAAX_N@Z 00000001400672e0 f   libconcrt:ExternalContextBase.obj
 0001:0006631c       ?PrepareForUse@ExternalContextBase@details@Concurrency@@QEAAX_N@Z 000000014006731c f   libconcrt:ExternalContextBase.obj
 0001:00066430       ?RemoveFromUse@ExternalContextBase@details@Concurrency@@QEAAXXZ 0000000140067430 f   libconcrt:ExternalContextBase.obj
 0001:00066464       ?SpinYield@ExternalContextBase@details@Concurrency@@UEAAXXZ 0000000140067464 f i libconcrt:ExternalContextBase.obj
 0001:00066474       ?Unblock@ExternalContextBase@details@Concurrency@@UEAAXXZ 0000000140067474 f   libconcrt:ExternalContextBase.obj
 0001:0006652c       ?Yield@ExternalContextBase@details@Concurrency@@UEAAXXZ 000000014006752c f   libconcrt:ExternalContextBase.obj
 0001:00066578       ??0ThreadScheduler@details@Concurrency@@QEAA@AEBVSchedulerPolicy@2@@Z 0000000140067578 f   libconcrt:ThreadScheduler.obj
 0001:000665bc       ??_EThreadInternalContext@details@Concurrency@@WBA@EAAPEAXI@Z 00000001400675bc f i libconcrt:ThreadScheduler.obj
 0001:000665c8       ??_EThreadScheduler@details@Concurrency@@WBA@EAAPEAXI@Z 00000001400675c8 f i libconcrt:ThreadScheduler.obj
 0001:000665d4       ??_EThreadInternalContext@details@Concurrency@@UEAAPEAXI@Z 00000001400675d4 f i libconcrt:ThreadScheduler.obj
 0001:000665d4       ??_GThreadInternalContext@details@Concurrency@@UEAAPEAXI@Z 00000001400675d4 f i libconcrt:ThreadScheduler.obj
 0001:00066620       ??_EThreadScheduler@details@Concurrency@@UEAAPEAXI@Z 0000000140067620 f i libconcrt:ThreadScheduler.obj
 0001:00066620       ??_GThreadScheduler@details@Concurrency@@UEAAPEAXI@Z 0000000140067620 f i libconcrt:ThreadScheduler.obj
 0001:0006666c       ?AddVirtualProcessors@ThreadScheduler@details@Concurrency@@UEAAXPEAPEAUIVirtualProcessorRoot@3@I@Z 000000014006766c f i libconcrt:ThreadScheduler.obj
 0001:00066678       ?Create@ThreadScheduler@details@Concurrency@@SAPEAV123@AEBVSchedulerPolicy@3@@Z 0000000140067678 f   libconcrt:ThreadScheduler.obj
 0001:000666ac       ?CreateInternalContext@ThreadScheduler@details@Concurrency@@MEAAPEAVInternalContextBase@23@XZ 00000001400676ac f   libconcrt:ThreadScheduler.obj
 0001:0006670c       ?CreateVirtualProcessor@ThreadScheduler@details@Concurrency@@UEAAPEAVVirtualProcessor@23@PEAVSchedulingNode@23@PEAUIVirtualProcessorRoot@3@@Z 000000014006770c f   libconcrt:ThreadScheduler.obj
 0001:0006674c       ?GetContextKind@ThreadInternalContext@details@Concurrency@@UEBA?AW4ContextKind@ContextBase@23@XZ 000000014006774c f i libconcrt:ThreadScheduler.obj
 0001:0006674c       _get_startup_argv_mode     000000014006774c f i LIBCMT:argv_mode.obj
 0001:00066754       ?GetIScheduler@ThreadScheduler@details@Concurrency@@UEAAPEAUIScheduler@3@XZ 0000000140067754 f i libconcrt:ThreadScheduler.obj
 0001:0006675c       ?GetId@ThreadScheduler@details@Concurrency@@UEBAIXZ 000000014006775c f i libconcrt:ThreadScheduler.obj
 0001:00066770       ?GetPolicy@ThreadScheduler@details@Concurrency@@UEBA?AVSchedulerPolicy@3@XZ 0000000140067770 f i libconcrt:ThreadScheduler.obj
 0001:0006678c       ?GetPolicy@ThreadScheduler@details@Concurrency@@WBA@EBA?AVSchedulerPolicy@3@XZ 000000014006778c f i libconcrt:ThreadScheduler.obj
 0001:00066798       ?RemoveVirtualProcessors@ThreadScheduler@details@Concurrency@@UEAAXPEAPEAUIVirtualProcessorRoot@3@I@Z 0000000140067798 f i libconcrt:ThreadScheduler.obj
 0001:000667a4       ?Statistics@ThreadScheduler@details@Concurrency@@UEAAXPEAI00@Z 00000001400677a4 f i libconcrt:ThreadScheduler.obj
 0001:000667b0       ??0ExecutionResource@details@Concurrency@@QEAA@PEAVSchedulerProxy@12@PEAUSchedulerNode@12@I@Z 00000001400677b0 f   libconcrt:ExecutionResource.obj
 0001:00066814       ??0ExecutionResource@details@Concurrency@@QEAA@PEAVSchedulerProxy@12@PEAV012@@Z 0000000140067814 f   libconcrt:ExecutionResource.obj
 0001:00066864       ?CurrentSubscriptionLevel@ExecutionResource@details@Concurrency@@UEBAIXZ 0000000140067864 f   libconcrt:ExecutionResource.obj
 0001:0006687c       ?DecrementUseCounts@ExecutionResource@details@Concurrency@@QEAAXXZ 000000014006787c f   libconcrt:ExecutionResource.obj
 0001:00066908       ?GetExecutionResourceId@ExecutionResource@details@Concurrency@@UEBAIXZ 0000000140067908 f i libconcrt:ExecutionResource.obj
 0001:0006690c       ?GetNodeId@ExecutionResource@details@Concurrency@@UEBAIXZ 000000014006790c f i libconcrt:ExecutionResource.obj
 0001:00066910       ?IncrementUseCounts@ExecutionResource@details@Concurrency@@QEAAXXZ 0000000140067910 f   libconcrt:ExecutionResource.obj
 0001:00066a08       ?Remove@ExecutionResource@details@Concurrency@@UEAAXPEAUIScheduler@3@@Z 0000000140067a08 f   libconcrt:ExecutionResource.obj
 0001:00066aa8       ?ResetCurrent@ExecutionResource@details@Concurrency@@QEAAXXZ 0000000140067aa8 f   libconcrt:ExecutionResource.obj
 0001:00066ad8       ?SetAsCurrent@ExecutionResource@details@Concurrency@@QEAAXXZ 0000000140067ad8 f   libconcrt:ExecutionResource.obj
 0001:00066b14       ??$sign@N@details@Concurrency@@YANN@Z 0000000140067b14 f i libconcrt:HillClimbing.obj
 0001:00066b3c       ??0HillClimbing@details@Concurrency@@QEAA@IIPEAVSchedulerProxy@12@@Z 0000000140067b3c f   libconcrt:HillClimbing.obj
 0001:00066bb0       ?CalculateThroughputGradient@HillClimbing@details@Concurrency@@AEAANHH@Z 0000000140067bb0 f   libconcrt:HillClimbing.obj
 0001:00066d10       ?CoefficientOfVariationMean@MeasuredHistory@HillClimbing@details@Concurrency@@QEAANXZ 0000000140067d10 f   libconcrt:HillClimbing.obj
 0001:00066d6c       ?EstablishControlSetting@HillClimbing@details@Concurrency@@AEAAXI@Z 0000000140067d6c f   libconcrt:HillClimbing.obj
 0001:00066dd4       ?FlushHistories@HillClimbing@details@Concurrency@@AEAAXXZ 0000000140067dd4 f   libconcrt:HillClimbing.obj
 0001:00066e1c       ?IsStableHistory@HillClimbing@details@Concurrency@@AEAA_NPEAVMeasuredHistory@123@@Z 0000000140067e1c f   libconcrt:HillClimbing.obj
 0001:00066e54       ?RecommendControlSetting@HillClimbing@details@Concurrency@@AEAAII@Z 0000000140067e54 f   libconcrt:HillClimbing.obj
 0001:00066ee0       ?Update@HillClimbing@details@Concurrency@@QEAAIIIII@Z 0000000140067ee0 f   libconcrt:HillClimbing.obj
 0001:00067148       ?Variance@MeasuredHistory@HillClimbing@details@Concurrency@@QEAANXZ 0000000140068148 f   libconcrt:HillClimbing.obj
 0001:0006719c       ??0SchedulerProxy@details@Concurrency@@QEAA@PEAUIScheduler@2@PEAVResourceManager@12@AEBVSchedulerPolicy@2@@Z 000000014006819c f   libconcrt:SchedulerProxy.obj
 0001:00067444       ??1SchedulerProxy@details@Concurrency@@IEAA@XZ 0000000140068444 f   libconcrt:SchedulerProxy.obj
 0001:00067484       ?AddCore@SchedulerProxy@details@Concurrency@@QEAAXPEAUSchedulerNode@23@I_N@Z 0000000140068484 f   libconcrt:SchedulerProxy.obj
 0001:00067580       ?AddExecutionResource@SchedulerProxy@details@Concurrency@@QEAAXPEAVExecutionResource@23@@Z 0000000140068580 f   libconcrt:SchedulerProxy.obj
 0001:00067618       ?AddThreadSubscription@SchedulerProxy@details@Concurrency@@QEAAXPEAVExecutionResource@23@@Z 0000000140068618 f   libconcrt:SchedulerProxy.obj
 0001:00067670       ?AddVirtualProcessorRoots@SchedulerProxy@details@Concurrency@@QEAAXPEAPEAUIVirtualProcessorRoot@3@I@Z 0000000140068670 f   libconcrt:SchedulerProxy.obj
 0001:00067768       ?AdjustAllocationIncrease@SchedulerProxy@details@Concurrency@@QEBAII@Z 0000000140068768 f   libconcrt:SchedulerProxy.obj
 0001:000677f4       ?BindContext@SchedulerProxy@details@Concurrency@@UEAAXPEAUIExecutionContext@3@@Z 00000001400687f4 f   libconcrt:SchedulerProxy.obj
 0001:00067860       ?Cleanup@SchedulerProxy@details@Concurrency@@IEAAXXZ 0000000140068860 f   libconcrt:SchedulerProxy.obj
 0001:00067934       ?CreateExternalThreadResource@SchedulerProxy@details@Concurrency@@QEAAPEAVExecutionResource@23@PEAUSchedulerNode@23@I@Z 0000000140068934 f   libconcrt:SchedulerProxy.obj
 0001:0006799c       ?CreateOversubscriber@SchedulerProxy@details@Concurrency@@UEAAPEAUIVirtualProcessorRoot@3@PEAUIExecutionResource@3@@Z 000000014006899c f   libconcrt:SchedulerProxy.obj
 0001:00067ac0       ?CreateVirtualProcessorRoot@SchedulerProxy@details@Concurrency@@UEAAPEAVVirtualProcessorRoot@23@PEAUSchedulerNode@23@I@Z 0000000140068ac0 f   libconcrt:SchedulerProxy.obj
 0001:00067b10       ?DecrementCoreSubscription@SchedulerProxy@details@Concurrency@@QEAAXPEAVExecutionResource@23@@Z 0000000140068b10 f   libconcrt:SchedulerProxy.obj
 0001:00067b64       ?DecrementFixedCoreCount@SchedulerProxy@details@Concurrency@@QEAAXII_N@Z 0000000140068b64 f   libconcrt:SchedulerProxy.obj
 0001:00067c0c       ?DeleteThis@SchedulerProxy@details@Concurrency@@MEAAXXZ 0000000140068c0c f i libconcrt:SchedulerProxy.obj
 0001:00067c34       ?DestroyExecutionResource@SchedulerProxy@details@Concurrency@@QEAAXPEAVExecutionResource@23@@Z 0000000140068c34 f   libconcrt:SchedulerProxy.obj
 0001:00067d28       ?DestroyVirtualProcessorRoot@SchedulerProxy@details@Concurrency@@QEAAXPEAVVirtualProcessorRoot@23@@Z 0000000140068d28 f   libconcrt:SchedulerProxy.obj
 0001:00067df4       ?FinalShutdown@SchedulerProxy@details@Concurrency@@UEAAXXZ 0000000140068df4 f   libconcrt:SchedulerProxy.obj
 0001:00067e18       ?GetCurrentThreadExecutionResource@SchedulerProxy@details@Concurrency@@QEAAPEAVExecutionResource@23@XZ 0000000140068e18 f   libconcrt:SchedulerProxy.obj
 0001:00067e44       ?GetNewThreadProxy@SchedulerProxy@details@Concurrency@@UEAAPEAUIThreadProxy@3@PEAUIExecutionContext@3@@Z 0000000140068e44 f   libconcrt:SchedulerProxy.obj
 0001:00067eac       ?GetResourceForNewSubscription@SchedulerProxy@details@Concurrency@@QEAAPEAVExecutionResource@23@PEAV423@@Z 0000000140068eac f   libconcrt:SchedulerProxy.obj
 0001:00067f10       ?GrantAllocation@SchedulerProxy@details@Concurrency@@QEAAPEAVExecutionResource@23@I_N0@Z 0000000140068f10 f   libconcrt:SchedulerProxy.obj
 0001:00068304       ?IncrementCoreSubscription@SchedulerProxy@details@Concurrency@@QEAAXPEAVExecutionResource@23@@Z 0000000140069304 f   libconcrt:SchedulerProxy.obj
 0001:0006835c       ?IncrementFixedCoreCount@SchedulerProxy@details@Concurrency@@QEAAXII_N@Z 000000014006935c f   libconcrt:SchedulerProxy.obj
 0001:0006840c       ?ReferenceCurrentThreadExecutionResource@SchedulerProxy@details@Concurrency@@QEAAPEAVExecutionResource@23@XZ 000000014006940c f   libconcrt:SchedulerProxy.obj
 0001:00068480       ?RemoveCore@SchedulerProxy@details@Concurrency@@QEAAXPEAUSchedulerNode@23@I@Z 0000000140069480 f   libconcrt:SchedulerProxy.obj
 0001:0006857c       ?RemoveThreadSubscription@SchedulerProxy@details@Concurrency@@QEAAXPEAVExecutionResource@23@@Z 000000014006957c f   libconcrt:SchedulerProxy.obj
 0001:000685d8       ?RequestInitialVirtualProcessors@SchedulerProxy@details@Concurrency@@UEAAPEAUIExecutionResource@3@_N@Z 00000001400695d8 f   libconcrt:SchedulerProxy.obj
 0001:000685e8       ?SendCoreNotification@SchedulerProxy@details@Concurrency@@QEAAXPEAUSchedulerCore@23@_N@Z 00000001400695e8 f   libconcrt:SchedulerProxy.obj
 0001:000686f4       ?Shutdown@SchedulerProxy@details@Concurrency@@UEAAXXZ 00000001400696f4 f   libconcrt:SchedulerProxy.obj
 0001:00068700       ?SubscribeCurrentThread@SchedulerProxy@details@Concurrency@@UEAAPEAUIExecutionResource@3@XZ 0000000140069700 f   libconcrt:SchedulerProxy.obj
 0001:0006870c       ?ToggleBorrowedState@SchedulerProxy@details@Concurrency@@QEAAXPEAUSchedulerNode@23@I@Z 000000014006970c f   libconcrt:SchedulerProxy.obj
 0001:00068748       ?UnbindContext@SchedulerProxy@details@Concurrency@@UEAAXPEAUIExecutionContext@3@@Z 0000000140069748 f   libconcrt:SchedulerProxy.obj
 0001:00068790       ?Initialize@WinRT@details@Concurrency@@SAXXZ 0000000140069790 f   libconcrt:WinRTWrapper.obj
 0001:000688a4       ?RoInitialize@WinRT@details@Concurrency@@SAJW4RO_INIT_TYPE@@@Z 00000001400698a4 f   libconcrt:WinRTWrapper.obj
 0001:000688c8       ?RoUninitialize@WinRT@details@Concurrency@@SAXXZ 00000001400698c8 f   libconcrt:WinRTWrapper.obj
 0001:000688e4       ??0?$ThreadProxyFactory@VFreeThreadProxy@details@Concurrency@@@details@Concurrency@@IEAA@PEAVThreadProxyFactoryManager@12@@Z 00000001400698e4 f i libconcrt:ThreadProxyFactoryManager.obj
 0001:00068938       ??0ThreadProxyFactoryManager@details@Concurrency@@QEAA@XZ 0000000140069938 f   libconcrt:ThreadProxyFactoryManager.obj
 0001:00068968       ??1IThreadProxyFactory@details@Concurrency@@UEAA@XZ 0000000140069968 f i libconcrt:ThreadProxyFactoryManager.obj
 0001:00068974       ??1ThreadProxyFactoryManager@details@Concurrency@@QEAA@XZ 0000000140069974 f   libconcrt:ThreadProxyFactoryManager.obj
 0001:000689a8       ??_E?$ThreadProxyFactory@VFreeThreadProxy@details@Concurrency@@@details@Concurrency@@UEAAPEAXI@Z 00000001400699a8 f i libconcrt:ThreadProxyFactoryManager.obj
 0001:000689a8       ??_G?$ThreadProxyFactory@VFreeThreadProxy@details@Concurrency@@@details@Concurrency@@UEAAPEAXI@Z 00000001400699a8 f i libconcrt:ThreadProxyFactoryManager.obj
 0001:000689d4       ??_EFreeThreadProxy@details@Concurrency@@UEAAPEAXI@Z 00000001400699d4 f i libconcrt:ThreadProxyFactoryManager.obj
 0001:000689d4       ??_GFreeThreadProxy@details@Concurrency@@UEAAPEAXI@Z 00000001400699d4 f i libconcrt:ThreadProxyFactoryManager.obj
 0001:00068a14       ??_EFreeThreadProxyFactory@details@Concurrency@@UEAAPEAXI@Z 0000000140069a14 f i libconcrt:ThreadProxyFactoryManager.obj
 0001:00068a14       ??_GFreeThreadProxyFactory@details@Concurrency@@UEAAPEAXI@Z 0000000140069a14 f i libconcrt:ThreadProxyFactoryManager.obj
 0001:00068a40       ??_EIThreadProxyFactory@details@Concurrency@@UEAAPEAXI@Z 0000000140069a40 f i libconcrt:ThreadProxyFactoryManager.obj
 0001:00068a40       ??_GIThreadProxyFactory@details@Concurrency@@UEAAPEAXI@Z 0000000140069a40 f i libconcrt:ThreadProxyFactoryManager.obj
 0001:00068a6c       ?Create@FreeThreadProxyFactory@details@Concurrency@@EEAAPEAVFreeThreadProxy@23@I@Z 0000000140069a6c f i libconcrt:ThreadProxyFactoryManager.obj
 0001:00068adc       ?CreateFactory@FreeThreadProxyFactory@details@Concurrency@@SAPEAV123@PEAVThreadProxyFactoryManager@23@@Z 0000000140069adc f i libconcrt:ThreadProxyFactoryManager.obj
 0001:00068b4c       ?GetExecutionResourceTls@?$ThreadProxyFactory@VFreeThreadProxy@details@Concurrency@@@details@Concurrency@@UEAAKXZ 0000000140069b4c f i libconcrt:ThreadProxyFactoryManager.obj
 0001:00068b50       ?GetFreeThreadProxyFactory@ThreadProxyFactoryManager@details@Concurrency@@QEAAPEAVFreeThreadProxyFactory@23@XZ 0000000140069b50 f   libconcrt:ThreadProxyFactoryManager.obj
 0001:00068ba0       ?Prepare@?$ThreadProxyFactory@VFreeThreadProxy@details@Concurrency@@@details@Concurrency@@MEAAXPEAVFreeThreadProxy@23@H@Z 0000000140069ba0 f i libconcrt:ThreadProxyFactoryManager.obj
 0001:00068bc0       ?ReclaimProxy@?$ThreadProxyFactory@VFreeThreadProxy@details@Concurrency@@@details@Concurrency@@UEAAXPEAUIThreadProxy@3@@Z 0000000140069bc0 f i libconcrt:ThreadProxyFactoryManager.obj
 0001:00068c50       ?ReclaimProxy@FreeThreadProxyFactory@details@Concurrency@@UEAAXPEAUIThreadProxy@3@@Z 0000000140069c50 f i libconcrt:ThreadProxyFactoryManager.obj
 0001:00068d2c       ?Reference@FreeThreadProxyFactory@details@Concurrency@@UEAAJXZ 0000000140069d2c f i libconcrt:ThreadProxyFactoryManager.obj
 0001:00068d3c       ?Release@FreeThreadProxyFactory@details@Concurrency@@UEAAJXZ 0000000140069d3c f i libconcrt:ThreadProxyFactoryManager.obj
 0001:00068d6c       ?RequestProxy@?$ThreadProxyFactory@VFreeThreadProxy@details@Concurrency@@@details@Concurrency@@UEAAPEAUIThreadProxy@3@IH@Z 0000000140069d6c f i libconcrt:ThreadProxyFactoryManager.obj
 0001:00068e1c       ?Retire@FreeThreadProxyFactory@details@Concurrency@@EEAAXPEAVFreeThreadProxy@23@@Z 0000000140069e1c f i libconcrt:ThreadProxyFactoryManager.obj
 0001:00068e24       ?RetireThreadProxies@?$ThreadProxyFactory@VFreeThreadProxy@details@Concurrency@@@details@Concurrency@@QEAAXXZ 0000000140069e24 f i libconcrt:ThreadProxyFactoryManager.obj
 0001:00068ea0       ?ShutdownFactory@FreeThreadProxyFactory@details@Concurrency@@UEAAXXZ 0000000140069ea0 f i libconcrt:ThreadProxyFactoryManager.obj
 0001:00068ec8       ?YieldToSystem@FreeThreadProxy@details@Concurrency@@UEAAXXZ 0000000140069ec8 f i libconcrt:ThreadProxyFactoryManager.obj
 0001:00068ed0       ??0location@Concurrency@@QEAA@W4_Type@01@IIPEAX@Z 0000000140069ed0 f   libconcrt:location.obj
 0001:00068ef8       ?_FastNodeIntersects@location@Concurrency@@QEBA_NAEBV12@@Z 0000000140069ef8 f   libconcrt:location.obj
 0001:00068f98       ?_FastVPIntersects@location@Concurrency@@QEBA_NAEBV12@@Z 0000000140069f98 f   libconcrt:location.obj
 0001:00068fe0       ??0WorkItem@details@Concurrency@@QEAA@PEAVInternalContextBase@12@@Z 0000000140069fe0 f   libconcrt:SearchAlgorithms.obj
 0001:00069018       ?Bind@WorkItem@details@Concurrency@@QEAAPEAVInternalContextBase@23@XZ 000000014006a018 f   libconcrt:SearchAlgorithms.obj
 0001:00069074       ?BindTo@WorkItem@details@Concurrency@@QEAAXPEAVInternalContextBase@23@@Z 000000014006a074 f   libconcrt:SearchAlgorithms.obj
 0001:000690bc       ?GetLocalRunnable@WorkSearchContext@details@Concurrency@@AEAA_NPEAVWorkItem@23@PEAVVirtualProcessor@23@_N@Z 000000014006a0bc f   libconcrt:SearchAlgorithms.obj
 0001:000691dc       ?GetPseudoRRAffineScheduleGroupSegment@SchedulingRing@details@Concurrency@@QEAAPEAVScheduleGroupSegmentBase@23@PEAH@Z 000000014006a1dc f i libconcrt:SearchAlgorithms.obj
 0001:00069248       ?GetPseudoRRNonAffineScheduleGroupSegment@SchedulingRing@details@Concurrency@@QEAAPEAVScheduleGroupSegmentBase@23@PEAH@Z 000000014006a248 f i libconcrt:SearchAlgorithms.obj
 0001:000692b4       ?GetRealizedChore@WorkSearchContext@details@Concurrency@@AEAA_NPEAVWorkItem@23@PEAVScheduleGroupSegmentBase@23@_N@Z 000000014006a2b4 f   libconcrt:SearchAlgorithms.obj
 0001:00069328       ?GetRealizedChoreWithinGroup@WorkSearchContext@details@Concurrency@@AEAA_NPEAVWorkItem@23@PEAVScheduleGroupSegmentBase@23@_NW4SearchAffinity@123@2@Z 000000014006a328 f   libconcrt:SearchAlgorithms.obj
 0001:000693f8       ?GetRunnableContext@WorkSearchContext@details@Concurrency@@AEAA_NPEAVWorkItem@23@PEAVScheduleGroupSegmentBase@23@@Z 000000014006a3f8 f   libconcrt:SearchAlgorithms.obj
 0001:0006943c       ?GetRunnableContextWithinGroup@WorkSearchContext@details@Concurrency@@AEAA_NPEAVWorkItem@23@PEAVScheduleGroupSegmentBase@23@W4SearchAffinity@123@_N@Z 000000014006a43c f   libconcrt:SearchAlgorithms.obj
 0001:000694fc       ?GetUnrealizedChore@WorkSearchContext@details@Concurrency@@AEAA_NPEAVWorkItem@23@PEAVScheduleGroupSegmentBase@23@_N2@Z 000000014006a4fc f   libconcrt:SearchAlgorithms.obj
 0001:00069570       ?GetUnrealizedChoreWithinGroup@WorkSearchContext@details@Concurrency@@AEAA_NPEAVWorkItem@23@PEAVScheduleGroupSegmentBase@23@_NW4SearchAffinity@123@2@Z 000000014006a570 f   libconcrt:SearchAlgorithms.obj
 0001:00069648       ?Invoke@WorkItem@details@Concurrency@@QEAAXXZ 000000014006a648 f   libconcrt:SearchAlgorithms.obj
 0001:00069698       ?PreSearch@WorkSearchContext@details@Concurrency@@AEAA_NPEAVWorkItem@23@@Z 000000014006a698 f   libconcrt:SearchAlgorithms.obj
 0001:000696dc       ?QuickSearch@WorkSearchContext@details@Concurrency@@AEAA_NPEAVScheduleGroupSegmentBase@23@PEAVWorkItem@23@_NK@Z 000000014006a6dc f   libconcrt:SearchAlgorithms.obj
 0001:00069784       ?QuickSearchYield@WorkSearchContext@details@Concurrency@@AEAA_NPEAVScheduleGroupSegmentBase@23@PEAVWorkItem@23@_NK@Z 000000014006a784 f   libconcrt:SearchAlgorithms.obj
 0001:00069818       ?Reset@WorkSearchContext@details@Concurrency@@QEAAXPEAVVirtualProcessor@23@W4Algorithm@123@@Z 000000014006a818 f   libconcrt:SearchAlgorithms.obj
 0001:00069890       ?ResolveToken@WorkItem@details@Concurrency@@QEAA_NXZ 000000014006a890 f   libconcrt:SearchAlgorithms.obj
 0001:00069924       ?SearchCacheLocal@WorkSearchContext@details@Concurrency@@AEAA_NPEAVWorkItem@23@PEAVScheduleGroupSegmentBase@23@_NK@Z 000000014006a924 f   libconcrt:SearchAlgorithms.obj
 0001:00069d7c       ?SearchCacheLocalYield@WorkSearchContext@details@Concurrency@@AEAA_NPEAVWorkItem@23@PEAVScheduleGroupSegmentBase@23@_NK@Z 000000014006ad7c f   libconcrt:SearchAlgorithms.obj
 0001:0006a0f4       ?SearchCacheLocal_Realized@WorkSearchContext@details@Concurrency@@AEAA_NPEAVWorkItem@23@PEAVSchedulingRing@23@PEAVScheduleGroupSegmentBase@23@_NW4SearchAffinity@123@K3@Z 000000014006b0f4 f   libconcrt:SearchAlgorithms.obj
 0001:0006a298       ?SearchCacheLocal_Runnables@WorkSearchContext@details@Concurrency@@AEAA_NPEAVWorkItem@23@PEAVSchedulingRing@23@PEAVScheduleGroupSegmentBase@23@_NW4SearchAffinity@123@K3@Z 000000014006b298 f   libconcrt:SearchAlgorithms.obj
 0001:0006a460       ?SearchCacheLocal_Unrealized@WorkSearchContext@details@Concurrency@@AEAA_NPEAVWorkItem@23@PEAVSchedulingRing@23@PEAVScheduleGroupSegmentBase@23@_NW4SearchAffinity@123@K3@Z 000000014006b460 f   libconcrt:SearchAlgorithms.obj
 0001:0006a60c       ?SearchFair@WorkSearchContext@details@Concurrency@@AEAA_NPEAVWorkItem@23@PEAVScheduleGroupSegmentBase@23@_NK@Z 000000014006b60c f   libconcrt:SearchAlgorithms.obj
 0001:0006a76c       ?SearchFairYield@WorkSearchContext@details@Concurrency@@AEAA_NPEAVWorkItem@23@PEAVScheduleGroupSegmentBase@23@_NK@Z 000000014006b76c f   libconcrt:SearchAlgorithms.obj
 0001:0006a8bc       ?SearchFair_Realized@WorkSearchContext@details@Concurrency@@AEAA_NPEAVWorkItem@23@PEAVSchedulingRing@23@_N@Z 000000014006b8bc f   libconcrt:SearchAlgorithms.obj
 0001:0006a98c       ?SearchFair_Runnables@WorkSearchContext@details@Concurrency@@AEAA_NPEAVWorkItem@23@PEAVSchedulingRing@23@@Z 000000014006b98c f   libconcrt:SearchAlgorithms.obj
 0001:0006aa2c       ?SearchFair_Unrealized@WorkSearchContext@details@Concurrency@@AEAA_NPEAVWorkItem@23@PEAVSchedulingRing@23@_N@Z 000000014006ba2c f   libconcrt:SearchAlgorithms.obj
 0001:0006aafc       ?SkipSegmentSearch@WorkSearchContext@details@Concurrency@@AEAA_NPEAVScheduleGroupSegmentBase@23@0W4SearchAffinity@123@_N@Z 000000014006bafc f   libconcrt:SearchAlgorithms.obj
 0001:0006abd4       ?StealForeignLocalRunnable@WorkSearchContext@details@Concurrency@@AEAA_NPEAVWorkItem@23@PEAVSchedulingNode@23@@Z 000000014006bbd4 f   libconcrt:SearchAlgorithms.obj
 0001:0006ac9c       ?StealLocalRunnable@WorkSearchContext@details@Concurrency@@AEAA_NPEAVWorkItem@23@PEAVSchedulingNode@23@PEAVVirtualProcessor@23@@Z 000000014006bc9c f   libconcrt:SearchAlgorithms.obj
 0001:0006adbc       ?TransferReferences@WorkItem@details@Concurrency@@QEAAXPEAVInternalContextBase@23@@Z 000000014006bdbc f   libconcrt:SearchAlgorithms.obj
 0001:0006ae4c       ?Invoke@RealizedChore@details@Concurrency@@QEAAXXZ 000000014006be4c f   libconcrt:RealizedChore.obj
 0001:0006ae5c       ??0ThreadVirtualProcessor@details@Concurrency@@QEAA@PEAVSchedulingNode@12@PEAUIVirtualProcessorRoot@2@@Z 000000014006be5c f   libconcrt:ThreadVirtualProcessor.obj
 0001:0006aeac       ??_EThreadVirtualProcessor@details@Concurrency@@UEAAPEAXI@Z 000000014006beac f i libconcrt:ThreadVirtualProcessor.obj
 0001:0006aeac       ??_GThreadVirtualProcessor@details@Concurrency@@UEAAPEAXI@Z 000000014006beac f i libconcrt:ThreadVirtualProcessor.obj
 0001:0006aeec       ??0VirtualProcessorRoot@details@Concurrency@@QEAA@PEAVSchedulerProxy@12@PEAUSchedulerNode@12@I@Z 000000014006beec f   libconcrt:VirtualProcessorRoot.obj
 0001:0006af3c       ??_EVirtualProcessorRoot@details@Concurrency@@UEAAPEAXI@Z 000000014006bf3c f i libconcrt:VirtualProcessorRoot.obj
 0001:0006af3c       ??_GVirtualProcessorRoot@details@Concurrency@@UEAAPEAXI@Z 000000014006bf3c f i libconcrt:VirtualProcessorRoot.obj
 0001:0006af74       ?CurrentSubscriptionLevel@VirtualProcessorRoot@details@Concurrency@@UEBAIXZ 000000014006bf74 f i libconcrt:VirtualProcessorRoot.obj
 0001:0006af80       ?GetExecutionResourceId@VirtualProcessorRoot@details@Concurrency@@UEBAIXZ 000000014006bf80 f i libconcrt:VirtualProcessorRoot.obj
 0001:0006af84       ?GetId@VirtualProcessorRoot@details@Concurrency@@UEBAIXZ 000000014006bf84 f i libconcrt:VirtualProcessorRoot.obj
 0001:0006af88       ?GetNodeId@VirtualProcessorRoot@details@Concurrency@@UEBAIXZ 000000014006bf88 f i libconcrt:VirtualProcessorRoot.obj
 0001:0006af8c       ?Remove@VirtualProcessorRoot@details@Concurrency@@UEAAXPEAUIScheduler@3@@Z 000000014006bf8c f   libconcrt:VirtualProcessorRoot.obj
 0001:0006affc       ?ResetSubscriptionLevel@VirtualProcessorRoot@details@Concurrency@@QEAAXXZ 000000014006bffc f   libconcrt:VirtualProcessorRoot.obj
 0001:0006b020       ?Subscribe@VirtualProcessorRoot@details@Concurrency@@QEAAXXZ 000000014006c020 f   libconcrt:VirtualProcessorRoot.obj
 0001:0006b030       ?Unsubscribe@VirtualProcessorRoot@details@Concurrency@@QEAAXXZ 000000014006c030 f   libconcrt:VirtualProcessorRoot.obj
 0001:0006b040       ??0FreeVirtualProcessorRoot@details@Concurrency@@QEAA@PEAVSchedulerProxy@12@PEAUSchedulerNode@12@I@Z 000000014006c040 f   libconcrt:FreeVirtualProcessorRoot.obj
 0001:0006b078       ??_EFreeVirtualProcessorRoot@details@Concurrency@@UEAAPEAXI@Z 000000014006c078 f i libconcrt:FreeVirtualProcessorRoot.obj
 0001:0006b078       ??_GFreeVirtualProcessorRoot@details@Concurrency@@UEAAPEAXI@Z 000000014006c078 f i libconcrt:FreeVirtualProcessorRoot.obj
 0001:0006b0b0       ?Activate@FreeVirtualProcessorRoot@details@Concurrency@@UEAAXPEAUIExecutionContext@3@@Z 000000014006c0b0 f   libconcrt:FreeVirtualProcessorRoot.obj
 0001:0006b1e4       ?Affinitize@FreeVirtualProcessorRoot@details@Concurrency@@QEAAXPEAVFreeThreadProxy@23@@Z 000000014006c1e4 f   libconcrt:FreeVirtualProcessorRoot.obj
 0001:0006b28c       ?Deactivate@FreeVirtualProcessorRoot@details@Concurrency@@UEAA_NPEAUIExecutionContext@3@@Z 000000014006c28c f   libconcrt:FreeVirtualProcessorRoot.obj
 0001:0006b3a8       ?DeleteThis@FreeVirtualProcessorRoot@details@Concurrency@@UEAAXXZ 000000014006c3a8 f   libconcrt:FreeVirtualProcessorRoot.obj
 0001:0006b450       ?EnsureAllTasksVisible@FreeVirtualProcessorRoot@details@Concurrency@@UEAAXPEAUIExecutionContext@3@@Z 000000014006c450 f   libconcrt:FreeVirtualProcessorRoot.obj
 0001:0006b4f4       ?ResetOnIdle@FreeVirtualProcessorRoot@details@Concurrency@@QEAAXW4SwitchingProxyState@3@@Z 000000014006c4f4 f   libconcrt:FreeVirtualProcessorRoot.obj
 0001:0006b5c8       ?AssociateExecutionContext@FreeThreadProxy@details@Concurrency@@QEAAXPEAUIExecutionContext@3@@Z 000000014006c5c8 f   libconcrt:FreeThreadProxy.obj
 0001:0006b5e4       ?Dispatch@FreeThreadProxy@details@Concurrency@@EEAAXXZ 000000014006c5e4 f   libconcrt:FreeThreadProxy.obj
 0001:0006b6b4       ?ReturnIdleProxy@FreeThreadProxy@details@Concurrency@@QEAAXXZ 000000014006c6b4 f   libconcrt:FreeThreadProxy.obj
 0001:0006b6d4       ?SwitchOut@FreeThreadProxy@details@Concurrency@@UEAAXW4SwitchingProxyState@3@@Z 000000014006c6d4 f   libconcrt:FreeThreadProxy.obj
 0001:0006b730       ?SwitchTo@FreeThreadProxy@details@Concurrency@@UEAAXPEAUIExecutionContext@3@W4SwitchingProxyState@3@@Z 000000014006c730 f   libconcrt:FreeThreadProxy.obj
 0001:0006b818       ??0ThreadProxy@details@Concurrency@@QEAA@PEAUIThreadProxyFactory@12@I@Z 000000014006c818 f   libconcrt:ThreadProxy.obj
 0001:0006b918       ??0scheduler_worker_creation_error@Concurrency@@QEAA@AEBV01@@Z 000000014006c918 f i libconcrt:ThreadProxy.obj
 0001:0006b970       ??1ThreadProxy@details@Concurrency@@UEAA@XZ 000000014006c970 f   libconcrt:ThreadProxy.obj
 0001:0006b9b0       ??_EThreadProxy@details@Concurrency@@UEAAPEAXI@Z 000000014006c9b0 f i libconcrt:ThreadProxy.obj
 0001:0006b9b0       ??_GThreadProxy@details@Concurrency@@UEAAPEAXI@Z 000000014006c9b0 f i libconcrt:ThreadProxy.obj
 0001:0006b9e4       ?Cancel@ThreadProxy@details@Concurrency@@QEAAXXZ 000000014006c9e4 f   libconcrt:ThreadProxy.obj
 0001:0006b9f8       ?GetId@ThreadProxy@details@Concurrency@@UEBAIXZ 000000014006c9f8 f   libconcrt:ThreadProxy.obj
 0001:0006b9fc       ?ResumeExecution@ThreadProxy@details@Concurrency@@QEAAXXZ 000000014006c9fc f   libconcrt:ThreadProxy.obj
 0001:0006ba08       ?SetPriority@ThreadProxy@details@Concurrency@@QEAAXH@Z 000000014006ca08 f   libconcrt:ThreadProxy.obj
 0001:0006ba14       ?SpinUntilBlocked@ThreadProxy@details@Concurrency@@QEAAXXZ 000000014006ca14 f   libconcrt:ThreadProxy.obj
 0001:0006ba54       ?SuspendExecution@ThreadProxy@details@Concurrency@@QEAAXXZ 000000014006ca54 f   libconcrt:ThreadProxy.obj
 0001:0006ba80       ?ThreadProxyMain@ThreadProxy@details@Concurrency@@CAKPEAX@Z 000000014006ca80 f   libconcrt:ThreadProxy.obj
 0001:0006bad4       ??2@YAPEAX_K@Z             000000014006cad4 f   LIBCMT:new_scalar.obj
 0001:0006bb10       ??2@YAPEAX_KW4align_val_t@std@@@Z 000000014006cb10 f   LIBCMT:new_scalar_align.obj
 0001:0006bb5c       ??3@YAXPEAX_KW4align_val_t@std@@@Z 000000014006cb5c f   LIBCMT:delete_scalar_size_align.obj
 0001:0006bb64       ??_U@YAPEAX_K@Z            000000014006cb64 f   LIBCMT:new_array.obj
 0001:0006bb6c       ??_V@YAXPEAX_K@Z           000000014006cb6c f   LIBCMT:delete_array_size.obj
 0001:0006bb90       __chkstk                   000000014006cb90 f   LIBCMT:chkstk.obj
 0001:0006bb90       _alloca_probe              000000014006cb90 f   LIBCMT:chkstk.obj
 0001:0006bbe0       ??_Etype_info@@UEAAPEAXI@Z 000000014006cbe0 f i LIBCMT:std_type_info_static.obj
 0001:0006bbe0       ??_Gtype_info@@UEAAPEAXI@Z 000000014006cbe0 f i LIBCMT:std_type_info_static.obj
 0001:0006bc0c       ??3@YAXPEAX@Z              000000014006cc0c f   LIBCMT:delete_scalar.obj
 0001:0006bc14       ??2@YAPEAX_KAEBUnothrow_t@std@@@Z 000000014006cc14 f   LIBCMT:new_scalar_nothrow.obj
 0001:0006bc28       __scrt_acquire_startup_lock 000000014006cc28 f   LIBCMT:utility.obj
 0001:0006bc64       __scrt_initialize_crt      000000014006cc64 f   LIBCMT:utility.obj
 0001:0006bca0       __scrt_initialize_onexit_tables 000000014006cca0 f   LIBCMT:utility.obj
 0001:0006bd2c       __scrt_is_nonwritable_in_current_image 000000014006cd2c f   LIBCMT:utility.obj
 0001:0006bdc4       __scrt_release_startup_lock 000000014006cdc4 f   LIBCMT:utility.obj
 0001:0006bde8       __scrt_uninitialize_crt    000000014006cde8 f   LIBCMT:utility.obj
 0001:0006be14       _onexit                    000000014006ce14 f   LIBCMT:utility.obj
 0001:0006be50       atexit                     000000014006ce50 f   LIBCMT:utility.obj
 0001:0006c0c8       mainCRTStartup             000000014006d0c8 f   LIBCMT:exe_main.obj
 0001:0006c0dc       __GSHandlerCheck           000000014006d0dc f   LIBCMT:gshandler.obj
 0001:0006c0fc       __GSHandlerCheckCommon     000000014006d0fc f   LIBCMT:gshandler.obj
 0001:0006c170       __security_check_cookie    000000014006d170 f   LIBCMT:amdsecgs.obj
 0001:0006c190       __isa_available_init       000000014006d190 f   LIBCMT:cpu_disp.obj
 0001:0006c428       __GSHandlerCheck_EH4       000000014006d428 f   LIBCMT:gshandlereh4.obj
 0001:0006c4a8       ??_M@YAXPEAX_K1P6AX0@Z@Z   000000014006d4a8 f   LIBCMT:ehvecdtr.obj
 0001:0006c514       ?__ArrayUnwind@@YAXPEAX_K1P6AX0@Z@Z 000000014006d514 f   LIBCMT:ehvecdtr.obj
 0001:0006c570       ??_L@YAXPEAX_K1P6AX0@Z2@Z  000000014006d570 f   LIBCMT:ehvecctr.obj
 0001:0006c5e0       ??3@YAXPEAXW4align_val_t@std@@@Z 000000014006d5e0 f   LIBCMT:delete_scalar_align.obj
 0001:0006c5e8       __scrt_is_ucrt_dll_in_use  000000014006d5e8 f   LIBCMT:ucrt_detection.obj
 0001:0006c5f4       __crt_debugger_hook        000000014006d5f4 f   LIBCMT:utility_desktop.obj
 0001:0006c600       __scrt_fastfail            000000014006d600 f   LIBCMT:utility_desktop.obj
 0001:0006c74c       __scrt_initialize_mta      000000014006d74c f   LIBCMT:utility_desktop.obj
 0001:0006c754       __scrt_is_managed_app      000000014006d754 f   LIBCMT:utility_desktop.obj
 0001:0006c7a8       __scrt_set_unhandled_exception_filter 000000014006d7a8 f   LIBCMT:utility_desktop.obj
 0001:0006c7b8       __scrt_unhandled_exception_filter 000000014006d7b8 f   LIBCMT:utility_desktop.obj
 0001:0006c81c       __security_init_cookie     000000014006d81c f   LIBCMT:gs_support.obj
 0001:0006c8cc       _get_startup_file_mode     000000014006d8cc f   LIBCMT:file_mode.obj
 0001:0006c8d4       ?__scrt_initialize_type_info@@YAXXZ 000000014006d8d4 f   LIBCMT:tncleanup.obj
 0001:0006c8e4       __scrt_initialize_default_local_stdio_options 000000014006d8e4 f   LIBCMT:default_local_stdio_options.obj
 0001:0006c900       __scrt_is_user_matherr_present 000000014006d900 f   LIBCMT:matherr_detection.obj
 0001:0006c90c       __scrt_get_dyn_tls_init_callback 000000014006d90c f   LIBCMT:dyn_tls_init.obj
 0001:0006c914       __scrt_get_dyn_tls_dtor_callback 000000014006d914 f   LIBCMT:dyn_tls_dtor.obj
 0001:0006c91c       _RTC_Initialize            000000014006d91c f   LIBCMT:initsect.obj
 0001:0006c958       _RTC_Terminate             000000014006d958 f   LIBCMT:initsect.obj
 0001:0006c994       __raise_securityfailure    000000014006d994 f   LIBCMT:gs_report.obj
 0001:0006c9c8       __report_gsfailure         000000014006d9c8 f   LIBCMT:gs_report.obj
 0001:0006ca9c       __report_rangecheckfailure 000000014006da9c f   LIBCMT:gs_report.obj
 0001:0006cab0       __report_securityfailure   000000014006dab0 f   LIBCMT:gs_report.obj
 0001:0006cc40       _get_purecall_handler      000000014006dc40 f   libvcruntime:purevirt.obj
 0001:0006cc4c       _purecall                  000000014006dc4c f   libvcruntime:purevirt.obj
 0001:0006cc68       __std_exception_copy       000000014006dc68 f   libvcruntime:std_exception.obj
 0001:0006cce8       __std_exception_destroy    000000014006dce8 f   libvcruntime:std_exception.obj
 0001:0006cd10       _CxxThrowException         000000014006dd10 f   libvcruntime:throw.obj
 0001:0006cdb8       ??$_CallSETranslator@V__FrameHandler3@@@@YAHPEAUEHExceptionRecord@@PEA_KPEAU_CONTEXT@@PEAU_xDISPATCHER_CONTEXT@@PEBU_s_FuncInfo@@K1H@Z 000000014006ddb8 f i libvcruntime:risctrnsctrl.obj
 0001:0006ce0c       ??$_CallSETranslator@V__FrameHandler4@@@@YAHPEAUEHExceptionRecord@@PEA_KPEAU_CONTEXT@@PEAU_xDISPATCHER_CONTEXT@@PEAUFuncInfo4@FH4@@K1H@Z 000000014006de0c f i libvcruntime:risctrnsctrl.obj
 0001:0006ce60       ?CatchTryBlock@__FrameHandler3@@SAPEBU_s_TryBlockMapEntry@@PEBU_s_FuncInfo@@H@Z 000000014006de60 f   libvcruntime:risctrnsctrl.obj
 0001:0006cec4       ?DecompFuncInfo@FH4@@YA_JPEAEAEAUFuncInfo4@1@_KH_N@Z 000000014006dec4 f i libvcruntime:risctrnsctrl.obj
 0001:0006cff0       ?ExecutionInCatch@__FrameHandler3@@SA_NPEAU_xDISPATCHER_CONTEXT@@PEBU_s_FuncInfo@@@Z 000000014006dff0 f   libvcruntime:risctrnsctrl.obj
 0001:0006d01c       ?ExecutionInCatch@__FrameHandler4@@SA_NPEAU_xDISPATCHER_CONTEXT@@PEAUFuncInfo4@FH4@@@Z 000000014006e01c f   libvcruntime:risctrnsctrl.obj
 0001:0006d024       ?FrameUnwindToEmptyState@__FrameHandler3@@SAXPEA_KPEAU_xDISPATCHER_CONTEXT@@PEBU_s_FuncInfo@@@Z 000000014006e024 f   libvcruntime:risctrnsctrl.obj
 0001:0006d088       ?FrameUnwindToEmptyState@__FrameHandler4@@SAXPEA_KPEAU_xDISPATCHER_CONTEXT@@PEAUFuncInfo4@FH4@@@Z 000000014006e088 f   libvcruntime:risctrnsctrl.obj
 0001:0006d0bc       ?GetEstablisherFrame@__FrameHandler3@@SAPEA_KPEA_KPEAU_xDISPATCHER_CONTEXT@@PEBU_s_FuncInfo@@0@Z 000000014006e0bc f   libvcruntime:risctrnsctrl.obj
 0001:0006d1a4       ?GetEstablisherFrame@__FrameHandler4@@SAPEA_KPEA_KPEAU_xDISPATCHER_CONTEXT@@PEAUFuncInfo4@FH4@@0@Z 000000014006e1a4 f   libvcruntime:risctrnsctrl.obj
 0001:0006d1c8       ?GetRangeOfTrysToCheck@__FrameHandler3@@SA?AU?$pair@Viterator@TryBlockMap@__FrameHandler3@@V123@@std@@AEAVTryBlockMap@1@HPEAU_xDISPATCHER_CONTEXT@@PEBU_s_FuncInfo@@H@Z 000000014006e1c8 f   libvcruntime:risctrnsctrl.obj
 0001:0006d300       ?GetRangeOfTrysToCheck@__FrameHandler4@@SA?AU?$pair@Viterator@TryBlockMap4@FH4@@V123@@std@@AEAVTryBlockMap4@FH4@@HPEAU_xDISPATCHER_CONTEXT@@PEAUFuncInfo4@5@H@Z 000000014006e300 f   libvcruntime:risctrnsctrl.obj
 0001:0006d480       ?UnwindNestedFrames@__FrameHandler3@@SAXPEA_KPEAUEHExceptionRecord@@PEAU_CONTEXT@@0PEAXPEBU_s_FuncInfo@@HHPEBU_s_HandlerType@@PEAU_xDISPATCHER_CONTEXT@@E@Z 000000014006e480 f   libvcruntime:risctrnsctrl.obj
 0001:0006d584       ?UnwindNestedFrames@__FrameHandler4@@SAXPEA_KPEAUEHExceptionRecord@@PEAU_CONTEXT@@0PEAXPEAUFuncInfo4@FH4@@HHPEAUHandlerType4@5@PEAU_xDISPATCHER_CONTEXT@@E@Z 000000014006e584 f   libvcruntime:risctrnsctrl.obj
 0001:0006d6a4       ?setBuffer@TryBlockMap4@FH4@@QEAAXViterator@12@@Z 000000014006e6a4 f i libvcruntime:risctrnsctrl.obj
 0001:0006d890       _CreateFrameInfo           000000014006e890 f   libvcruntime:risctrnsctrl.obj
 0001:0006d8cc       _FindAndUnlinkFrame        000000014006e8cc f   libvcruntime:risctrnsctrl.obj
 0001:0006d920       _GetImageBase              000000014006e920 f   libvcruntime:risctrnsctrl.obj
 0001:0006d934       _GetThrowImageBase         000000014006e934 f   libvcruntime:risctrnsctrl.obj
 0001:0006d948       _SetImageBase              000000014006e948 f   libvcruntime:risctrnsctrl.obj
 0001:0006d960       _SetThrowImageBase         000000014006e960 f   libvcruntime:risctrnsctrl.obj
 0001:0006d978       __CxxFrameHandler3         000000014006e978 f   libvcruntime:risctrnsctrl.obj
 0001:0006da00       __CxxFrameHandler4         000000014006ea00 f   libvcruntime:risctrnsctrl.obj
 0001:0006dad0       strstr                     000000014006ead0 f   libvcruntime:strstr.obj
 0001:0006dcc4       __DestructExceptionObject  000000014006ecc4 f   libvcruntime:ehhelpers.obj
 0001:0006dd38       ?_CallMemberFunction0@@YAXQEAX0@Z 000000014006ed38 f i libvcruntime:ehhelpers.obj
 0001:0006dd3c       _IsExceptionObjectToBeDestroyed 000000014006ed3c f   libvcruntime:ehhelpers.obj
 0001:0006dd6c       __AdjustPointer            000000014006ed6c f   libvcruntime:ehhelpers.obj
 0001:0006dd90       __FrameUnwindFilter        000000014006ed90 f   libvcruntime:ehhelpers.obj
 0001:0006ddf8       __current_exception        000000014006edf8 f   libvcruntime:ehhelpers.obj
 0001:0006de0c       __current_exception_context 000000014006ee0c f   libvcruntime:ehhelpers.obj
 0001:0006de20       __std_terminate            000000014006ee20 f   libvcruntime:ehhelpers.obj
 0001:0006de2c       __uncaught_exception       000000014006ee2c f   libvcruntime:uncaught_exception.obj
 0001:0006de4c       __C_specific_handler       000000014006ee4c f   libvcruntime:riscchandler.obj
 0001:0006e064       ??0__non_rtti_object@std@@QEAA@AEBV01@@Z 000000014006f064 f i libvcruntime:rtti.obj
 0001:0006e0a0       ??0bad_typeid@std@@QEAA@AEBV01@@Z 000000014006f0a0 f i libvcruntime:rtti.obj
 0001:0006e5c8       ?__construct_from_string_literal@__non_rtti_object@std@@SA?AV12@QEBD@Z 000000014006f5c8 f i libvcruntime:rtti.obj
 0001:0006e5e4       ?__construct_from_string_literal@bad_cast@std@@SA?AV12@QEBD@Z 000000014006f5e4 f i libvcruntime:rtti.obj
 0001:0006e600       __RTDynamicCast            000000014006f600 f   libvcruntime:rtti.obj
 0001:0006e768       __vcrt_initialize          000000014006f768 f   libvcruntime:initialization.obj
 0001:0006e790       __vcrt_uninitialize        000000014006f790 f   libvcruntime:initialization.obj
 0001:0006e7ac       __std_type_info_compare    000000014006f7ac f   libvcruntime:std_type_info.obj
 0001:0006e7c4       __vcrt_freefls             000000014006f7c4 f   libvcruntime:per_thread_data.obj
 0001:0006e7e4       __vcrt_getptd              000000014006f7e4 f   libvcruntime:per_thread_data.obj
 0001:0006e800       __vcrt_getptd_noexit       000000014006f800 f   libvcruntime:per_thread_data.obj
 0001:0006e8cc       __vcrt_getptd_noinit       000000014006f8cc f   libvcruntime:per_thread_data.obj
 0001:0006e91c       __vcrt_initialize_ptd      000000014006f91c f   libvcruntime:per_thread_data.obj
 0001:0006e964       __vcrt_uninitialize_ptd    000000014006f964 f   libvcruntime:per_thread_data.obj
 0001:0006e98c       ?GetCurrentState@__FrameHandler3@@SAHPEA_KPEAU_xDISPATCHER_CONTEXT@@PEBU_s_FuncInfo@@@Z 000000014006f98c f   libvcruntime:ehstate.obj
 0001:0006e9b4       ?GetUnwindTryBlock@__FrameHandler3@@SAHPEA_KPEAU_xDISPATCHER_CONTEXT@@PEBU_s_FuncInfo@@@Z 000000014006f9b4 f   libvcruntime:ehstate.obj
 0001:0006e9e0       ?SetState@__FrameHandler3@@SAXPEA_KPEBU_s_FuncInfo@@H@Z 000000014006f9e0 f   libvcruntime:ehstate.obj
 0001:0006e9ec       ?SetUnwindTryBlock@__FrameHandler3@@SAXPEA_KPEAU_xDISPATCHER_CONTEXT@@PEBU_s_FuncInfo@@H@Z 000000014006f9ec f   libvcruntime:ehstate.obj
 0001:0006ea28       ?StateFromControlPc@__FrameHandler3@@SAHPEBU_s_FuncInfo@@PEAU_xDISPATCHER_CONTEXT@@@Z 000000014006fa28 f   libvcruntime:ehstate.obj
 0001:0006ea30       ?StateFromControlPc@__FrameHandler4@@SAHPEAUFuncInfo4@FH4@@PEAU_xDISPATCHER_CONTEXT@@@Z 000000014006fa30 f   libvcruntime:ehstate.obj
 0001:0006ea38       ?StateFromIp@__FrameHandler3@@SAHPEBU_s_FuncInfo@@PEAU_xDISPATCHER_CONTEXT@@_K@Z 000000014006fa38 f   libvcruntime:ehstate.obj
 0001:0006eaa0       ?StateFromIp@__FrameHandler4@@SAHPEAUFuncInfo4@FH4@@PEAU_xDISPATCHER_CONTEXT@@_K@Z 000000014006faa0 f   libvcruntime:ehstate.obj
 0001:00070244       ??$TypeMatchHelper@V__FrameHandler3@@@@YAHPEBU_s_HandlerType@@PEBU_s_CatchableType@@PEBU_s_ThrowInfo@@@Z 0000000140071244 f i libvcruntime:frame.obj
 0001:00070364       ??$TypeMatchHelper@V__FrameHandler4@@@@YAHPEAUHandlerType4@FH4@@PEBU_s_CatchableType@@PEBU_s_ThrowInfo@@@Z 0000000140071364 f i libvcruntime:frame.obj
 0001:000704a4       ??$__InternalCxxFrameHandler@V__FrameHandler3@@@@YA?AW4_EXCEPTION_DISPOSITION@@PEAUEHExceptionRecord@@PEA_KPEAU_CONTEXT@@PEAU_xDISPATCHER_CONTEXT@@PEBU_s_FuncInfo@@H1E@Z 00000001400714a4 f i libvcruntime:frame.obj
 0001:000706d4       ??$__InternalCxxFrameHandler@V__FrameHandler4@@@@YA?AW4_EXCEPTION_DISPOSITION@@PEAUEHExceptionRecord@@PEA_KPEAU_CONTEXT@@PEAU_xDISPATCHER_CONTEXT@@PEAUFuncInfo4@FH4@@H1E@Z 00000001400716d4 f i libvcruntime:frame.obj
 0001:0007097c       ??$__InternalCxxFrameHandlerWrapper@V__FrameHandler3@@@@YA?AW4_EXCEPTION_DISPOSITION@@PEAUEHExceptionRecord@@PEA_KPEAU_CONTEXT@@PEAU_xDISPATCHER_CONTEXT@@PEBU_s_FuncInfo@@H1E@Z 000000014007197c f i libvcruntime:frame.obj
 0001:00070984       ??$__InternalCxxFrameHandlerWrapper@V__FrameHandler4@@@@YA?AW4_EXCEPTION_DISPOSITION@@PEAUEHExceptionRecord@@PEA_KPEAU_CONTEXT@@PEAU_xDISPATCHER_CONTEXT@@PEAUFuncInfo4@FH4@@H1E@Z 0000000140071984 f i libvcruntime:frame.obj
 0001:000709d0       ??0HandlerMap4@FH4@@QEAA@PEBUTryBlockMapEntry4@1@_KH@Z 00000001400719d0 f i libvcruntime:frame.obj
 0001:00070a54       ??0TryBlockMap4@FH4@@QEAA@PEBUFuncInfo4@1@_K@Z 0000000140071a54 f i libvcruntime:frame.obj
 0001:00070b38       ??0bad_exception@std@@QEAA@AEBV01@@Z 0000000140071b38 f i libvcruntime:frame.obj
 0001:00070b74       ??0bad_exception@std@@QEAA@XZ 0000000140071b74 f i libvcruntime:frame.obj
 0001:00070b98       ?CxxCallCatchBlock@__FrameHandler3@@SAPEAXPEAU_EXCEPTION_RECORD@@@Z 0000000140071b98 f   libvcruntime:frame.obj
 0001:00070d84       ?CxxCallCatchBlock@__FrameHandler4@@SAPEAXPEAU_EXCEPTION_RECORD@@@Z 0000000140071d84 f   libvcruntime:frame.obj
 0001:00070fc4       ?DecompHandler@HandlerMap4@FH4@@AEAAXXZ 0000000140071fc4 f i libvcruntime:frame.obj
 0001:00071214       ?FrameUnwindToState@__FrameHandler3@@SAXPEA_KPEAU_xDISPATCHER_CONTEXT@@PEBU_s_FuncInfo@@H@Z 0000000140072214 f   libvcruntime:frame.obj
 0001:000713a0       ?FrameUnwindToState@__FrameHandler4@@SAXPEA_KPEAU_xDISPATCHER_CONTEXT@@PEAUFuncInfo4@FH4@@H@Z 00000001400723a0 f   libvcruntime:frame.obj
 0001:000716ac       ?GetHandlerSearchState@__FrameHandler3@@SAHPEA_KPEAU_xDISPATCHER_CONTEXT@@PEBU_s_FuncInfo@@@Z 00000001400726ac f i libvcruntime:frame.obj
 0001:000718b4       ?ReadEntry@UWMap4@FH4@@AEAAXPEAPEAE@Z 00000001400728b4 f i libvcruntime:frame.obj
 0001:00071954       ?_CallMemberFunction1@@YAXQEAX00@Z 0000000140072954 f i libvcruntime:frame.obj
 0001:00071960       ?_CallMemberFunction2@@YAXQEAX00H@Z 0000000140072960 f i libvcruntime:frame.obj
 0001:00071970       ?getStartStop@UWMap4@FH4@@QEAAXHHAEAViterator@12@0@Z 0000000140072970 f i libvcruntime:frame.obj
 0001:00071a40       ?getStateFromIterators@UWMap4@FH4@@SAHAEBViterator@12@H0H0@Z 0000000140072a40 f i libvcruntime:frame.obj
 0001:00071b20       _NLG_Notify                0000000140072b20 f   libvcruntime:notify.obj
 0001:00071b40       __NLG_Dispatch2            0000000140072b40 f   libvcruntime:notify.obj
 0001:00071b50       __NLG_Return2              0000000140072b50 f   libvcruntime:notify.obj
 0001:00071b54       __except_validate_context_record 0000000140072b54 f   libvcruntime:jbcxrval.obj
 0001:00071b8c       __vcrt_initialize_locks    0000000140072b8c f   libvcruntime:locks.obj
 0001:00071bd4       __vcrt_uninitialize_locks  0000000140072bd4 f   libvcruntime:locks.obj
 0001:00071d5c       __vcrt_FlsAlloc            0000000140072d5c f   libvcruntime:winapi_downlevel.obj
 0001:00071da4       __vcrt_FlsFree             0000000140072da4 f   libvcruntime:winapi_downlevel.obj
 0001:00071dec       __vcrt_FlsGetValue         0000000140072dec f   libvcruntime:winapi_downlevel.obj
 0001:00071e34       __vcrt_FlsSetValue         0000000140072e34 f   libvcruntime:winapi_downlevel.obj
 0001:00071e88       __vcrt_InitializeCriticalSectionEx 0000000140072e88 f   libvcruntime:winapi_downlevel.obj
 0001:00071f30       _CallSettingFrame          0000000140072f30 f   libvcruntime:handlers.obj
 0001:00071f70       _CallSettingFrame_LookupContinuationIndex 0000000140072f70 f   libvcruntime:handlers.obj
 0001:00071fa0       _CallSettingFrame_NotifyContinuationAddr 0000000140072fa0 f   libvcruntime:handlers.obj
 0001:00071fd0       _CallSettingFrameEncoded   0000000140072fd0 f   libvcruntime:handlers.obj
 0001:00072018       ?get_raw_ptd@__crt_cached_ptd_host@@QEAAPEAU__acrt_ptd@@XZ 0000000140073018 f i libucrt:invalid_parameter.obj
 0001:00072080       ?get_raw_ptd_noexit@__crt_cached_ptd_host@@QEAAPEAU__acrt_ptd@@XZ 0000000140073080 f i libucrt:invalid_parameter.obj
 0001:000720ec       ?value@?$dual_state_global@P6AXPEB_W00I_K@Z@__crt_state_management@@QEAAAEAP6AXPEB_W00I_K@ZAEAV__crt_cached_ptd_host@@@Z 00000001400730ec f i libucrt:invalid_parameter.obj
 0001:00072138       __acrt_call_reportfault    0000000140073138 f   libucrt:invalid_parameter.obj
 0001:000722a8       __acrt_initialize_invalid_parameter_handler 00000001400732a8 f   libucrt:invalid_parameter.obj
 0001:000722b0       _invalid_parameter         00000001400732b0 f   libucrt:invalid_parameter.obj
 0001:0007234c       _invalid_parameter_internal 000000014007334c f   libucrt:invalid_parameter.obj
 0001:00072404       _invalid_parameter_noinfo  0000000140073404 f   libucrt:invalid_parameter.obj
 0001:00072424       _invoke_watson             0000000140073424 f   libucrt:invalid_parameter.obj
 0001:00072470       _dclass                    0000000140073470 f i libucrt:nan.obj
 0001:00072480       _dsign                     0000000140073480 f i libucrt:nan.obj
 0001:00072480       _ldsign                    0000000140073480 f i libucrt:nanl.obj
 0001:00072490       _ldclass                   0000000140073490 f i libucrt:nanl.obj
 0001:000724a0       _fdclass                   00000001400734a0 f i libucrt:nanf.obj
 0001:000724b0       _fdsign                    00000001400734b0 f i libucrt:nanf.obj
 0001:000724c0       calloc                     00000001400734c0 f   libucrt:calloc.obj
 0001:000724d0       free                       00000001400734d0 f   libucrt:free.obj
 0001:000724e0       malloc                     00000001400734e0 f   libucrt:malloc.obj
 0001:000724e8       __acrt_initialize_stdio    00000001400734e8 f   libucrt:_file.obj
 0001:00072608       __acrt_iob_func            0000000140073608 f   libucrt:_file.obj
 0001:0007261c       __acrt_uninitialize_stdio  000000014007361c f   libucrt:_file.obj
 0001:00072678       _lock_file                 0000000140073678 f   libucrt:_file.obj
 0001:00072684       _unlock_file               0000000140073684 f   libucrt:_file.obj
 0001:0007274c       fopen                      000000014007374c f   libucrt:fopen.obj
 0001:00072758       fopen_s                    0000000140073758 f   libucrt:fopen.obj
 0001:000728d4       fclose                     00000001400738d4 f   libucrt:fclose.obj
 0001:00072bf0       fseek                      0000000140073bf0 f   libucrt:fseek.obj
 0001:000731a8       _ftelli64_nolock_internal  00000001400741a8 f   libucrt:ftell.obj
 0001:000731b0       ftell                      00000001400741b0 f   libucrt:ftell.obj
 0001:00073308       _fwrite_internal           0000000140074308 f   libucrt:fwrite.obj
 0001:000733a4       _fwrite_nolock_internal    00000001400743a4 f   libucrt:fwrite.obj
 0001:000735b8       fwrite                     00000001400745b8 f   libucrt:fwrite.obj
 0001:0007384c       ??$ensure_buffer_is_big_enough@D@formatting_buffer@__crt_stdio_output@@QEAA_N_KAEAV__crt_cached_ptd_host@@@Z 000000014007484c f i libucrt:output.obj
 0001:000738f4       ??$parse_integer@KV?$c_string_character_source@D@__crt_strtox@@$0A@@__crt_strtox@@YAKAEAV__crt_cached_ptd_host@@V?$c_string_character_source@D@0@H_N@Z 00000001400748f4 f i libucrt:output.obj
 0001:00073ba8       ??$type_case_integer@$07@?$output_processor@DV?$stream_output_adapter@D@__crt_stdio_output@@V?$standard_base@DV?$stream_output_adapter@D@__crt_stdio_output@@@2@@__crt_stdio_output@@AEAA_N_N@Z 0000000140074ba8 f i libucrt:output.obj
 0001:00073ba8       ??$type_case_integer@$07@?$output_processor@DV?$string_output_adapter@D@__crt_stdio_output@@V?$format_validation_base@DV?$string_output_adapter@D@__crt_stdio_output@@@2@@__crt_stdio_output@@AEAA_N_N@Z 0000000140074ba8 f i libucrt:output.obj
 0001:00073ba8       ??$type_case_integer@$07@?$output_processor@DV?$string_output_adapter@D@__crt_stdio_output@@V?$standard_base@DV?$string_output_adapter@D@__crt_stdio_output@@@2@@__crt_stdio_output@@AEAA_N_N@Z 0000000140074ba8 f i libucrt:output.obj
 0001:00073dac       ??$type_case_integer@$09@?$output_processor@DV?$stream_output_adapter@D@__crt_stdio_output@@V?$standard_base@DV?$stream_output_adapter@D@__crt_stdio_output@@@2@@__crt_stdio_output@@AEAA_N_N@Z 0000000140074dac f i libucrt:output.obj
 0001:00073dac       ??$type_case_integer@$09@?$output_processor@DV?$string_output_adapter@D@__crt_stdio_output@@V?$format_validation_base@DV?$string_output_adapter@D@__crt_stdio_output@@@2@@__crt_stdio_output@@AEAA_N_N@Z 0000000140074dac f i libucrt:output.obj
 0001:00073dac       ??$type_case_integer@$09@?$output_processor@DV?$string_output_adapter@D@__crt_stdio_output@@V?$standard_base@DV?$string_output_adapter@D@__crt_stdio_output@@@2@@__crt_stdio_output@@AEAA_N_N@Z 0000000140074dac f i libucrt:output.obj
 0001:00073fb0       ??$type_case_integer@$0BA@@?$output_processor@DV?$stream_output_adapter@D@__crt_stdio_output@@V?$standard_base@DV?$stream_output_adapter@D@__crt_stdio_output@@@2@@__crt_stdio_output@@AEAA_N_N@Z 0000000140074fb0 f i libucrt:output.obj
 0001:00073fb0       ??$type_case_integer@$0BA@@?$output_processor@DV?$string_output_adapter@D@__crt_stdio_output@@V?$format_validation_base@DV?$string_output_adapter@D@__crt_stdio_output@@@2@@__crt_stdio_output@@AEAA_N_N@Z 0000000140074fb0 f i libucrt:output.obj
 0001:00073fb0       ??$type_case_integer@$0BA@@?$output_processor@DV?$string_output_adapter@D@__crt_stdio_output@@V?$standard_base@DV?$string_output_adapter@D@__crt_stdio_output@@@2@@__crt_stdio_output@@AEAA_N_N@Z 0000000140074fb0 f i libucrt:output.obj
 0001:000741b4       ??$type_case_integer_parse_into_buffer@I$07@?$output_processor@DV?$stream_output_adapter@D@__crt_stdio_output@@V?$standard_base@DV?$stream_output_adapter@D@__crt_stdio_output@@@2@@__crt_stdio_output@@AEAAXI_N@Z 00000001400751b4 f i libucrt:output.obj
 0001:000741b4       ??$type_case_integer_parse_into_buffer@I$07@?$output_processor@DV?$string_output_adapter@D@__crt_stdio_output@@V?$format_validation_base@DV?$string_output_adapter@D@__crt_stdio_output@@@2@@__crt_stdio_output@@AEAAXI_N@Z 00000001400751b4 f i libucrt:output.obj
 0001:000741b4       ??$type_case_integer_parse_into_buffer@I$07@?$output_processor@DV?$string_output_adapter@D@__crt_stdio_output@@V?$standard_base@DV?$string_output_adapter@D@__crt_stdio_output@@@2@@__crt_stdio_output@@AEAAXI_N@Z 00000001400751b4 f i libucrt:output.obj
 0001:00074224       ??$type_case_integer_parse_into_buffer@I$09@?$output_processor@DV?$stream_output_adapter@D@__crt_stdio_output@@V?$standard_base@DV?$stream_output_adapter@D@__crt_stdio_output@@@2@@__crt_stdio_output@@AEAAXI_N@Z 0000000140075224 f i libucrt:output.obj
 0001:00074224       ??$type_case_integer_parse_into_buffer@I$09@?$output_processor@DV?$string_output_adapter@D@__crt_stdio_output@@V?$format_validation_base@DV?$string_output_adapter@D@__crt_stdio_output@@@2@@__crt_stdio_output@@AEAAXI_N@Z 0000000140075224 f i libucrt:output.obj
 0001:00074224       ??$type_case_integer_parse_into_buffer@I$09@?$output_processor@DV?$string_output_adapter@D@__crt_stdio_output@@V?$standard_base@DV?$string_output_adapter@D@__crt_stdio_output@@@2@@__crt_stdio_output@@AEAAXI_N@Z 0000000140075224 f i libucrt:output.obj
 0001:000742d0       ??$type_case_integer_parse_into_buffer@I$0BA@@?$output_processor@DV?$stream_output_adapter@D@__crt_stdio_output@@V?$standard_base@DV?$stream_output_adapter@D@__crt_stdio_output@@@2@@__crt_stdio_output@@AEAAXI_N@Z 00000001400752d0 f i libucrt:output.obj
 0001:000742d0       ??$type_case_integer_parse_into_buffer@I$0BA@@?$output_processor@DV?$string_output_adapter@D@__crt_stdio_output@@V?$format_validation_base@DV?$string_output_adapter@D@__crt_stdio_output@@@2@@__crt_stdio_output@@AEAAXI_N@Z 00000001400752d0 f i libucrt:output.obj
 0001:000742d0       ??$type_case_integer_parse_into_buffer@I$0BA@@?$output_processor@DV?$string_output_adapter@D@__crt_stdio_output@@V?$standard_base@DV?$string_output_adapter@D@__crt_stdio_output@@@2@@__crt_stdio_output@@AEAAXI_N@Z 00000001400752d0 f i libucrt:output.obj
 0001:00074354       ??$type_case_integer_parse_into_buffer@_K$07@?$output_processor@DV?$stream_output_adapter@D@__crt_stdio_output@@V?$standard_base@DV?$stream_output_adapter@D@__crt_stdio_output@@@2@@__crt_stdio_output@@AEAAX_K_N@Z 0000000140075354 f i libucrt:output.obj
 0001:00074354       ??$type_case_integer_parse_into_buffer@_K$07@?$output_processor@DV?$string_output_adapter@D@__crt_stdio_output@@V?$format_validation_base@DV?$string_output_adapter@D@__crt_stdio_output@@@2@@__crt_stdio_output@@AEAAX_K_N@Z 0000000140075354 f i libucrt:output.obj
 0001:00074354       ??$type_case_integer_parse_into_buffer@_K$07@?$output_processor@DV?$string_output_adapter@D@__crt_stdio_output@@V?$standard_base@DV?$string_output_adapter@D@__crt_stdio_output@@@2@@__crt_stdio_output@@AEAAX_K_N@Z 0000000140075354 f i libucrt:output.obj
 0001:000743c4       ??$type_case_integer_parse_into_buffer@_K$09@?$output_processor@DV?$stream_output_adapter@D@__crt_stdio_output@@V?$standard_base@DV?$stream_output_adapter@D@__crt_stdio_output@@@2@@__crt_stdio_output@@AEAAX_K_N@Z 00000001400753c4 f i libucrt:output.obj
 0001:000743c4       ??$type_case_integer_parse_into_buffer@_K$09@?$output_processor@DV?$string_output_adapter@D@__crt_stdio_output@@V?$format_validation_base@DV?$string_output_adapter@D@__crt_stdio_output@@@2@@__crt_stdio_output@@AEAAX_K_N@Z 00000001400753c4 f i libucrt:output.obj
 0001:000743c4       ??$type_case_integer_parse_into_buffer@_K$09@?$output_processor@DV?$string_output_adapter@D@__crt_stdio_output@@V?$standard_base@DV?$string_output_adapter@D@__crt_stdio_output@@@2@@__crt_stdio_output@@AEAAX_K_N@Z 00000001400753c4 f i libucrt:output.obj
 0001:00074474       ??$type_case_integer_parse_into_buffer@_K$0BA@@?$output_processor@DV?$stream_output_adapter@D@__crt_stdio_output@@V?$standard_base@DV?$stream_output_adapter@D@__crt_stdio_output@@@2@@__crt_stdio_output@@AEAAX_K_N@Z 0000000140075474 f i libucrt:output.obj
 0001:00074474       ??$type_case_integer_parse_into_buffer@_K$0BA@@?$output_processor@DV?$string_output_adapter@D@__crt_stdio_output@@V?$format_validation_base@DV?$string_output_adapter@D@__crt_stdio_output@@@2@@__crt_stdio_output@@AEAAX_K_N@Z 0000000140075474 f i libucrt:output.obj
 0001:00074474       ??$type_case_integer_parse_into_buffer@_K$0BA@@?$output_processor@DV?$string_output_adapter@D@__crt_stdio_output@@V?$standard_base@DV?$string_output_adapter@D@__crt_stdio_output@@@2@@__crt_stdio_output@@AEAAX_K_N@Z 0000000140075474 f i libucrt:output.obj
 0001:00074614       ?crop_zeroes@__crt_stdio_output@@YAXPEADQEAU__crt_locale_pointers@@@Z 0000000140075614 f i libucrt:output.obj
 0001:00074680       ?parse_int_from_format_string@?$output_processor@DV?$stream_output_adapter@D@__crt_stdio_output@@V?$standard_base@DV?$stream_output_adapter@D@__crt_stdio_output@@@2@@__crt_stdio_output@@AEAA_NQEAH@Z 0000000140075680 f i libucrt:output.obj
 0001:00074680       ?parse_int_from_format_string@?$output_processor@DV?$string_output_adapter@D@__crt_stdio_output@@V?$format_validation_base@DV?$string_output_adapter@D@__crt_stdio_output@@@2@@__crt_stdio_output@@AEAA_NQEAH@Z 0000000140075680 f i libucrt:output.obj
 0001:00074680       ?parse_int_from_format_string@?$output_processor@DV?$string_output_adapter@D@__crt_stdio_output@@V?$standard_base@DV?$string_output_adapter@D@__crt_stdio_output@@@2@@__crt_stdio_output@@AEAA_NQEAH@Z 0000000140075680 f i libucrt:output.obj
 0001:00074710       ?process@?$output_processor@DV?$stream_output_adapter@D@__crt_stdio_output@@V?$standard_base@DV?$stream_output_adapter@D@__crt_stdio_output@@@2@@__crt_stdio_output@@QEAAHXZ 0000000140075710 f i libucrt:output.obj
 0001:00074a94       ?process@?$output_processor@DV?$string_output_adapter@D@__crt_stdio_output@@V?$format_validation_base@DV?$string_output_adapter@D@__crt_stdio_output@@@2@@__crt_stdio_output@@QEAAHXZ 0000000140075a94 f i libucrt:output.obj
 0001:00074dfc       ?process@?$output_processor@DV?$string_output_adapter@D@__crt_stdio_output@@V?$standard_base@DV?$string_output_adapter@D@__crt_stdio_output@@@2@@__crt_stdio_output@@QEAAHXZ 0000000140075dfc f i libucrt:output.obj
 0001:0007516c       ?state_case_size@?$output_processor@DV?$stream_output_adapter@D@__crt_stdio_output@@V?$standard_base@DV?$stream_output_adapter@D@__crt_stdio_output@@@2@@__crt_stdio_output@@AEAA_NXZ 000000014007616c f i libucrt:output.obj
 0001:000752f4       ?state_case_size@?$output_processor@DV?$string_output_adapter@D@__crt_stdio_output@@V?$format_validation_base@DV?$string_output_adapter@D@__crt_stdio_output@@@2@@__crt_stdio_output@@AEAA_NXZ 00000001400762f4 f i libucrt:output.obj
 0001:000752f4       ?state_case_size@?$output_processor@DV?$string_output_adapter@D@__crt_stdio_output@@V?$standard_base@DV?$string_output_adapter@D@__crt_stdio_output@@@2@@__crt_stdio_output@@AEAA_NXZ 00000001400762f4 f i libucrt:output.obj
 0001:0007547c       ?state_case_type@?$output_processor@DV?$stream_output_adapter@D@__crt_stdio_output@@V?$standard_base@DV?$stream_output_adapter@D@__crt_stdio_output@@@2@@__crt_stdio_output@@AEAA_NXZ 000000014007647c f i libucrt:output.obj
 0001:000759b4       ?state_case_type@?$output_processor@DV?$string_output_adapter@D@__crt_stdio_output@@V?$format_validation_base@DV?$string_output_adapter@D@__crt_stdio_output@@@2@@__crt_stdio_output@@AEAA_NXZ 00000001400769b4 f i libucrt:output.obj
 0001:000759b4       ?state_case_type@?$output_processor@DV?$string_output_adapter@D@__crt_stdio_output@@V?$standard_base@DV?$string_output_adapter@D@__crt_stdio_output@@@2@@__crt_stdio_output@@AEAA_NXZ 00000001400769b4 f i libucrt:output.obj
 0001:00075e24       ?type_case_Z@?$output_processor@DV?$stream_output_adapter@D@__crt_stdio_output@@V?$standard_base@DV?$stream_output_adapter@D@__crt_stdio_output@@@2@@__crt_stdio_output@@AEAA_NXZ 0000000140076e24 f i libucrt:output.obj
 0001:00075e24       ?type_case_Z@?$output_processor@DV?$string_output_adapter@D@__crt_stdio_output@@V?$format_validation_base@DV?$string_output_adapter@D@__crt_stdio_output@@@2@@__crt_stdio_output@@AEAA_NXZ 0000000140076e24 f i libucrt:output.obj
 0001:00075e24       ?type_case_Z@?$output_processor@DV?$string_output_adapter@D@__crt_stdio_output@@V?$standard_base@DV?$string_output_adapter@D@__crt_stdio_output@@@2@@__crt_stdio_output@@AEAA_NXZ 0000000140076e24 f i libucrt:output.obj
 0001:00075ea0       ?type_case_a@?$output_processor@DV?$stream_output_adapter@D@__crt_stdio_output@@V?$standard_base@DV?$stream_output_adapter@D@__crt_stdio_output@@@2@@__crt_stdio_output@@AEAA_NXZ 0000000140076ea0 f i libucrt:output.obj
 0001:00075ea0       ?type_case_a@?$output_processor@DV?$string_output_adapter@D@__crt_stdio_output@@V?$format_validation_base@DV?$string_output_adapter@D@__crt_stdio_output@@@2@@__crt_stdio_output@@AEAA_NXZ 0000000140076ea0 f i libucrt:output.obj
 0001:00075ea0       ?type_case_a@?$output_processor@DV?$string_output_adapter@D@__crt_stdio_output@@V?$standard_base@DV?$string_output_adapter@D@__crt_stdio_output@@@2@@__crt_stdio_output@@AEAA_NXZ 0000000140076ea0 f i libucrt:output.obj
 0001:000760fc       ?type_case_c_tchar@?$output_processor@DV?$stream_output_adapter@D@__crt_stdio_output@@V?$standard_base@DV?$stream_output_adapter@D@__crt_stdio_output@@@2@@__crt_stdio_output@@AEAA_ND@Z 00000001400770fc f i libucrt:output.obj
 0001:000760fc       ?type_case_c_tchar@?$output_processor@DV?$string_output_adapter@D@__crt_stdio_output@@V?$format_validation_base@DV?$string_output_adapter@D@__crt_stdio_output@@@2@@__crt_stdio_output@@AEAA_ND@Z 00000001400770fc f i libucrt:output.obj
 0001:000760fc       ?type_case_c_tchar@?$output_processor@DV?$string_output_adapter@D@__crt_stdio_output@@V?$standard_base@DV?$string_output_adapter@D@__crt_stdio_output@@@2@@__crt_stdio_output@@AEAA_ND@Z 00000001400770fc f i libucrt:output.obj
 0001:000761d0       ?type_case_n@?$output_processor@DV?$stream_output_adapter@D@__crt_stdio_output@@V?$standard_base@DV?$stream_output_adapter@D@__crt_stdio_output@@@2@@__crt_stdio_output@@AEAA_NXZ 00000001400771d0 f i libucrt:output.obj
 0001:000761d0       ?type_case_n@?$output_processor@DV?$string_output_adapter@D@__crt_stdio_output@@V?$format_validation_base@DV?$string_output_adapter@D@__crt_stdio_output@@@2@@__crt_stdio_output@@AEAA_NXZ 00000001400771d0 f i libucrt:output.obj
 0001:000761d0       ?type_case_n@?$output_processor@DV?$string_output_adapter@D@__crt_stdio_output@@V?$standard_base@DV?$string_output_adapter@D@__crt_stdio_output@@@2@@__crt_stdio_output@@AEAA_NXZ 00000001400771d0 f i libucrt:output.obj
 0001:00076288       ?type_case_s@?$output_processor@DV?$stream_output_adapter@D@__crt_stdio_output@@V?$standard_base@DV?$stream_output_adapter@D@__crt_stdio_output@@@2@@__crt_stdio_output@@AEAA_NXZ 0000000140077288 f i libucrt:output.obj
 0001:00076288       ?type_case_s@?$output_processor@DV?$string_output_adapter@D@__crt_stdio_output@@V?$format_validation_base@DV?$string_output_adapter@D@__crt_stdio_output@@@2@@__crt_stdio_output@@AEAA_NXZ 0000000140077288 f i libucrt:output.obj
 0001:00076288       ?type_case_s@?$output_processor@DV?$string_output_adapter@D@__crt_stdio_output@@V?$standard_base@DV?$string_output_adapter@D@__crt_stdio_output@@@2@@__crt_stdio_output@@AEAA_NXZ 0000000140077288 f i libucrt:output.obj
 0001:00076330       ?update_locale_slow@__crt_cached_ptd_host@@AEAAXXZ 0000000140077330 f i libucrt:output.obj
 0001:000763a8       ?validate_stream_is_ansi_if_required@?$__acrt_stdio_char_traits@D@@SA_NQEAU_iobuf@@@Z 00000001400773a8 f i libucrt:output.obj
 0001:00076444       ?write_string@?$string_output_adapter@D@__crt_stdio_output@@QEBAXQEBDHQEAHAEAV__crt_cached_ptd_host@@@Z 0000000140077444 f i libucrt:output.obj
 0001:000764e8       ?write_string_impl@?$output_adapter_common@DV?$stream_output_adapter@D@__crt_stdio_output@@@__crt_stdio_output@@IEBAXQEBDHQEAHAEAV__crt_cached_ptd_host@@@Z 00000001400774e8 f i libucrt:output.obj
 0001:000765b8       __stdio_common_vfprintf    00000001400775b8 f   libucrt:output.obj
 0001:000766dc       __stdio_common_vsprintf    00000001400776dc f   libucrt:output.obj
 0001:00076930       __stdio_common_vsprintf_s  0000000140077930 f   libucrt:output.obj
 0001:00076a44       terminate                  0000000140077a44 f   libucrt:terminate.obj
 0001:00076b94       _beginthreadex             0000000140077b94 f   libucrt:thread.obj
 0001:00076c74       _endthreadex               0000000140077c74 f   libucrt:thread.obj
 0001:00076c80       localeconv                 0000000140077c80 f   libucrt:localeconv.obj
 0001:00076cc0       ??$is_overflow_condition@_K@__crt_strtox@@YA_NI_K@Z 0000000140077cc0 f i libucrt:strtox.obj
 0001:00076cf8       ??$parse_integer@KV?$c_string_character_source@D@__crt_strtox@@$00@__crt_strtox@@YAKAEAV__crt_cached_ptd_host@@V?$c_string_character_source@D@0@H_N@Z 0000000140077cf8 f i libucrt:strtox.obj
 0001:00076fd4       ??$parse_integer@KV?$c_string_character_source@_W@__crt_strtox@@$00@__crt_strtox@@YAKAEAV__crt_cached_ptd_host@@V?$c_string_character_source@_W@0@H_N@Z 0000000140077fd4 f i libucrt:strtox.obj
 0001:00077770       ??$parse_integer@_KV?$c_string_character_source@D@__crt_strtox@@$00@__crt_strtox@@YA_KAEAV__crt_cached_ptd_host@@V?$c_string_character_source@D@0@H_N@Z 0000000140078770 f i libucrt:strtox.obj
 0001:00077a4c       _ischartype_l              0000000140078a4c f i libucrt:strtox.obj
 0001:00077ac4       strtoll                    0000000140078ac4 f   libucrt:strtox.obj
 0001:00077b78       strtoull                   0000000140078b78 f   libucrt:strtox.obj
 0001:00077c2c       wcstol                     0000000140078c2c f   libucrt:strtox.obj
 0001:00077ce0       ??$parse_floating_point@V?$input_adapter_character_source@V?$string_input_adapter@D@__crt_stdio_input@@@__crt_strtox@@M@__crt_strtox@@YA?AW4SLD_STATUS@@QEAU__crt_locale_pointers@@V?$input_adapter_character_source@V?$string_input_adapter@D@__crt_stdio_input@@@0@QEAM@Z 0000000140078ce0 f i libucrt:input.obj
 0001:00077d88       ??$parse_floating_point@V?$input_adapter_character_source@V?$string_input_adapter@D@__crt_stdio_input@@@__crt_strtox@@N@__crt_strtox@@YA?AW4SLD_STATUS@@QEAU__crt_locale_pointers@@V?$input_adapter_character_source@V?$string_input_adapter@D@__crt_stdio_input@@@0@QEAN@Z 0000000140078d88 f i libucrt:input.obj
 0001:00077e30       ??$parse_floating_point_from_source@V?$input_adapter_character_source@V?$string_input_adapter@D@__crt_stdio_input@@@__crt_strtox@@@__crt_strtox@@YA?AW4floating_point_parse_result@0@QEAU__crt_locale_pointers@@AEAV?$input_adapter_character_source@V?$string_input_adapter@D@__crt_stdio_input@@@0@AEAUfloating_point_string@0@@Z 0000000140078e30 f i libucrt:input.obj
 0001:000785f4       ??$parse_floating_point_possible_infinity@DV?$input_adapter_character_source@V?$string_input_adapter@D@__crt_stdio_input@@@__crt_strtox@@_K@__crt_strtox@@YA?AW4floating_point_parse_result@0@AEADAEAV?$input_adapter_character_source@V?$string_input_adapter@D@__crt_stdio_input@@@0@_K@Z 00000001400795f4 f i libucrt:input.obj
 0001:000787a4       ??$parse_floating_point_possible_nan@DV?$input_adapter_character_source@V?$string_input_adapter@D@__crt_stdio_input@@@__crt_strtox@@_K@__crt_strtox@@YA?AW4floating_point_parse_result@0@AEADAEAV?$input_adapter_character_source@V?$string_input_adapter@D@__crt_stdio_input@@@0@_K@Z 00000001400797a4 f i libucrt:input.obj
 0001:00078a08       ??$parse_floating_point_possible_nan_is_ind@DV?$input_adapter_character_source@V?$string_input_adapter@D@__crt_stdio_input@@@__crt_strtox@@@__crt_strtox@@YA_NAEADAEAV?$input_adapter_character_source@V?$string_input_adapter@D@__crt_stdio_input@@@0@@Z 0000000140079a08 f i libucrt:input.obj
 0001:00078a84       ??$parse_floating_point_possible_nan_is_snan@DV?$input_adapter_character_source@V?$string_input_adapter@D@__crt_stdio_input@@@__crt_strtox@@@__crt_strtox@@YA_NAEADAEAV?$input_adapter_character_source@V?$string_input_adapter@D@__crt_stdio_input@@@0@@Z 0000000140079a84 f i libucrt:input.obj
 0001:00078b00       ??$parse_floating_point_write_result@M@__crt_strtox@@YA?AW4SLD_STATUS@@W4floating_point_parse_result@0@AEBUfloating_point_string@0@QEAM@Z 0000000140079b00 f i libucrt:input.obj
 0001:00078c68       ??$parse_floating_point_write_result@N@__crt_strtox@@YA?AW4SLD_STATUS@@W4floating_point_parse_result@0@AEBUfloating_point_string@0@QEAN@Z 0000000140079c68 f i libucrt:input.obj
 0001:00078e40       ??$parse_integer@_KV?$input_adapter_character_source@V?$string_input_adapter@D@__crt_stdio_input@@@__crt_strtox@@$00@__crt_strtox@@YA_KAEAV__crt_cached_ptd_host@@V?$input_adapter_character_source@V?$string_input_adapter@D@__crt_stdio_input@@@0@H_N@Z 0000000140079e40 f i libucrt:input.obj
 0001:00079274       ??$parse_integer@_KV?$input_adapter_character_source@V?$string_input_adapter@D@__crt_stdio_input@@@__crt_strtox@@@__crt_strtox@@YA_KQEAU__crt_locale_pointers@@V?$input_adapter_character_source@V?$string_input_adapter@D@__crt_stdio_input@@@0@H_N@Z 000000014007a274 f i libucrt:input.obj
 0001:00079374       ??$process_floating_point_specifier_t@M@?$input_processor@DV?$string_input_adapter@D@__crt_stdio_input@@@__crt_stdio_input@@AEAA_NXZ 000000014007a374 f i libucrt:input.obj
 0001:00079418       ??$process_floating_point_specifier_t@N@?$input_processor@DV?$string_input_adapter@D@__crt_stdio_input@@@__crt_stdio_input@@AEAA_NXZ 000000014007a418 f i libucrt:input.obj
 0001:000794c0       ??$process_string_specifier_tchar@D@?$input_processor@DV?$string_input_adapter@D@__crt_stdio_input@@@__crt_stdio_input@@AEAA_NW4conversion_mode@1@D@Z 000000014007a4c0 f i libucrt:input.obj
 0001:00079664       ??$process_string_specifier_tchar@_W@?$input_processor@DV?$string_input_adapter@D@__crt_stdio_input@@@__crt_stdio_input@@AEAA_NW4conversion_mode@1@_W@Z 000000014007a664 f i libucrt:input.obj
 0001:00079844       ??$skip_whitespace@Vstring_input_adapter@__crt_stdio_input@@D@__crt_stdio_input@@YAHAEAV?$string_input_adapter@D@0@QEAU__crt_locale_pointers@@@Z 000000014007a844 f i libucrt:input.obj
 0001:00079898       ??0_LocaleUpdate@@QEAA@QEAU__crt_locale_pointers@@@Z 000000014007a898 f i libucrt:input.obj
 0001:00079934       ??R<lambda_1db4d925c2db10274e92824f631ccf5d>@@QEBA@XZ 000000014007a934 f i libucrt:input.obj
 0001:00079934       ??R<lambda_bdd123a27a08a14f93fbf44b617d0736>@@QEBA@XZ 000000014007a934 f i libucrt:input.obj
 0001:00079934       ??R<lambda_ee7c83d9f0cd4f1299194e0a8d424b67>@@QEBA@XZ 000000014007a934 f i libucrt:input.obj
 0001:00079998       ?advance@?$format_string_parser@D@__crt_stdio_input@@QEAA_NXZ 000000014007a998 f i libucrt:input.obj
 0001:00079b60       ?as_double@floating_point_value@__crt_strtox@@QEBAAEANXZ 000000014007ab60 f i libucrt:input.obj
 0001:00079b9c       ?as_float@floating_point_value@__crt_strtox@@QEBAAEAMXZ 000000014007ab9c f i libucrt:input.obj
 0001:00079bd8       ?assemble_floating_point_value@__crt_strtox@@YA?AW4SLD_STATUS@@_KH_N1AEBVfloating_point_value@1@@Z 000000014007abd8 f i libucrt:input.obj
 0001:00079f90       ?assemble_floating_point_value_from_big_integer@__crt_strtox@@YA?AW4SLD_STATUS@@AEBUbig_integer@1@I_N1AEBVfloating_point_value@1@@Z 000000014007af90 f i libucrt:input.obj
 0001:0007a0f0       ?convert_decimal_string_to_floating_type_common@__crt_strtox@@YA?AW4SLD_STATUS@@AEBUfloating_point_string@1@AEBVfloating_point_value@1@@Z 000000014007b0f0 f i libucrt:input.obj
 0001:0007bdf0       ?convert_hexadecimal_string_to_floating_type_common@__crt_strtox@@YA?AW4SLD_STATUS@@AEBUfloating_point_string@1@AEBVfloating_point_value@1@@Z 000000014007cdf0 f i libucrt:input.obj
 0001:0007bea0       ?divide@__crt_strtox@@YA_KAEAUbig_integer@1@AEBU21@@Z 000000014007cea0 f i libucrt:input.obj
 0001:0007c32c       ?length@?$format_string_parser@D@__crt_stdio_input@@QEBA_KXZ 000000014007d32c f i libucrt:input.obj
 0001:0007c3e0       ?process@?$input_processor@DV?$string_input_adapter@D@__crt_stdio_input@@@__crt_stdio_input@@QEAAHXZ 000000014007d3e0 f i libucrt:input.obj
 0001:0007c4d4       ?process_conversion_specifier@?$input_processor@DV?$string_input_adapter@D@__crt_stdio_input@@@__crt_stdio_input@@AEAA_NXZ 000000014007d4d4 f i libucrt:input.obj
 0001:0007c5f4       ?process_floating_point_specifier@?$input_processor@DV?$string_input_adapter@D@__crt_stdio_input@@@__crt_stdio_input@@AEAA_NXZ 000000014007d5f4 f i libucrt:input.obj
 0001:0007c664       ?process_integer_specifier@?$input_processor@DV?$string_input_adapter@D@__crt_stdio_input@@@__crt_stdio_input@@AEAA_NI_N@Z 000000014007d664 f i libucrt:input.obj
 0001:0007c71c       ?process_literal_character_tchar@?$input_processor@DV?$string_input_adapter@D@__crt_stdio_input@@@__crt_stdio_input@@AEAA_ND@Z 000000014007d71c f i libucrt:input.obj
 0001:0007c7a4       ?process_state@?$input_processor@DV?$string_input_adapter@D@__crt_stdio_input@@@__crt_stdio_input@@AEAA_NXZ 000000014007d7a4 f i libucrt:input.obj
 0001:0007c85c       ?process_string_specifier@?$input_processor@DV?$string_input_adapter@D@__crt_stdio_input@@@__crt_stdio_input@@AEAA_NW4conversion_mode@2@@Z 000000014007d85c f i libucrt:input.obj
 0001:0007c8e8       ?scan_conversion_specifier@?$format_string_parser@D@__crt_stdio_input@@AEAA_NXZ 000000014007d8e8 f i libucrt:input.obj
 0001:0007cab4       ?scan_optional_field_width@?$format_string_parser@D@__crt_stdio_input@@AEAA_NXZ 000000014007dab4 f i libucrt:input.obj
 0001:0007cb54       ?scan_optional_length_modifier@?$format_string_parser@D@__crt_stdio_input@@AEAAXXZ 000000014007db54 f i libucrt:input.obj
 0001:0007cc64       ?scan_scanset_range@?$format_string_parser@D@__crt_stdio_input@@AEAA_NXZ 000000014007dc64 f i libucrt:input.obj
 0001:0007cdfc       ?write_character@?$input_processor@DV?$string_input_adapter@D@__crt_stdio_input@@@__crt_stdio_input@@AEAA_NQEFA_W_KAEAPEFA_WAEA_KD@Z 000000014007ddfc f i libucrt:input.obj
 0001:0007ce94       ?write_integer@?$input_processor@DV?$string_input_adapter@D@__crt_stdio_input@@@__crt_stdio_input@@AEAA_N_K@Z 000000014007de94 f i libucrt:input.obj
 0001:0007cf10       __stdio_common_vsscanf     000000014007df10 f   libucrt:input.obj
 0001:0007d0bc       ??$__crt_time_is_leap_year@H@@YA_NH@Z 000000014007e0bc f i libucrt:asctime.obj
 0001:0007d354       asctime                    000000014007e354 f   libucrt:asctime.obj
 0001:0007d6d0       _localtime64               000000014007e6d0 f   libucrt:localtime.obj
 0001:0007d718       _time64                    000000014007e718 f   libucrt:time.obj
 0001:0007d9fc       __acrt_initialize_thread_local_exit_callback 000000014007e9fc f   libucrt:exit.obj
 0001:0007da04       _c_exit                    000000014007ea04 f   libucrt:exit.obj
 0001:0007da14       _cexit                     000000014007ea14 f   libucrt:exit.obj
 0001:0007da24       _exit                      000000014007ea24 f   libucrt:exit.obj
 0001:0007da30       _register_thread_local_exe_atexit_callback 000000014007ea30 f   libucrt:exit.obj
 0001:0007da6c       exit                       000000014007ea6c f   libucrt:exit.obj
 0001:0007da80       strcpy_s                   000000014007ea80 f   libucrt:strcpy_s.obj
 0001:0007de10       _dupenv_s                  000000014007ee10 f   libucrt:getenv.obj
 0001:0007de30       _wgetenv_s                 000000014007ee30 f   libucrt:getenv.obj
 0001:0007e058       __acrt_stdio_flush_nolock  000000014007f058 f   libucrt:fflush.obj
 0001:0007e0e4       _fflush_nolock             000000014007f0e4 f   libucrt:fflush.obj
 0001:0007e1b8       _flushall                  000000014007f1b8 f   libucrt:fflush.obj
 0001:0007e1c0       fflush                     000000014007f1c0 f   libucrt:fflush.obj
 0001:0007e228       _getdrive                  000000014007f228 f   libucrt:drive.obj
 0001:0007e320       _fread_nolock_s            000000014007f320 f   libucrt:fread.obj
 0001:0007e58c       fread                      000000014007f58c f   libucrt:fread.obj
 0001:0007e5ac       fread_s                    000000014007f5ac f   libucrt:fread.obj
 0001:0007e654       _tolower_l                 000000014007f654 f   libucrt:tolower_toupper.obj
 0001:0007e788       _toupper_l                 000000014007f788 f   libucrt:tolower_toupper.obj
 0001:0007e8bc       tolower                    000000014007f8bc f   libucrt:tolower_toupper.obj
 0001:0007e8e8       toupper                    000000014007f8e8 f   libucrt:tolower_toupper.obj
 0001:0007e914       _wtol                      000000014007f914 f   libucrt:atox.obj
 0001:0007e9c4       atoi                       000000014007f9c4 f   libucrt:atox.obj
 0001:0007ea74       __acrt_initialize_clock    000000014007fa74 f   libucrt:clock.obj
 0001:0007ead4       clock                      000000014007fad4 f   libucrt:clock.obj
 0001:0007eb54       rand                       000000014007fb54 f   libucrt:rand.obj
 0001:0007eb80       srand                      000000014007fb80 f   libucrt:rand.obj
 0001:0007eba0       _aligned_free              000000014007fba0 f   libucrt:align.obj
 0001:0007ebd0       _aligned_malloc            000000014007fbd0 f   libucrt:align.obj
 0001:0007ec60       _aligned_offset_malloc     000000014007fc60 f   libucrt:align.obj
 0001:0007ed30       _aligned_msize             000000014007fd30 f   libucrt:align.obj
 0001:0007eda0       _aligned_offset_realloc    000000014007fda0 f   libucrt:align.obj
 0001:0007f000       _aligned_offset_recalloc   0000000140080000 f   libucrt:align.obj
 0001:0007f320       _aligned_realloc           0000000140080320 f   libucrt:align.obj
 0001:0007f500       _aligned_recalloc          0000000140080500 f   libucrt:align.obj
 0001:00080344       __acrt_initialize_locks    0000000140081344 f   libucrt:locks.obj
 0001:0008038c       __acrt_lock                000000014008138c f   libucrt:locks.obj
 0001:000803a8       __acrt_uninitialize_locks  00000001400813a8 f   libucrt:locks.obj
 0001:000803e0       __acrt_unlock              00000001400813e0 f   libucrt:locks.obj
 0001:000803fc       _lock_locales              00000001400813fc f   libucrt:locks.obj
 0001:00080418       _unlock_locales            0000000140081418 f   libucrt:locks.obj
 0001:00080428       abort                      0000000140081428 f   libucrt:abort.obj
 0001:00080760       setlocale                  0000000140081760 f   libucrt:setlocale.obj
 0001:000807ac       __acrt_errno_from_os_error 00000001400817ac f   libucrt:errno.obj
 0001:0008087c       __acrt_errno_map_os_error  000000014008187c f   libucrt:errno.obj
 0001:000808a4       __acrt_errno_map_os_error_ptd 00000001400818a4 f   libucrt:errno.obj
 0001:000808c8       __doserrno                 00000001400818c8 f   libucrt:errno.obj
 0001:000808ec       _errno                     00000001400818ec f   libucrt:errno.obj
 0001:00080910       ___lc_codepage_func        0000000140081910 f   libucrt:initctype.obj
 0001:00080940       ___lc_locale_name_func     0000000140081940 f   libucrt:initctype.obj
 0001:00080974       ___mb_cur_max_func         0000000140081974 f   libucrt:initctype.obj
 0001:000809a4       __acrt_locale_initialize_ctype 00000001400819a4 f   libucrt:initctype.obj
 0001:00080fe8       __pctype_func              0000000140081fe8 f   libucrt:ctype.obj
 0001:00081018       _fputc_nolock_internal     0000000140082018 f   libucrt:fputc.obj
 0001:00081030       realloc                    0000000140082030 f   libucrt:realloc.obj
 0001:00081040       isspace                    0000000140082040 f   libucrt:_ctype.obj
 0001:000810e8       ??$__acrt_convert_wcs_mbs_cp@D_WV<lambda_7c9dea7b4ca7285d2cdb541a38da6275>@@U__crt_win32_buffer_internal_dynamic_resizing@@@@YAHQEBDAEAV?$__crt_win32_buffer@_WU__crt_win32_buffer_internal_dynamic_resizing@@@@AEBV<lambda_7c9dea7b4ca7285d2cdb541a38da6275>@@I@Z 00000001400820e8 f i libucrt:strftime.obj
 0001:00081288       ??$__acrt_convert_wcs_mbs_cp@_WDV<lambda_f788ae46380686e8b737efdd8c720d07>@@U__crt_win32_buffer_no_resizing@@@@YAHQEB_WAEAV?$__crt_win32_buffer@DU__crt_win32_buffer_no_resizing@@@@AEBV<lambda_f788ae46380686e8b737efdd8c720d07>@@I@Z 0000000140082288 f i libucrt:strftime.obj
 0001:000813b0       strnlen                    00000001400823b0 f   libucrt:strnlen.obj
 0001:00081540       wcsnlen                    0000000140082540 f   libucrt:strnlen.obj
 0001:00081750       __strncnt                  0000000140082750 f   libucrt:strncnt.obj
 0001:00081770       wcsncpy_s                  0000000140082770 f   libucrt:wcsncpy_s.obj
 0001:000818c0       exp                        00000001400828c0 f   libucrt:exp.obj
 0001:00081ce0       sqrt                       0000000140082ce0 f   libucrt:sqrt.obj
 0001:00081da0       _callnewh                  0000000140082da0 f   libucrt:new_handler.obj
 0001:00081de0       __acrt_initialize_new_handler 0000000140082de0 f   libucrt:new_handler.obj
 0001:00081df0       _query_new_handler         0000000140082df0 f   libucrt:new_handler.obj
 0001:00081e30       _set_new_handler           0000000140082e30 f   libucrt:new_handler.obj
 0001:00081e90       ?_set_new_handler@@YAP6AH_K@ZH@Z 0000000140082e90 f   libucrt:new_handler.obj
 0001:00081e9c       _seh_filter_exe            0000000140082e9c f   libucrt:exception_filter.obj
 0001:000821c8       __acrt_allocate_buffer_for_argv 00000001400831c8 f   libucrt:argv_parsing.obj
 0001:00082228       _configure_narrow_argv     0000000140083228 f   libucrt:argv_parsing.obj
 0001:000828d8       __dcrt_get_or_create_narrow_environment_nolock 00000001400838d8 f   libucrt:environment_initialization.obj
 0001:00082914       __dcrt_get_or_create_wide_environment_nolock 0000000140083914 f   libucrt:environment_initialization.obj
 0001:00082950       __dcrt_uninitialize_environments_nolock 0000000140083950 f   libucrt:environment_initialization.obj
 0001:00082994       _get_initial_narrow_environment 0000000140083994 f   libucrt:environment_initialization.obj
 0001:000829e4       _initialize_narrow_environment 00000001400839e4 f   libucrt:environment_initialization.obj
 0001:00082d2c       _crt_atexit                0000000140083d2c f   libucrt:onexit.obj
 0001:00082d3c       _execute_onexit_table      0000000140083d3c f   libucrt:onexit.obj
 0001:00082d80       _initialize_onexit_table   0000000140083d80 f   libucrt:onexit.obj
 0001:00082da8       _register_onexit_function  0000000140083da8 f   libucrt:onexit.obj
 0001:00082f1c       __acrt_initialize          0000000140083f1c f   libucrt:initialization.obj
 0001:00082f30       __acrt_uninitialize        0000000140083f30 f   libucrt:initialization.obj
 0001:00082f68       _query_app_type            0000000140083f68 f   libucrt:report_runtime_error.obj
 0001:00082f70       _set_app_type              0000000140083f70 f   libucrt:report_runtime_error.obj
 0001:00082f80       __acrt_has_user_matherr    0000000140083f80 f   libucrt:matherr.obj
 0001:00082fa0       __acrt_initialize_user_matherr 0000000140083fa0 f   libucrt:matherr.obj
 0001:00082fb0       __acrt_invoke_user_matherr 0000000140083fb0 f   libucrt:matherr.obj
 0001:00082fe0       __setusermatherr           0000000140083fe0 f   libucrt:matherr.obj
 0001:00083004       _initterm                  0000000140084004 f   libucrt:initterm.obj
 0001:0008303c       _initterm_e                000000014008403c f   libucrt:initterm.obj
 0001:00083078       _get_fmode                 0000000140084078 f   libucrt:setmode.obj
 0001:000830a8       _set_fmode                 00000001400840a8 f   libucrt:setmode.obj
 0001:000830e8       _setmode_nolock            00000001400840e8 f   libucrt:setmode.obj
 0001:000831cc       __acrt_initialize_command_line 00000001400841cc f   libucrt:argv_data.obj
 0001:000831f4       __p___argc                 00000001400841f4 f   libucrt:argv_data.obj
 0001:000831fc       __p___argv                 00000001400841fc f   libucrt:argv_data.obj
 0001:0008346c       ?commit_locale_name@_expandlocale_locale_name_cache@@QEAAXQEB_W_K@Z 000000014008446c f i libucrt:wsetlocale.obj
 0001:000834e4       __acrt_copy_locale_name    00000001400844e4 f   libucrt:wsetlocale.obj
 0001:00083568       __acrt_set_locale_changed  0000000140084568 f   libucrt:wsetlocale.obj
 0001:00083574       __acrt_uninitialize_locale 0000000140084574 f   libucrt:wsetlocale.obj
 0001:000835a4       __lc_lctowcs               00000001400845a4 f   libucrt:wsetlocale.obj
 0001:00083648       __lc_wcstolc               0000000140084648 f   libucrt:wsetlocale.obj
 0001:000837ac       _configthreadlocale        00000001400847ac f   libucrt:wsetlocale.obj
 0001:00083d5c       _wcscats                   0000000140084d5c f   libucrt:wsetlocale.obj
 0001:00083dc4       _wsetlocale                0000000140084dc4 f   libucrt:wsetlocale.obj
 0001:00084b20       _query_new_mode            0000000140085b20 f   libucrt:new_mode.obj
 0001:00084b30       _set_new_mode              0000000140085b30 f   libucrt:new_mode.obj
 0001:00084b5c       __p__commode               0000000140085b5c f   libucrt:ncommode.obj
 0001:00084b70       wcsncmp                    0000000140085b70 f   libucrt:wcsncmp.obj
 0001:00084eb4       ?internal_get_ptd_head_slow@@YAPEAU__acrt_ptd@@XZ 0000000140085eb4 f   libucrt:per_thread_data.obj
 0001:00084fd4       __acrt_getptd              0000000140085fd4 f   libucrt:per_thread_data.obj
 0001:00084ff0       __acrt_getptd_head         0000000140085ff0 f   libucrt:per_thread_data.obj
 0001:00085034       __acrt_getptd_noexit       0000000140086034 f   libucrt:per_thread_data.obj
 0001:000850c4       __acrt_getptd_noexit_explicit 00000001400860c4 f   libucrt:per_thread_data.obj
 0001:00085120       __acrt_initialize_ptd      0000000140086120 f   libucrt:per_thread_data.obj
 0001:00085164       __acrt_uninitialize_ptd    0000000140086164 f   libucrt:per_thread_data.obj
 0001:00085190       _dtest_inline              0000000140086190 f i libucrt:_test.obj
 0001:000851f0       _fdtest_inline             00000001400861f0 f i libucrt:_test.obj
 0001:00085230       _ldtest_inline             0000000140086230 f i libucrt:_test.obj
 0001:00085290       _calloc_base               0000000140086290 f   libucrt:calloc_base.obj
 0001:00085310       _free_base                 0000000140086310 f   libucrt:free_base.obj
 0001:00085370       _malloc_base               0000000140086370 f   libucrt:malloc_base.obj
 0001:0008562c       __acrt_AppPolicyGetProcessTerminationMethodInternal 000000014008662c f   libucrt:winapi_thunks.obj
 0001:00085688       __acrt_AppPolicyGetThreadInitializationTypeInternal 0000000140086688 f   libucrt:winapi_thunks.obj
 0001:000856e4       __acrt_AreFileApisANSI     00000001400866e4 f   libucrt:winapi_thunks.obj
 0001:00085730       __acrt_CompareStringEx     0000000140086730 f   libucrt:winapi_thunks.obj
 0001:000857f4       __acrt_EnumSystemLocalesEx 00000001400867f4 f   libucrt:winapi_thunks.obj
 0001:00085898       __acrt_FlsAlloc            0000000140086898 f   libucrt:winapi_thunks.obj
 0001:000858a0       __acrt_FlsFree             00000001400868a0 f   libucrt:winapi_thunks.obj
 0001:000858a8       __acrt_FlsGetValue         00000001400868a8 f   libucrt:winapi_thunks.obj
 0001:000858b0       __acrt_FlsGetValue2        00000001400868b0 f   libucrt:winapi_thunks.obj
 0001:000858bc       __acrt_FlsSetValue         00000001400868bc f   libucrt:winapi_thunks.obj
 0001:000858c4       __acrt_GetLocaleInfoEx     00000001400868c4 f   libucrt:winapi_thunks.obj
 0001:00085958       __acrt_GetUserDefaultLocaleName 0000000140086958 f   libucrt:winapi_thunks.obj
 0001:000859c8       __acrt_InitializeCriticalSectionEx 00000001400869c8 f   libucrt:winapi_thunks.obj
 0001:000859d0       __acrt_IsValidLocaleName   00000001400869d0 f   libucrt:winapi_thunks.obj
 0001:00085a38       __acrt_LCIDToLocaleName    0000000140086a38 f   libucrt:winapi_thunks.obj
 0001:00085ac0       __acrt_LCMapStringEx       0000000140086ac0 f   libucrt:winapi_thunks.obj
 0001:00085bb4       __acrt_LocaleNameToLCID    0000000140086bb4 f   libucrt:winapi_thunks.obj
 0001:00085c18       __acrt_RoInitialize        0000000140086c18 f   libucrt:winapi_thunks.obj
 0001:00085c68       __acrt_RoUninitialize      0000000140086c68 f   libucrt:winapi_thunks.obj
 0001:00085cac       __acrt_can_use_vista_locale_apis 0000000140086cac f   libucrt:winapi_thunks.obj
 0001:00085cc0       __acrt_eagerly_load_locale_apis 0000000140086cc0 f   libucrt:winapi_thunks.obj
 0001:00085e68       __acrt_initialize_winapi_thunks 0000000140086e68 f   libucrt:winapi_thunks.obj
 0001:00085e98       __acrt_tls2_supported      0000000140086e98 f   libucrt:winapi_thunks.obj
 0001:00085edc       __acrt_uninitialize_winapi_thunks 0000000140086edc f   libucrt:winapi_thunks.obj
 0001:00085f20       _fcloseall                 0000000140086f20 f   libucrt:closeall.obj
 0001:00085fd4       __acrt_stdio_free_buffer_nolock 0000000140086fd4 f   libucrt:_freebuf.obj
 0001:00086220       __acrt_initialize_lowio    0000000140087220 f   libucrt:ioinit.obj
 0001:0008625c       __acrt_uninitialize_lowio  000000014008725c f   libucrt:ioinit.obj
 0001:0008629c       ?__acrt_stdio_allocate_stream@@YA?AV__crt_stdio_stream@@XZ 000000014008729c f   libucrt:stream.obj
 0001:000862f4       ?__acrt_stdio_free_stream@@YAXV__crt_stdio_stream@@@Z 00000001400872f4 f   libucrt:stream.obj
 0001:000863fc       ??$__acrt_stdio_parse_mode@D@@YA?AU__acrt_stdio_stream_mode@@QEBD@Z 00000001400873fc f i libucrt:openfile.obj
 0001:000866c0       _openfile                  00000001400876c0 f   libucrt:openfile.obj
 0001:0008675c       _fileno                    000000014008775c f   libucrt:fileno.obj
 0001:000867fc       _close_internal            00000001400877fc f   libucrt:close.obj
 0001:000868c0       _close_nolock              00000001400878c0 f   libucrt:close.obj
 0001:00086958       _close_nolock_internal     0000000140087958 f   libucrt:close.obj
 0001:00086bf8       _lseeki64                  0000000140087bf8 f   libucrt:lseek.obj
 0001:00086c94       _lseeki64_internal         0000000140087c94 f   libucrt:lseek.obj
 0001:00086c9c       _lseeki64_nolock           0000000140087c9c f   libucrt:lseek.obj
 0001:00086d38       _lseeki64_nolock_internal  0000000140087d38 f   libucrt:lseek.obj
 0001:0008726c       _read                      000000014008826c f   libucrt:read.obj
 0001:0008738c       _read_nolock               000000014008838c f   libucrt:read.obj
 0001:00088018       _write                     0000000140089018 f   libucrt:write.obj
 0001:000880b0       _write_internal            00000001400890b0 f   libucrt:write.obj
 0001:000881d0       _write_nolock              00000001400891d0 f   libucrt:write.obj
 0001:00088680       __acrt_stdio_flush_and_write_narrow_nolock 0000000140089680 f   libucrt:_flsbuf.obj
 0001:0008874c       __acrt_should_use_temporary_buffer 000000014008974c f   libucrt:_sftbuf.obj
 0001:00088798       __acrt_stdio_begin_temporary_buffering_nolock 0000000140089798 f   libucrt:_sftbuf.obj
 0001:00088860       __acrt_stdio_end_temporary_buffering_nolock 0000000140089860 f   libucrt:_sftbuf.obj
 0001:000888a0       __acrt_update_locale_info  00000001400898a0 f   libucrt:locale_update.obj
 0001:000888d4       __acrt_update_locale_info_explicit 00000001400898d4 f   libucrt:locale_update.obj
 0001:0008890c       __acrt_update_multibyte_info 000000014008990c f   libucrt:locale_update.obj
 0001:00088940       __acrt_update_multibyte_info_explicit 0000000140089940 f   libucrt:locale_update.obj
 0001:00089488       __acrt_fp_format           000000014008a488 f   libucrt:cvt.obj
 0001:00089770       _wctomb_internal           000000014008a770 f   libucrt:wctomb.obj
 0001:00089920       _mbtowc_internal           000000014008a920 f   libucrt:mbtowc.obj
 0001:00089a98       _mbtowc_l                  000000014008aa98 f   libucrt:mbtowc.obj
 0001:00089b3c       ?__mblen_utf8@__crt_mbstring@@YAHPEBD@Z 000000014008ab3c f   libucrt:mbrtoc32.obj
 0001:00089b74       ?__mbrtoc32_utf8@__crt_mbstring@@YA_KPEA_UPEBD_KPEAU_Mbstatet@@AEAV__crt_cached_ptd_host@@@Z 000000014008ab74 f   libucrt:mbrtoc32.obj
 0001:00089d34       ?__c16rtomb_utf8@__crt_mbstring@@YA_KPEAD_SPEAU_Mbstatet@@AEAV__crt_cached_ptd_host@@@Z 000000014008ad34 f   libucrt:c16rtomb.obj
 0001:00089dd8       ?__mbrtowc_utf8@__crt_mbstring@@YA_KPEA_WPEBD_KPEAU_Mbstatet@@AEAV__crt_cached_ptd_host@@@Z 000000014008add8 f   libucrt:mbrtowc.obj
 0001:00089e20       ?__mbsrtowcs_utf8@__crt_mbstring@@YA_KPEA_WPEAPEBD_KPEAU_Mbstatet@@AEAV__crt_cached_ptd_host@@@Z 000000014008ae20 f   libucrt:mbrtowc.obj
 0001:00089fd8       _get_printf_count_output   000000014008afd8 f   libucrt:printf_count_output.obj
 0001:00089ff0       __acrt_get_begin_thread_init_policy 000000014008aff0 f   libucrt:win_policies.obj
 0001:0008a030       __acrt_get_process_end_policy 000000014008b030 f   libucrt:win_policies.obj
 0001:0008a060       iswctype                   000000014008b060 f   libucrt:iswctype.obj
 0001:0008a0cc       _isctype_l                 000000014008b0cc f   libucrt:isctype.obj
 0001:0008a1e0       fegetround                 000000014008b1e0 f   libucrt:fegetround.obj
 0001:0008a1f4       __acrt_initialize_timeset  000000014008b1f4 f   libucrt:timeset.obj
 0001:0008a244       __daylight                 000000014008b244 f   libucrt:timeset.obj
 0001:0008a24c       __dstbias                  000000014008b24c f   libucrt:timeset.obj
 0001:0008a254       __timezone                 000000014008b254 f   libucrt:timeset.obj
 0001:0008a25c       __tzname                   000000014008b25c f   libucrt:timeset.obj
 0001:0008a264       __wide_tzname              000000014008b264 f   libucrt:timeset.obj
 0001:0008a26c       _get_daylight              000000014008b26c f   libucrt:timeset.obj
 0001:0008a29c       _get_dstbias               000000014008b29c f   libucrt:timeset.obj
 0001:0008a2cc       _get_timezone              000000014008b2cc f   libucrt:timeset.obj
 0001:0008a584       __getgmtimebuf             000000014008b584 f   libucrt:gmtime.obj
 0001:0008a5d0       _gmtime64_s                000000014008b5d0 f   libucrt:gmtime.obj
 0001:0008b150       __tzset                    000000014008c150 f   libucrt:tzset.obj
 0001:0008b194       _isindst                   000000014008c194 f   libucrt:tzset.obj
 0001:0008b1c4       __acrt_app_verifier_enabled 000000014008c1c4 f   libucrt:peb_access.obj
 0001:0008b1e0       __acrt_is_secure_process   000000014008c1e0 f   libucrt:peb_access.obj
 0001:0008b200       wcscpy_s                   000000014008c200 f   libucrt:wcscpy_s.obj
 0001:0008b290       _wcsnicoll                 000000014008c290 f   libucrt:wcsnicol.obj
 0001:0008b430       _strnicoll                 000000014008c430 f   libucrt:strnicol.obj
 0001:0008b660       _commit                    000000014008c660 f   libucrt:commit.obj
 0001:0008b6f4       __acrt_stdio_refill_and_read_narrow_nolock 000000014008c6f4 f   libucrt:_filbuf.obj
 0001:0008bb94       __acrt_LCMapStringA        000000014008cb94 f   libucrt:lcmapstringa.obj
 0001:0008bc30       _expand                    000000014008cc30 f   libucrt:expand.obj
 0001:0008bc40       _expand_base               000000014008cc40 f   libucrt:expand.obj
 0001:0008bd90       _msize_base                000000014008cd90 f   libucrt:msize.obj
 0001:0008bdd0       _msize                     000000014008cdd0 f   libucrt:msize.obj
 0001:0008be20       __acrt_get_sigabrt_handler 000000014008ce20 f   libucrt:signal.obj
 0001:0008be50       __acrt_initialize_signal_handlers 000000014008ce50 f   libucrt:signal.obj
 0001:0008be70       raise                      000000014008ce70 f   libucrt:signal.obj
 0001:0008c3e4       mbstowcs_s                 000000014008d3e4 f   libucrt:mbstowcs.obj
 0001:0008c8e0       _wcstombs_s_l              000000014008d8e0 f   libucrt:wcstombs.obj
 0001:0008cb14       __acrt_GetLocaleInfoA      000000014008db14 f   libucrt:getlocaleinfoa.obj
 0001:0008ccdc       __acrt_GetStringTypeA      000000014008dcdc f   libucrt:getstringtypea.obj
 0001:0008ce70       _raise_exc                 000000014008de70 f   libucrt:fpexcept.obj
 0001:0008cea0       _raise_exc_ex              000000014008dea0 f   libucrt:fpexcept.obj
 0001:0008d1b0       _set_errno_from_matherr    000000014008e1b0 f   libucrt:fpexcept.obj
 0001:0008d1f0       _clrfp                     000000014008e1f0 f   libucrt:fpctrl.obj
 0001:0008d210       _ctrlfp                    000000014008e210 f   libucrt:fpctrl.obj
 0001:0008d290       _get_fpcsr                 000000014008e290 f   libucrt:fpctrl.obj
 0001:0008d290       _get_fpsr                  000000014008e290 f   libucrt:fpctrl.obj
 0001:0008d2a0       _set_fpcsr                 000000014008e2a0 f   libucrt:fpctrl.obj
 0001:0008d2a0       _set_fpsr                  000000014008e2a0 f   libucrt:fpctrl.obj
 0001:0008d2b0       _set_statfp                000000014008e2b0 f   libucrt:fpctrl.obj
 0001:0008d2d0       _statfp                    000000014008e2d0 f   libucrt:fpctrl.obj
 0001:0008d2e0       _realloc_base              000000014008e2e0 f   libucrt:realloc_base.obj
 0001:0008d35c       __acrt_MultiByteToWideChar 000000014008e35c f   libucrt:multibytetowidechar.obj
 0001:0008d3ec       __acrt_WideCharToMultiByte 000000014008e3ec f   libucrt:widechartomultibyte.obj
 0001:0008d500       __ascii_wcsicmp            000000014008e500 f   libucrt:wcsicmp.obj
 0001:0008d560       _wcsicmp                   000000014008e560 f   libucrt:wcsicmp.obj
 0001:0008d590       _wcsicmp_l                 000000014008e590 f   libucrt:wcsicmp.obj
 0001:0008d760       __acrt_initialize_fma3     000000014008e760 f   libucrt:fma3_available.obj
 0001:0008d820       _exp_special               000000014008e820 f   libucrt:exp_special.obj
 0001:0008d9d0       _handle_error              000000014008e9d0 f   libucrt:libm_error.obj
 0001:0008db10       _handle_nan                000000014008eb10 f   libucrt:libm_error.obj
 0001:0008db38       ??$__acrt_convert_wcs_mbs_cp@_WDV<lambda_d8593a27d1aa8c02be35c86a17d324c4>@@U__crt_win32_buffer_internal_dynamic_resizing@@@@YAHQEB_WAEAV?$__crt_win32_buffer@DU__crt_win32_buffer_internal_dynamic_resizing@@@@AEBV<lambda_d8593a27d1aa8c02be35c86a17d324c4>@@I@Z 000000014008eb38 f i libucrt:argv_wildcards.obj
 0001:0008e404       __acrt_expand_narrow_argv_wildcards 000000014008f404 f   libucrt:argv_wildcards.obj
 0001:0008e40c       __acrt_GetModuleFileNameA  000000014008f40c f   libucrt:getmodulefilenamea.obj
 0001:0008ed38       __acrt_initialize_multibyte 000000014008fd38 f   libucrt:mbctype.obj
 0001:0008ed98       __acrt_update_thread_multibyte_data 000000014008fd98 f   libucrt:mbctype.obj
 0001:0008edb4       _setmbcp_nolock            000000014008fdb4 f   libucrt:mbctype.obj
 0001:0008f0f0       _ismbblead                 00000001400900f0 f   libucrt:ismbbyte.obj
 0001:0008f104       __dcrt_get_narrow_environment_from_os 0000000140090104 f   libucrt:get_environment_from_os.obj
 0001:0008f214       __dcrt_get_wide_environment_from_os 0000000140090214 f   libucrt:get_environment_from_os.obj
 0001:0008fb44       __dcrt_set_variable_in_narrow_environment_nolock 0000000140090b44 f   libucrt:setenv.obj
 0001:0008fb4c       __dcrt_set_variable_in_wide_environment_nolock 0000000140090b4c f   libucrt:setenv.obj
 0001:0008fb60       _recalloc_base             0000000140090b60 f   libucrt:recalloc.obj
 0001:0008fc00       _recalloc                  0000000140090c00 f   libucrt:recalloc.obj
 0001:0008fc10       _get_heap_handle           0000000140090c10 f   libucrt:heap_handle.obj
 0001:0008fc20       __acrt_initialize_heap     0000000140090c20 f   libucrt:heap_handle.obj
 0001:0008fc50       __acrt_uninitialize_heap   0000000140090c50 f   libucrt:heap_handle.obj
 0001:0008fc70       __acrt_getheap             0000000140090c70 f   libucrt:heap_handle.obj
 0001:0008fc78       __acrt_execute_initializers 0000000140090c78 f   libucrt:shared_initialization.obj
 0001:0008fcf8       __acrt_execute_uninitializers 0000000140090cf8 f   libucrt:shared_initialization.obj
 0001:0008fd40       wcscat_s                   0000000140090d40 f   libucrt:wcscat_s.obj
 0001:0008fdd0       __acrt_lowio_create_handle_array 0000000140090dd0 f   libucrt:osfinfo.obj
 0001:0008fe78       __acrt_lowio_destroy_handle_array 0000000140090e78 f   libucrt:osfinfo.obj
 0001:0008fec8       __acrt_lowio_ensure_fh_exists 0000000140090ec8 f   libucrt:osfinfo.obj
 0001:0008ff70       __acrt_lowio_lock_fh       0000000140090f70 f   libucrt:osfinfo.obj
 0001:0008ff98       __acrt_lowio_set_os_handle 0000000140090f98 f   libucrt:osfinfo.obj
 0001:00090058       __acrt_lowio_unlock_fh     0000000140091058 f   libucrt:osfinfo.obj
 0001:00090080       _alloc_osfhnd              0000000140091080 f   libucrt:osfinfo.obj
 0001:000901c0       _free_osfhnd               00000001400911c0 f   libucrt:osfinfo.obj
 0001:0009027c       _get_osfhandle             000000014009127c f   libucrt:osfinfo.obj
 0001:000902f4       __acrt_initialize_fmode    00000001400912f4 f   libucrt:txtmode.obj
 0001:0009030c       __acrt_locale_free_monetary 000000014009130c f   libucrt:initmon.obj
 0001:00090418       __acrt_locale_initialize_monetary 0000000140091418 f   libucrt:initmon.obj
 0001:00090934       __acrt_locale_free_numeric 0000000140091934 f   libucrt:initnum.obj
 0001:000909a0       __acrt_locale_initialize_numeric 00000001400919a0 f   libucrt:initnum.obj
 0001:00090ffc       __acrt_locale_free_time    0000000140091ffc f   libucrt:inittime.obj
 0001:00091104       __acrt_locale_initialize_time 0000000140092104 f   libucrt:inittime.obj
 0001:000911a0       wcsncat_s                  00000001400921a0 f   libucrt:wcsncat_s.obj
 0001:000912e0       wcscspn                    00000001400922e0 f   libucrt:wcscspn.obj
 0001:00091340       wcspbrk                    0000000140092340 f   libucrt:wcspbrk.obj
 0001:00091398       __acrt_add_locale_ref      0000000140092398 f   libucrt:locale_refcounting.obj
 0001:00091424       __acrt_free_locale         0000000140092424 f   libucrt:locale_refcounting.obj
 0001:0009159c       __acrt_locale_add_lc_time_reference 000000014009259c f   libucrt:locale_refcounting.obj
 0001:000915c4       __acrt_locale_free_lc_time_if_unreferenced 00000001400925c4 f   libucrt:locale_refcounting.obj
 0001:000915fc       __acrt_locale_release_lc_time_reference 00000001400925fc f   libucrt:locale_refcounting.obj
 0001:00091624       __acrt_release_locale_ref  0000000140092624 f   libucrt:locale_refcounting.obj
 0001:000916cc       __acrt_update_thread_locale_data 00000001400926cc f   libucrt:locale_refcounting.obj
 0001:0009173c       _updatetlocinfoEx_nolock   000000014009273c f   libucrt:locale_refcounting.obj
 0001:00091f5c       __acrt_get_qualified_locale 0000000140092f5c f   libucrt:get_qualified_locale.obj
 0001:000929bc       __acrt_get_qualified_locale_downlevel 00000001400939bc f   libucrt:getqloc_downlevel.obj
 0001:00092c3c       __acrt_DownlevelLCIDToLocaleName 0000000140093c3c f   libucrt:lcidtoname_downlevel.obj
 0001:00092d24       __acrt_DownlevelLocaleNameToLCID 0000000140093d24 f   libucrt:lcidtoname_downlevel.obj
 0001:00092dd0       __ascii_wcsnicmp           0000000140093dd0 f   libucrt:wcsnicmp.obj
 0001:00092e40       _wcsnicmp                  0000000140093e40 f   libucrt:wcsnicmp.obj
 0001:00092e70       _wcsnicmp_l                0000000140093e70 f   libucrt:wcsnicmp.obj
 0001:00093090       _strnicmp                  0000000140094090 f   libucrt:strnicmp.obj
 0001:00093120       _strnicmp_l                0000000140094120 f   libucrt:strnicmp.obj
 0001:00093898       _sopen_nolock              0000000140094898 f   libucrt:open.obj
 0001:000939b4       _sopen_s                   00000001400949b4 f   libucrt:open.obj
 0001:000939e8       _wsopen_nolock             00000001400949e8 f   libucrt:open.obj
 0001:00093dfc       _isatty                    0000000140094dfc f   libucrt:isatty.obj
 0001:00093e5c       _putwch_nolock             0000000140094e5c f   libucrt:putwch.obj
 0001:00093e9c       __acrt_stdio_allocate_buffer_nolock 0000000140094e9c f   libucrt:_getbuf.obj
 0001:00093fd8       __acrt_fp_strflt_to_string 0000000140094fd8 f   libucrt:_fptostr.obj
 0001:000940e8       __acrt_fltout              00000001400950e8 f   libucrt:cfout.obj
 0001:00095368       ?__c32rtomb_utf8@__crt_mbstring@@YA_KPEAD_UPEAU_Mbstatet@@AEAV__crt_cached_ptd_host@@@Z 0000000140096368 f   libucrt:c32rtomb.obj
 0001:0009540c       ?reset_and_return@__crt_mbstring@@YA_K_KPEAU_Mbstatet@@@Z 000000014009640c f   libucrt:common_utf8.obj
 0001:00095414       ?return_illegal_sequence@__crt_mbstring@@YA_KPEAU_Mbstatet@@AEAV__crt_cached_ptd_host@@@Z 0000000140096414 f   libucrt:common_utf8.obj
 0001:00095428       __acrt_GetStringTypeW      0000000140096428 f   libucrt:getstringtypew.obj
 0001:00095430       __acrt_fenv_get_common_round_control 0000000140096430 f   libucrt:_fenvutils.obj
 0001:00095440       __acrt_fenv_get_control    0000000140096440 f   libucrt:_fenvutils.obj
 0001:00095520       __acrt_fenv_get_status     0000000140096520 f   libucrt:_fenvutils.obj
 0001:00095580       __acrt_fenv_set_control    0000000140096580 f   libucrt:_fenvutils.obj
 0001:000956b0       __acrt_fenv_set_status     00000001400966b0 f   libucrt:_fenvutils.obj
 0001:00095724       __acrt_CompareStringW      0000000140096724 f   libucrt:comparestringw.obj
 0001:00095b74       __acrt_CompareStringA      0000000140096b74 f   libucrt:comparestringa.obj
 0001:00095c00       ?__wcsrtombs_utf8@__crt_mbstring@@YA_KPEADPEAPEB_W_KPEAU_Mbstatet@@AEAV__crt_cached_ptd_host@@@Z 0000000140096c00 f   libucrt:wcrtomb.obj
 0001:00095d60       strncpy_s                  0000000140096d60 f   libucrt:strncpy_s.obj
 0001:00095e8c       _towlower_l                0000000140096e8c f   libucrt:towlower.obj
 0001:00095f90       qsort                      0000000140096f90 f   libucrt:qsort.obj
 0001:000963d0       strpbrk                    00000001400973d0 f   libucrt:strpbrk.obj
 0001:00096788       _mbsdec                    0000000140097788 f   libucrt:mbsdec.obj
 0001:00096790       _mbsdec_l                  0000000140097790 f   libucrt:mbsdec.obj
 0001:00096838       __acrt_SetEnvironmentVariableA 0000000140097838 f   libucrt:setenvironmentvariablea.obj
 0001:00096b18       _itow_s                    0000000140097b18 f   libucrt:xtoa.obj
 0001:00096b40       wcscmp                     0000000140097b40 f   libucrt:wcscmpc.obj
 0001:00096b78       _chsize_nolock             0000000140097b78 f   libucrt:chsize.obj
 0001:00096c10       _chsize_nolock_internal    0000000140097c10 f   libucrt:chsize.obj
 0001:00096da0       __dcrt_lowio_ensure_console_output_initialized 0000000140097da0 f   libucrt:initcon.obj
 0001:00096df4       __dcrt_terminate_console_output 0000000140097df4 f   libucrt:initcon.obj
 0001:00096e10       __dcrt_write_console       0000000140097e10 f   libucrt:initcon.obj
 0001:00096ed0       _controlfp_s               0000000140097ed0 f   libucrt:contrlfp.obj
 0001:00096f40       fegetenv                   0000000140097f40 f   libucrt:fegetenv.obj
 0001:00096f60       fesetenv                   0000000140097f60 f   libucrt:fesetenv.obj
 0001:00096fd0       feholdexcept               0000000140097fd0 f   libucrt:feholdexcept.obj
 0001:00097030       ceil                       0000000140098030 f   libucrt:ceil.obj
 0001:00097100       log10                      0000000140098100 f   libucrt:log10.obj
 0001:000976ac       __acrt_LCMapStringW        00000001400986ac f   libucrt:lcmapstringw.obj
 0001:00097734       _guard_check_icall         0000000140098734 f i libucrt:checkcfg.obj
 0001:00097750       _clearfp                   0000000140098750 f   libucrt:ieee.obj
 0001:000977c0       _control87                 00000001400987c0 f   libucrt:ieee.obj
 0001:00097a70       ceil_sse41                 0000000140098a70 f   libucrt:floorceil_sse41.obj
 0001:00097a80       _log10_special             0000000140098a80 f   libucrt:log_special.obj
 0001:00097b6c       ??1?$shared_ptr@$$CBU_EXCEPTION_RECORD@@@std@@QEAA@XZ 0000000140098b6c f i libcpmt:excptptr.obj
 0001:00097bbc       ??4?$shared_ptr@$$CBU_EXCEPTION_RECORD@@@std@@QEAAAEAV01@$$QEAV01@@Z 0000000140098bbc f i libcpmt:excptptr.obj
 0001:00097ca8       ??_G?$shared_ptr@$$CBU_EXCEPTION_RECORD@@@std@@QEAAPEAXI@Z 0000000140098ca8 f i libcpmt:excptptr.obj
 0001:00098234       ?__ExceptionPtrCopy@@YAXPEAXPEBX@Z 0000000140099234 f   libcpmt:excptptr.obj
 0001:00098260       ?__ExceptionPtrCreate@@YAXPEAX@Z 0000000140099260 f   libcpmt:excptptr.obj
 0001:00098270       ?__ExceptionPtrCurrentException@@YAXPEAX@Z 0000000140099270 f   libcpmt:excptptr.obj
 0001:000982f8       ?__ExceptionPtrDestroy@@YAXPEAX@Z 00000001400992f8 f   libcpmt:excptptr.obj
 0001:00098300       ?__ExceptionPtrRethrow@@YAXPEBX@Z 0000000140099300 f   libcpmt:excptptr.obj
 0001:00098490       _FindPESection             0000000140099490 f   LIBCMT:pesect.obj
 0001:000984e0       _IsNonwritableInCurrentImage 00000001400994e0 f   LIBCMT:pesect.obj
 0001:00098530       _ValidateImageBase         0000000140099530 f   LIBCMT:pesect.obj
 0001:0009855c       __GSHandlerCheck_SEH       000000014009955c f   LIBCMT:gshandlerseh.obj
 0001:000985e4       __GSHandlerCheck_EH        00000001400995e4 f   LIBCMT:gshandlereh.obj
 0001:00098664       __C_specific_handler_noexcept 0000000140099664 f   libvcruntime:chandler_noexcept.obj
 0001:000986b0       strrchr                    00000001400996b0 f   libvcruntime:strrchr.obj
 0001:000987e0       strchr                     00000001400997e0 f   libvcruntime:strchr.obj
 0001:00098860       wcschr                     0000000140099860 f   libvcruntime:wcschr.obj
 0001:000988f0       _guard_dispatch_icall_nop  00000001400998f0 f   LIBCMT:guard_dispatch.obj
 0001:00098910       _guard_xfg_dispatch_icall_nop 0000000140099910 f   LIBCMT:guard_xfg_dispatch.obj
 0001:00098930       _guard_dispatch_icall      0000000140099930 f   libucrt:dispatchcfg.obj
 0001:00098930       _guard_dispatch_icall_$fo_default$ 0000000140099930     libucrt:dispatchcfg.obj
 0001:00098950       memcmp                     0000000140099950 f   libvcruntime:memcmp.obj
 0001:00098a40       memcpy_repmovs             0000000140099a40 f   libvcruntime:memcpy.obj
 0001:00098a50       memcpy                     0000000140099a50 f   libvcruntime:memcpy.obj
 0001:00098a50       memcpy_$fo_default$        0000000140099a50     libvcruntime:memcpy.obj
 0001:00098a50       memmove                    0000000140099a50 f   libvcruntime:memcpy.obj
 0001:000990e0       memset_repstos             000000014009a0e0 f   libvcruntime:memset.obj
 0001:000990f0       memset                     000000014009a0f0 f   libvcruntime:memset.obj
 0001:000994a0       strcmp                     000000014009a4a0 f   libucrt:strcmp.obj
 0001:00099520       strlen                     000000014009a520 f   libucrt:strlen.obj
 0001:000995e0       strcat                     000000014009a5e0 f   libucrt:strcat.obj
 0001:00099680       strcpy                     000000014009a680 f   libucrt:strcat.obj
 0001:00099683       ___entry_from_strcat_in_strcpy 000000014009a683     libucrt:strcat.obj
 0001:00099750       strncmp                    000000014009a750 f   libucrt:strncmp.obj
 0002:00000000       __imp_InitCommonControlsEx 000000014009d000     comctl32:COMCTL32.dll
 0002:00000008       \177COMCTL32_NULL_THUNK_DATA 000000014009d008     comctl32:COMCTL32.dll
 0002:00000010       __imp_WriteConsoleW        000000014009d010     kernel32:KERNEL32.dll
 0002:00000018       __imp_SetEndOfFile         000000014009d018     kernel32:KERNEL32.dll
 0002:00000020       __imp_SetStdHandle         000000014009d020     kernel32:KERNEL32.dll
 0002:00000028       __imp_GetTempPathA         000000014009d028     kernel32:KERNEL32.dll
 0002:00000030       __imp_GetTempFileNameA     000000014009d030     kernel32:KERNEL32.dll
 0002:00000038       __imp_ContinueDebugEvent   000000014009d038     kernel32:KERNEL32.dll
 0002:00000040       __imp_WaitForDebugEvent    000000014009d040     kernel32:KERNEL32.dll
 0002:00000048       __imp_DebugActiveProcess   000000014009d048     kernel32:KERNEL32.dll
 0002:00000050       __imp_CloseHandle          000000014009d050     kernel32:KERNEL32.dll
 0002:00000058       __imp_Sleep                000000014009d058     kernel32:KERNEL32.dll
 0002:00000060       __imp_ResumeThread         000000014009d060     kernel32:KERNEL32.dll
 0002:00000068       __imp_CreateProcessA       000000014009d068     kernel32:KERNEL32.dll
 0002:00000070       __imp_ReadProcessMemory    000000014009d070     kernel32:KERNEL32.dll
 0002:00000078       __imp_GetCommandLineA      000000014009d078     kernel32:KERNEL32.dll
 0002:00000080       __imp_GetFullPathNameA     000000014009d080     kernel32:KERNEL32.dll
 0002:00000088       __imp_GetLastError         000000014009d088     kernel32:KERNEL32.dll
 0002:00000090       __imp_WaitForSingleObject  000000014009d090     kernel32:KERNEL32.dll
 0002:00000098       __imp_GetCurrentProcess    000000014009d098     kernel32:KERNEL32.dll
 0002:000000a0       __imp_SetPriorityClass     000000014009d0a0     kernel32:KERNEL32.dll
 0002:000000a8       __imp_GetTickCount         000000014009d0a8     kernel32:KERNEL32.dll
 0002:000000b0       __imp_GetModuleFileNameA   000000014009d0b0     kernel32:KERNEL32.dll
 0002:000000b8       __imp_GetModuleHandleA     000000014009d0b8     kernel32:KERNEL32.dll
 0002:000000c0       __imp_GlobalAlloc          000000014009d0c0     kernel32:KERNEL32.dll
 0002:000000c8       __imp_GlobalUnlock         000000014009d0c8     kernel32:KERNEL32.dll
 0002:000000d0       __imp_GlobalLock           000000014009d0d0     kernel32:KERNEL32.dll
 0002:000000d8       __imp_GlobalFree           000000014009d0d8     kernel32:KERNEL32.dll
 0002:000000e0       __imp_MultiByteToWideChar  000000014009d0e0     kernel32:KERNEL32.dll
 0002:000000e8       __imp_CreateFileA          000000014009d0e8     kernel32:KERNEL32.dll
 0002:000000f0       __imp_SetUnhandledExceptionFilter 000000014009d0f0     kernel32:KERNEL32.dll
 0002:000000f8       __imp_InitializeCriticalSection 000000014009d0f8     kernel32:KERNEL32.dll
 0002:00000100       __imp_EnterCriticalSection 000000014009d100     kernel32:KERNEL32.dll
 0002:00000108       __imp_GetCurrentProcessId  000000014009d108     kernel32:KERNEL32.dll
 0002:00000110       __imp_ExitProcess          000000014009d110     kernel32:KERNEL32.dll
 0002:00000118       __imp_GetCurrentThreadId   000000014009d118     kernel32:KERNEL32.dll
 0002:00000120       __imp_WideCharToMultiByte  000000014009d120     kernel32:KERNEL32.dll
 0002:00000128       __imp_CreateThread         000000014009d128     kernel32:KERNEL32.dll
 0002:00000130       __imp_GetProcessHeap       000000014009d130     kernel32:KERNEL32.dll
 0002:00000138       __imp_SetEnvironmentVariableW 000000014009d138     kernel32:KERNEL32.dll
 0002:00000140       __imp_FreeEnvironmentStringsW 000000014009d140     kernel32:KERNEL32.dll
 0002:00000148       __imp_GetEnvironmentStringsW 000000014009d148     kernel32:KERNEL32.dll
 0002:00000150       __imp_GetOEMCP             000000014009d150     kernel32:KERNEL32.dll
 0002:00000158       __imp_GetACP               000000014009d158     kernel32:KERNEL32.dll
 0002:00000160       __imp_IsValidCodePage      000000014009d160     kernel32:KERNEL32.dll
 0002:00000168       __imp_HeapQueryInformation 000000014009d168     kernel32:KERNEL32.dll
 0002:00000170       __imp_HeapSize             000000014009d170     kernel32:KERNEL32.dll
 0002:00000178       __imp_HeapReAlloc          000000014009d178     kernel32:KERNEL32.dll
 0002:00000180       __imp_FlushFileBuffers     000000014009d180     kernel32:KERNEL32.dll
 0002:00000188       __imp_GetTimeZoneInformation 000000014009d188     kernel32:KERNEL32.dll
 0002:00000190       __imp_GetFileSizeEx        000000014009d190     kernel32:KERNEL32.dll
 0002:00000198       __imp_WaitForSingleObjectEx 000000014009d198     kernel32:KERNEL32.dll
 0002:000001a0       __imp_SwitchToThread       000000014009d1a0     kernel32:KERNEL32.dll
 0002:000001a8       __imp_GetExitCodeThread    000000014009d1a8     kernel32:KERNEL32.dll
 0002:000001b0       __imp_IsProcessorFeaturePresent 000000014009d1b0     kernel32:KERNEL32.dll
 0002:000001b8       __imp_GetCurrentDirectoryW 000000014009d1b8     kernel32:KERNEL32.dll
 0002:000001c0       __imp_CreateFileW          000000014009d1c0     kernel32:KERNEL32.dll
 0002:000001c8       __imp_FindClose            000000014009d1c8     kernel32:KERNEL32.dll
 0002:000001d0       __imp_FindFirstFileExW     000000014009d1d0     kernel32:KERNEL32.dll
 0002:000001d8       __imp_FindNextFileW        000000014009d1d8     kernel32:KERNEL32.dll
 0002:000001e0       __imp_AreFileApisANSI      000000014009d1e0     kernel32:KERNEL32.dll
 0002:000001e8       __imp_GetModuleHandleW     000000014009d1e8     kernel32:KERNEL32.dll
 0002:000001f0       __imp_GetProcAddress       000000014009d1f0     kernel32:KERNEL32.dll
 0002:000001f8       __imp_LocalFree            000000014009d1f8     kernel32:KERNEL32.dll
 0002:00000200       __imp_FormatMessageA       000000014009d200     kernel32:KERNEL32.dll
 0002:00000208       __imp_GetLocaleInfoEx      000000014009d208     kernel32:KERNEL32.dll
 0002:00000210       __imp_LeaveCriticalSection 000000014009d210     kernel32:KERNEL32.dll
 0002:00000218       __imp_InitializeCriticalSectionEx 000000014009d218     kernel32:KERNEL32.dll
 0002:00000220       __imp_DeleteCriticalSection 000000014009d220     kernel32:KERNEL32.dll
 0002:00000228       __imp_QueryPerformanceCounter 000000014009d228     kernel32:KERNEL32.dll
 0002:00000230       __imp_QueryPerformanceFrequency 000000014009d230     kernel32:KERNEL32.dll
 0002:00000238       __imp_ReleaseSRWLockExclusive 000000014009d238     kernel32:KERNEL32.dll
 0002:00000240       __imp_AcquireSRWLockExclusive 000000014009d240     kernel32:KERNEL32.dll
 0002:00000248       __imp_TryAcquireSRWLockExclusive 000000014009d248     kernel32:KERNEL32.dll
 0002:00000250       __imp_WakeAllConditionVariable 000000014009d250     kernel32:KERNEL32.dll
 0002:00000258       __imp_SleepConditionVariableSRW 000000014009d258     kernel32:KERNEL32.dll
 0002:00000260       __imp_EncodePointer        000000014009d260     kernel32:KERNEL32.dll
 0002:00000268       __imp_DecodePointer        000000014009d268     kernel32:KERNEL32.dll
 0002:00000270       __imp_CreateEventExW       000000014009d270     kernel32:KERNEL32.dll
 0002:00000278       __imp_CreateSemaphoreExW   000000014009d278     kernel32:KERNEL32.dll
 0002:00000280       __imp_FlushProcessWriteBuffers 000000014009d280     kernel32:KERNEL32.dll
 0002:00000288       __imp_GetSystemTimeAsFileTime 000000014009d288     kernel32:KERNEL32.dll
 0002:00000290       __imp_GetTickCount64       000000014009d290     kernel32:KERNEL32.dll
 0002:00000298       __imp_FreeLibraryWhenCallbackReturns 000000014009d298     kernel32:KERNEL32.dll
 0002:000002a0       __imp_CreateThreadpoolTimer 000000014009d2a0     kernel32:KERNEL32.dll
 0002:000002a8       __imp_SetThreadpoolTimer   000000014009d2a8     kernel32:KERNEL32.dll
 0002:000002b0       __imp_WaitForThreadpoolTimerCallbacks 000000014009d2b0     kernel32:KERNEL32.dll
 0002:000002b8       __imp_CloseThreadpoolTimer 000000014009d2b8     kernel32:KERNEL32.dll
 0002:000002c0       __imp_CreateThreadpoolWait 000000014009d2c0     kernel32:KERNEL32.dll
 0002:000002c8       __imp_SetThreadpoolWait    000000014009d2c8     kernel32:KERNEL32.dll
 0002:000002d0       __imp_CloseThreadpoolWait  000000014009d2d0     kernel32:KERNEL32.dll
 0002:000002d8       __imp_GetStringTypeW       000000014009d2d8     kernel32:KERNEL32.dll
 0002:000002e0       __imp_GetCPInfo            000000014009d2e0     kernel32:KERNEL32.dll
 0002:000002e8       __imp_GetCurrentThread     000000014009d2e8     kernel32:KERNEL32.dll
 0002:000002f0       __imp_GetThreadTimes       000000014009d2f0     kernel32:KERNEL32.dll
 0002:000002f8       __imp_FreeLibrary          000000014009d2f8     kernel32:KERNEL32.dll
 0002:00000300       __imp_FreeLibraryAndExitThread 000000014009d300     kernel32:KERNEL32.dll
 0002:00000308       __imp_GetModuleFileNameW   000000014009d308     kernel32:KERNEL32.dll
 0002:00000310       __imp_LoadLibraryExW       000000014009d310     kernel32:KERNEL32.dll
 0002:00000318       __imp_InterlockedPopEntrySList 000000014009d318     kernel32:KERNEL32.dll
 0002:00000320       __imp_InterlockedPushEntrySList 000000014009d320     kernel32:KERNEL32.dll
 0002:00000328       __imp_InterlockedFlushSList 000000014009d328     kernel32:KERNEL32.dll
 0002:00000330       __imp_QueryDepthSList      000000014009d330     kernel32:KERNEL32.dll
 0002:00000338       __imp_SetLastError         000000014009d338     kernel32:KERNEL32.dll
 0002:00000340       __imp_LoadLibraryW         000000014009d340     kernel32:KERNEL32.dll
 0002:00000348       __imp_SetEvent             000000014009d348     kernel32:KERNEL32.dll
 0002:00000350       __imp_SignalObjectAndWait  000000014009d350     kernel32:KERNEL32.dll
 0002:00000358       __imp_SetThreadPriority    000000014009d358     kernel32:KERNEL32.dll
 0002:00000360       __imp_GetThreadPriority    000000014009d360     kernel32:KERNEL32.dll
 0002:00000368       __imp_TlsAlloc             000000014009d368     kernel32:KERNEL32.dll
 0002:00000370       __imp_TlsGetValue          000000014009d370     kernel32:KERNEL32.dll
 0002:00000378       __imp_TlsSetValue          000000014009d378     kernel32:KERNEL32.dll
 0002:00000380       __imp_TlsFree              000000014009d380     kernel32:KERNEL32.dll
 0002:00000388       __imp_GetCurrentProcessorNumberEx 000000014009d388     kernel32:KERNEL32.dll
 0002:00000390       __imp_GetLogicalProcessorInformationEx 000000014009d390     kernel32:KERNEL32.dll
 0002:00000398       __imp_GetNumaHighestNodeNumber 000000014009d398     kernel32:KERNEL32.dll
 0002:000003a0       __imp_GetThreadGroupAffinity 000000014009d3a0     kernel32:KERNEL32.dll
 0002:000003a8       __imp_SetThreadGroupAffinity 000000014009d3a8     kernel32:KERNEL32.dll
 0002:000003b0       __imp_DuplicateHandle      000000014009d3b0     kernel32:KERNEL32.dll
 0002:000003b8       __imp_ReleaseSemaphore     000000014009d3b8     kernel32:KERNEL32.dll
 0002:000003c0       __imp_InitializeSListHead  000000014009d3c0     kernel32:KERNEL32.dll
 0002:000003c8       __imp_VerSetConditionMask  000000014009d3c8     kernel32:KERNEL32.dll
 0002:000003d0       __imp_VirtualFree          000000014009d3d0     kernel32:KERNEL32.dll
 0002:000003d8       __imp_GetProcessAffinityMask 000000014009d3d8     kernel32:KERNEL32.dll
 0002:000003e0       __imp_VerifyVersionInfoW   000000014009d3e0     kernel32:KERNEL32.dll
 0002:000003e8       __imp_RtlCaptureContext    000000014009d3e8     kernel32:KERNEL32.dll
 0002:000003f0       __imp_RtlLookupFunctionEntry 000000014009d3f0     kernel32:KERNEL32.dll
 0002:000003f8       __imp_RtlVirtualUnwind     000000014009d3f8     kernel32:KERNEL32.dll
 0002:00000400       __imp_IsDebuggerPresent    000000014009d400     kernel32:KERNEL32.dll
 0002:00000408       __imp_UnhandledExceptionFilter 000000014009d408     kernel32:KERNEL32.dll
 0002:00000410       __imp_GetStartupInfoW      000000014009d410     kernel32:KERNEL32.dll
 0002:00000418       __imp_TerminateProcess     000000014009d418     kernel32:KERNEL32.dll
 0002:00000420       __imp_RtlPcToFileHeader    000000014009d420     kernel32:KERNEL32.dll
 0002:00000428       __imp_RaiseException       000000014009d428     kernel32:KERNEL32.dll
 0002:00000430       __imp_RtlUnwindEx          000000014009d430     kernel32:KERNEL32.dll
 0002:00000438       __imp_InitializeCriticalSectionAndSpinCount 000000014009d438     kernel32:KERNEL32.dll
 0002:00000440       __imp_ReadFile             000000014009d440     kernel32:KERNEL32.dll
 0002:00000448       __imp_ExitThread           000000014009d448     kernel32:KERNEL32.dll
 0002:00000450       __imp_GetModuleHandleExW   000000014009d450     kernel32:KERNEL32.dll
 0002:00000458       __imp_GetStdHandle         000000014009d458     kernel32:KERNEL32.dll
 0002:00000460       __imp_WriteFile            000000014009d460     kernel32:KERNEL32.dll
 0002:00000468       __imp_GetCommandLineW      000000014009d468     kernel32:KERNEL32.dll
 0002:00000470       __imp_HeapAlloc            000000014009d470     kernel32:KERNEL32.dll
 0002:00000478       __imp_HeapFree             000000014009d478     kernel32:KERNEL32.dll
 0002:00000480       __imp_FlsAlloc             000000014009d480     kernel32:KERNEL32.dll
 0002:00000488       __imp_FlsGetValue          000000014009d488     kernel32:KERNEL32.dll
 0002:00000490       __imp_FlsSetValue          000000014009d490     kernel32:KERNEL32.dll
 0002:00000498       __imp_FlsFree              000000014009d498     kernel32:KERNEL32.dll
 0002:000004a0       __imp_VirtualProtect       000000014009d4a0     kernel32:KERNEL32.dll
 0002:000004a8       __imp_CompareStringW       000000014009d4a8     kernel32:KERNEL32.dll
 0002:000004b0       __imp_LCMapStringW         000000014009d4b0     kernel32:KERNEL32.dll
 0002:000004b8       __imp_GetLocaleInfoW       000000014009d4b8     kernel32:KERNEL32.dll
 0002:000004c0       __imp_IsValidLocale        000000014009d4c0     kernel32:KERNEL32.dll
 0002:000004c8       __imp_GetUserDefaultLCID   000000014009d4c8     kernel32:KERNEL32.dll
 0002:000004d0       __imp_EnumSystemLocalesW   000000014009d4d0     kernel32:KERNEL32.dll
 0002:000004d8       __imp_GetFileType          000000014009d4d8     kernel32:KERNEL32.dll
 0002:000004e0       __imp_SetFilePointerEx     000000014009d4e0     kernel32:KERNEL32.dll
 0002:000004e8       __imp_GetConsoleMode       000000014009d4e8     kernel32:KERNEL32.dll
 0002:000004f0       __imp_ReadConsoleW         000000014009d4f0     kernel32:KERNEL32.dll
 0002:000004f8       __imp_GetConsoleOutputCP   000000014009d4f8     kernel32:KERNEL32.dll
 0002:00000500       \177KERNEL32_NULL_THUNK_DATA 000000014009d500     kernel32:KERNEL32.dll
 0002:00000508       __imp_GetDesktopWindow     000000014009d508     user32:USER32.dll
 0002:00000510       __imp_GetWindowRect        000000014009d510     user32:USER32.dll
 0002:00000518       __imp_SetWindowTextA       000000014009d518     user32:USER32.dll
 0002:00000520       __imp_GetSystemMetrics     000000014009d520     user32:USER32.dll
 0002:00000528       __imp_DialogBoxParamA      000000014009d528     user32:USER32.dll
 0002:00000530       __imp_SystemParametersInfoA 000000014009d530     user32:USER32.dll
 0002:00000538       __imp_SendMessageA         000000014009d538     user32:USER32.dll
 0002:00000540       __imp_SetFocus             000000014009d540     user32:USER32.dll
 0002:00000548       __imp_GetDlgItem           000000014009d548     user32:USER32.dll
 0002:00000550       __imp_EndDialog            000000014009d550     user32:USER32.dll
 0002:00000558       __imp_DialogBoxIndirectParamA 000000014009d558     user32:USER32.dll
 0002:00000560       __imp_SetWindowPos         000000014009d560     user32:USER32.dll
 0002:00000568       \177USER32_NULL_THUNK_DATA 000000014009d568     user32:USER32.dll
 0002:00000570       __imp_UnDecorateSymbolName 000000014009d570     Dbghelp:dbghelp.dll
 0002:00000578       __imp_MiniDumpWriteDump    000000014009d578     Dbghelp:dbghelp.dll
 0002:00000580       \177dbghelp_NULL_THUNK_DATA 000000014009d580     Dbghelp:dbghelp.dll
 0002:00000588       __guard_check_icall_fptr   000000014009d588     LIBCMT:guard_support.obj
 0002:00000590       __guard_xfg_check_icall_fptr 000000014009d590     LIBCMT:guard_support.obj
 0002:00000598       __guard_dispatch_icall_fptr 000000014009d598     LIBCMT:guard_support.obj
 0002:000005a0       __guard_xfg_dispatch_icall_fptr 000000014009d5a0     LIBCMT:guard_support.obj
 0002:000005a8       __guard_xfg_table_dispatch_icall_fptr 000000014009d5a8     LIBCMT:guard_support.obj
 0002:000005b0       __castguard_check_failure_os_handled_fptr 000000014009d5b0     LIBCMT:guard_support.obj
 0002:000005b8       __guard_memcpy_fptr        000000014009d5b8     libvcruntime:softmemtag.obj
 0002:000005c0       __xc_a                     000000014009d5c0     LIBCMT:initializers.obj
 0002:00000638       __xc_z                     000000014009d638     LIBCMT:initializers.obj
 0002:00000640       __xi_a                     000000014009d640     LIBCMT:initializers.obj
 0002:00000660       __acrt_stdio_initializer   000000014009d660     libucrt:stdio_initializer.obj
 0002:00000668       __acrt_clock_initializer   000000014009d668     libucrt:clock_initializer.obj
 0002:00000670       __acrt_timeset_initializer 000000014009d670     libucrt:timeset_initializer.obj
 0002:00000678       __acrt_tran_fma3_initializer 000000014009d678     libucrt:fma3_initializer.obj
 0002:00000680       __acrt_multibyte_initializer 000000014009d680     libucrt:multibyte_initializer.obj
 0002:00000688       __acrt_fmode_initializer   000000014009d688     libucrt:fmode_initializer.obj
 0002:00000690       __xi_z                     000000014009d690     LIBCMT:initializers.obj
 0002:00000698       __xp_a                     000000014009d698     LIBCMT:initializers.obj
 0002:000006a8       __acrt_locale_terminator   000000014009d6a8     libucrt:locale_initializer.obj
 0002:000006b0       __dcrt_console_output_terminator 000000014009d6b0     libucrt:console_output_initializer.obj
 0002:000006b8       __acrt_stdio_terminator    000000014009d6b8     libucrt:stdio_initializer.obj
 0002:000006c0       __xp_z                     000000014009d6c0     LIBCMT:initializers.obj
 0002:000006c8       __xt_a                     000000014009d6c8     LIBCMT:initializers.obj
 0002:000006d0       __xt_z                     000000014009d6d0     LIBCMT:initializers.obj
 0002:000006e0       ??_C@_0BC@EOODALEL@Unknown?5exception@ 000000014009d6e0     Crinkler.obj
 0002:000006f8       ??_C@_0P@GHFPNOJB@bad?5allocation@ 000000014009d6f8     Crinkler.obj
 0002:00000708       ??_C@_0BF@KINCDENJ@bad?5array?5new?5length@ 000000014009d708     Crinkler.obj
 0002:00000720       ??_C@_0BB@GCADKGJO@map?1set?5too?5long@ 000000014009d720     Crinkler.obj
 0002:00000738       ??_C@_0BA@JFNIOLAK@string?5too?5long@ 000000014009d738     Crinkler.obj
 0002:00000748       ??_C@_08EPJLHIJG@bad?5cast@ 000000014009d748     Crinkler.obj
 0002:00000758       ??_7ProgressBar@@6B@       000000014009d758     Crinkler.obj
 0002:00000788       ??_7ConsoleProgressBar@@6B@ 000000014009d788     Crinkler.obj
 0002:000007b8       ??_7WindowProgressBar@@6B@ 000000014009d7b8     Crinkler.obj
 0002:000007e8       ??_7CompositeProgressBar@@6B@ 000000014009d7e8     Crinkler.obj
 0002:00000818       ??_C@_03MPPIHBHJ@OFF@      000000014009d818     Crinkler.obj
 0002:00000820       ??_C@_07MIDFMCAP@NOTHING@  000000014009d820     Crinkler.obj
 0002:00000828       ??_C@_05LMAHGIIA@PARTS@    000000014009d828     Crinkler.obj
 0002:00000830       ??_C@_08KMKOKDGA@SECTIONS@ 000000014009d830     Crinkler.obj
 0002:0000083c       ??_C@_06FAOOKADE@MODELS@   000000014009d83c     Crinkler.obj
 0002:00000844       ??_C@_03NIFPGLBG@ALL@      000000014009d844     Crinkler.obj
 0002:00000848       ??_C@_00CNPNBAHC@@         000000014009d848     Crinkler.obj
 0002:00000850       ??_7_UnrealizedChore@details@Concurrency@@6B@ 000000014009d850     Crinkler.obj
 0002:00000860       ?_Grapheme_Break_property_data@std@@3U?$_Unicode_property_data@W4_Grapheme_Break_property_values@std@@$0FFL@$0A@@1@B 000000014009d860     Crinkler.obj
 0002:00002890       ?_Extended_Pictographic_property_data@std@@3U?$_Unicode_property_data@W4_Extended_Pictographic_property_values@std@@$0EO@$00@1@B 000000014009f890     Crinkler.obj
 0002:00002a70       ?_Width_estimate_intervals_v2@std@@3QB_UB 000000014009fa70     Crinkler.obj
 0002:00002d98       ??_C@_0BA@ELKIONDK@bad?5locale?5name@ 000000014009fd98     Crinkler.obj
 0002:00002da8       ??_C@_05LAPONLG@false@     000000014009fda8     Crinkler.obj
 0002:00002db0       ??_C@_04LOAJBDKD@true@     000000014009fdb0     Crinkler.obj
 0002:00002db8       ??_7format_error@std@@6B@  000000014009fdb8     Crinkler.obj
 0002:00002dd0       ??$__DIGIT_TABLE@D@std@@3QBDB 000000014009fdd0     Crinkler.obj
 0002:00002ea0       ?__POW10_OFFSET@std@@3QBGB 000000014009fea0     Crinkler.obj
 0002:00002f20       ?__POW10_OFFSET_2@std@@3QBGB 000000014009ff20     Crinkler.obj
 0002:00002fb0       ?__MIN_BLOCK_2@std@@3QBEB  000000014009ffb0     Crinkler.obj
 0002:00003000       ?__FLOAT_POW5_INV_SPLIT@std@@3QB_KB 00000001400a0000     Crinkler.obj
 0002:00003100       ?__FLOAT_POW5_SPLIT@std@@3QB_KB 00000001400a0100     Crinkler.obj
 0002:00003278       ?_Charconv_digits@std@@3QBDB 00000001400a0278     Crinkler.obj
 0002:000032a0       ??_C@_0EO@IIGPOHCI@?6label?5name?5?5?5?5?5?5?5?5?5?5?5?5?5?5?5?5?5?5?5?5@ 00000001400a02a0     Crinkler.obj
 0002:000032f0       ??_C@_09GCOFNFBD@?6?$CF?938?438s@ 00000001400a02f0     Crinkler.obj
 0002:00003300       ??_C@_0L@EJPFMDN@?5?5?$CF?936?436s@ 00000001400a0300     Crinkler.obj
 0002:00003310       ??_C@_0N@IFGPEODL@?5?5?5?5?$CF?934?434s@ 00000001400a0310     Crinkler.obj
 0002:00003320       ??_C@_0P@MKLNNCLH@?5?5?5?5?5?5?$CF?932?432s@ 00000001400a0320     Crinkler.obj
 0002:00003330       ??_C@_0BG@KFLHGOHD@?5?$CF9d?5?$CF8?42f?5?$CF9d?5?$CF8?42f?6@ 00000001400a0330     Crinkler.obj
 0002:00003348       ??_C@_0BD@KKHBGNDD@?5?$CF9d?5?5?5?5?5?5?5?5?5?5?$CF9d?6@ 00000001400a0348     Crinkler.obj
 0002:00003360       ??_C@_0DD@LEHFPLCL@Input?5file?5is?5not?5a?5Crinkler?5co@ 00000001400a0360     Crinkler.obj
 0002:00003398       ??_C@_0DC@IODJPMBD@No?5functions?5were?5imported?5from@ 00000001400a0398     Crinkler.obj
 0002:000033d0       ??_C@_0BG@DDBEBGFF@Unsupported?5file?5type@ 00000001400a03d0     Crinkler.obj
 0002:000033e8       ??_C@_06HOGKBANE@__imp_@   00000001400a03e8     Crinkler.obj
 0002:000033f0       ??_C@_06EGGDDPIF@msvcrt@   00000001400a03f0     Crinkler.obj
 0002:000033f8       ??_C@_07OKPPBOMK@runtime@  00000001400a03f8     Crinkler.obj
 0002:00003400       ??_C@_0P@IFCHICC@mainCRTStartup@ 00000001400a0400     Crinkler.obj
 0002:00003410       ??_C@_0BC@EOMPAEPF@WinMainCRTStartup@ 00000001400a0410     Crinkler.obj
 0002:00003428       ??_C@_0DG@PPIGIGJC@Cannot?5find?5entry?5point?5?8?$CFs?8?4?5S@ 00000001400a0428     Crinkler.obj
 0002:00003460       ??_C@_0DE@MIMMHEBG@Entry?5point?5not?5at?5start?5of?5sec@ 00000001400a0460     Crinkler.obj
 0002:000034a0       ??_C@_0EF@MFKDHEAK@Cannot?5create?5integer?5symbol?5?8?$CF@ 00000001400a04a0     Crinkler.obj
 0002:000034f0       ??_C@_0FA@JCIGHBGI@Uninitialized?5hunk?5?8?$CFs?8?5forced?5@ 00000001400a04f0     Crinkler.obj
 0002:00003540       ??_C@_0DI@CNEFPJKN@Cannot?5find?5symbol?5?8?$CFs?8?5to?5be?5e@ 00000001400a0540     Crinkler.obj
 0002:00003578       ??_C@_0BG@CEHDACLH@__imp__LoadLibraryA?$EA4@ 00000001400a0578     Crinkler.obj
 0002:00003590       ??_C@_0BG@OOEFHEAN@__imp__MessageBoxA?$EA16@ 00000001400a0590     Crinkler.obj
 0002:000035a8       ??_C@_0BG@HEPCMGPN@__DynamicInitializers@ 00000001400a05a8     Crinkler.obj
 0002:000035c0       ??_C@_0BA@FDKAKDDE@Crinkler?5import@ 00000001400a05c0     Crinkler.obj
 0002:000035d0       ??_C@_0DC@FIIPFMOE@DLL?5fallback?5cannot?5be?5used?5wit@ 00000001400a05d0     Crinkler.obj
 0002:00003604       ??_C@_06FEMFHOOG@models@   00000001400a0604     Crinkler.obj
 0002:00003610       ??_C@_07OPDAKGAH@_Models@  00000001400a0610     Crinkler.obj
 0002:00003618       ??_C@_0BL@IFJFKOOO@Optimizing?5hash?5table?5size@ 00000001400a0618     Crinkler.obj
 0002:00003638       ??_C@_0BE@GNEDJFBJ@Reestimating?5models@ 00000001400a0638     Crinkler.obj
 0002:00003650       ??_C@_0BC@BCDNBDNA@Estimating?5models@ 00000001400a0650     Crinkler.obj
 0002:00003668       ??_C@_0CC@KFFHMKOA@?6Estimated?5compressed?5size?3?5?$CF?42@ 00000001400a0668     Crinkler.obj
 0002:00003690       ??_C@_0N@HMPKBJOB@Reestimating@ 00000001400a0690     Crinkler.obj
 0002:000036a0       ??_C@_0L@EHLCPIHK@Estimating@ 00000001400a06a0     Crinkler.obj
 0002:000036b0       ??_C@_0BB@HJPGHLBC@?$CFs?5models?5for?5?$CFs@ 00000001400a06b0     Crinkler.obj
 0002:000036c8       ??_C@_08IBBAJKND@Models?3?5@ 00000001400a06c8     Crinkler.obj
 0002:000036d8       ??_C@_0CH@DNLMFIDK@Estimated?5compressed?5size?5of?5?$CFs@ 00000001400a06d8     Crinkler.obj
 0002:00003708       ??_C@_0N@MGHBILEJ@_SaturatePtr@ 00000001400a0708     Crinkler.obj
 0002:00003718       ??_C@_0BE@NNIAIJGH@_SaturateAdjust1Ptr@ 00000001400a0718     Crinkler.obj
 0002:00003730       ??_C@_0BE@JKCAPDLH@_SaturateAdjust2Ptr@ 00000001400a0730     Crinkler.obj
 0002:00003748       ??_C@_0O@OJGJCEJN@_UnpackedData@ 00000001400a0748     Crinkler.obj
 0002:00003758       ??_C@_0L@FFEALDGL@_ImageBase@ 00000001400a0758     Crinkler.obj
 0002:00003768       ??_C@_0BC@PHINPHPA@_SubsystemTypePtr@ 00000001400a0768     Crinkler.obj
 0002:00003780       ??_C@_0BC@HOOJKFJG@_LinkerVersionPtr@ 00000001400a0780     Crinkler.obj
 0002:00003798       ??_C@_0BE@OLEHLOAM@_CharacteristicsPtr@ 00000001400a0798     Crinkler.obj
 0002:000037b0       ??_C@_0BI@GHKIELLA@_VirtualSizeHighBytePtr@ 00000001400a07b0     Crinkler.obj
 0002:000037c8       ??_C@_0L@JGPOMPEN@_ModelMask@ 00000001400a07c8     Crinkler.obj
 0002:000037d8       ??_C@_0O@JBGLDBBJ@_BaseProbPtr0@ 00000001400a07d8     Crinkler.obj
 0002:000037e8       ??_C@_0O@IIHAAAFI@_BaseProbPtr1@ 00000001400a07e8     Crinkler.obj
 0002:000037f8       ??_C@_0BA@LINMPMMD@_BoostFactorPtr@ 00000001400a07f8     Crinkler.obj
 0002:00003808       ??_C@_0BG@DHCAILAC@_DepackEndPositionPtr@ 00000001400a0808     Crinkler.obj
 0002:00003820       ??_C@_0P@OPAMMGEP@_HashTableSize@ 00000001400a0820     Crinkler.obj
 0002:00003830       ??_C@_0N@LHGLKDGG@_VirtualSize@ 00000001400a0830     Crinkler.obj
 0002:00003840       ??_C@_0N@CJIELOOC@_BaseProbPtr@ 00000001400a0840     Crinkler.obj
 0002:00003850       ??_C@_0O@JDOFCFPM@_ModelSkipPtr@ 00000001400a0850     Crinkler.obj
 0002:00003860       ??_C@_0BD@ILPGCFPF@_ExportTableRVAPtr@ 00000001400a0860     Crinkler.obj
 0002:00003878       ??_C@_0BM@MAJEAMPE@_NumberOfDataDirectoriesPtr@ 00000001400a0878     Crinkler.obj
 0002:00003898       ??_C@_0N@ICHFCMMK@_SpareNopPtr@ 00000001400a0898     Crinkler.obj
 0002:000038b0       ??_C@_0N@MEMPKFID@?$CFs?5size?3?5?$CFd?6@ 00000001400a08b0     Crinkler.obj
 0002:00003910       ??_C@_0BO@CHPKKLLL@Part?5?8?$CFs?8?5is?5larger?5than?564k?4@ 00000001400a0910     Crinkler.obj
 0002:00003930       ??_C@_02GMLFBBN@wb@        00000001400a0930     Crinkler.obj
 0002:00003938       ??_C@_0BN@MCNEOMMD@Cannot?5open?5?8?$CFs?8?5for?5writing@ 00000001400a0938     Crinkler.obj
 0002:00003960       ??_C@_0FI@NJAHGNDF@File?5compressed?5using?5a?5pre?91?44@ 00000001400a0960     Crinkler.obj
 0002:000039b8       ??_C@_0DO@FOPHLFC@File?5compressed?5or?5recompressed@ 00000001400a09b8     Crinkler.obj
 0002:00003a00       ??_C@_0EI@DEFEKIEP@Only?5files?5compressed?5using?5Cri@ 00000001400a0a00     Crinkler.obj
 0002:00003a48       ??_C@_06NKLGLLAF@Part?$CFd@ 00000001400a0a48     Crinkler.obj
 0002:00003a50       ??_C@_04BCJPDBDA@Code@     00000001400a0a50     Crinkler.obj
 0002:00003a58       ??_C@_04DICKPMGH@Data@     00000001400a0a58     Crinkler.obj
 0002:00003a60       ??_C@_0BI@OKGMBMBC@Original?5file?5size?3?5?$CFd?6@ 00000001400a0a60     Crinkler.obj
 0002:00003a78       ??_C@_03IPHJCBHH@YES@      00000001400a0a78     Crinkler.obj
 0002:00003a7c       ??_C@_02NFLNFON@NO@        00000001400a0a7c     Crinkler.obj
 0002:00003a80       ??_C@_0BK@PBNIFJCJ@Original?5Tiny?5Header?3?5?$CFs?6@ 00000001400a0a80     Crinkler.obj
 0002:00003aa0       ??_C@_0BL@POODLHIC@Original?5Virtual?5size?3?5?$CFd?6@ 00000001400a0aa0     Crinkler.obj
 0002:00003ac0       ??_C@_07PCJELJIA@CONSOLE@  00000001400a0ac0     Crinkler.obj
 0002:00003ac8       ??_C@_07LHJOABLP@WINDOWS@  00000001400a0ac8     Crinkler.obj
 0002:00003ad0       ??_C@_0BN@INIKNHFJ@Original?5Subsystem?5type?3?5?$CFs?6@ 00000001400a0ad0     Crinkler.obj
 0002:00003af0       ??_C@_0CC@JOKGDBN@Original?5Large?5address?5aware?3?5?$CF@ 00000001400a0af0     Crinkler.obj
 0002:00003b18       ??_C@_07HIMJODOE@INSTANT@  00000001400a0b18     Crinkler.obj
 0002:00003b20       ??_C@_09JMLMCKLI@FAST?1SLOW@ 00000001400a0b20     Crinkler.obj
 0002:00003b30       ??_C@_0BD@HHJOLBIO@FAST?1SLOW?1VERYSLOW@ 00000001400a0b30     Crinkler.obj
 0002:00003b48       ??_C@_0BP@PHKHPGPG@Original?5Compression?5mode?3?5?$CFs?6@ 00000001400a0b48     Crinkler.obj
 0002:00003b68       ??_C@_0CA@OGCPPCPK@Original?5Saturate?5counters?3?5?$CFs?6@ 00000001400a0b68     Crinkler.obj
 0002:00003b88       ??_C@_0BI@LBFLFGMO@Original?5Hash?5size?3?5?$CFd?6@ 00000001400a0b88     Crinkler.obj
 0002:00003ba0       ??_C@_0BA@NNKFBPCH@Total?5size?3?5?$CFd?6@ 00000001400a0ba0     Crinkler.obj
 0002:00003bb0       ??_C@_01EEMJAFIK@?6@       00000001400a0bb0     Crinkler.obj
 0002:00003bb8       ??_C@_0CI@KPJIGMFP@Failed?5to?5write?5to?5temporary?5fi@ 00000001400a0bb8     Crinkler.obj
 0002:00003be0       ??_C@_0EI@NCGMDOCI@Program?5was?5been?5unresponsive?5f@ 00000001400a0be0     Crinkler.obj
 0002:00003c28       ??_C@_0BP@LNKNKJE@Failed?5to?5read?5process?5memory?6@ 00000001400a0c28     Crinkler.obj
 0002:00003c48       ??_C@_0DA@NFHCLMBL@Call?5transformation?5code?5succes@ 00000001400a0c48     Crinkler.obj
 0002:00003c78       ??_C@_0DC@MHPCDMEN@Call?5transformation?5code?5does?5n@ 00000001400a0c78     Crinkler.obj
 0002:00003cb0       ??_C@_0CD@ICCCFOGO@Import?5code?5successfully?5patche@ 00000001400a0cb0     Crinkler.obj
 0002:00003cd8       ??_C@_0CF@NLLOGFPK@Import?5code?5does?5not?5need?5patch@ 00000001400a0cd8     Crinkler.obj
 0002:00003d00       ??_C@_0CG@HODDPGIK@Cannot?5find?5old?5import?5code?5to?5@ 00000001400a0d00     Crinkler.obj
 0002:00003d28       ??_C@_06OENKJGA@Header@    00000001400a0d28     Crinkler.obj
 0002:00003d30       ??_C@_0BA@MLAJHKNA@crinkler?5header@ 00000001400a0d30     Crinkler.obj
 0002:00003d40       ??_C@_07LFLIHBIB@_header@  00000001400a0d40     Crinkler.obj
 0002:00003d48       ??_C@_0N@JCFBFJEN@_DepackEntry@ 00000001400a0d48     Crinkler.obj
 0002:00003d58       ??_C@_06IENGEGME@linked@   00000001400a0d58     Crinkler.obj
 0002:00003d60       ??_C@_0BC@MDEKNPLM@Original?5Exports?3@ 00000001400a0d60     Crinkler.obj
 0002:00003d74       ??_C@_06LFKKDFDG@?5NONE?6@ 00000001400a0d74     Crinkler.obj
 0002:00003d80       ??_C@_0BD@POLNKHED@Resulting?5Exports?3@ 00000001400a0d80     Crinkler.obj
 0002:00003d98       ??_C@_0BD@DOBHADI@?6Recompressing?4?4?4?6@ 00000001400a0d98     Crinkler.obj
 0002:00003db0       ??_C@_0CA@LJCOCBA@Real?5compressed?5total?5size?3?5?$CFd?6@ 00000001400a0db0     Crinkler.obj
 0002:00003dd0       ??_C@_0DM@LILMGLD@Real?5compressed?5total?5size?3?5?$CFd?6@ 00000001400a0dd0     Crinkler.obj
 0002:00003e10       ??_C@_08KJPILKIK@HashHunk@ 00000001400a0e10     Crinkler.obj
 0002:00003e20       ??_C@_0BC@PJLJMEGM@?6Output?5file?3?5?$CFs?6@ 00000001400a0e20     Crinkler.obj
 0002:00003e38       ??_C@_0BG@GMCEEDPD@Final?5file?5size?3?5?$CFd?6?6@ 00000001400a0e38     Crinkler.obj
 0002:00003e50       ??_C@_07JBHCGDOG@CRT$XCU@  00000001400a0e50     Crinkler.obj
 0002:00003e58       ??_C@_0BK@HIDPJJNF@dynamic?5initializer?5calls@ 00000001400a0e58     Crinkler.obj
 0002:00003e74       ??_C@_01LKDEMHDF@s@        00000001400a0e74     Crinkler.obj
 0002:00003e78       ??_C@_0CF@POMNDHLE@?6Included?5?$CFd?5dynamic?5initialize@ 00000001400a0e78     Crinkler.obj
 0002:00003ea0       ??_C@_03DKEJHHJP@?$CFs?3@  00000001400a0ea0     Crinkler.obj
 0002:00003ea8       ??_C@_0CA@POHDLCKM@?6Uncompressed?5size?5of?5?$CF?9?$CKs?5?$CF10d@ 00000001400a0ea8     Crinkler.obj
 0002:00003ed0       ??_C@_0EN@EJMEEKAJ@Part?5?8?$CFs?8?5is?5larger?5than?564k?4?5S@ 00000001400a0ed0     Crinkler.obj
 0002:00003f20       ??_C@_02JDPG@rb@           00000001400a0f20     Crinkler.obj
 0002:00003f28       ??_C@_0CI@HJBACJIM@Forced?5alignment?5of?5?$CFd?5code?5hun@ 00000001400a0f28     Crinkler.obj
 0002:00003f50       ??_C@_0BJ@EIILJABG@?5?$CIincluding?5entry?5point?$CJ@ 00000001400a0f50     Crinkler.obj
 0002:00003f6c       ??_C@_02MIICKFIN@?4?6@     00000001400a0f6c     Crinkler.obj
 0002:00003f70       ??_C@_07PFJDOKIE@_Import@  00000001400a0f70     Crinkler.obj
 0002:00003f78       ??_C@_0N@FBKGGDDM@___ImageBase@ 00000001400a0f78     Crinkler.obj
 0002:00003f88       ??_C@_0O@KPKOFKBN@_HashShiftPtr@ 00000001400a0f88     Crinkler.obj
 0002:00003f98       ??_C@_0BC@IAIHMGGJ@_MaxNameLengthPtr@ 00000001400a0f98     Crinkler.obj
 0002:00003fb0       ??_C@_0BF@CBKPDHJG@?6Truncating?5floats?3?6@ 00000001400a0fb0     Crinkler.obj
 0002:00003fc8       ??_C@_0BG@LKKDCDLE@?6Read?5reuse?5file?3?5?$CFs?6@ 00000001400a0fc8     Crinkler.obj
 0002:00003fe0       ??_C@_0BK@PFFKFBHM@?6Selected?5reuse?5mode?3?5?$CFs?6@ 00000001400a0fe0     Crinkler.obj
 0002:00004000       ??_C@_0BF@KCEFILFM@Total?5text?5size?3?5?$CFd?6@ 00000001400a1000     Crinkler.obj
 0002:00004018       ??_C@_04OJAHODMC@Text@     00000001400a1018     Crinkler.obj
 0002:00004020       ??_C@_0O@HNBJOJF@_HeaderHashes@ 00000001400a1020     Crinkler.obj
 0002:00004030       ??_C@_0CJ@NLPNCFIN@?6File?5size?5with?5reuse?5configura@ 00000001400a1030     Crinkler.obj
 0002:00004060       ??_C@_0BI@FCFMOAJL@Writing?5reuse?5file?3?5?$CFs?6@ 00000001400a1060     Crinkler.obj
 0002:00004078       ??_C@_0BM@FCHBMHDD@Overwriting?5reuse?5file?3?5?$CFs?6@ 00000001400a1078     Crinkler.obj
 0002:00004098       ??_C@_0P@PNPOMFP@File?5size?3?5?$CFd?6@ 00000001400a1098     Crinkler.obj
 0002:000040a8       ??_C@_0CD@PDAEFAGN@Reverting?5to?5reuse?5configuratio@ 00000001400a10a8     Crinkler.obj
 0002:000040d0       ??_C@_0BJ@DPGLFJGN@Updating?5reuse?5file?3?5?$CFs?6@ 00000001400a10d0     Crinkler.obj
 0002:000040f0       ??_C@_0BI@BGOMJCBO@Keeping?5reuse?5file?3?5?$CFs?6@ 00000001400a10f0     Crinkler.obj
 0002:00004108       ??_C@_0BE@DENNAEKC@Final?5file?5size?3?5?$CFd@ 00000001400a1108     Crinkler.obj
 0002:00004120       ??_C@_0BE@PMPKMAM@?5?$CIprevious?5size?5?$CFd?$CJ@ 00000001400a1120     Crinkler.obj
 0002:00004138       ??_C@_0N@FCELNGHN@?5?$CIno?5change?$CJ@ 00000001400a1138     Crinkler.obj
 0002:00004148       ??_C@_02PHMGELLB@?6?6@     00000001400a1148     Crinkler.obj
 0002:00004150       ??_C@_0FD@EJBLHGJD@Output?5file?5too?5big?4?5Crinkler?5d@ 00000001400a1150     Crinkler.obj
 0002:000041a8       ??_C@_0CD@DKJMFEJL@Ideal?5compressed?5size?5of?5?$CFs?3?5?$CF?4@ 00000001400a11a8     Crinkler.obj
 0002:000041d0       ??_C@_0CD@IJLCADMF@Ideal?5compressed?5total?5size?3?5?$CF?4@ 00000001400a11d0     Crinkler.obj
 0002:000041f8       ??_C@_0BA@IJGCHEFD@compressed?5data@ 00000001400a11f8     Crinkler.obj
 0002:00004208       ??_C@_0M@CPCNJFIA@_PackedData@ 00000001400a1208     Crinkler.obj
 0002:00004218       ??_C@_0L@NIOIKHIB@_HashTable@ 00000001400a1218     Crinkler.obj
 0002:00004224       ??_C@_05FPBGKCKL@final@    00000001400a1224     Crinkler.obj
 0002:00004230       ??_C@_0N@EKLEAHGF@_ExportTable@ 00000001400a1230     Crinkler.obj
 0002:00004240       ??_C@_0CA@EOADLFNL@Unmatched?5?8?$HN?8?5in?5format?5string?4@ 00000001400a1240     Crinkler.obj
 0002:00004260       ??_C@_0BH@MCHHCMKF@Invalid?5format?5string?4@ 00000001400a1260     Crinkler.obj
 0002:00004278       ??_C@_0BK@NMCHMIGI@Unknown?5format?5specifier?4@ 00000001400a1278     Crinkler.obj
 0002:00004298       ??_C@_0BO@FFAGMLDI@Missing?5?8?$HN?8?5in?5format?5string?4@ 00000001400a1298     Crinkler.obj
 0002:000042b8       ??_C@_0DB@GIGELLBG@Can?5not?5switch?5from?5manual?5to?5a@ 00000001400a12b8     Crinkler.obj
 0002:000042f0       ??_C@_0BL@KNEDAEPA@invalid?5fill?5character?5?8?$HL?8@ 00000001400a12f0     Crinkler.obj
 0002:00004310       ??_C@_0DH@FFGBOAOP@Format?5specifier?5requires?5numer@ 00000001400a1310     Crinkler.obj
 0002:00004348       ??_C@_0BC@JOAOKPFE@Number?5is?5too?5big@ 00000001400a1348     Crinkler.obj
 0002:00004360       ??_C@_0BM@ONFDPAFF@Invalid?5type?5specification?4@ 00000001400a1360     Crinkler.obj
 0002:00004380       ??_C@_0CE@OLPMMFCN@Invalid?5presentation?5type?5speci@ 00000001400a1380     Crinkler.obj
 0002:000043a8       ??_C@_0CD@PLBGEFIO@Invalid?5presentation?5type?5for?5b@ 00000001400a13a8     Crinkler.obj
 0002:000043d0       ??_C@_0CD@IFHOEGFC@Invalid?5presentation?5type?5for?5c@ 00000001400a13d0     Crinkler.obj
 0002:000043f8       ??_C@_0CG@PIIJGCKO@Invalid?5presentation?5type?5for?5i@ 00000001400a13f8     Crinkler.obj
 0002:00004420       ??_C@_0CN@EEOMCCM@Invalid?5presentation?5type?5for?5f@ 00000001400a1420     Crinkler.obj
 0002:00004450       ??_C@_0CF@MMFFCGKF@Invalid?5presentation?5type?5for?5s@ 00000001400a1450     Crinkler.obj
 0002:00004478       ??_C@_0CG@LHDOJLDP@Invalid?5presentation?5type?5for?5p@ 00000001400a1478     Crinkler.obj
 0002:000044a0       ??_C@_0DM@LDJDLGDF@Hash?1sign?5modifier?5requires?5an?5@ 00000001400a14a0     Crinkler.obj
 0002:000044e0       ??_C@_0EC@JCIMBFLB@Zero?5modifier?5requires?5an?5arith@ 00000001400a14e0     Crinkler.obj
 0002:00004528       ??_C@_0P@IHBBLECK@?5?1SUBSYSTEM?3?$HL?$HN@ 00000001400a1528     Crinkler.obj
 0002:00004538       ??_C@_0BE@HCHGHOKI@?5?1LARGEADDRESSAWARE@ 00000001400a1538     Crinkler.obj
 0002:00004550       ??_C@_0L@PKNMFOCD@?5?1ENTRY?3?$HL?$HN@ 00000001400a1550     Crinkler.obj
 0002:00004560       ??_C@_0N@HIOJGKBK@?5?1TINYHEADER@ 00000001400a1560     Crinkler.obj
 0002:00004570       ??_C@_0N@PHHPMIID@?5?1TINYIMPORT@ 00000001400a1570     Crinkler.obj
 0002:00004580       ??_C@_0O@DFNHPAEP@?5?1COMPMODE?3?$HL?$HN@ 00000001400a1580     Crinkler.obj
 0002:00004590       ??_C@_0L@OEDOMGG@?5?1SATURATE@ 00000001400a1590     Crinkler.obj
 0002:000045a0       ??_C@_0O@LHBFLLN@?5?1HASHSIZE?3?$HL?$HN@ 00000001400a15a0     Crinkler.obj
 0002:000045b0       ??_C@_0P@IPMLCJOA@?5?1HASHTRIES?3?$HL?$HN@ 00000001400a15b0     Crinkler.obj
 0002:000045c0       ??_C@_0BA@BLPNPONO@?5?1ORDERTRIES?3?$HL?$HN@ 00000001400a15c0     Crinkler.obj
 0002:000045d0       ??_C@_0L@NOPIEJBM@?5?1RANGE?3?$HL?$HN@ 00000001400a15d0     Crinkler.obj
 0002:000045e0       ??_C@_0BD@HKGPACGO@?5?1REPLACEDLL?3?$HL?$HN?$DN?$HL?$HN@ 00000001400a15e0     Crinkler.obj
 0002:000045f8       ??_C@_0BE@OINDMCPO@?5?1FALLBACKDLL?3?$HL?$HN?$DN?$HL?$HN@ 00000001400a15f8     Crinkler.obj
 0002:00004610       ??_C@_0P@ICOBEDKN@?5?1UNSAFEIMPORT@ 00000001400a1610     Crinkler.obj
 0002:00004620       ??_C@_0BC@KBCEAEFB@?5?1TRANSFORM?3CALLS@ 00000001400a1620     Crinkler.obj
 0002:00004638       ??_C@_0BE@NCIFDFHO@?5?1TRUNCATEFLOATS?3?$HL?$HN@ 00000001400a1638     Crinkler.obj
 0002:00004650       ??_C@_0BF@FFKAOPNO@?5?1OVERRIDEALIGNMENTS@ 00000001400a1650     Crinkler.obj
 0002:00004668       ??_C@_03IDBILICM@?3?$HL?$HN@ 00000001400a1668     Crinkler.obj
 0002:00004670       ??_C@_0O@LKIDOONL@?5?1UNALIGNCODE@ 00000001400a1670     Crinkler.obj
 0002:00004680       ??_C@_0BB@FDEOEGKP@?5?1NOINITIALIZERS@ 00000001400a1680     Crinkler.obj
 0002:00004698       ??_C@_0BF@PLFJOCBF@?5?1EXPORT?3?$HL?$HN?$DN0x?$HL?308X?$HN@ 00000001400a1698     Crinkler.obj
 0002:000046b0       ??_C@_0M@OHFBIJN@?5?1EXPORT?3?$HL?$HN@ 00000001400a16b0     Crinkler.obj
 0002:000046c0       ??_C@_0P@JHMLJGDB@?5?1EXPORT?3?$HL?$HN?$DN?$HL?$HN@ 00000001400a16c0     Crinkler.obj
 0002:000046d0       ??_C@_03OJHLLCGB@inf@      00000001400a16d0     Crinkler.obj
 0002:000046d8       ??_C@_08OFCDMILK@nan?$CIind?$CJ@ 00000001400a16d8     Crinkler.obj
 0002:000046e4       ??_C@_03LHCJEHON@nan@      00000001400a16e4     Crinkler.obj
 0002:000046e8       ??_C@_09IPFBKMDL@nan?$CIsnan?$CJ@ 00000001400a16e8     Crinkler.obj
 0002:000046f8       ??_C@_0BN@CAABEHAA@Missing?5precision?5specifier?4@ 00000001400a16f8     Crinkler.obj
 0002:00004718       ??_C@_0BJ@FNNNKMGD@Invalid?5fill?5?$CItoo?5long?$CJ?4@ 00000001400a1718     Crinkler.obj
 0002:000049d8       ??_C@_0CM@EFKJINMJ@Format?5specifier?5requires?5numer@ 00000001400a19d8     Crinkler.obj
 0002:00004a08       ??_C@_0DB@FGJJGOLD@Can?5not?5switch?5from?5automatic?5t@ 00000001400a1a08     Crinkler.obj
 0002:00004a3c       ??_C@_05JHILFKJA@0e?$CL00@ 00000001400a1a3c     Crinkler.obj
 0002:00004aa8       ??_C@_05EJCIBGJD@_Step@    00000001400a1aa8     Crinkler.obj
 0002:00004ab0       ??_7?$_Fmt_iterator_buffer@V?$back_insert_iterator@V?$vector@DV?$allocator@D@std@@@std@@@std@@DU_Fmt_buffer_traits@2@@std@@6B@ 00000001400a1ab0     Crinkler.obj
 0002:00004ab8       ??_C@_0CO@ILLNLEBH@Precision?5not?5allowed?5for?5this?5@ 00000001400a1ab8     Crinkler.obj
 0002:00004ae8       ?_Adjustment@?CB@???$__to_chars@D@std@@YA?AU?$pair@PEADW4errc@std@@@1@QEAD0U__floating_decimal_32@1@W4chars_format@1@II@Z@4QBEB 00000001400a1ae8     Crinkler.obj
 0002:00004b10       ?_Max_shifted_mantissa@?DC@???$__to_chars@D@std@@YA?AU?$pair@PEADW4errc@std@@@1@QEAD0U__floating_decimal_32@1@W4chars_format@1@II@Z@4QBIB 00000001400a1b10     Crinkler.obj
 0002:00004b40       ?_Adjustment@?CB@???$__to_chars@D@std@@YA?AU?$pair@PEADW4errc@std@@@1@QEAD0U__floating_decimal_64@1@W4chars_format@1@N@Z@4QBEB 00000001400a1b40     Crinkler.obj
 0002:00004c80       ?_Max_shifted_mantissa@?DC@???$__to_chars@D@std@@YA?AU?$pair@PEADW4errc@std@@@1@QEAD0U__floating_decimal_64@1@W4chars_format@1@N@Z@4QB_KB 00000001400a1c80     Crinkler.obj
 0002:00004d38       ??_C@_0BA@FOIKENOD@vector?5too?5long@ 00000001400a1d38     Crinkler.obj
 0002:00004d50       ??_C@_0BE@JHBJMIJI@Argument?5not?5found?4@ 00000001400a1d50     Crinkler.obj
 0002:00004d68       ??_C@_0BI@KLAHEKGE@String?5pointer?5is?5null?4@ 00000001400a1d68     Crinkler.obj
 0002:00004d80       ??_C@_0CC@OGKFJOLL@integral?5cannot?5be?5stored?5in?5ch@ 00000001400a1d80     Crinkler.obj
 0002:00004da4       ??_C@_02HDBOMKFI@0b@       00000001400a1da4     Crinkler.obj
 0002:00004da8       ??_C@_02OGJKOOPK@0B@       00000001400a1da8     Crinkler.obj
 0002:00004dac       ??_C@_02MDDDDAID@0x@       00000001400a1dac     Crinkler.obj
 0002:00004db0       ??_C@_02FGLHBECB@0X@       00000001400a1db0     Crinkler.obj
 0002:00004db4       ??_C@_01GBGANLPD@0@        00000001400a1db4     Crinkler.obj
 0002:00004db8       ??_C@_0BD@GHJPJCGO@Number?5is?5too?5big?4@ 00000001400a1db8     Crinkler.obj
 0002:00004dd0       ??_C@_0BJ@FLMOJPKL@Width?5is?5not?5an?5integer?4@ 00000001400a1dd0     Crinkler.obj
 0002:00004df0       ??_C@_0BA@INGMONDA@Negative?5width?4@ 00000001400a1df0     Crinkler.obj
 0002:00004e00       ??_C@_0BN@DNNEEKIC@Precision?5is?5not?5an?5integer?4@ 00000001400a1e00     Crinkler.obj
 0002:00004e20       ??_C@_0BE@DEGOCOHL@Negative?5precision?4@ 00000001400a1e20     Crinkler.obj
 0002:00004e34       __real@3a000000            00000001400a1e34     Crinkler.obj
 0002:00004e38       __real@3f800000            00000001400a1e38     Crinkler.obj
 0002:00004e40       __real@3ff0000000000000    00000001400a1e40     Crinkler.obj
 0002:00004e50       __xmm@000000000000000f0000000000000000 00000001400a1e50     Crinkler.obj
 0002:00004e60       __xmm@000000000000000f0000000000000001 00000001400a1e60     Crinkler.obj
 0002:00004e70       __xmm@000000000000000f0000000000000006 00000001400a1e70     Crinkler.obj
 0002:00004e80       __xmm@7fffffff7fffffff7fffffff7fffffff 00000001400a1e80     Crinkler.obj
 0002:00004e90       __xmm@7fffffffffffffff7fffffffffffffff 00000001400a1e90     Crinkler.obj
 0002:00004ea0       ??_C@_07KCLLBNKA@Exports@  00000001400a1ea0     Export.obj
 0002:00004ea8       ??_C@_06NOPGBFOL@EXPORT@   00000001400a1ea8     Export.obj
 0002:00004eb0       ??_C@_07FLMNHPPG@exports@  00000001400a1eb0     Export.obj
 0002:00004eb8       ??_C@_0BB@OIHPIFOC@_ExportAddresses@ 00000001400a1eb8     Export.obj
 0002:00004ed0       ??_C@_0N@KDNDLIJG@_ExportNames@ 00000001400a1ed0     Export.obj
 0002:00004ee0       ??_C@_0BA@JDHIBPDI@_ExportOrdinals@ 00000001400a1ee0     Export.obj
 0002:00004ef0       ??_C@_0N@JKOCNDDI@_ExportName_@ 00000001400a1ef0     Export.obj
 0002:00004f00       ??_C@_0P@ILNLDLO@?5?5?$CFs?5?$DN?50x?$CF08X?6@ 00000001400a1f00     Export.obj
 0002:00004f10       ??_C@_05LDOEBFOB@?5?5?$CFs?6@ 00000001400a1f10     Export.obj
 0002:00004f18       ??_C@_0M@OJMEEIGH@?5?5?$CFs?5?9?$DO?5?$CFs?6@ 00000001400a1f18     Export.obj
 0002:00004f30       __xmm@000000000000000f000000000000000c 00000001400a1f30     Export.obj
 0002:00004f40       __xmm@000000000000000f000000000000000f 00000001400a1f40     Export.obj
 0002:00004f50       __xmm@000000000000001f0000000000000010 00000001400a1f50     Export.obj
 0002:00004f60       ??_C@_0LD@IEFAPPNG@?6?$DM?$CBDOCTYPE?5HTML?5PUBLIC?5?$CC?9?1?1W3C?1@ 00000001400a1f60     HtmlReport.obj
 0002:00005020       ??_C@_0BMFE@HGOPFPK@?6function?5collapse?$CIel?$CJ?5?$HL?6?7el?4st@ 00000001400a2020     HtmlReport.obj
 0002:00006c80       ??_C@_0JKI@MCJHODMM@?6?$DMstyle?5type?$DN?8text?1css?8?$DO?6body?$HL?6@ 00000001400a3c80     HtmlReport.obj
 0002:00007630       ??_C@_0CPN@EKFJPDNO@?6?$DMa?5id?$DN?8state_1?8?5href?$DN?8?$CD?8?5oncli@ 00000001400a4630     HtmlReport.obj
 0002:00007930       ??_C@_0JB@KJGHGDDO@?6?$DM?1table?$DO?6?$DMp?$DO?$DMa?5href?$DN?8http?3?1?1cr@ 00000001400a4930     HtmlReport.obj
 0002:000079d0       ??_C@_03NKBOLEBK@0?41@     00000001400a49d0     HtmlReport.obj
 0002:000079d4       ??_C@_03LOHCHBBO@0?45@     00000001400a49d4     HtmlReport.obj
 0002:000079d8       ??_C@_01HIHLOKLC@1@        00000001400a49d8     HtmlReport.obj
 0002:000079dc       ??_C@_01FDFGLJHB@2@        00000001400a49dc     HtmlReport.obj
 0002:000079e0       ??_C@_01EKENIIDA@3@        00000001400a49e0     HtmlReport.obj
 0002:000079e4       ??_C@_01BMBHCPLG@5@        00000001400a49e4     HtmlReport.obj
 0002:000079e8       ??_C@_01COCBENDE@7@        00000001400a49e8     HtmlReport.obj
 0002:000079ec       ??_C@_01LAKCGALK@9@        00000001400a49ec     HtmlReport.obj
 0002:000079f0       ??_C@_02MIGHPNDL@12@       00000001400a49f0     HtmlReport.obj
 0002:000079f8       ??_C@_08MCGACOPD@a?5lot?5of@ 00000001400a49f8     HtmlReport.obj
 0002:00007a08       ??_C@_07DCLBNMLN@generic@  00000001400a4a08     HtmlReport.obj
 0002:00007a10       ??_7_System_error_category@std@@6B@ 00000001400a4a10     HtmlReport.obj
 0002:00007a40       ??_C@_06FHFOAHML@system@   00000001400a4a40     HtmlReport.obj
 0002:00007a48       ?_Unknown_error@?6??message@_System_error_category@std@@UEBA?AV?$basic_string@DU?$char_traits@D@std@@V?$allocator@D@2@@3@H@Z@4QBDB 00000001400a4a48     HtmlReport.obj
 0002:00007a58       ??_C@_0BN@OOLJICIM@?$DMtd?5byte?9spacing?$DO?$CGnbsp?$DL?$DM?1td?$DO@ 00000001400a4a58     HtmlReport.obj
 0002:00007a78       ??_C@_0DH@NFCKPLKJ@?$DMtd?5class?$DN?8sc?$HL?$HN?8?5name?$DN?8byte?8?5by@ 00000001400a4a78     HtmlReport.obj
 0002:00007ab0       ??_C@_0DD@BPAGOJOB@?$DMtd?5class?$DN?8sc?$HL?$HN?8?5name?$DN?8byte?8?5by@ 00000001400a4ab0     HtmlReport.obj
 0002:00007ae8       ??_C@_0BA@JEHJMEOJ@?$DMtd?$DO?$CGnbsp?$DL?$DM?1td?$DO@ 00000001400a4ae8     HtmlReport.obj
 0002:00007af8       ??_C@_0BG@JOBHPHPA@?$DMtd?$DO?$CGnbsp?$DL?$CGnbsp?$DL?$DM?1td?$DO@ 00000001400a4af8     HtmlReport.obj
 0002:00007b10       ??_C@_04KNINFIGH@?$DM?1a?$DO@ 00000001400a4b10     HtmlReport.obj
 0002:00007b18       ??_C@_04CDCBNPCK@?$CC?$CJ?8?$DO@ 00000001400a4b18     HtmlReport.obj
 0002:00007b20       ??_C@_0BN@FPCCAHJI@?8?5onclick?$DN?8recursiveExpand?$CI?$CC@ 00000001400a4b20     HtmlReport.obj
 0002:00007b40       ??_C@_0L@LNIEBLFF@?$DMa?5href?$DN?8?$CD@ 00000001400a4b40     HtmlReport.obj
 0002:00007b50       ??_C@_09BBJECIDC@?$HL?$HN?$CL0x?$HL?3X?$HN@ 00000001400a4b50     HtmlReport.obj
 0002:00007b60       ??_C@_09NHPLCBLF@?$HL?$HN?90x?$HL?3X?$HN@ 00000001400a4b60     HtmlReport.obj
 0002:00007b6c       ??_C@_02EMFKHFLK@?$CFX@    00000001400a4b6c     HtmlReport.obj
 0002:00007b70       ??_C@_02MCILKGOH@?$HL?$HN@ 00000001400a4b70     HtmlReport.obj
 0002:00007b78       ??_C@_0DE@BJNIMJMD@?$DMtitle?$DO?$HL?$HN?3?5?$HL?$HN?5?9?5Crinkler?5compre@ 00000001400a4b78     HtmlReport.obj
 0002:00007bb0       ??_C@_0DC@GBCAGNMB@?$DMlink?5rel?$DN?8icon?8?5href?$DN?8data?3ima@ 00000001400a4bb0     HtmlReport.obj
 0002:00007be8       ??_C@_0CA@BCKLLODE@?$DMscript?5type?$DN?8text?1javascript?8?$DO@ 00000001400a4be8     HtmlReport.obj
 0002:00007c08       ??_C@_0BG@JMGGIEGC@const?5CODEBASE?5?$DN?5?$HL?$HN?$DL?6@ 00000001400a4c08     HtmlReport.obj
 0002:00007c20       ??_C@_0BL@CNCFKJHF@const?5BIT_PRECISION?5?$DN?5?$HL?$HN?$DL?6@ 00000001400a4c20     HtmlReport.obj
 0002:00007c40       ??_C@_0BD@JBELMNMA@const?5sizefill?5?$DN?5?$FL@ 00000001400a4c40     HtmlReport.obj
 0002:00007c54       ??_C@_01IHBHIGKO@?0@       00000001400a4c54     HtmlReport.obj
 0002:00007c58       ??_C@_04OMLPCBHH@?$HL?$HN?$HL?$HN@ 00000001400a4c58     HtmlReport.obj
 0002:00007c60       ??_C@_03DFANBFGH@?$FN?$DL?6@ 00000001400a4c60     HtmlReport.obj
 0002:00007c68       ??_C@_09LJLKNN@?$DM?1script?$DO@ 00000001400a4c68     HtmlReport.obj
 0002:00007c78       ??_C@_0N@NENGIHFK@Crinkler?53?40@ 00000001400a4c78     HtmlReport.obj
 0002:00007c88       ??_C@_0DI@JKCAKALK@?$DMp?$DO?$DMb?$DOReport?5for?5file?5?$HL?$HN?5genera@ 00000001400a4c88     HtmlReport.obj
 0002:00007cc0       ??_C@_0P@PAANNPDA@?$DMp?$DO?$DMb?$DOOptions?3@ 00000001400a4cc0     HtmlReport.obj
 0002:00007cd0       ??_C@_08FKEIAKLO@?$DM?1b?$DO?$DM?1p?$DO@ 00000001400a4cd0     HtmlReport.obj
 0002:00007ce0       ??_C@_0CD@EBPKMEH@?$DMp?$DO?$DMb?$DOOutput?5file?5size?3?5?$HL?$HN?$DM?1b?$DO?$DM@ 00000001400a4ce0     HtmlReport.obj
 0002:00007d10       ??_C@_0EO@HFODHDHN@?$DMp?$DO?$DMtable?$DO?$DMtr?$DO?$DMtd?5rowspan?$DN?82?8?$DO?$DM@ 00000001400a4d10     HtmlReport.obj
 0002:00007d60       ??_C@_0EL@LJMEEPHM@?$DMtd?5class?$DN?8sc?$HL?$HN?8?5style?$DN?8backgro@ 00000001400a4d60     HtmlReport.obj
 0002:00007db0       ??_C@_0BL@COBPAOIL@Less?5than?5?$HL?$HN?5bits?5per?5byte@ 00000001400a4db0     HtmlReport.obj
 0002:00007dd0       ??_C@_0BL@GKCNMOHK@More?5than?5?$HL?$HN?5bits?5per?5byte@ 00000001400a4dd0     HtmlReport.obj
 0002:00007df0       ??_C@_0CA@FNPEEKJ@Between?5?$HL?$HN?5and?5?$HL?$HN?5bits?5per?5byte@ 00000001400a4df0     HtmlReport.obj
 0002:00007e10       ??_C@_0CA@KMIBAPHP@?8?$DO?$CGnbsp?$DL?$CGnbsp?$DL?$CGnbsp?$DL?$CGnbsp?$DL?$DM?1td?$DO@ 00000001400a4e10     HtmlReport.obj
 0002:00007e30       ??_C@_0CP@LADILKBG@?$DM?1tr?$DO?6?$DMtr?$DO?$DMtd?5colspan?$DN?82?8?5align@ 00000001400a4e30     HtmlReport.obj
 0002:00007e60       ??_C@_0CH@NBIJDDAD@?$DMtd?5colspan?$DN?82?8?5align?$DN?8center?8?$DO@ 00000001400a4e60     HtmlReport.obj
 0002:00007e88       ??_C@_0BM@OOGBFKFJ@?$DMtd?$DO?$DM?1td?$DO?$DM?1tr?$DO?$DM?1table?$DO?$DM?1p?$DO?6@ 00000001400a4e88     HtmlReport.obj
 0002:00007ea8       ??_C@_0BJ@FGLFLAKG@?$DMstyle?5type?$DN?8text?1css?8?$DO?6@ 00000001400a4ea8     HtmlReport.obj
 0002:00007ed0       ??_C@_0EE@CDEDPHL@?4sc?$HL?$HN?5?$HL?$HL?5color?3?5?$CD?$HL?306X?$HN?$DL?5?$HN?$HN?6bod@ 00000001400a4ed0     HtmlReport.obj
 0002:00007f18       ??_C@_09KBAHDLGC@?$DM?1style?$DO?6@ 00000001400a4f18     HtmlReport.obj
 0002:00007f28       ??_C@_0BA@HCMGKG@part_symbol_row@ 00000001400a4f28     HtmlReport.obj
 0002:00007f38       ??_C@_01JLIPDDHJ@?3@       00000001400a4f38     HtmlReport.obj
 0002:00007f40       ??_C@_0BD@IKLPMKPF@section_symbol_row@ 00000001400a4f40     HtmlReport.obj
 0002:00007f58       ??_C@_0BC@KPNHDKPL@public_symbol_row@ 00000001400a4f58     HtmlReport.obj
 0002:00007f70       ??_C@_0BD@FCCCJELP@private_symbol_row@ 00000001400a4f70     HtmlReport.obj
 0002:00007f90       ??_C@_0ED@GLANJAJK@?$DMtr?$DO?$DMtd?5nowrap?5colspan?$DN?85?8?$DO?$DMdiv@ 00000001400a4f90     HtmlReport.obj
 0002:00007fd4       ??_C@_05HPMBBINO@?$HL?$HN_?$HL?$HN@ 00000001400a4fd4     HtmlReport.obj
 0002:00007fe0       ??_C@_0DH@DODAPPEP@?$DMtr?5class?$DN?8?$HL?$HN_expandable?8?5oncli@ 00000001400a4fe0     HtmlReport.obj
 0002:00008018       ??_C@_0BA@BJHKAOOC@?$DMtr?5class?$DN?8?$HL?$HN?8?$DO@ 00000001400a5018     HtmlReport.obj
 0002:00008028       ??_C@_02HMHJGNPF@?8?$DO@   00000001400a5028     HtmlReport.obj
 0002:00008030       ??_C@_07LEMCJFAN@?$DMa?5id?$DN?8@ 00000001400a5030     HtmlReport.obj
 0002:00008038       ??_C@_06ODLOODK@?$CGnbsp?$DL@ 00000001400a5038     HtmlReport.obj
 0002:00008040       ??_C@_01JOAMLHOP@?9@       00000001400a5040     HtmlReport.obj
 0002:00008050       ??_C@_0EK@MPIGPFDP@?$DMth?5nowrap?5class?$DN?8c1?8?$DO?$HL0?$HN?$HL1?308X@ 00000001400a5050     HtmlReport.obj
 0002:000080a0       ??_C@_0BO@BAFCHEFC@?$DMth?5nowrap?5class?$DN?8c3?8?$DO?$HL?$HN?$DM?1th?$DO@ 00000001400a50a0     HtmlReport.obj
 0002:000080c0       ??_C@_0EE@FJPIPPFP@?$DMth?5nowrap?5class?$DN?8c4?8?$DO?$HL?3?42f?$HN?$DM?1t@ 00000001400a50c0     HtmlReport.obj
 0002:00008110       ??_C@_0ED@ENNALMDA@?$DMth?5nowrap?5class?$DN?8c4?8?$DO?$CGnbsp?$DL?$DM?1t@ 00000001400a5110     HtmlReport.obj
 0002:00008160       ??_C@_0GE@PNKOMJMJ@?$DMth?5nowrap?5class?$DN?8c3?8?$DO?$CGnbsp?$DL?$DM?1t@ 00000001400a5160     HtmlReport.obj
 0002:000081c4       ??_C@_05IMPJLBNH@?$DM?1tr?$DO@ 00000001400a51c4     HtmlReport.obj
 0002:000081d0       ??_C@_0BJ@EEDKFDKK@?$DM?1table?$DO?$DM?1div?$DO?$DM?1td?$DO?$DM?1tr?$DO@ 00000001400a51d0     HtmlReport.obj
 0002:000081f0       ??_C@_0EB@OABELCBE@?$DMtr?$DO?$DMtd?5nowrap?5colspan?$DN?85?8?$DO?$DMdiv@ 00000001400a51f0     HtmlReport.obj
 0002:00008238       ??_C@_0DE@JEIFIKMJ@?$DMtr?$DO?$DMtd?5nowrap?5colspan?$DN?85?8?$DO?$DMtab@ 00000001400a5238     HtmlReport.obj
 0002:00008270       ??_C@_0BO@MFOOJLAK@?$DMtr?5name?$DN?8byte?8?5byte?$DN?8?$HL?$HN?$DL?$HL?$HN?8?$DO@ 00000001400a5270     HtmlReport.obj
 0002:00008290       ??_C@_0DD@DAPFLBAL@?$DMtd?5nowrap?5class?$DN?8address?8?$DO?$CGnbs@ 00000001400a5290     HtmlReport.obj
 0002:000082c8       ??_C@_0DO@MBOEJFHP@?$DMtd?5nowrap?5colspan?$DN4?5class?$DN?8hex@ 00000001400a52c8     HtmlReport.obj
 0002:00008308       ??_C@_0BL@HJFCKOHI@?$DMtd?5nowrap?5class?$DN?8sc?$HL?$HN?8?$DO?$HL?$HN@ 00000001400a5308     HtmlReport.obj
 0002:00008328       ??_C@_0BI@EJINHDDI@?$DM?1td?$DO?$DM?1tr?$DO?$DM?1table?$DO?$DM?1tr?$DO@ 00000001400a5328     HtmlReport.obj
 0002:00008340       ??_C@_0DH@DODKODLC@?$DMtr?$DO?$DMtd?5nowrap?5class?$DN?8address?8?$DO@ 00000001400a5340     HtmlReport.obj
 0002:00008378       ??_C@_0CG@NJFONKHD@?$DMtd?5class?$DN?8sc?$HL?$HN?8?5colspan?$DN?8?$HL?$HN?8?$DO?$HL@ 00000001400a5378     HtmlReport.obj
 0002:000083a0       ??_C@_0BI@IJIGDMON@?$DM?1tr?$DO?$DM?1table?$DO?$DM?1td?$DO?$DM?1tr?$DO@ 00000001400a53a0     HtmlReport.obj
 0002:000083b8       ??_C@_06MAIPDONP@?$DM?1div?$DO@ 00000001400a53b8     HtmlReport.obj
 0002:000083c0       ??_C@_0BF@DKEGEOLP@?$DM?1table?$DO?$HL?$HN?$DM?1td?$DO?$DM?1tr?$DO@ 00000001400a53c0     HtmlReport.obj
 0002:000083d8       ??_C@_0BN@CBFFAIMI@Cannot?5open?5file?5for?5writing@ 00000001400a53d8     HtmlReport.obj
 0002:000083f8       ??_C@_0BI@CFPLBAOH@invalid?5string?5position@ 00000001400a53f8     HtmlReport.obj
 0002:00008410       ??_7?$_Fmt_iterator_buffer@V?$back_insert_iterator@V?$basic_string@DU?$char_traits@D@std@@V?$allocator@D@2@@std@@@std@@DU_Fmt_buffer_traits@2@@std@@6B@ 00000001400a5410     HtmlReport.obj
 0002:00008418       __real@3b800000            00000001400a5418     HtmlReport.obj
 0002:0000841c       __real@42c80000            00000001400a541c     HtmlReport.obj
 0002:00008420       ??_C@_06DJFHFKB@__RTC_@    00000001400a5420     Hunk.obj
 0002:00008428       ??_C@_0DI@KKLFJPNN@Disable?5?8Basic?5Runtime?5Checks?8?5@ 00000001400a5428     Hunk.obj
 0002:00008460       ??_C@_0BC@IBCJPMOM@__security_cookie@ 00000001400a5460     Hunk.obj
 0002:00008478       ??_C@_0DJ@PKOCGDPL@Disable?5?8Buffer?5Security?5Check?8@ 00000001400a5478     Hunk.obj
 0002:000084b8       ??_C@_0BD@IDIIECKB@_crt_debugger_hook@ 00000001400a54b8     Hunk.obj
 0002:000084d0       ??_C@_0BN@EPFFOKHI@Define?5your?5own?5entry?5point?4@ 00000001400a54d0     Hunk.obj
 0002:000084f0       ??_C@_06DCDKBOGN@__ftol@   00000001400a54f0     Hunk.obj
 0002:00008500       ??_C@_0HE@NMINBAG@Suppress?5_ftol?5calls?5with?5the?5?1@ 00000001400a5500     Hunk.obj
 0002:00008574       ??_C@_05DNADIBKB@__Cxx@    00000001400a5574     Hunk.obj
 0002:00008580       ??_C@_0BG@IPKNANKA@Don?8t?5use?5exceptions?4@ 00000001400a5580     Hunk.obj
 0002:00008598       ??_C@_0BI@CGHOEJPD@__imp_?$DP?$DP1exception?$EAstd?$EA@ 00000001400a5598     Hunk.obj
 0002:000085b0       ??_C@_0P@CEGKDJBK@Don?8t?5use?5STL?4@ 00000001400a55b0     Hunk.obj
 0002:000085c0       ??_C@_08GDBMFOGK@__alloca@ 00000001400a55c0     Hunk.obj
 0002:000085d0       ??_C@_08CEHLGEBN@__chkstk@ 00000001400a55d0     Hunk.obj
 0002:000085e0       ??_C@_0FI@JKGMJPKK@Avoid?5declaring?5large?5arrays?5or@ 00000001400a55e0     Hunk.obj
 0002:00008638       ??_C@_02LMMGGCAJ@?3?5@     00000001400a5638     Hunk.obj
 0002:00008640       ??_C@_0CF@JMLMFMKL@Cannot?5find?5symbol?5?8?$CFs?8?4?6?5?$CK?5HIN@ 00000001400a5640     Hunk.obj
 0002:00008668       ??_C@_0BI@LMOJBKB@Cannot?5find?5symbol?5?8?$CFs?8@ 00000001400a5668     Hunk.obj
 0002:00008680       ??_C@_0M@OGNBNEEM@?$CFs?5sections@ 00000001400a5680     Hunk.obj
 0002:0000868c       ??_C@_06CIPIPFKB@?4dummy@  00000001400a568c     Hunk.obj
 0002:00008694       ??_C@_03ELJPOBCB@tf_@      00000001400a5694     Hunk.obj
 0002:00008698       ??_C@_02JDNIPIGD@NA@       00000001400a5698     Hunk.obj
 0002:0000869c       ??_C@_05CNONOOAN@tf?$CFd_@ 00000001400a569c     Hunk.obj
 0002:000086a8       ??_C@_0M@IJPGLJFH@__real?$EA?$CF16X@ 00000001400a56a8     Hunk.obj
 0002:000086b4       ??_C@_04BANGNJGK@?$EA3NA@  00000001400a56b4     Hunk.obj
 0002:000086c0       ??_C@_0L@LEINBDPJ@__real?$EA?$CF8X@ 00000001400a56c0     Hunk.obj
 0002:000086cc       ??_C@_04BCJAGHDD@?$EA3MA@  00000001400a56cc     Hunk.obj
 0002:000086d8       ??_C@_0DM@GLGIKEKA@?$CFs?$FL?$CFd?$FN?3?5?$CFf?5?$CI0x?$CF?48X?$CF?48X?564?5bits?$CJ@ 00000001400a56d8     Hunk.obj
 0002:00008718       ??_C@_0DE@CPBAGIEP@?$CFs?$FL?$CFd?$FN?3?5?$CFf?5?$CI0x?$CF?48X?532?5bits?$CJ?5?9?$DO?5@ 00000001400a5718     Hunk.obj
 0002:0000874c       ??_C@_05CBJPDLOK@align@    00000001400a574c     Hunk.obj
 0002:00008754       ??_C@_05NJJHCOAI@?$CFd_?$CFd@ 00000001400a5754     Hunk.obj
 0002:00008760       ??_C@_0ED@KIJAKNE@Alignment?5label?5?8?$CFs?8?5outside?5le@ 00000001400a5760     Hunk.obj
 0002:000087a8       ??_C@_0CO@JEOJGHOD@More?5than?5one?5alignment?5label?5i@ 00000001400a57a8     Hunk.obj
 0002:000087d8       ??_C@_0DA@LMFIEOPJ@Alignment?5of?5section?5?8?$CFs?8?5overr@ 00000001400a57d8     Hunk.obj
 0002:00008808       ??_C@_05GAKFMAOJ@?5?$CL?5?$CFd@ 00000001400a5808     Hunk.obj
 0002:00008810       ??_C@_05OPOFDFEJ@?5?9?5?$CFd@ 00000001400a5810     Hunk.obj
 0002:00008818       ??_C@_0DJ@BDDGBENG@Alignment?5of?5section?5?8?$CFs?8?5overr@ 00000001400a5818     Hunk.obj
 0002:00008888       ??_C@_0CE@FLAJPMKA@Import?5?8?$CFs?8?5cannot?5be?5found?5in?5@ 00000001400a5888     ImportHandler.obj
 0002:000088b0       ??_C@_08PNLNEKOB@kernel32@ 00000001400a58b0     ImportHandler.obj
 0002:000088bc       ??_C@_06KMMDPPA@user32@    00000001400a58bc     ImportHandler.obj
 0002:000088c8       ??_C@_0BM@MGJPOFFD@Could?5not?5find?5?8?$CFs?8?5in?5?8?$CFs?8@ 00000001400a58c8     ImportHandler.obj
 0002:000088e4       ??_C@_01LFCBOECM@?4@       00000001400a58e4     ImportHandler.obj
 0002:000088f0       ??_C@_0EF@ODLJMPNK@Import?5?8?$CFs?8?5from?5?8?$CFs?8?5uses?5forw@ 00000001400a58f0     ImportHandler.obj
 0002:00008938       ??_C@_0CN@CLANFMML@?6?9Imports?9?9?9?9?9?9?9?9?9?9?9?9?9?9?9?9?9?9?9?9?9?9@ 00000001400a5938     ImportHandler.obj
 0002:00008968       ??_C@_0P@FMEPPHNH@ImportListHunk@ 00000001400a5968     ImportHandler.obj
 0002:00008978       ??_C@_0BE@CKOBAAGC@Cyclic?5DLL?5fallback@ 00000001400a5978     ImportHandler.obj
 0002:0000898c       ??_C@_03OFAPEBGM@?$CFs?6@  00000001400a598c     ImportHandler.obj
 0002:00008990       ??_C@_0BF@EFOAIGPG@?5?5ordinal?5range?5?$HL?6?5?5@ 00000001400a5990     ImportHandler.obj
 0002:000089a8       ??_C@_0BO@NHPKOMKC@?5?5?$CFs?5?$CIordinal?5?$CFd?0?5hash?5?$CF08X?$CJ?6@ 00000001400a59a8     ImportHandler.obj
 0002:000089c8       ??_C@_0BF@INBHFGBP@?5?5?5?5?$CFs?5?$CIordinal?5?$CFd?$CJ?6@ 00000001400a59c8     ImportHandler.obj
 0002:000089e0       ??_C@_04POOIJLFB@?5?5?$HN?6@ 00000001400a59e0     ImportHandler.obj
 0002:000089e8       ??_C@_0CP@CAGGDINB@No?5functions?5were?5imported?5from@ 00000001400a59e8     ImportHandler.obj
 0002:00008a18       ??_C@_0DC@ENPNKFEL@No?5functions?5were?5imported?5from@ 00000001400a5a18     ImportHandler.obj
 0002:00008a50       ??_C@_0M@JHDMMMGK@_ImportList@ 00000001400a5a50     ImportHandler.obj
 0002:00008a60       ??_C@_0BA@EEJPNIEJ@crinkler?5import@ 00000001400a5a60     ImportHandler.obj
 0002:00008a70       ??_C@_04IEKGFKDD@?4bss@    00000001400a5a70     ImportHandler.obj
 0002:00008a78       ??_C@_0N@EABLCPMK@DLLNamesHunk@ 00000001400a5a78     ImportHandler.obj
 0002:00008a88       ??_C@_05LDKNOBJL@?4data@   00000001400a5a88     ImportHandler.obj
 0002:00008a90       ??_C@_09DIMPOJCJ@_DLLNames@ 00000001400a5a90     ImportHandler.obj
 0002:00008aa0       ??_C@_0DJ@BAPKNBKF@Kernel32?5needs?5to?5be?5linked?5for@ 00000001400a5aa0     ImportHandler.obj
 0002:00008ae0       ??_C@_0CM@KNMIMJFD@Could?5not?5find?5collision?9free?5h@ 00000001400a5ae0     ImportHandler.obj
 0002:00008b10       ??_C@_0BA@KLDDALIO@_HashMultiplier@ 00000001400a5b10     ImportHandler.obj
 0002:00008b20       ??_C@_0BD@JLCPCPCI@?5?5?$CFs?5?$CIordinal?5?$CFd?$CJ?6@ 00000001400a5b20     ImportHandler.obj
 0002:00008b40       ??_C@_0BGP@BIBPFOA@?6Note?3?5Programs?5linked?5using?5th@ 00000001400a5b40     ImportHandler.obj
 0002:00008d70       ??_C@_0BG@EOMJEIFA@vector?$DMbool?$DO?5too?5long@ 00000001400a5d70     ImportHandler.obj
 0002:00008d90       __xmm@000000000000000f0000000000000008 00000001400a5d90     ImportHandler.obj
 0002:00008da0       ??_C@_0FN@LHLFECAA@Link?9time?5code?5generation?5is?5no@ 00000001400a5da0     LTCGLoader.obj
 0002:00008e00       ??_7Transform@@6B@         00000001400a5e00     main.obj
 0002:00008e18       ??_7IdentityTransform@@6B@ 00000001400a5e18     main.obj
 0002:00008e30       ??_7CmdParam@@6B@          00000001400a5e30     main.obj
 0002:00008e48       ??_7CallTransform@@6B@     00000001400a5e48     main.obj
 0002:00008e60       ??_C@_01KDCPPGHE@r@        00000001400a5e60     main.obj
 0002:00008e64       ??_C@_01KICIPPFI@?2@       00000001400a5e64     main.obj
 0002:00008e68       ??_C@_01ICJEACDI@?$DL@     00000001400a5e68     main.obj
 0002:00008e70       ??_C@_08KPFCJPKF@SYSTEM32@ 00000001400a5e70     main.obj
 0002:00008e80       ??_C@_08MEDCHDM@SYSWOW64@  00000001400a5e80     main.obj
 0002:00008e8c       ??_C@_04HGBGCCEA@?4DLL@    00000001400a5e8c     main.obj
 0002:00008e94       ??_C@_04HBHDLLBA@PATH@     00000001400a5e94     main.obj
 0002:00008ea0       ??_C@_0BF@MOPLNHCG@Cannot?5find?5DLL?5?8?$CFs?8@ 00000001400a5ea0     main.obj
 0002:00008ec0       ??_C@_0HI@KGGMDAPG@Missing?5export?5table?5in?5?8?$CFs?8?6?6I@ 00000001400a5ec0     main.obj
 0002:00008f38       ??_C@_0CD@PMIBFDPD@Launching?5default?5linker?5at?5?8?$CFs@ 00000001400a5f38     main.obj
 0002:00008f60       ??_C@_0CP@FFMLIGOI@Failed?5to?5launch?5default?5linker@ 00000001400a5f60     main.obj
 0002:00008f90       ??_C@_0CI@HMJCGCDA@Cannot?5find?5default?5linker?5?8?$CFs?8@ 00000001400a5f90     main.obj
 0002:00008fb8       ??_C@_0L@FCHOOCIF@size?5in?5mb@ 00000001400a5fb8     main.obj
 0002:00008fc8       ??_C@_0CA@LDLACMBJ@number?5of?5megabytes?5for?5hashing@ 00000001400a5fc8     main.obj
 0002:00008fe8       ??_C@_08BNDHEBJM@HASHSIZE@ 00000001400a5fe8     main.obj
 0002:00008ff8       ??_C@_0BI@CICDDLBO@number?5of?5hashing?5tries@ 00000001400a5ff8     main.obj
 0002:00009010       ??_C@_09CAKLIIOD@HASHTRIES@ 00000001400a6010     main.obj
 0002:00009020       ??_C@_0CD@NCCNPDGM@number?5of?5section?5reordering?5tr@ 00000001400a6020     main.obj
 0002:00009048       ??_C@_0L@OOHHBDBC@ORDERTRIES@ 00000001400a6048     main.obj
 0002:00009054       ??_C@_04MLOLHOPP@bits@     00000001400a6054     main.obj
 0002:00009060       ??_C@_0BB@BKBGAGED@truncates?5floats@ 00000001400a6060     main.obj
 0002:00009078       ??_C@_0P@LCDKPBJ@TRUNCATEFLOATS@ 00000001400a6078     main.obj
 0002:00009088       ??_C@_0CP@GJFGKOMD@override?5section?5alignments?5usi@ 00000001400a6088     main.obj
 0002:000090b8       ??_C@_0BD@DPAHOGMI@OVERRIDEALIGNMENTS@ 00000001400a60b8     main.obj
 0002:000090d0       ??_C@_0CG@CFCOMBPD@force?5alignment?5of?5code?5section@ 00000001400a60d0     main.obj
 0002:000090f8       ??_C@_0M@EJIHLHGL@UNALIGNCODE@ 00000001400a60f8     main.obj
 0002:00009108       ??_C@_0CK@BKBAGIBO@Do?5not?5implicitly?5link?5to?5runti@ 00000001400a6108     main.obj
 0002:00009138       ??_C@_0N@LIIALNB@NODEFAULTLIB@ 00000001400a6138     main.obj
 0002:00009148       ??_C@_06OJHAJCPM@symbol@   00000001400a6148     main.obj
 0002:00009150       ??_C@_0BH@LKAIGBLI@name?5of?5the?5entrypoint@ 00000001400a6150     main.obj
 0002:00009168       ??_C@_05LGEFKHJN@ENTRY@    00000001400a6168     main.obj
 0002:00009170       ??_C@_07INJEBCIE@out?4exe@ 00000001400a6170     main.obj
 0002:00009178       ??_C@_08BABJIOEM@filename@ 00000001400a6178     main.obj
 0002:00009188       ??_C@_0BA@GMKDMLLC@output?5filename@ 00000001400a6188     main.obj
 0002:00009198       ??_C@_03KJGMBMID@OUT@      00000001400a6198     main.obj
 0002:000091a0       ??_C@_0BF@EDFELLKN@report?5html?5filename@ 00000001400a61a0     main.obj
 0002:000091b8       ??_C@_06MDMHKGOO@REPORT@   00000001400a61b8     main.obj
 0002:000091c0       ??_C@_0BE@BOAJNIMO@reuse?5html?5filename@ 00000001400a61c0     main.obj
 0002:000091d4       ??_C@_05IAEPPEKA@REUSE@    00000001400a61d4     main.obj
 0002:000091e0       ??_C@_0BC@MDKBPKAJ@select?5reuse?5mode@ 00000001400a61e0     main.obj
 0002:000091f8       ??_C@_09PMHGFICM@REUSEMODE@ 00000001400a61f8     main.obj
 0002:00009208       ??_C@_0CD@BGPCBHGE@Show?5a?5dialog?5to?5select?5reuse?5m@ 00000001400a6208     main.obj
 0002:00009230       ??_C@_08CMEFNML@REUSEGUI@  00000001400a6230     main.obj
 0002:0000923c       ??_C@_04PCJFHION@help@     00000001400a623c     main.obj
 0002:00009244       ??_C@_01OGPIMHDM@?$DP@     00000001400a6244     main.obj
 0002:00009248       ??_C@_0BB@NLHGIGJH@enables?5Crinkler@ 00000001400a6248     main.obj
 0002:00009260       ??_C@_08NBGIFLO@CRINKLER@  00000001400a6260     main.obj
 0002:00009270       ??_C@_0BL@KDMHAFCC@recompress?5a?5Crinkler?5file@ 00000001400a6270     main.obj
 0002:00009290       ??_C@_0L@ODLMLPAF@RECOMPRESS@ 00000001400a6290     main.obj
 0002:000092a0       ??_C@_0BK@BICCGAJK@crash?5if?5a?5DLL?5is?5missing@ 00000001400a62a0     main.obj
 0002:000092c0       ??_C@_0N@EJHDPEHI@UNSAFEIMPORT@ 00000001400a62c0     main.obj
 0002:000092d0       ??_C@_0BO@DEOBMNFN@show?5a?5graphical?5progress?5bar@ 00000001400a62d0     main.obj
 0002:000092f0       ??_C@_0M@PEFHCMCO@PROGRESSGUI@ 00000001400a62f0     main.obj
 0002:00009300       ??_C@_0BA@NPLEEBJB@use?5tiny?5header@ 00000001400a6300     main.obj
 0002:00009310       ??_C@_0L@MFMBJCAI@TINYHEADER@ 00000001400a6310     main.obj
 0002:00009320       ??_C@_0BA@FACCODAI@use?5tiny?5import@ 00000001400a6320     main.obj
 0002:00009330       ??_C@_0L@EKFHDAJB@TINYIMPORT@ 00000001400a6330     main.obj
 0002:00009340       ??_C@_0BB@FPDDHNCG@select?5subsystem@ 00000001400a6340     main.obj
 0002:00009358       ??_C@_09CMMNJCPD@SUBSYSTEM@ 00000001400a6358     main.obj
 0002:00009364       ??_C@_04LMMJFDCN@AUTO@     00000001400a6364     main.obj
 0002:00009370       ??_C@_0BL@GKHMNPCB@use?5separate?5part?5for?5text@ 00000001400a6370     main.obj
 0002:00009390       ??_C@_08HKEEEIIO@TEXTPART@ 00000001400a6390     main.obj
 0002:000093a0       ??_C@_0BL@LPDGJFAG@allow?5addresses?5beyond?52gb@ 00000001400a63a0     main.obj
 0002:000093c0       ??_C@_0BC@GFFPJKLJ@LARGEADDRESSAWARE@ 00000001400a63c0     main.obj
 0002:000093d4       ??_C@_06IOJAGNKJ@NORMAL@   00000001400a63d4     main.obj
 0002:000093e0       ??_C@_0M@MJCADJFN@BELOWNORMAL@ 00000001400a63e0     main.obj
 0002:000093ec       ??_C@_04IMMGDCFE@IDLE@     00000001400a63ec     main.obj
 0002:000093f8       ??_C@_0BA@OOKOELKN@select?5priority@ 00000001400a63f8     main.obj
 0002:00009408       ??_C@_08PHDJDNOC@PRIORITY@ 00000001400a6408     main.obj
 0002:00009418       ??_C@_08MGEFONHF@VERYSLOW@ 00000001400a6418     main.obj
 0002:00009424       ??_C@_04BJJAFLBC@SLOW@     00000001400a6424     main.obj
 0002:0000942c       ??_C@_04HNOLJCOK@FAST@     00000001400a642c     main.obj
 0002:00009438       ??_C@_0BB@JFOBKLLA@compression?5mode@ 00000001400a6438     main.obj
 0002:00009450       ??_C@_08LOIPFCFD@COMPMODE@ 00000001400a6450     main.obj
 0002:00009460       ??_C@_07MENJGFFE@IMPORTS@  00000001400a6460     main.obj
 0002:00009468       ??_C@_06EDNDDPFA@LABELS@   00000001400a6468     main.obj
 0002:00009470       ??_C@_05IJDJACGD@print@    00000001400a6470     main.obj
 0002:00009478       ??_C@_05ECKPOFCN@PRINT@    00000001400a6478     main.obj
 0002:00009480       ??_C@_05JLLGMKNB@CALLS@    00000001400a6480     main.obj
 0002:00009488       ??_C@_0BH@JCEMALDI@select?5transformations@ 00000001400a6488     main.obj
 0002:000094a0       ??_C@_09LFBMEAFB@TRANSFORM@ 00000001400a64a0     main.obj
 0002:000094b0       ??_C@_0CP@CCJMKAEL@saturate?5counters?5?$CIfor?5highly?5r@ 00000001400a64b0     main.obj
 0002:000094e0       ??_C@_08LLAHJOKO@SATURATE@ 00000001400a64e0     main.obj
 0002:000094ec       ??_C@_04EACGPHON@dirs@     00000001400a64ec     main.obj
 0002:000094f8       ??_C@_0CH@KGGELHMF@adds?5a?5path?5to?5the?5library?5sear@ 00000001400a64f8     main.obj
 0002:00009520       ??_C@_07DPECNPAL@LIBPATH@  00000001400a6520     main.obj
 0002:00009528       ??_C@_07EBPJLM@dllname@    00000001400a6528     main.obj
 0002:00009530       ??_C@_0CB@PGGCGOFL@use?5range?5importing?5for?5this?5dl@ 00000001400a6530     main.obj
 0002:00009554       ??_C@_05OJPIIJFC@RANGE@    00000001400a6554     main.obj
 0002:00009560       ??_C@_0O@HGBBJMIA@oldDLL?$DNnewDLL@ 00000001400a6560     main.obj
 0002:00009570       ??_C@_0BL@ILMDFAPN@replace?5a?5dll?5with?5another@ 00000001400a6570     main.obj
 0002:00009590       ??_C@_0L@KMABKDH@REPLACEDLL@ 00000001400a6590     main.obj
 0002:000095a0       ??_C@_0BC@CPKOELLF@firstDLL?$DNotherDLL@ 00000001400a65a0     main.obj
 0002:000095b8       ??_C@_0CP@LAEPPGIA@try?5opening?5another?5dll?5if?5the?5@ 00000001400a65b8     main.obj
 0002:000095e8       ??_C@_0M@OOIDOLJC@FALLBACKDLL@ 00000001400a65e8     main.obj
 0002:000095f8       ??_C@_0BB@CCMAINCA@name?$DNvalue?1label@ 00000001400a65f8     main.obj
 0002:00009610       ??_C@_0BF@JPNNMKBM@export?5value?5by?5name@ 00000001400a6610     main.obj
 0002:00009628       ??_C@_0BP@BBKNDHHC@remove?5exports?5from?5executable@ 00000001400a6628     main.obj
 0002:00009648       ??_C@_0N@HHNEGJKM@STRIPEXPORTS@ 00000001400a6648     main.obj
 0002:00009658       ??_C@_0CA@LGJAJNGP@do?5not?5run?5dynamic?5initializers@ 00000001400a6658     main.obj
 0002:00009678       ??_C@_0P@PKAEJKEI@NOINITIALIZERS@ 00000001400a6678     main.obj
 0002:00009688       ??_C@_0BC@MJACHCBK@list?5of?5filenames@ 00000001400a6688     main.obj
 0002:0000969c       ??_C@_05PENKCLCM@FILES@    00000001400a669c     main.obj
 0002:000096b0       ??_C@_0EO@NELLDNIE@Crinkler?53?40?5?$CIFeb?527?52026?$CJ?5?$CIc?$CJ?5@ 00000001400a66b0     main.obj
 0002:00009700       ??_C@_02GLHBANAM@?1?$DP@   00000001400a6700     main.obj
 0002:00009708       ??_C@_09LGMDKBDL@?1CRINKLER@ 00000001400a6708     main.obj
 0002:00009718       ??_C@_0N@EFOANEIK@CRINKLER?4EXE@ 00000001400a6718     main.obj
 0002:00009728       ??_C@_0M@JJELIMAP@?1RECOMPRESS@ 00000001400a6728     main.obj
 0002:00009738       ??_C@_07EKNIKJFJ@?$CKdummy?$CK@ 00000001400a6738     main.obj
 0002:00009740       ??_C@_0DH@OCOFFDMA@Crinkler?5recompression?5takes?5ex@ 00000001400a6740     main.obj
 0002:00009778       ??_C@_0M@BKKINIEH@Source?3?5?$CFs?6@ 00000001400a6778     main.obj
 0002:00009788       ??_C@_0M@DPALJIHE@Target?3?5?$CFs?6@ 00000001400a6788     main.obj
 0002:00009798       ??_C@_0CJ@CMMFFNNK@Subsystem?5type?3?5Inherited?5from?5@ 00000001400a6798     main.obj
 0002:000097c8       ??_C@_0BE@FFGCEKON@Subsystem?5type?3?5?$CFs?6@ 00000001400a67c8     main.obj
 0002:000097e0       ??_C@_0CO@FNGBFOEK@Large?5address?5aware?3?5Inherited?5@ 00000001400a67e0     main.obj
 0002:00009810       ??_C@_0BJ@ENJHDKLP@Large?5address?5aware?3?5?$CFs?6@ 00000001400a6810     main.obj
 0002:00009830       ??_C@_0DC@COMOFJIP@Compression?5mode?3?5Models?5inheri@ 00000001400a6830     main.obj
 0002:00009868       ??_C@_0BG@PJLAKKFL@Compression?5mode?3?5?$CFs?6@ 00000001400a6868     main.obj
 0002:00009880       ??_C@_0CM@GHLEEMDO@Saturate?5counters?3?5Inherited?5fr@ 00000001400a6880     main.obj
 0002:000098b0       ??_C@_0BH@EOEGDKPD@Saturate?5counters?3?5?$CFs?6@ 00000001400a68b0     main.obj
 0002:000098c8       ??_C@_0CE@FEDGELOP@Hash?5size?3?5Inherited?5from?5origi@ 00000001400a68c8     main.obj
 0002:000098f0       ??_C@_0BC@IDEHGKPJ@Hash?5size?3?5?$CFd?5MB?6@ 00000001400a68f0     main.obj
 0002:00009908       ??_C@_0BA@CANCPPLG@Hash?5tries?3?5?$CFd?6@ 00000001400a6908     main.obj
 0002:00009918       ??_C@_04OKGDLNCL@NONE@     00000001400a6918     main.obj
 0002:00009920       ??_C@_0M@KJLMAEAB@Report?3?5?$CFs?6@ 00000001400a6920     main.obj
 0002:00009930       ??_C@_0P@EFMGCAGH@Replace?5DLLs?3?5@ 00000001400a6930     main.obj
 0002:00009940       ??_C@_02KEGNLNML@?0?5@     00000001400a6940     main.obj
 0002:00009948       ??_C@_08DHHJCFN@?$CFs?5?9?$DO?5?$CFs@ 00000001400a6948     main.obj
 0002:00009960       ??_C@_0EK@JCGIPFDA@In?5recompression?0?5a?5DLL?5can?5onl@ 00000001400a6960     main.obj
 0002:000099b0       ??_C@_09HBHJDGGP@Exports?3?5@ 00000001400a69b0     main.obj
 0002:000099c0       ??_C@_0M@EKKKJBFI@Strip?5away?6@ 00000001400a69c0     main.obj
 0002:000099d0       ??_C@_0BE@OOHGPPMD@Keep?5from?5original?6@ 00000001400a69d0     main.obj
 0002:000099e8       ??_C@_0BH@CMDCKGDH@Strip?5and?5replace?5by?3?6@ 00000001400a69e8     main.obj
 0002:00009a00       ??_C@_0BJ@ECIKKGFA@Keep?5and?5supplement?5by?3?6@ 00000001400a6a00     main.obj
 0002:00009a20       ??_C@_0DN@EMGFAOFL@Export?5stripping?5can?5only?5be?5pe@ 00000001400a6a20     main.obj
 0002:00009a60       ??_C@_0CP@NFGOFBDF@Transforms?5are?5not?5supported?5wi@ 00000001400a6a60     main.obj
 0002:00009a90       ??_C@_0BF@LDGAIPPM@Tiny?5compressor?3?5?$CFs?6@ 00000001400a6a90     main.obj
 0002:00009aa8       ??_C@_0BB@EBNBECOF@Tiny?5import?3?5?$CFs?6@ 00000001400a6aa8     main.obj
 0002:00009ac0       ??_C@_0BB@LIEGOFBN@Order?5tries?3?5?$CFd?6@ 00000001400a6ac0     main.obj
 0002:00009ad8       ??_C@_0BA@HODJNJO@Reuse?5mode?3?5?$CFs?6@ 00000001400a6ad8     main.obj
 0002:00009ae8       ??_C@_0BA@FPPMAEFG@Reuse?5file?3?5?$CFs?6@ 00000001400a6ae8     main.obj
 0002:00009af8       ??_C@_0CF@NFOCDHEA@Reuse?5mode?3?5OFF?5?$CIno?5file?5specif@ 00000001400a6af8     main.obj
 0002:00009b20       ??_C@_0BA@JIMHENII@Transforms?3?5?$CFs?6@ 00000001400a6b20     main.obj
 0002:00009b30       ??_C@_0BA@HPIDNEIO@Fallback?5DLLs?3?5@ 00000001400a6b30     main.obj
 0002:00009b40       ??_C@_0N@GEJOHKAJ@Range?5DLLs?3?5@ 00000001400a6b40     main.obj
 0002:00009b50       ??_C@_02DKCKIIND@?$CFs@    00000001400a6b50     main.obj
 0002:00009b58       ??_C@_08PDNNMGIM@Exports?3@ 00000001400a6b58     main.obj
 0002:00009b64       ??_C@_02KCAFKDJ@?$DP?3@    00000001400a6b64     main.obj
 0002:00009b68       ??_C@_03LCHNFMKO@LIB@      00000001400a6b68     main.obj
 0002:00009b70       ??_C@_0BH@GJNDOEMB@Cannot?5open?5file?5?8?$CFs?8?6@ 00000001400a6b70     main.obj
 0002:00009b88       ??_C@_0P@EGIKPAOL@Loading?5?$CFs?4?4?4?6@ 00000001400a6b88     main.obj
 0002:00009b98       ??_C@_0N@MGJADCGC@Linking?4?4?4?6?6@ 00000001400a6b98     main.obj
 0002:00009ba8       ??_C@_0BG@MNCKNEOD@time?5spent?3?5?$CFdm?$CF02ds?6@ 00000001400a6ba8     main.obj
 0002:00009bc0       __xmm@00000000000000070000000000000000 00000001400a6bc0     main.obj
 0002:00009bd0       ??_C@_0O@MGDGCKO@Uninitialized@ 00000001400a6bd0     PartList.obj
 0002:00009be0       ??_C@_0BD@CPABHKEA@ContinuationJump?$CFd@ 00000001400a6be0     PartList.obj
 0002:00009bf8       ??_C@_0CB@PLFDACII@Virtual?5size?5overflows?52GB?5limi@ 00000001400a6bf8     PartList.obj
 0002:00009da0       ??_C@_0BC@KBDMBKEH@deque?$DMT?$DO?5too?5long@ 00000001400a6da0     PartList.obj
 0002:00009db8       ??_C@_0BC@FINGIOCM@Ignore?5reuse?5file@ 00000001400a6db8     Reuse.obj
 0002:00009dd0       ??_C@_0CA@KAPEKFEK@Ignore?5and?5overwrite?5reuse?5file@ 00000001400a6dd0     Reuse.obj
 0002:00009df0       ??_C@_0M@MCLNDAGE@Reuse?5parts@ 00000001400a6df0     Reuse.obj
 0002:00009e00       ??_C@_0BJ@IIPADPLN@Reuse?5parts?5and?5sections@ 00000001400a6e00     Reuse.obj
 0002:00009e20       ??_C@_0CB@ONBDBFNA@Reuse?5parts?0?5sections?5and?5model@ 00000001400a6e20     Reuse.obj
 0002:00009e48       ??_C@_0BB@PJEKKFC@Reuse?5everything@ 00000001400a6e48     Reuse.obj
 0002:00009e60       ??_C@_08CIGKLNEF@?5?$CFx?3?$CFd?$CFn@ 00000001400a6e60     Reuse.obj
 0002:00009e70       ??_C@_0BC@JPHNLAJO@?$CD?5Hash?5table?5size@ 00000001400a6e70     Reuse.obj
 0002:00009e88       ??_C@_0BI@HOLKOAP@Duplicate?5hash?5size?3?5?$CFs@ 00000001400a6e88     Reuse.obj
 0002:00009ea0       ??_C@_0BD@HOEEIGEP@Duplicate?5part?3?5?$CFs@ 00000001400a6ea0     Reuse.obj
 0002:00009eb8       ??_C@_08NDACJNEH@sections@ 00000001400a6eb8     Reuse.obj
 0002:00009ec8       ??_C@_0BL@IKFBKLJI@Unknown?5reuse?5file?5tag?3?5?$CFs@ 00000001400a6ec8     Reuse.obj
 0002:00009ee8       ??_C@_0BE@MMABNDBL@Unexpected?5line?3?5?$CFs@ 00000001400a6ee8     Reuse.obj
 0002:00009f00       ??_C@_0BF@KMNJBAFP@Duplicate?5models?3?5?$CFs@ 00000001400a6f00     Reuse.obj
 0002:00009f18       ??_C@_03EBJOKFHF@?5?$CFd@  00000001400a6f18     Reuse.obj
 0002:00009f20       ??_C@_0CG@IFGIKMDG@The?5?8Uninitialized?8?5part?5must?5b@ 00000001400a6f20     Reuse.obj
 0002:00009f48       ??_C@_0DD@KIGGGHEG@Models?5missing?5for?5part?5?8?$CFs?8?0?5u@ 00000001400a6f48     Reuse.obj
 0002:00009f80       ??_C@_0CH@CAONMNLN@Models?5specified?5for?5unknown?5pa@ 00000001400a6f80     Reuse.obj
 0002:00009fa8       ??_C@_01NOFIACDB@w@        00000001400a6fa8     Reuse.obj
 0002:00009fb0       ??_C@_09KDBLPMKP@?6?$CD?5?$CFs?5?$CFs?6@ 00000001400a6fb0     Reuse.obj
 0002:00009fbc       ??_C@_04EINJHBMM@?6?$CFs?6@ 00000001400a6fbc     Reuse.obj
 0002:00009fc4       ??_C@_03PMGGPEJJ@?$CFd?6@  00000001400a6fc4     Reuse.obj
 0002:00009fc8       ??_C@_0BP@FCAAMCLB@Reused?5section?5not?5present?3?5?$CFs@ 00000001400a6fc8     Reuse.obj
 0002:00009fe8       ??_C@_0DE@KJMHJGCK@Section?5not?5present?5in?5reuse?5fi@ 00000001400a6fe8     Reuse.obj
 0002:0000a020       ??_C@_0BC@NJLKOCOK@Select?5Reuse?5Mode@ 00000001400a7020     Reuse.obj
 0002:0000a0f8       ??_C@_0BL@GOIGLPKN@unordered_map?1set?5too?5long@ 00000001400a70f8     Reuse.obj
 0002:0000a118       ??_C@_0BK@OGNNAFAB@invalid?5hash?5bucket?5count@ 00000001400a7118     Reuse.obj
 0002:0000a134       __real@5f000000            00000001400a7134     Reuse.obj
 0002:0000a138       ??_C@_0BG@PGNNGALE@?6?$CFs?3?5warning?5LNK?3?5?$CFs?6@ 00000001400a7138     Log.obj
 0002:0000a150       ??_C@_0BF@DBAAIJEK@?6?$CFs?3?5error?5LNK?3?5?$CFs?6?6@ 00000001400a7150     Log.obj
 0002:0000a168       ??_C@_0BD@IMHGKAID@?6?$CFs?3?5error?5LNK?3?5?$CFs@ 00000001400a7168     Log.obj
 0002:0000a180       ??_C@_0BC@BADGLCAK@dump?$CF04d_mini?4dmp@ 00000001400a7180     MiniDump.obj
 0002:0000a198       ??_C@_0BC@HOCFIICJ@dump?$CF04d_full?4dmp@ 00000001400a7198     MiniDump.obj
 0002:0000a1b0       ??_C@_0DP@BPGMONP@?6Oops?$CB?5Crinkler?5has?5crashed?4?6Du@ 00000001400a71b0     MiniDump.obj
 0002:0000a1f0       ??_C@_01DCLJPIOD@?$CB@     00000001400a71f0     NameMangling.obj
 0002:0000a244       ??_C@_04OEDFLLKD@?$CC?$CFs?$CC@ 00000001400a7244     CmdLineInterface.obj
 0002:0000a250       ??_C@_0CD@CJFHIBAM@Error?3?5argument?5must?5be?5non?9emp@ 00000001400a7250     CmdLineInterface.obj
 0002:0000a278       ??_C@_0DN@MLEPENIK@Error?3?5error?5parsing?5token?3?5?8?$CFs@ 00000001400a7278     CmdLineInterface.obj
 0002:0000a2c0       ??_C@_0EJ@NOFPAEKE@Error?3?5error?5parsing?5token?3?5?8?$CFs@ 00000001400a72c0     CmdLineInterface.obj
 0002:0000a310       ??_C@_0DI@LNODHCJL@Error?3?5parameter?5cannot?5be?5defi@ 00000001400a7310     CmdLineInterface.obj
 0002:0000a348       ??_C@_0CE@NAAODADD@Error?3?5cannot?5parse?5token?5?8?$CFs?8?3@ 00000001400a7348     CmdLineInterface.obj
 0002:0000a370       ??_C@_0CA@IJDPKHAC@Ignoring?5unknown?5argument?5?8?$CFs?8?6@ 00000001400a7370     CmdLineInterface.obj
 0002:0000a390       ??_C@_04LOAOMKLI@?$CFs?6?6@ 00000001400a7390     CmdLineInterface.obj
 0002:0000a398       ??_C@_0O@IGHNBNGC@?5?5?5options?3?6?6@ 00000001400a7398     CmdLineInterface.obj
 0002:0000a3a8       ??_C@_09BKMLAGIN@?5?5?5?5?5?5?$CFs?6@ 00000001400a73a8     CmdLineInterface.obj
 0002:0000a3b8       ??_C@_07LFFNHEBN@?$CFs?$FL?3?$CFs?$FN@ 00000001400a73b8     CmdParam.obj
 0002:0000a3c0       ??_C@_05CCMOGDN@?$CFs?3?$CFs@ 00000001400a73c0     CmdParam.obj
 0002:0000a3c8       ??_C@_08FEPILOB@?1?$CF?924s?$CFs@ 00000001400a73c8     CmdParam.obj
 0002:0000a3d8       ??_7CmdParamFlags@@6B@     00000001400a73d8     CmdParamFlags.obj
 0002:0000a3f0       ??_C@_01HCONENDN@?$HL@     00000001400a73f0     CmdParamFlags.obj
 0002:0000a3f4       ??_C@_01DNKMNLPK@?$HM@     00000001400a73f4     CmdParamFlags.obj
 0002:0000a3f8       ??_C@_0BE@LHFMHEMF@unknown?5argument?5?$CFs@ 00000001400a73f8     CmdParamFlags.obj
 0002:0000a410       ??_7CmdParamInt@@6B@       00000001400a7410     CmdParamInt.obj
 0002:0000a428       ??_C@_04PEOOHEKN@?$CFd?$CFc@ 00000001400a7428     CmdParamInt.obj
 0002:0000a430       ??_C@_0DA@BNKHLCAG@argument?5is?5not?5within?5the?5lega@ 00000001400a7430     CmdParamInt.obj
 0002:0000a460       ??_C@_0BK@HJCFFFKP@expected?5integer?5argument@ 00000001400a7460     CmdParamInt.obj
 0002:0000a480       ??_7CmdParamMultiAssign@@6B@ 00000001400a7480     CmdParamMultiAssign.obj
 0002:0000a498       ??_C@_0BN@MOMEBLFE@identifier?5must?5be?5non?5empty@ 00000001400a7498     CmdParamMultiAssign.obj
 0002:0000a4b8       ??_C@_0BP@BLCEBHPL@argument?5must?5be?5an?5assignment@ 00000001400a74b8     CmdParamMultiAssign.obj
 0002:0000a4d8       ??_C@_0CN@CDCELBAI@argument?5must?5contain?5exactly?5o@ 00000001400a74d8     CmdParamMultiAssign.obj
 0002:0000a508       ??_7CmdParamString@@6B@    00000001400a7508     CmdParamString.obj
 0002:0000a520       ??_7CmdParamSwitch@@6B@    00000001400a7520     CmdParamSwitch.obj
 0002:0000a538       ??_7HunkLoader@@6B@        00000001400a7538     CoffLibraryLoader.obj
 0002:0000a550       ??_7CoffObjectLoader@@6B@  00000001400a7550     CoffLibraryLoader.obj
 0002:0000a568       ??_C@_05LJNAGFEK@?$CFs?$HM?$CFd@ 00000001400a7568     CoffLibraryLoader.obj
 0002:0000a570       ??_C@_09LGGENLMM@stub_for_@ 00000001400a7570     CoffLibraryLoader.obj
 0002:0000a580       __xmm@000000000000000f0000000000000009 00000001400a7580     CoffLibraryLoader.obj
 0002:0000a590       ??_C@_0BA@OBIGDAID@c?$FL?$CFs?$FN?$CBconstants@ 00000001400a7590     CoffObjectLoader.obj
 0002:0000a5a0       ??_C@_0N@EKICPMOH@h?$FL?$CFs?$FN?$CI?$CFd?$CJ?$CB?$CFs@ 00000001400a75a0     CoffObjectLoader.obj
 0002:0000a5b0       ??_C@_0N@PGOCCEEK@l?$FL?$CFs?$CI?$CFd?$CJ?$FN?$CB?$CFs@ 00000001400a75b0     CoffObjectLoader.obj
 0002:0000a5c0       ??_C@_08FJCEIGBA@u?$FL?$CFs?$FN?$CB?$CFs@ 00000001400a75c0     CoffObjectLoader.obj
 0002:0000a5d0       ??_7MultiLoader@@6B@       00000001400a75d0     MultiLoader.obj
 0002:0000a5e8       ??_7CoffLibraryLoader@@6B@ 00000001400a75e8     MultiLoader.obj
 0002:0000a600       ??_7LTCGLoader@@6B@        00000001400a7600     MultiLoader.obj
 0002:0000a618       ??_C@_0L@OBDLOJAH@?5?5?$CFs?3?5?$CF?42f@ 00000001400a7618     EmpiricalHunkSorter.obj
 0002:0000a628       ??_C@_0BP@NOOIOFJD@?5?5Iteration?3?5?$CF5d?5?5Size?3?5?$CF5?42f?6@ 00000001400a7628     EmpiricalHunkSorter.obj
 0002:0000a648       ??_C@_0BB@HOMGCPO@?5?5Iteration?3?5?$CF5d@ 00000001400a7648     EmpiricalHunkSorter.obj
 0002:0000a660       ??_C@_0P@FOEICEFD@?5?5Size?3?5?$CF5?42f?6@ 00000001400a7660     EmpiricalHunkSorter.obj
 0002:0000a670       ??_C@_0BK@NNAEOHAJ@?6?6Reordering?5sections?4?4?4?6@ 00000001400a7670     EmpiricalHunkSorter.obj
 0002:0000a690       ??_C@_0BE@DIGLOIJK@Reordering?5sections@ 00000001400a7690     EmpiricalHunkSorter.obj
 0002:0000a6a8       ??_C@_0BG@EFLFEGCA@Time?5spent?3?5?$CFdm?$CF02ds?6@ 00000001400a76a8     EmpiricalHunkSorter.obj
 0002:0000a7b0       ??_C@_0BB@JECAAK@call?5detransform@ 00000001400a77b0     CallTransform.obj
 0002:0000a7c8       ??_C@_0BD@JCJENKGJ@call?5detransformer@ 00000001400a77c8     CallTransform.obj
 0002:0000a7e0       ??_C@_0L@FLDFHIOH@_CallTrans@ 00000001400a77e0     CallTransform.obj
 0002:0000a7f0       ??_C@_0BI@FBALKNOI@?6Calls?5transformed?3?5?$CFd?6@ 00000001400a77f0     CallTransform.obj
 0002:0000a808       ??_C@_0P@DHLDHFFF@_CallTransSize@ 00000001400a7808     CallTransform.obj
 0002:0000a818       ??_C@_0CL@DLNPOEHI@No?5calls?5?9?5call?5transformation?5@ 00000001400a7818     CallTransform.obj
 0002:0000a844       ??_C@_04KHMCCJKM@Stub@     00000001400a7844     Transform.obj
 0002:0000a850       ??_C@_08PHGBCJAH@?6?$HM?9?9?5?$CFs?5@ 00000001400a7850     ConsoleProgressBar.obj
 0002:0000a85c       ??_C@_02KHLKFPFD@?$HM?6@   00000001400a785c     ConsoleProgressBar.obj
 0002:0000a860       ??_C@_0M@PIHHDJKD@?5?$CF3dm?$CF02ds?6@ 00000001400a7860     ConsoleProgressBar.obj
 0002:0000a870       ??_C@_09DMMGBKDP@?$CFd?$CF?$CF?5?9?5?$CFs@ 00000001400a7870     WindowProgressBar.obj
 0002:0000a880       ??_C@_09PLNDHFIO@?$CF3dm?$CF02ds@ 00000001400a7880     WindowProgressBar.obj
 0002:0000a88c       ??_C@_01CLKCMJKC@?5@       00000001400a788c     Compressor:ModelList.obj
 0002:0000a890       ??_C@_09IEIKHJKM@?$CFs?$CF02X?3?$CFd@ 00000001400a7890     Compressor:ModelList.obj
 0002:0000a8a0       ??_C@_0CO@LGBKBLBJ@Models?3?5?$CF08X?5?5?5Boost?3?5?$CFd?5?5BaseP@ 00000001400a78a0     Compressor:ModelList.obj
 0002:0000a8e0       __xmm@711705110d0b071303171d1f25292b2f 00000001400a78e0     Compressor:CompressionStream.obj
 0002:0000a8f0       ??_C@_07NFANNNEC@UNKNOWN@  00000001400a78f0     Compressor:Compressor.obj
 0002:0000a900       ??_7?$_Func_impl_no_alloc@P6A_JXZ_J$$V@std@@6B@ 00000001400a7900     Compressor:CompressionStateEvaluator.obj
 0002:0000a930       __xmm@007fffff007fffff007fffff007fffff 00000001400a7930     Compressor:CompressionStateEvaluator.obj
 0002:0000a940       __xmm@3e230a963e230a963e230a963e230a96 00000001400a7940     Compressor:CompressionStateEvaluator.obj
 0002:0000a950       __xmm@3f8000003f8000003f8000003f800000 00000001400a7950     Compressor:CompressionStateEvaluator.obj
 0002:0000a960       __xmm@3fb620733fb620733fb620733fb62073 00000001400a7960     Compressor:CompressionStateEvaluator.obj
 0002:0000a970       __xmm@45800000458000004580000045800000 00000001400a7970     Compressor:CompressionStateEvaluator.obj
 0002:0000a980       __xmm@bf15038cbf15038cbf15038cbf15038c 00000001400a7980     Compressor:CompressionStateEvaluator.obj
 0002:0000cec0       __xmm@ffffffffffffffffffffffffffffffff 00000001400a9ec0     libcpmt:vector_algorithms.obj
 0002:0000cee0       __ymm@0000001f0000001f0000001f0000001f0000001f0000001f0000001f0000001f 00000001400a9ee0     libcpmt:vector_algorithms.obj
 0002:0000cf08       ??_7exception@std@@6B@     00000001400a9f08     libcpmt:xthrow.obj
 0002:0000cf20       ??_7bad_alloc@std@@6B@     00000001400a9f20     libcpmt:xthrow.obj
 0002:0000cf38       ??_7bad_function_call@std@@6B@ 00000001400a9f38     libcpmt:xthrow.obj
 0002:0000cf48       ??_C@_0BC@DPJNKNAF@bad?5function?5call@ 00000001400a9f48     libcpmt:xthrow.obj
 0002:0000cf68       ??_7logic_error@std@@6B@   00000001400a9f68     libcpmt:xthrow.obj
 0002:0000cf80       ??_7invalid_argument@std@@6B@ 00000001400a9f80     libcpmt:xthrow.obj
 0002:0000cf98       ??_7length_error@std@@6B@  00000001400a9f98     libcpmt:xthrow.obj
 0002:0000cfb0       ??_7out_of_range@std@@6B@  00000001400a9fb0     libcpmt:xthrow.obj
 0002:0000cfc8       ??_7runtime_error@std@@6B@ 00000001400a9fc8     libcpmt:xthrow.obj
 0002:0000d030       ??_C@_0BI@NGCEHDD@device?5or?5resource?5busy@ 00000001400aa030     libcpmt:thread0.obj
 0002:0000d048       ??_C@_0BB@FCMFBGOM@invalid?5argument@ 00000001400aa048     libcpmt:thread0.obj
 0002:0000d060       ??_C@_0BA@ENLPPKBN@no?5such?5process@ 00000001400aa060     libcpmt:thread0.obj
 0002:0000d070       ??_C@_0BC@ENOOLCNF@not?5enough?5memory@ 00000001400aa070     libcpmt:thread0.obj
 0002:0000d088       ??_C@_0BI@OHIEJAAB@operation?5not?5permitted@ 00000001400aa088     libcpmt:thread0.obj
 0002:0000d0a0       ??_C@_0BO@BJBOMOEJ@resource?5deadlock?5would?5occur@ 00000001400aa0a0     libcpmt:thread0.obj
 0002:0000d0c0       ??_C@_0BP@LKNGHENJ@resource?5unavailable?5try?5again@ 00000001400aa0c0     libcpmt:thread0.obj
 0002:0000d0e8       ??_7bad_array_new_length@std@@6B@ 00000001400aa0e8     libcpmt:thread0.obj
 0002:0000d100       ??_7_System_error@std@@6B@ 00000001400aa100     libcpmt:thread0.obj
 0002:0000d118       ??_7system_error@std@@6B@  00000001400aa118     libcpmt:thread0.obj
 0002:0000d130       ??_7_Generic_error_category@std@@6B@ 00000001400aa130     libcpmt:thread0.obj
 0002:0000d168       ??_7_Facet_base@std@@6B@   00000001400aa168     libcpmt:locale0.obj
 0002:0000d188       ??_7_Locimp@locale@std@@6B@ 00000001400aa188     libcpmt:locale0.obj
 0002:0000d1a0       ??_C@_01NBENCBCI@?$CK@     00000001400aa1a0     libcpmt:locale0.obj
 0002:0000d1a4       ??_C@_01GFHCPBMG@C@        00000001400aa1a4     libcpmt:locale0.obj
 0002:0000d1b0       ?__DOUBLE_POW5_INV_SPLIT@std@@3QAY01$$CB_KA 00000001400aa1b0     libcpmt:xcharconv_ryu_tables.obj
 0002:0000e3f0       ?__DOUBLE_POW5_SPLIT@std@@3QAY01$$CB_KA 00000001400ab3f0     libcpmt:xcharconv_ryu_tables.obj
 0002:0000f850       ?__POW10_SPLIT@std@@3QAY02$$CB_KA 00000001400ac850     libcpmt:xcharconv_ryu_tables.obj
 0002:00016b10       ?__POW10_SPLIT_2@std@@3QAY02$$CB_KA 00000001400b3b10     libcpmt:xcharconv_ryu_tables.obj
 0002:000290d0       ?_Special_X_table@?$_General_precision_tables_2@M@std@@2QBIB 00000001400c60d0     libcpmt:xcharconv_tables_float.obj
 0002:000291d0       ?_Ordinary_X_table@?$_General_precision_tables_2@M@std@@2QBIB 00000001400c61d0     libcpmt:xcharconv_tables_float.obj
 0002:00029280       ?_Special_X_table@?$_General_precision_tables_2@N@std@@2QB_KB 00000001400c6280     libcpmt:xcharconv_tables_double.obj
 0002:000298a0       ?_Ordinary_X_table@?$_General_precision_tables_2@N@std@@2QB_KB 00000001400c68a0     libcpmt:xcharconv_tables_double.obj
 0002:0002a270       ?nothrow@std@@3Unothrow_t@1@B 00000001400c7270     libcpmt:nothrow.obj
 0002:0002a278       ??_C@_1BK@MGMFAEKH@?$AAk?$AAe?$AAr?$AAn?$AAe?$AAl?$AA3?$AA2?$AA?4?$AAd?$AAl?$AAl@ 00000001400c7278     libcpmt:filesystem.obj
 0002:0002a298       ??_C@_0O@NNMIPI@GetTempPath2W@ 00000001400c7298     libcpmt:filesystem.obj
 0002:0002a3b0       ??_C@_1CM@BFAMBNFD@?$AA?$CB?$AAx?$AA?9?$AAs?$AAy?$AAs?$AA?9?$AAd?$AAe?$AAf?$AAa?$AAu?$AAl?$AAt?$AA?9@ 00000001400c73b0     libcpmt:syserror_import_lib.obj
 0002:0002ab70       ??_C@_07IPNMCAN@success@   00000001400c7b70     libcpmt:syserror.obj
 0002:0002ab78       ??_C@_0BN@LKKBCCDB@address?5family?5not?5supported@ 00000001400c7b78     libcpmt:syserror.obj
 0002:0002ab98       ??_C@_0P@LDMLAFHI@address?5in?5use@ 00000001400c7b98     libcpmt:syserror.obj
 0002:0002aba8       ??_C@_0BG@DHPCNBJB@address?5not?5available@ 00000001400c7ba8     libcpmt:syserror.obj
 0002:0002abc0       ??_C@_0BC@DFIBIBIL@already?5connected@ 00000001400c7bc0     libcpmt:syserror.obj
 0002:0002abd8       ??_C@_0BH@CAKOHOMI@argument?5list?5too?5long@ 00000001400c7bd8     libcpmt:syserror.obj
 0002:0002abf0       ??_C@_0BH@CGIMPKIM@argument?5out?5of?5domain@ 00000001400c7bf0     libcpmt:syserror.obj
 0002:0002ac08       ??_C@_0M@KGHGGJGL@bad?5address@ 00000001400c7c08     libcpmt:syserror.obj
 0002:0002ac18       ??_C@_0BE@MPJPGCEO@bad?5file?5descriptor@ 00000001400c7c18     libcpmt:syserror.obj
 0002:0002ac30       ??_C@_0M@PMMIEFCP@bad?5message@ 00000001400c7c30     libcpmt:syserror.obj
 0002:0002ac40       ??_C@_0M@KPHOFDBE@broken?5pipe@ 00000001400c7c40     libcpmt:syserror.obj
 0002:0002ac50       ??_C@_0BD@MGNDDEGM@connection?5aborted@ 00000001400c7c50     libcpmt:syserror.obj
 0002:0002ac68       ??_C@_0BP@KAIHPOGN@connection?5already?5in?5progress@ 00000001400c7c68     libcpmt:syserror.obj
 0002:0002ac88       ??_C@_0BD@PJLIIJEL@connection?5refused@ 00000001400c7c88     libcpmt:syserror.obj
 0002:0002aca0       ??_C@_0BB@IECNJNOI@connection?5reset@ 00000001400c7ca0     libcpmt:syserror.obj
 0002:0002acb8       ??_C@_0BC@PPHBOELF@cross?5device?5link@ 00000001400c7cb8     libcpmt:syserror.obj
 0002:0002acd0       ??_C@_0BN@KDMIFEIP@destination?5address?5required@ 00000001400c7cd0     libcpmt:syserror.obj
 0002:0002acf0       ??_C@_0BE@JIDOCPHM@directory?5not?5empty@ 00000001400c7cf0     libcpmt:syserror.obj
 0002:0002ad08       ??_C@_0BI@BNCLIGPB@executable?5format?5error@ 00000001400c7d08     libcpmt:syserror.obj
 0002:0002ad20       ??_C@_0M@MIDIAGJP@file?5exists@ 00000001400c7d20     libcpmt:syserror.obj
 0002:0002ad30       ??_C@_0P@DNAJLBJK@file?5too?5large@ 00000001400c7d30     libcpmt:syserror.obj
 0002:0002ad40       ??_C@_0BC@EJHOMAAK@filename?5too?5long@ 00000001400c7d40     libcpmt:syserror.obj
 0002:0002ad58       ??_C@_0BH@KEFGLDAF@function?5not?5supported@ 00000001400c7d58     libcpmt:syserror.obj
 0002:0002ad70       ??_C@_0BB@DHFDFGDM@host?5unreachable@ 00000001400c7d70     libcpmt:syserror.obj
 0002:0002ad88       ??_C@_0BD@JPHBMONG@identifier?5removed@ 00000001400c7d88     libcpmt:syserror.obj
 0002:0002ada0       ??_C@_0BG@CDNPAGJK@illegal?5byte?5sequence@ 00000001400c7da0     libcpmt:syserror.obj
 0002:0002adb8       ??_C@_0CD@BNPLBMNA@inappropriate?5io?5control?5operat@ 00000001400c7db8     libcpmt:syserror.obj
 0002:0002ade0       ??_C@_0M@EGEKIIMP@interrupted@ 00000001400c7de0     libcpmt:syserror.obj
 0002:0002adf0       ??_C@_0N@OHAFKDEK@invalid?5seek@ 00000001400c7df0     libcpmt:syserror.obj
 0002:0002ae00       ??_C@_08GLNPIFBN@io?5error@ 00000001400c7e00     libcpmt:syserror.obj
 0002:0002ae10       ??_C@_0P@FLLDBIDK@is?5a?5directory@ 00000001400c7e10     libcpmt:syserror.obj
 0002:0002ae20       ??_C@_0N@IFLPBIOP@message?5size@ 00000001400c7e20     libcpmt:syserror.obj
 0002:0002ae30       ??_C@_0N@KIIEAAIO@network?5down@ 00000001400c7e30     libcpmt:syserror.obj
 0002:0002ae40       ??_C@_0O@FNPDBHEE@network?5reset@ 00000001400c7e40     libcpmt:syserror.obj
 0002:0002ae50       ??_C@_0BE@IFNCKGE@network?5unreachable@ 00000001400c7e50     libcpmt:syserror.obj
 0002:0002ae68       ??_C@_0BA@PFFCAOFK@no?5buffer?5space@ 00000001400c7e68     libcpmt:syserror.obj
 0002:0002ae78       ??_C@_0BB@IEPBLJHK@no?5child?5process@ 00000001400c7e78     libcpmt:syserror.obj
 0002:0002ae90       ??_C@_07PLECNNKG@no?5link@ 00000001400c7e90     libcpmt:syserror.obj
 0002:0002ae98       ??_C@_0BC@NJECKMKE@no?5lock?5available@ 00000001400c7e98     libcpmt:syserror.obj
 0002:0002aeb0       ??_C@_0BF@PBGGPKKE@no?5message?5available@ 00000001400c7eb0     libcpmt:syserror.obj
 0002:0002aec8       ??_C@_0L@EDOLMPAK@no?5message@ 00000001400c7ec8     libcpmt:syserror.obj
 0002:0002aed8       ??_C@_0BD@EAMBFIDF@no?5protocol?5option@ 00000001400c7ed8     libcpmt:syserror.obj
 0002:0002aef0       ??_C@_0BD@IJDJKDEA@no?5space?5on?5device@ 00000001400c7ef0     libcpmt:syserror.obj
 0002:0002af08       ??_C@_0BE@MKFDAFMP@no?5stream?5resources@ 00000001400c7f08     libcpmt:syserror.obj
 0002:0002af20       ??_C@_0BK@IMCPHCBI@no?5such?5device?5or?5address@ 00000001400c7f20     libcpmt:syserror.obj
 0002:0002af40       ??_C@_0P@FDINDDOK@no?5such?5device@ 00000001400c7f40     libcpmt:syserror.obj
 0002:0002af50       ??_C@_0BK@NDOCBPGE@no?5such?5file?5or?5directory@ 00000001400c7f50     libcpmt:syserror.obj
 0002:0002af70       ??_C@_0BA@DOCPFFJG@not?5a?5directory@ 00000001400c7f70     libcpmt:syserror.obj
 0002:0002af80       ??_C@_0N@POEIPGGF@not?5a?5socket@ 00000001400c7f80     libcpmt:syserror.obj
 0002:0002af90       ??_C@_0N@LGAPMMPI@not?5a?5stream@ 00000001400c7f90     libcpmt:syserror.obj
 0002:0002afa0       ??_C@_0O@GLMIBBEG@not?5connected@ 00000001400c7fa0     libcpmt:syserror.obj
 0002:0002afb0       ??_C@_0O@NHEDABJP@not?5supported@ 00000001400c7fb0     libcpmt:syserror.obj
 0002:0002afc0       ??_C@_0BD@MOLBPMEA@operation?5canceled@ 00000001400c7fc0     libcpmt:syserror.obj
 0002:0002afd8       ??_C@_0BG@KDKHOPCO@operation?5in?5progress@ 00000001400c7fd8     libcpmt:syserror.obj
 0002:0002aff0       ??_C@_0BI@LNEGIFLN@operation?5not?5supported@ 00000001400c7ff0     libcpmt:syserror.obj
 0002:0002b008       ??_C@_0BG@OEMDKMEE@operation?5would?5block@ 00000001400c8008     libcpmt:syserror.obj
 0002:0002b020       ??_C@_0L@BLPOFLNJ@owner?5dead@ 00000001400c8020     libcpmt:syserror.obj
 0002:0002b030       ??_C@_0BC@CIJDGCDI@permission?5denied@ 00000001400c8030     libcpmt:syserror.obj
 0002:0002b048       ??_C@_0P@FNPOCJBE@protocol?5error@ 00000001400c8048     libcpmt:syserror.obj
 0002:0002b058       ??_C@_0BH@JPPPLHJB@protocol?5not?5supported@ 00000001400c8058     libcpmt:syserror.obj
 0002:0002b070       ??_C@_0BG@EICBIHDP@read?5only?5file?5system@ 00000001400c8070     libcpmt:syserror.obj
 0002:0002b088       ??_C@_0BE@GOIPJJHG@result?5out?5of?5range@ 00000001400c8088     libcpmt:syserror.obj
 0002:0002b0a0       ??_C@_0BG@MPLKFPAE@state?5not?5recoverable@ 00000001400c80a0     libcpmt:syserror.obj
 0002:0002b0b8       ??_C@_0P@DIIFGFCG@stream?5timeout@ 00000001400c80b8     libcpmt:syserror.obj
 0002:0002b0c8       ??_C@_0P@IPFDMIFL@text?5file?5busy@ 00000001400c80c8     libcpmt:syserror.obj
 0002:0002b0d8       ??_C@_09KJPPMAOI@timed?5out@ 00000001400c80d8     libcpmt:syserror.obj
 0002:0002b0e8       ??_C@_0BO@HACHBEKI@too?5many?5files?5open?5in?5system@ 00000001400c80e8     libcpmt:syserror.obj
 0002:0002b108       ??_C@_0BE@GHAFMPAH@too?5many?5files?5open@ 00000001400c8108     libcpmt:syserror.obj
 0002:0002b120       ??_C@_0P@HCOMKFCC@too?5many?5links@ 00000001400c8120     libcpmt:syserror.obj
 0002:0002b130       ??_C@_0BO@EFGOJEF@too?5many?5symbolic?5link?5levels@ 00000001400c8130     libcpmt:syserror.obj
 0002:0002b150       ??_C@_0BA@KGKGOOJA@value?5too?5large@ 00000001400c8150     libcpmt:syserror.obj
 0002:0002b160       ??_C@_0BE@MIEJDDNH@wrong?5protocol?5type@ 00000001400c8160     libcpmt:syserror.obj
 0002:0002b178       ??_C@_0O@BFJCFAAK@unknown?5error@ 00000001400c8178     libcpmt:syserror.obj
 0002:0002b190       ??_7bad_cast@std@@6B@      00000001400c8190     libcpmt:locale.obj
 0002:0002b1a8       ??_7?$numpunct@D@std@@6B@  00000001400c81a8     libcpmt:locale.obj
 0002:0002b1e8       ??_C@_0BP@FPNJPEJC@GetSystemTimePreciseAsFileTime@ 00000001400c81e8     libcpmt:winapisupp.obj
 0002:0002b208       ??_C@_11LOCGONAA@@         00000001400c8208     libcpmt:wlocale.obj
 0002:0002b20c       ??_C@_13IMODFHAA@?$AA?9@   00000001400c820c     libcpmt:wlocale.obj
 0002:0002b2b0       ?s_bucketSizes@SubAllocator@details@Concurrency@@0QBHB 00000001400c82b0     libconcrt:SubAllocator.obj
 0002:0002b430       ?GranularityShift@SubAllocator@details@Concurrency@@0HB 00000001400c8430     libconcrt:SubAllocator.obj
 0002:0002b434       ?MaxAllocationSize@SubAllocator@details@Concurrency@@0HB 00000001400c8434     libconcrt:SubAllocator.obj
 0002:0002b440       ??_7improper_lock@Concurrency@@6B@ 00000001400c8440     libconcrt:rtlocks.obj
 0002:0002b450       ??_C@_0BD@BAGHDICJ@Lock?5already?5taken@ 00000001400c8450     libconcrt:rtlocks.obj
 0002:0002b470       ??_7scheduler_resource_allocation_error@Concurrency@@6B@ 00000001400c8470     libconcrt:utils.obj
 0002:0002b488       ??_7_Interruption_exception@details@Concurrency@@6B@ 00000001400c8488     libconcrt:Chores.obj
 0002:0002b4a0       ??_7missing_wait@Concurrency@@6B@ 00000001400c84a0     libconcrt:Chores.obj
 0002:0002b4b8       ??_7_RefCounter@details@Concurrency@@6B@ 00000001400c84b8     libconcrt:Chores.obj
 0002:0002b4d0       ??_7CancellationTokenRegistration_TaskProc@details@Concurrency@@6B@ 00000001400c84d0     libconcrt:Chores.obj
 0002:0002b4f0       ??_7invalid_multiple_scheduling@Concurrency@@6B@ 00000001400c84f0     libconcrt:TaskCollection.obj
 0002:0002b508       ??_7?$_MallocaArrayHolder@PEAVevent@Concurrency@@@details@Concurrency@@6B@ 00000001400c8508     libconcrt:TaskCollection.obj
 0002:0002b518       ??_7Context@Concurrency@@6B@ 00000001400c8518     libconcrt:ContextBase.obj
 0002:0002b550       ??_7ContextBase@details@Concurrency@@6B@ 00000001400c8550     libconcrt:ContextBase.obj
 0002:0002b5e0       ?ConcRT_ProviderGuid@Concurrency@@3U_GUID@@B 00000001400c85e0     libconcrt:Trace.obj
 0002:0002b5f0       ?ConcRTEventGuid@Concurrency@@3U_GUID@@B 00000001400c85f0     libconcrt:Trace.obj
 0002:0002b600       ?SchedulerEventGuid@Concurrency@@3U_GUID@@B 00000001400c8600     libconcrt:Trace.obj
 0002:0002b610       ?ScheduleGroupEventGuid@Concurrency@@3U_GUID@@B 00000001400c8610     libconcrt:Trace.obj
 0002:0002b620       ?ContextEventGuid@Concurrency@@3U_GUID@@B 00000001400c8620     libconcrt:Trace.obj
 0002:0002b630       ?ChoreEventGuid@Concurrency@@3U_GUID@@B 00000001400c8630     libconcrt:Trace.obj
 0002:0002b640       ?VirtualProcessorEventGuid@Concurrency@@3U_GUID@@B 00000001400c8640     libconcrt:Trace.obj
 0002:0002b650       ?LockEventGuid@Concurrency@@3U_GUID@@B 00000001400c8650     libconcrt:Trace.obj
 0002:0002b660       ?ResourceManagerEventGuid@Concurrency@@3U_GUID@@B 00000001400c8660     libconcrt:Trace.obj
 0002:0002b670       ?PPLParallelInvokeEventGuid@Concurrency@@3U_GUID@@B 00000001400c8670     libconcrt:Trace.obj
 0002:0002b680       ?PPLParallelForEventGuid@Concurrency@@3U_GUID@@B 00000001400c8680     libconcrt:Trace.obj
 0002:0002b690       ?PPLParallelForeachEventGuid@Concurrency@@3U_GUID@@B 00000001400c8690     libconcrt:Trace.obj
 0002:0002b6a0       ?AgentEventGuid@Concurrency@@3U_GUID@@B 00000001400c86a0     libconcrt:Trace.obj
 0002:0002b6b0       ??_C@_1BK@JHLNAEJL@?$AAa?$AAd?$AAv?$AAa?$AAp?$AAi?$AA3?$AA2?$AA?4?$AAd?$AAl?$AAl@ 00000001400c86b0     libconcrt:Trace.obj
 0002:0002b6d0       ??_C@_0BE@FKJMGMF@RegisterTraceGuidsW@ 00000001400c86d0     libconcrt:Trace.obj
 0002:0002b6e8       ??_C@_0BF@OFMMALCC@UnregisterTraceGuids@ 00000001400c86e8     libconcrt:Trace.obj
 0002:0002b700       ??_C@_0L@EOLEDHLE@TraceEvent@ 00000001400c8700     libconcrt:Trace.obj
 0002:0002b710       ??_C@_0BF@OFCGPMKL@GetTraceLoggerHandle@ 00000001400c8710     libconcrt:Trace.obj
 0002:0002b728       ??_C@_0BE@JCHMKLLJ@GetTraceEnableLevel@ 00000001400c8728     libconcrt:Trace.obj
 0002:0002b740       ??_C@_0BE@DNOHFPHI@GetTraceEnableFlags@ 00000001400c8740     libconcrt:Trace.obj
 0002:0002b774       ?s_maxExternalAllocators@SchedulerBase@details@Concurrency@@0HB 00000001400c8774     libconcrt:SchedulerBase.obj
 0002:0002b778       ?s_allocatorFreePoolLimit@SchedulerBase@details@Concurrency@@0HB 00000001400c8778     libconcrt:SchedulerBase.obj
 0002:0002b788       ??_7improper_scheduler_attach@Concurrency@@6B@ 00000001400c8788     libconcrt:SchedulerBase.obj
 0002:0002b7a0       ??_7improper_scheduler_reference@Concurrency@@6B@ 00000001400c87a0     libconcrt:SchedulerBase.obj
 0002:0002b7b8       ??_7ScheduleGroup@Concurrency@@6B@ 00000001400c87b8     libconcrt:SchedulerBase.obj
 0002:0002b7e8       ??_7Scheduler@Concurrency@@6B@ 00000001400c87e8     libconcrt:SchedulerBase.obj
 0002:0002b858       ??_7_Chore@details@Concurrency@@6B@ 00000001400c8858     libconcrt:SchedulerBase.obj
 0002:0002b868       ??_7RealizedChore@details@Concurrency@@6B@ 00000001400c8868     libconcrt:SchedulerBase.obj
 0002:0002b878       ??_7SchedulerBase@details@Concurrency@@6B@ 00000001400c8878     libconcrt:SchedulerBase.obj
 0002:0002b940       ??_7CacheLocalScheduleGroupSegment@details@Concurrency@@6B@ 00000001400c8940     libconcrt:SchedulerBase.obj
 0002:0002b968       ??_7CacheLocalScheduleGroup@details@Concurrency@@6B@ 00000001400c8968     libconcrt:SchedulerBase.obj
 0002:0002b9c0       ??_7FairScheduleGroupSegment@details@Concurrency@@6B@ 00000001400c89c0     libconcrt:SchedulerBase.obj
 0002:0002b9e8       ??_7FairScheduleGroup@details@Concurrency@@6B@ 00000001400c89e8     libconcrt:SchedulerBase.obj
 0002:0002ba38       ??_C@_0M@IAPOLKMH@eventObject@ 00000001400c8a38     libconcrt:SchedulerBase.obj
 0002:0002ba48       ??_C@_0BI@PMOAFEOC@ppVirtualProcessorRoots@ 00000001400c8a48     libconcrt:SchedulerBase.obj
 0002:0002ba60       ??_C@_05IOMEMJEC@count@    00000001400c8a60     libconcrt:SchedulerBase.obj
 0002:0002ba70       ??_7scheduler_worker_creation_error@Concurrency@@6B@ 00000001400c8a70     libconcrt:Exceptions.obj
 0002:0002ba88       ??_7context_unblock_unbalanced@Concurrency@@6B@ 00000001400c8a88     libconcrt:Exceptions.obj
 0002:0002baa0       ??_7context_self_unblock@Concurrency@@6B@ 00000001400c8aa0     libconcrt:Exceptions.obj
 0002:0002bab8       ??_7invalid_scheduler_policy_key@Concurrency@@6B@ 00000001400c8ab8     libconcrt:Exceptions.obj
 0002:0002bad0       ??_7invalid_scheduler_policy_value@Concurrency@@6B@ 00000001400c8ad0     libconcrt:Exceptions.obj
 0002:0002bae8       ??_7invalid_scheduler_policy_thread_specification@Concurrency@@6B@ 00000001400c8ae8     libconcrt:Exceptions.obj
 0002:0002bb00       ??_7nested_scheduler_missing_detach@Concurrency@@6B@ 00000001400c8b00     libconcrt:Exceptions.obj
 0002:0002bb18       ??_7invalid_oversubscribe_operation@Concurrency@@6B@ 00000001400c8b18     libconcrt:Exceptions.obj
 0002:0002bb30       ??_7invalid_operation@Concurrency@@6B@ 00000001400c8b30     libconcrt:ResourceManager.obj
 0002:0002bb48       ??_7TopologyObject@GlobalCore@details@Concurrency@@6B@ 00000001400c8b48     libconcrt:ResourceManager.obj
 0002:0002bb60       ??_7TopologyObject@GlobalNode@details@Concurrency@@6B@ 00000001400c8b60     libconcrt:ResourceManager.obj
 0002:0002bb90       ??_7ResourceManager@details@Concurrency@@6B@ 00000001400c8b90     libconcrt:ResourceManager.obj
 0002:0002bbc0       ??_C@_0L@HKFDMHB@pScheduler@ 00000001400c8bc0     libconcrt:ResourceManager.obj
 0002:0002bbd0       ??_C@_07CPCPJPKL@version@  00000001400c8bd0     libconcrt:ResourceManager.obj
 0002:0002bbd8       __real@0000000000000000    00000001400c8bd8     libconcrt:ResourceManager.obj
 0002:0002bbe0       __real@3e7ad7f29abcaf48    00000001400c8be0     libconcrt:ResourceManager.obj
 0002:0002bbf0       ??_7WaitBlock@details@Concurrency@@6B@ 00000001400c8bf0     libconcrt:event.obj
 0002:0002bc20       ??_7SingleWaitBlock@details@Concurrency@@6B@ 00000001400c8c20     libconcrt:event.obj
 0002:0002bc50       ??_7MultiWaitBlock@details@Concurrency@@6B@ 00000001400c8c50     libconcrt:event.obj
 0002:0002bc88       ??_7WaitAllBlock@details@Concurrency@@6B@ 00000001400c8c88     libconcrt:event.obj
 0002:0002bcc0       ??_7WaitAnyBlock@details@Concurrency@@6B@ 00000001400c8cc0     libconcrt:event.obj
 0002:0002bcf8       ??_7?$_MallocaArrayHolder@PEAVContext@Concurrency@@@details@Concurrency@@6B@ 00000001400c8cf8     libconcrt:event.obj
 0002:0002bd00       ??_C@_07CAAEJHLA@pEvents@  00000001400c8d00     libconcrt:event.obj
 0002:0002bd10       ??_7ScheduleGroupSegmentBase@details@Concurrency@@6B@ 00000001400c8d10     libconcrt:ScheduleGroupBase.obj
 0002:0002bd38       ??_7ScheduleGroupBase@details@Concurrency@@6B@ 00000001400c8d38     libconcrt:ScheduleGroupBase.obj
 0002:0002bd88       ??_C@_04MGCDEED@proc@      00000001400c8d88     libconcrt:ScheduleGroupBase.obj
 0002:0002be18       ??_C@_0O@JJAHDPNG@SchedulerKind@ 00000001400c8e18     libconcrt:SchedulerPolicyBase.obj
 0002:0002be28       ??_C@_0P@CGAHIHHE@MaxConcurrency@ 00000001400c8e28     libconcrt:SchedulerPolicyBase.obj
 0002:0002be38       ??_C@_0P@BLMOAEF@MinConcurrency@ 00000001400c8e38     libconcrt:SchedulerPolicyBase.obj
 0002:0002be48       ??_C@_0BN@GKPFKNNF@TargetOversubscriptionFactor@ 00000001400c8e48     libconcrt:SchedulerPolicyBase.obj
 0002:0002be68       ??_C@_0BG@PCMPEOIE@LocalContextCacheSize@ 00000001400c8e68     libconcrt:SchedulerPolicyBase.obj
 0002:0002be80       ??_C@_0BB@OPLJNNNB@ContextStackSize@ 00000001400c8e80     libconcrt:SchedulerPolicyBase.obj
 0002:0002be98       ??_C@_0BA@CHGPFLBM@ContextPriority@ 00000001400c8e98     libconcrt:SchedulerPolicyBase.obj
 0002:0002bea8       ??_C@_0BD@HMLGOEAM@SchedulingProtocol@ 00000001400c8ea8     libconcrt:SchedulerPolicyBase.obj
 0002:0002bec0       ??_C@_0BI@PEDMDBKL@DynamicProgressFeedback@ 00000001400c8ec0     libconcrt:SchedulerPolicyBase.obj
 0002:0002bed8       ??_C@_0BE@EBKJEJDK@WinRTInitialization@ 00000001400c8ed8     libconcrt:SchedulerPolicyBase.obj
 0002:0002bef0       ??_C@_0BE@OJPKBKLL@MaxPolicyElementKey@ 00000001400c8ef0     libconcrt:SchedulerPolicyBase.obj
 0002:0002bf10       ??_7VirtualProcessor@details@Concurrency@@6B@ 00000001400c8f10     libconcrt:VirtualProcessor.obj
 0002:0002bf60       ??_7IExecutionContext@Concurrency@@6B@ 00000001400c8f60     libconcrt:InternalContextBase.obj
 0002:0002bf90       ??_7InternalContextBase@details@Concurrency@@6BIExecutionContext@2@@ 00000001400c8f90     libconcrt:InternalContextBase.obj
 0002:0002bfe0       ??_7InternalContextBase@details@Concurrency@@6BContextBase@12@@ 00000001400c8fe0     libconcrt:InternalContextBase.obj
 0002:0002c070       ??_C@_0N@FACDCNDA@pThreadProxy@ 00000001400c9070     libconcrt:InternalContextBase.obj
 0002:0002c088       ??_7ExternalContextBase@details@Concurrency@@6B@ 00000001400c9088     libconcrt:ExternalContextBase.obj
 0002:0002c120       ??_7IScheduler@Concurrency@@6B@ 00000001400c9120     libconcrt:ThreadScheduler.obj
 0002:0002c160       ??_7ThreadInternalContext@details@Concurrency@@6BIExecutionContext@2@@ 00000001400c9160     libconcrt:ThreadScheduler.obj
 0002:0002c1b0       ??_7ThreadInternalContext@details@Concurrency@@6BContextBase@12@@ 00000001400c91b0     libconcrt:ThreadScheduler.obj
 0002:0002c248       ??_7ThreadScheduler@details@Concurrency@@6BIScheduler@2@@ 00000001400c9248     libconcrt:ThreadScheduler.obj
 0002:0002c288       ??_7ThreadScheduler@details@Concurrency@@6BSchedulerBase@12@@ 00000001400c9288     libconcrt:ThreadScheduler.obj
