 Crinkler

 Timestamp is 5c18fa28 (Tue Dec 18 14:46:16 2018)

 Preferred load address is 00400000

 Start         Length     Name                   Class
 0001:00000000 00000140H .text$di                CODE
 0001:00000140 00074260H .text$mn                CODE
 0001:000743a0 00001560H .text$x                 CODE
 0001:00075900 000000d3H .text$yd                CODE
 0002:00000000 00000234H .idata$5                DATA
 0002:00000234 00000004H .00cfg                  DATA
 0002:00000238 00000004H .CRT$XCA                DATA
 0002:0000023c 00000004H .CRT$XCAA               DATA
 0002:00000240 00000024H .CRT$XCC                DATA
 0002:00000264 00000008H .CRT$XCL                DATA
 0002:0000026c 00000010H .CRT$XCU                DATA
 0002:0000027c 00000004H .CRT$XCZ                DATA
 0002:00000280 00000004H .CRT$XIA                DATA
 0002:00000284 00000004H .CRT$XIAA               DATA
 0002:00000288 00000004H .CRT$XIAC               DATA
 0002:0000028c 0000001cH .CRT$XIC                DATA
 0002:000002a8 00000004H .CRT$XIZ                DATA
 0002:000002ac 00000004H .CRT$XLA                DATA
 0002:000002b0 00000004H .CRT$XLZ                DATA
 0002:000002b4 00000004H .CRT$XPA                DATA
 0002:000002b8 00000004H .CRT$XPB                DATA
 0002:000002bc 00000008H .CRT$XPX                DATA
 0002:000002c4 00000004H .CRT$XPXA               DATA
 0002:000002c8 00000004H .CRT$XPZ                DATA
 0002:000002cc 00000004H .CRT$XTA                DATA
 0002:000002d0 00000010H .CRT$XTZ                DATA
 0002:000002d4 00000000H .gfids$x                DATA
 0002:000002d4 00000000H .gfids$y                DATA
 0002:000002e0 00011cd8H .rdata                  DATA
 0002:00011fb8 00000018H .rdata$T                DATA
 0002:00011fd0 00002278H .rdata$r                DATA
 0002:00014248 00000424H .rdata$zzzdbg           DATA
 0002:0001466c 00000004H .rtc$IAA                DATA
 0002:00014670 00000004H .rtc$IZZ                DATA
 0002:00014674 00000004H .rtc$TAA                DATA
 0002:00014678 00000004H .rtc$TZZ                DATA
 0002:0001467c 00000004H .tls                    DATA
 0002:00014680 00000004H .tls$                   DATA
 0002:00014684 00000004H .tls$ZZZ                DATA
 0002:00014688 00003e94H .xdata$x                DATA
 0002:0001851c 00000000H .edata                  DATA
 0002:0001851c 00000050H .idata$2                DATA
 0002:0001856c 00000014H .idata$3                DATA
 0002:00018580 00000234H .idata$4                DATA
 0002:000187b4 00000a90H .idata$6                DATA
 0003:00000000 00031c20H .data                   DATA
 0003:00031c20 000016c8H .data$r                 DATA
 0003:000332e8 00001288H .bss                    DATA
 0004:00000000 00008000H logtable                DATA
 0005:00000000 00000090H .rsrc$01                DATA
 0005:00000090 000001a8H .rsrc$02                DATA

  Address         Publics by Value              Rva+Base       Lib:Object

 0000:00000000       ___enclave_config          00000000     <absolute>
 0000:00000000       __except_list              00000000     <absolute>
 0000:00000000       ___guard_fids_count        00000000     <absolute>
 0000:00000000       ___guard_longjmp_count     00000000     <absolute>
 0000:00000000       ___hybrid_code_map         00000000     <absolute>
 0000:00000000       ___guard_longjmp_table     00000000     <absolute>
 0000:00000000       ___guard_iat_table         00000000     <absolute>
 0000:00000000       ___guard_iat_count         00000000     <absolute>
 0000:00000000       ___hybrid_auxiliary_iat    00000000     <absolute>
 0000:00000000       ___guard_fids_table        00000000     <absolute>
 0000:00000000       ___safe_se_handler_table   00000000     <absolute>
 0000:00000000       ___hybrid_code_map_count   00000000     <absolute>
 0000:00000000       ___dynamic_value_reloc_table 00000000     <absolute>
 0000:00000000       ___safe_se_handler_count   00000000     <absolute>
 0000:0000002c       __tls_array                0000002c     <absolute>
 0000:00000100       ___guard_flags             00000100     <absolute>
 0000:00000000       ___ImageBase               00400000     <linker-defined>
 0001:00000140       ??$_Buynode@ABQAVHunk@@@?$_List_buy@PAVHunk@@V?$allocator@PAVHunk@@@std@@@std@@QAEPAU?$_List_node@PAVHunk@@PAX@1@PAU21@0ABQAVHunk@@@Z 00401140 f i Crinkler.obj
 0001:00000140       ??$_Buynode@ABQAVCmdParam@@@?$_List_buy@PAVCmdParam@@V?$allocator@PAVCmdParam@@@std@@@std@@QAEPAU?$_List_node@PAVCmdParam@@PAX@1@PAU21@0ABQAVCmdParam@@@Z 00401140 f i CmdLineInterface.obj
 0001:00000140       ??$_Buynode@PAVHunkLoader@@@?$_List_buy@PAVHunkLoader@@V?$allocator@PAVHunkLoader@@@std@@@std@@QAEPAU?$_List_node@PAVHunkLoader@@PAX@1@PAU21@0$$QAPAVHunkLoader@@@Z 00401140 f i MultiLoader.obj
 0001:000001c0       ??$_Buynode@ABUpiecewise_construct_t@std@@V?$tuple@$$QAV?$basic_string@DU?$char_traits@D@std@@V?$allocator@D@2@@std@@@2@V?$tuple@$$V@2@@?$_Tree_comp_alloc@V?$_Tmap_traits@V?$basic_string@DU?$char_traits@D@std@@V?$allocator@D@2@@std@@V12@U?$less@V?$basic_string@DU?$char_traits@D@std@@V?$allocator@D@2@@std@@@2@V?$allocator@U?$pair@$$CBV?$basic_string@DU?$char_traits@D@std@@V?$allocator@D@2@@std@@V12@@std@@@2@$0A@@std@@@std@@QAEPAU?$_Tree_node@U?$pair@$$CBV?$basic_string@DU?$char_traits@D@std@@V?$allocator@D@2@@std@@V12@@std@@PAX@1@ABUpiecewise_construct_t@1@$$QAV?$tuple@$$QAV?$basic_string@DU?$char_traits@D@std@@V?$allocator@D@2@@std@@@1@$$QAV?$tuple@$$V@1@@Z 004011c0 f i Crinkler.obj
 0001:00000250       ??$_Buynode@ABV?$basic_string@DU?$char_traits@D@std@@V?$allocator@D@2@@std@@@?$_Tree_comp_alloc@V?$_Tset_traits@V?$basic_string@DU?$char_traits@D@std@@V?$allocator@D@2@@std@@U?$less@V?$basic_string@DU?$char_traits@D@std@@V?$allocator@D@2@@std@@@2@V?$allocator@V?$basic_string@DU?$char_traits@D@std@@V?$allocator@D@2@@std@@@2@$0A@@std@@@std@@QAEPAU?$_Tree_node@V?$basic_string@DU?$char_traits@D@std@@V?$allocator@D@2@@std@@PAX@1@ABV?$basic_string@DU?$char_traits@D@std@@V?$allocator@D@2@@1@@Z 00401250 f i Crinkler.obj
 0001:000002d0       ??$_Buynode@VExport@@@?$_Tree_comp_alloc@V?$_Tset_traits@VExport@@U?$less@VExport@@@std@@V?$allocator@VExport@@@3@$0A@@std@@@std@@QAEPAU?$_Tree_node@VExport@@PAX@1@$$QAVExport@@@Z 004012d0 f i Crinkler.obj
 0001:00000350       ??$_Emplace_reallocate@ABI@?$vector@IV?$allocator@I@std@@@std@@QAEPAIQAIABI@Z 00401350 f i ImportHandler.obj
 0001:00000350       ??$_Emplace_reallocate@PAVSymbol@@@?$vector@PAVSymbol@@V?$allocator@PAVSymbol@@@std@@@std@@QAEPAPAVSymbol@@QAPAV2@$$QAPAV2@@Z 00401350 f i Crinkler.obj
 0001:00000350       ??$_Emplace_reallocate@ABQAVProgressBar@@@?$vector@PAVProgressBar@@V?$allocator@PAVProgressBar@@@std@@@std@@QAEPAPAVProgressBar@@QAPAV2@ABQAV2@@Z 00401350 f i CompositeProgressBar.obj
 0001:00000350       ??$_Emplace_reallocate@ABQAVSymbol@@@?$vector@PAVSymbol@@V?$allocator@PAVSymbol@@@std@@@std@@QAEPAPAVSymbol@@QAPAV2@ABQAV2@@Z 00401350 f i Hunk.obj
 0001:00000350       ??$_Emplace_reallocate@ABQAUCompressionReportRecord@@@?$vector@PAUCompressionReportRecord@@V?$allocator@PAUCompressionReportRecord@@@std@@@std@@QAEPAPAUCompressionReportRecord@@QAPAU2@ABQAU2@@Z 00401350 f i Hunk.obj
 0001:00000350       ??$_Emplace_reallocate@ABQAVHunk@@@?$vector@PAVHunk@@V?$allocator@PAVHunk@@@std@@@std@@QAEPAPAVHunk@@QAPAV2@ABQAV2@@Z 00401350 f i ExplicitHunkSorter.obj
 0001:00000500       ??$_Insert@ABQAVHunk@@@?$list@PAVHunk@@V?$allocator@PAVHunk@@@std@@@std@@QAEXV?$_List_unchecked_const_iterator@V?$_List_val@U?$_List_simple_types@PAVHunk@@@std@@@std@@U_Iterator_base0@2@@1@ABQAVHunk@@@Z 00401500 f i Crinkler.obj
 0001:00000550       ??$_Insert_at@AAU?$pair@$$CBV?$basic_string@DU?$char_traits@D@std@@V?$allocator@D@2@@std@@V12@@std@@PAU?$_Tree_node@U?$pair@$$CBV?$basic_string@DU?$char_traits@D@std@@V?$allocator@D@2@@std@@V12@@std@@PAX@2@@?$_Tree@V?$_Tmap_traits@V?$basic_string@DU?$char_traits@D@std@@V?$allocator@D@2@@std@@V12@U?$less@V?$basic_string@DU?$char_traits@D@std@@V?$allocator@D@2@@std@@@2@V?$allocator@U?$pair@$$CBV?$basic_string@DU?$char_traits@D@std@@V?$allocator@D@2@@std@@V12@@std@@@2@$0A@@std@@@std@@IAE?AV?$_Tree_iterator@V?$_Tree_val@U?$_Tree_simple_types@U?$pair@$$CBV?$basic_string@DU?$char_traits@D@std@@V?$allocator@D@2@@std@@V12@@std@@@std@@@std@@@1@_NPAU?$_Tree_node@U?$pair@$$CBV?$basic_string@DU?$char_traits@D@std@@V?$allocator@D@2@@std@@V12@@std@@PAX@1@AAU?$pair@$$CBV?$basic_string@DU?$char_traits@D@std@@V?$allocator@D@2@@std@@V12@@1@1@Z 00401550 f i Crinkler.obj
 0001:000006f0       ??$_Insert_at@ABV?$basic_string@DU?$char_traits@D@std@@V?$allocator@D@2@@std@@U_Not_a_node_tag@2@@?$_Tree@V?$_Tset_traits@V?$basic_string@DU?$char_traits@D@std@@V?$allocator@D@2@@std@@U?$less@V?$basic_string@DU?$char_traits@D@std@@V?$allocator@D@2@@std@@@2@V?$allocator@V?$basic_string@DU?$char_traits@D@std@@V?$allocator@D@2@@std@@@2@$0A@@std@@@std@@IAE?AV?$_Tree_const_iterator@V?$_Tree_val@U?$_Tree_simple_types@V?$basic_string@DU?$char_traits@D@std@@V?$allocator@D@2@@std@@@std@@@std@@@1@_NPAU?$_Tree_node@V?$basic_string@DU?$char_traits@D@std@@V?$allocator@D@2@@std@@PAX@1@ABV?$basic_string@DU?$char_traits@D@std@@V?$allocator@D@2@@1@U_Not_a_node_tag@1@@Z 004016f0 f i Crinkler.obj
 0001:00000890       ??$_Insert_at@VExport@@U_Not_a_node_tag@std@@@?$_Tree@V?$_Tset_traits@VExport@@U?$less@VExport@@@std@@V?$allocator@VExport@@@3@$0A@@std@@@std@@IAE?AV?$_Tree_const_iterator@V?$_Tree_val@U?$_Tree_simple_types@VExport@@@std@@@std@@@1@_NPAU?$_Tree_node@VExport@@PAX@1@$$QAVExport@@U_Not_a_node_tag@1@@Z 00401890 f i Crinkler.obj
 0001:00000a30       ??$_Insert_hint@AAU?$pair@$$CBV?$basic_string@DU?$char_traits@D@std@@V?$allocator@D@2@@std@@V12@@std@@PAU?$_Tree_node@U?$pair@$$CBV?$basic_string@DU?$char_traits@D@std@@V?$allocator@D@2@@std@@V12@@std@@PAX@2@@?$_Tree@V?$_Tmap_traits@V?$basic_string@DU?$char_traits@D@std@@V?$allocator@D@2@@std@@V12@U?$less@V?$basic_string@DU?$char_traits@D@std@@V?$allocator@D@2@@std@@@2@V?$allocator@U?$pair@$$CBV?$basic_string@DU?$char_traits@D@std@@V?$allocator@D@2@@std@@V12@@std@@@2@$0A@@std@@@std@@IAE?AV?$_Tree_iterator@V?$_Tree_val@U?$_Tree_simple_types@U?$pair@$$CBV?$basic_string@DU?$char_traits@D@std@@V?$allocator@D@2@@std@@V12@@std@@@std@@@std@@@1@V?$_Tree_const_iterator@V?$_Tree_val@U?$_Tree_simple_types@U?$pair@$$CBV?$basic_string@DU?$char_traits@D@std@@V?$allocator@D@2@@std@@V12@@std@@@std@@@std@@@1@AAU?$pair@$$CBV?$basic_string@DU?$char_traits@D@std@@V?$allocator@D@2@@std@@V12@@1@PAU?$_Tree_node@U?$pair@$$CBV?$basic_string@DU?$char_traits@D@std@@V?$allocator@D@2@@std@@V12@@std@@PAX@1@@Z 00401a30 f i Crinkler.obj
 0001:00000cb0       ??$_Insert_nohint@AAU?$pair@$$CBV?$basic_string@DU?$char_traits@D@std@@V?$allocator@D@2@@std@@V12@@std@@PAU?$_Tree_node@U?$pair@$$CBV?$basic_string@DU?$char_traits@D@std@@V?$allocator@D@2@@std@@V12@@std@@PAX@2@@?$_Tree@V?$_Tmap_traits@V?$basic_string@DU?$char_traits@D@std@@V?$allocator@D@2@@std@@V12@U?$less@V?$basic_string@DU?$char_traits@D@std@@V?$allocator@D@2@@std@@@2@V?$allocator@U?$pair@$$CBV?$basic_string@DU?$char_traits@D@std@@V?$allocator@D@2@@std@@V12@@std@@@2@$0A@@std@@@std@@IAE?AU?$pair@V?$_Tree_iterator@V?$_Tree_val@U?$_Tree_simple_types@U?$pair@$$CBV?$basic_string@DU?$char_traits@D@std@@V?$allocator@D@2@@std@@V12@@std@@@std@@@std@@@std@@_N@1@_NAAU?$pair@$$CBV?$basic_string@DU?$char_traits@D@std@@V?$allocator@D@2@@std@@V12@@1@PAU?$_Tree_node@U?$pair@$$CBV?$basic_string@DU?$char_traits@D@std@@V?$allocator@D@2@@std@@V12@@std@@PAX@1@@Z 00401cb0 f i Crinkler.obj
 0001:00000e60       ??$_Insert_nohint@ABV?$basic_string@DU?$char_traits@D@std@@V?$allocator@D@2@@std@@U_Not_a_node_tag@2@@?$_Tree@V?$_Tset_traits@V?$basic_string@DU?$char_traits@D@std@@V?$allocator@D@2@@std@@U?$less@V?$basic_string@DU?$char_traits@D@std@@V?$allocator@D@2@@std@@@2@V?$allocator@V?$basic_string@DU?$char_traits@D@std@@V?$allocator@D@2@@std@@@2@$0A@@std@@@std@@IAE?AU?$pair@V?$_Tree_const_iterator@V?$_Tree_val@U?$_Tree_simple_types@V?$basic_string@DU?$char_traits@D@std@@V?$allocator@D@2@@std@@@std@@@std@@@std@@_N@1@_NABV?$basic_string@DU?$char_traits@D@std@@V?$allocator@D@2@@1@U_Not_a_node_tag@1@@Z 00401e60 f i Crinkler.obj
 0001:00001000       ??$_Insert_nohint@VExport@@U_Not_a_node_tag@std@@@?$_Tree@V?$_Tset_traits@VExport@@U?$less@VExport@@@std@@V?$allocator@VExport@@@3@$0A@@std@@@std@@IAE?AU?$pair@V?$_Tree_const_iterator@V?$_Tree_val@U?$_Tree_simple_types@VExport@@@std@@@std@@@std@@_N@1@_N$$QAVExport@@U_Not_a_node_tag@1@@Z 00402000 f i Crinkler.obj
 0001:000011a0       ??$_Insert_range@V?$_List_const_iterator@V?$_List_val@U?$_List_simple_types@PAVHunk@@@std@@@std@@@std@@@?$list@PAVHunk@@V?$allocator@PAVHunk@@@std@@@std@@QAEXV?$_List_unchecked_const_iterator@V?$_List_val@U?$_List_simple_types@PAVHunk@@@std@@@std@@U_Iterator_base0@2@@1@V?$_List_const_iterator@V?$_List_val@U?$_List_simple_types@PAVHunk@@@std@@@std@@@1@1Uforward_iterator_tag@1@@Z 004021a0 f i Crinkler.obj
 0001:00001240       ??$_InvokeBridge@V?$task_handle@V?$_Parallel_chunk_helper@HKV<lambda_4380338d88b6c874d7cf342938e70ef2>@@Vauto_partitioner@Concurrency@@$0A@@Concurrency@@@Concurrency@@@_UnrealizedChore@details@Concurrency@@KAXPAX@Z 00402240 f i Crinkler.obj
 0001:00001510       ??$_Traits_compare@U?$char_traits@D@std@@@std@@YAHQBDI0I@Z 00402510 f i Crinkler.obj
 0001:000015a0       ??$construct@U?$pair@$$CBV?$basic_string@DU?$char_traits@D@std@@V?$allocator@D@2@@std@@V12@@std@@ABUpiecewise_construct_t@2@V?$tuple@$$QAV?$basic_string@DU?$char_traits@D@std@@V?$allocator@D@2@@std@@@2@V?$tuple@$$V@2@@?$_Default_allocator_traits@V?$allocator@U?$_Tree_node@U?$pair@$$CBV?$basic_string@DU?$char_traits@D@std@@V?$allocator@D@2@@std@@V12@@std@@PAX@std@@@std@@@std@@SAXAAV?$allocator@U?$_Tree_node@U?$pair@$$CBV?$basic_string@DU?$char_traits@D@std@@V?$allocator@D@2@@std@@V12@@std@@PAX@std@@@1@QAU?$pair@$$CBV?$basic_string@DU?$char_traits@D@std@@V?$allocator@D@2@@std@@V12@@1@ABUpiecewise_construct_t@1@$$QAV?$tuple@$$QAV?$basic_string@DU?$char_traits@D@std@@V?$allocator@D@2@@std@@@1@$$QAV?$tuple@$$V@1@@Z 004025a0 f i Crinkler.obj
 0001:000015f0       ??$construct@VExport@@V1@@?$_Default_allocator_traits@V?$allocator@U?$_Tree_node@VExport@@PAX@std@@@std@@@std@@SAXAAV?$allocator@U?$_Tree_node@VExport@@PAX@std@@@1@QAVExport@@$$QAV3@@Z 004025f0 f i Crinkler.obj
 0001:00001660       ??$insert@V?$_List_const_iterator@V?$_List_val@U?$_List_simple_types@PAVHunk@@@std@@@std@@@std@@X@?$list@PAVHunk@@V?$allocator@PAVHunk@@@std@@@std@@QAE?AV?$_List_iterator@V?$_List_val@U?$_List_simple_types@PAVHunk@@@std@@@std@@@1@V?$_List_const_iterator@V?$_List_val@U?$_List_simple_types@PAVHunk@@@std@@@std@@@1@00@Z 00402660 f i Crinkler.obj
 0001:00001710       ??0?$basic_string@DU?$char_traits@D@std@@V?$allocator@D@2@@std@@QAE@ABV01@@Z 00402710 f i Crinkler.obj
 0001:000017d0       ??0?$list@PAVHunk@@V?$allocator@PAVHunk@@@std@@@std@@QAE@ABV01@@Z 004027d0 f i Crinkler.obj
 0001:00001860       ??0?$vector@EV?$allocator@E@std@@@std@@QAE@IABEABV?$allocator@E@1@@Z 00402860 f i Crinkler.obj
 0001:00001950       ??0Crinkler@@QAE@XZ        00402950 f   Crinkler.obj
 0001:00001b70       ??0_UnrealizedChore@details@Concurrency@@QAE@XZ 00402b70 f i Crinkler.obj
 0001:00001b80       ??0bad_alloc@std@@QAE@ABV01@@Z 00402b80 f i Crinkler.obj
 0001:00001bb0       ??0bad_alloc@std@@QAE@XZ   00402bb0 f i Crinkler.obj
 0001:00001bd0       ??0exception@std@@QAE@ABV01@@Z 00402bd0 f i Crinkler.obj
 0001:00001c00       ??0invalid_argument@std@@QAE@ABV01@@Z 00402c00 f i Crinkler.obj
 0001:00001c30       ??0invalid_argument@std@@QAE@PBD@Z 00402c30 f i Crinkler.obj
 0001:00001c70       ??0logic_error@std@@QAE@ABV01@@Z 00402c70 f i Crinkler.obj
 0001:00001d40       ??1?$list@PAVHunk@@V?$allocator@PAVHunk@@@std@@@std@@QAE@XZ 00402d40 f i Crinkler.obj
 0001:00001d40       ??1?$list@PAVHunkLoader@@V?$allocator@PAVHunkLoader@@@std@@@std@@QAE@XZ 00402d40 f i MultiLoader.obj
 0001:00001d40       ??1?$list@PAVCmdParam@@V?$allocator@PAVCmdParam@@@std@@@std@@QAE@XZ 00402d40 f i CmdLineInterface.obj
 0001:00001d90       ??1?$pair@$$CBV?$basic_string@DU?$char_traits@D@std@@V?$allocator@D@2@@std@@V12@@std@@QAE@XZ 00402d90 f i Crinkler.obj
 0001:00001d90       ??1Export@@QAE@XZ          00402d90 f i Crinkler.obj
 0001:00001d90       ??1?$pair@V?$basic_string@DU?$char_traits@D@std@@V?$allocator@D@2@@std@@V12@@std@@QAE@XZ 00402d90 f i main.obj
 0001:00001e20       ??1CompositeProgressBar@@UAE@XZ 00402e20 f i Crinkler.obj
 0001:00001e80       ??1Crinkler@@QAE@XZ        00402e80 f   Crinkler.obj
 0001:00002100       ??1HashBits@@QAE@XZ        00403100 f i Crinkler.obj
 0001:000021f0       ??1Reuse@@QAE@XZ           004031f0 f i Crinkler.obj
 0001:00002350       ??1missing_wait@Concurrency@@UAE@XZ 00403350 f i libconcrt:Chores.obj
 0001:00002350       ??1scheduler_worker_creation_error@Concurrency@@UAE@XZ 00403350 f i libconcrt:Exceptions.obj
 0001:00002350       ??1invalid_scheduler_policy_value@Concurrency@@UAE@XZ 00403350 f i libconcrt:Exceptions.obj
 0001:00002350       ??1failure@ios_base@std@@UAE@XZ 00403350 f i HtmlReport.obj
 0001:00002350       ??1__non_rtti_object@std@@UAE@XZ 00403350 f i libvcruntime:rtti.obj
 0001:00002350       ??1out_of_range@std@@UAE@XZ 00403350 f i libcpmt:xthrow.obj
 0001:00002350       ??1_Interruption_exception@details@Concurrency@@UAE@XZ 00403350 f i libconcrt:Chores.obj
 0001:00002350       ??1invalid_argument@std@@UAE@XZ 00403350 f i Crinkler.obj
 0001:00002350       ??1invalid_oversubscribe_operation@Concurrency@@UAE@XZ 00403350 f i libconcrt:Exceptions.obj
 0001:00002350       ??1unsupported_os@Concurrency@@UAE@XZ 00403350 f i libconcrt:Exceptions.obj
 0001:00002350       ??1scheduler_resource_allocation_error@Concurrency@@UAE@XZ 00403350 f i libconcrt:utils.obj
 0001:00002350       ??1bad_function_call@std@@UAE@XZ 00403350 f i libcpmt:xthrow.obj
 0001:00002350       ??1length_error@std@@UAE@XZ 00403350 f i libcpmt:xthrow.obj
 0001:00002350       ??1invalid_operation@Concurrency@@UAE@XZ 00403350 f i libconcrt:ResourceManager.obj
 0001:00002350       ??1improper_scheduler_attach@Concurrency@@UAE@XZ 00403350 f i libconcrt:SchedulerBase.obj
 0001:00002350       ??1invalid_scheduler_policy_key@Concurrency@@UAE@XZ 00403350 f i libconcrt:Exceptions.obj
 0001:00002350       ??1context_unblock_unbalanced@Concurrency@@UAE@XZ 00403350 f i libconcrt:Exceptions.obj
 0001:00002350       ??1context_self_unblock@Concurrency@@UAE@XZ 00403350 f i libconcrt:Exceptions.obj
 0001:00002350       ??1bad_exception@std@@UAE@XZ 00403350 f i libvcruntime:frame.obj
 0001:00002350       ??1bad_array_new_length@std@@UAE@XZ 00403350 f i LIBCMT:throw_bad_alloc.obj
 0001:00002350       ??1bad_cast@std@@UAE@XZ    00403350 f i HtmlReport.obj
 0001:00002350       ??1bad_alloc@std@@UAE@XZ   00403350 f i Crinkler.obj
 0001:00002350       ??1improper_lock@Concurrency@@UAE@XZ 00403350 f i libconcrt:rtlocks.obj
 0001:00002350       ??1runtime_error@std@@UAE@XZ 00403350 f i HtmlReport.obj
 0001:00002350       ??1improper_scheduler_reference@Concurrency@@UAE@XZ 00403350 f i libconcrt:SchedulerBase.obj
 0001:00002350       ??1invalid_scheduler_policy_thread_specification@Concurrency@@UAE@XZ 00403350 f i libconcrt:Exceptions.obj
 0001:00002350       ??1invalid_multiple_scheduling@Concurrency@@UAE@XZ 00403350 f i libconcrt:TaskCollection.obj
 0001:00002350       ??1system_error@std@@UAE@XZ 00403350 f i libcpmt:xonce.obj
 0001:00002350       ??1nested_scheduler_missing_detach@Concurrency@@UAE@XZ 00403350 f i libconcrt:Exceptions.obj
 0001:00002370       ??E?$_Tree_unchecked_const_iterator@V?$_Tree_val@U?$_Tree_simple_types@U?$pair@$$CBV?$basic_string@DU?$char_traits@D@std@@V?$allocator@D@2@@std@@PAVSymbol@@@std@@@std@@@std@@U_Iterator_base0@2@@std@@QAEAAV01@XZ 00403370 f i Hunk.obj
 0001:00002370       ??E?$_Tree_unchecked_const_iterator@V?$_Tree_val@U?$_Tree_simple_types@U?$pair@$$CBHH@std@@@std@@@std@@U_Iterator_base0@2@@std@@QAEAAV01@XZ 00403370 f i Export.obj
 0001:00002370       ??E?$_Tree_unchecked_const_iterator@V?$_Tree_val@U?$_Tree_simple_types@VExport@@@std@@@std@@U_Iterator_base0@2@@std@@QAEAAV01@XZ 00403370 f i Crinkler.obj
 0001:00002370       ??E?$_Tree_unchecked_const_iterator@V?$_Tree_val@U?$_Tree_simple_types@V?$basic_string@DU?$char_traits@D@std@@V?$allocator@D@2@@std@@@std@@@std@@U_Iterator_base0@2@@std@@QAEAAV01@XZ 00403370 f i ImportHandler.obj
 0001:00002370       ??E?$_Tree_unchecked_const_iterator@V?$_Tree_val@U?$_Tree_simple_types@U?$pair@$$CBV?$basic_string@DU?$char_traits@D@std@@V?$allocator@D@2@@std@@V12@@std@@@std@@@std@@U_Iterator_base0@2@@std@@QAEAAV01@XZ 00403370 f i Crinkler.obj
 0001:00002900       ??_G?$_MallocaArrayHolder@V?$task_handle@V?$_Parallel_chunk_helper@HKV<lambda_b5f0cd7b569291211aea5d633333e2eb>@@Vauto_partitioner@Concurrency@@$0A@@Concurrency@@@Concurrency@@@details@Concurrency@@UAEPAXI@Z 00403900 f i Compressor:Compressor.obj
 0001:00002900       ??_G?$_MallocaArrayHolder@V?$task_handle@V?$_Parallel_chunk_helper@HKV<lambda_b013cdf8003cce4124d8df0eda79d9db>@@Vauto_partitioner@Concurrency@@$0A@@Concurrency@@@Concurrency@@@details@Concurrency@@UAEPAXI@Z 00403900 f i Compressor:SoftwareCompressionStateEvaluator.obj
 0001:00002900       ??_G?$_MallocaArrayHolder@V?$task_handle@V?$_Parallel_chunk_helper@HKV<lambda_03d10979867dcf9adb990123b786fe83>@@Vauto_partitioner@Concurrency@@$0A@@Concurrency@@@Concurrency@@@details@Concurrency@@UAEPAXI@Z 00403900 f i Compressor:CompressionState.obj
 0001:00002900       ??_G?$_MallocaArrayHolder@V?$task_handle@V?$_Parallel_chunk_helper@HKV<lambda_97b9ff38a0f6517bf858f9ee632bc09d>@@Vauto_partitioner@Concurrency@@$0A@@Concurrency@@@Concurrency@@@details@Concurrency@@UAEPAXI@Z 00403900 f i Compressor:Compressor.obj
 0001:00002900       ??_E?$_MallocaArrayHolder@V?$task_handle@V?$_Parallel_chunk_helper@HKV<lambda_91b4ac066d0e4c817a748d9f83c77b67>@@Vauto_partitioner@Concurrency@@$0A@@Concurrency@@@Concurrency@@@details@Concurrency@@UAEPAXI@Z 00403900 f i ImportHandler.obj
 0001:00002900       ??_E?$_MallocaArrayHolder@V?$task_handle@V?$_Parallel_chunk_helper@HKV<lambda_03d10979867dcf9adb990123b786fe83>@@Vauto_partitioner@Concurrency@@$0A@@Concurrency@@@Concurrency@@@details@Concurrency@@UAEPAXI@Z 00403900 f i Compressor:CompressionState.obj
 0001:00002900       ??_E?$_MallocaArrayHolder@V?$task_handle@V?$_Parallel_chunk_helper@HKV<lambda_999a37e34589117deea2394e9f04c39c>@@Vauto_partitioner@Concurrency@@$0A@@Concurrency@@@Concurrency@@@details@Concurrency@@UAEPAXI@Z 00403900 f i Compressor:Compressor.obj
 0001:00002900       ??_E?$_MallocaArrayHolder@V?$task_handle@V?$_Parallel_chunk_helper@HKV<lambda_4380338d88b6c874d7cf342938e70ef2>@@Vauto_partitioner@Concurrency@@$0A@@Concurrency@@@Concurrency@@@details@Concurrency@@UAEPAXI@Z 00403900 f i Crinkler.obj
 0001:00002900       ??_E?$_MallocaArrayHolder@V?$task_handle@V?$_Parallel_chunk_helper@HKV<lambda_97b9ff38a0f6517bf858f9ee632bc09d>@@Vauto_partitioner@Concurrency@@$0A@@Concurrency@@@Concurrency@@@details@Concurrency@@UAEPAXI@Z 00403900 f i Compressor:Compressor.obj
 0001:00002900       ??_E?$_MallocaArrayHolder@V?$task_handle@V?$_Parallel_chunk_helper@HKV<lambda_b5f0cd7b569291211aea5d633333e2eb>@@Vauto_partitioner@Concurrency@@$0A@@Concurrency@@@Concurrency@@@details@Concurrency@@UAEPAXI@Z 00403900 f i Compressor:Compressor.obj
 0001:00002900       ??_G?$_MallocaArrayHolder@V?$task_handle@V?$_Parallel_chunk_helper@HKV<lambda_999a37e34589117deea2394e9f04c39c>@@Vauto_partitioner@Concurrency@@$0A@@Concurrency@@@Concurrency@@@details@Concurrency@@UAEPAXI@Z 00403900 f i Compressor:Compressor.obj
 0001:00002900       ??_E?$_MallocaArrayHolder@V?$task_handle@V?$_Parallel_chunk_helper@HKV<lambda_b013cdf8003cce4124d8df0eda79d9db>@@Vauto_partitioner@Concurrency@@$0A@@Concurrency@@@Concurrency@@@details@Concurrency@@UAEPAXI@Z 00403900 f i Compressor:SoftwareCompressionStateEvaluator.obj
 0001:00002900       ??_G?$_MallocaArrayHolder@V?$task_handle@V?$_Parallel_chunk_helper@HKV<lambda_4380338d88b6c874d7cf342938e70ef2>@@Vauto_partitioner@Concurrency@@$0A@@Concurrency@@@Concurrency@@@details@Concurrency@@UAEPAXI@Z 00403900 f i Crinkler.obj
 0001:00002900       ??_G?$_MallocaArrayHolder@V?$task_handle@V?$_Parallel_chunk_helper@HKV<lambda_91b4ac066d0e4c817a748d9f83c77b67>@@Vauto_partitioner@Concurrency@@$0A@@Concurrency@@@Concurrency@@@details@Concurrency@@UAEPAXI@Z 00403900 f i ImportHandler.obj
 0001:00002920       ??_G?$_MallocaListHolder@V?$task_handle@V?$_Parallel_chunk_helper@HKV<lambda_4380338d88b6c874d7cf342938e70ef2>@@Vauto_partitioner@Concurrency@@$0A@@Concurrency@@@Concurrency@@@details@Concurrency@@UAEPAXI@Z 00403920 f i Crinkler.obj
 0001:00002920       ??_E?$_MallocaListHolder@V?$task_handle@V?$_Parallel_chunk_helper@HKV<lambda_b013cdf8003cce4124d8df0eda79d9db>@@Vauto_partitioner@Concurrency@@$0A@@Concurrency@@@Concurrency@@@details@Concurrency@@UAEPAXI@Z 00403920 f i Compressor:SoftwareCompressionStateEvaluator.obj
 0001:00002920       ??_G?$_MallocaListHolder@V?$task_handle@V?$_Parallel_chunk_helper@HKV<lambda_03d10979867dcf9adb990123b786fe83>@@Vauto_partitioner@Concurrency@@$0A@@Concurrency@@@Concurrency@@@details@Concurrency@@UAEPAXI@Z 00403920 f i Compressor:CompressionState.obj
 0001:00002920       ??_E?$_MallocaListHolder@V?$task_handle@V?$_Parallel_chunk_helper@HKV<lambda_97b9ff38a0f6517bf858f9ee632bc09d>@@Vauto_partitioner@Concurrency@@$0A@@Concurrency@@@Concurrency@@@details@Concurrency@@UAEPAXI@Z 00403920 f i Compressor:Compressor.obj
 0001:00002920       ??_G?$_MallocaListHolder@V?$task_handle@V?$_Parallel_chunk_helper@HKV<lambda_b013cdf8003cce4124d8df0eda79d9db>@@Vauto_partitioner@Concurrency@@$0A@@Concurrency@@@Concurrency@@@details@Concurrency@@UAEPAXI@Z 00403920 f i Compressor:SoftwareCompressionStateEvaluator.obj
 0001:00002920       ??_G?$_MallocaListHolder@V?$task_handle@V?$_Parallel_chunk_helper@HKV<lambda_97b9ff38a0f6517bf858f9ee632bc09d>@@Vauto_partitioner@Concurrency@@$0A@@Concurrency@@@Concurrency@@@details@Concurrency@@UAEPAXI@Z 00403920 f i Compressor:Compressor.obj
 0001:00002920       ??_E?$_MallocaListHolder@V?$task_handle@V?$_Parallel_chunk_helper@HKV<lambda_91b4ac066d0e4c817a748d9f83c77b67>@@Vauto_partitioner@Concurrency@@$0A@@Concurrency@@@Concurrency@@@details@Concurrency@@UAEPAXI@Z 00403920 f i ImportHandler.obj
 0001:00002920       ??_G?$_MallocaListHolder@V?$task_handle@V?$_Parallel_chunk_helper@HKV<lambda_999a37e34589117deea2394e9f04c39c>@@Vauto_partitioner@Concurrency@@$0A@@Concurrency@@@Concurrency@@@details@Concurrency@@UAEPAXI@Z 00403920 f i Compressor:Compressor.obj
 0001:00002920       ??_G?$_MallocaListHolder@V?$task_handle@V?$_Parallel_chunk_helper@HKV<lambda_91b4ac066d0e4c817a748d9f83c77b67>@@Vauto_partitioner@Concurrency@@$0A@@Concurrency@@@Concurrency@@@details@Concurrency@@UAEPAXI@Z 00403920 f i ImportHandler.obj
 0001:00002920       ??_E?$_MallocaListHolder@V?$task_handle@V?$_Parallel_chunk_helper@HKV<lambda_999a37e34589117deea2394e9f04c39c>@@Vauto_partitioner@Concurrency@@$0A@@Concurrency@@@Concurrency@@@details@Concurrency@@UAEPAXI@Z 00403920 f i Compressor:Compressor.obj
 0001:00002920       ??_E?$_MallocaListHolder@V?$task_handle@V?$_Parallel_chunk_helper@HKV<lambda_b5f0cd7b569291211aea5d633333e2eb>@@Vauto_partitioner@Concurrency@@$0A@@Concurrency@@@Concurrency@@@details@Concurrency@@UAEPAXI@Z 00403920 f i Compressor:Compressor.obj
 0001:00002920       ??_E?$_MallocaListHolder@V?$task_handle@V?$_Parallel_chunk_helper@HKV<lambda_03d10979867dcf9adb990123b786fe83>@@Vauto_partitioner@Concurrency@@$0A@@Concurrency@@@Concurrency@@@details@Concurrency@@UAEPAXI@Z 00403920 f i Compressor:CompressionState.obj
 0001:00002920       ??_G?$_MallocaListHolder@V?$task_handle@V?$_Parallel_chunk_helper@HKV<lambda_b5f0cd7b569291211aea5d633333e2eb>@@Vauto_partitioner@Concurrency@@$0A@@Concurrency@@@Concurrency@@@details@Concurrency@@UAEPAXI@Z 00403920 f i Compressor:Compressor.obj
 0001:00002920       ??_E?$_MallocaListHolder@V?$task_handle@V?$_Parallel_chunk_helper@HKV<lambda_4380338d88b6c874d7cf342938e70ef2>@@Vauto_partitioner@Concurrency@@$0A@@Concurrency@@@Concurrency@@@details@Concurrency@@UAEPAXI@Z 00403920 f i Crinkler.obj
 0001:00002940       ??_E?$task_handle@V?$_Parallel_chunk_helper@HKV<lambda_b013cdf8003cce4124d8df0eda79d9db>@@Vauto_partitioner@Concurrency@@$0A@@Concurrency@@@Concurrency@@UAEPAXI@Z 00403940 f i Compressor:SoftwareCompressionStateEvaluator.obj
 0001:00002940       ??_G?$task_handle@V?$_Parallel_chunk_helper@HKV<lambda_91b4ac066d0e4c817a748d9f83c77b67>@@Vauto_partitioner@Concurrency@@$0A@@Concurrency@@@Concurrency@@UAEPAXI@Z 00403940 f i ImportHandler.obj
 0001:00002940       ??_G?$task_handle@V?$_Parallel_chunk_helper@HKV<lambda_03d10979867dcf9adb990123b786fe83>@@Vauto_partitioner@Concurrency@@$0A@@Concurrency@@@Concurrency@@UAEPAXI@Z 00403940 f i Compressor:CompressionState.obj
 0001:00002940       ??_E?$task_handle@V?$_Parallel_chunk_helper@HKV<lambda_4380338d88b6c874d7cf342938e70ef2>@@Vauto_partitioner@Concurrency@@$0A@@Concurrency@@@Concurrency@@UAEPAXI@Z 00403940 f i Crinkler.obj
 0001:00002940       ??_E?$task_handle@V?$_Parallel_chunk_helper@HKV<lambda_91b4ac066d0e4c817a748d9f83c77b67>@@Vauto_partitioner@Concurrency@@$0A@@Concurrency@@@Concurrency@@UAEPAXI@Z 00403940 f i ImportHandler.obj
 0001:00002940       ??_G?$task_handle@V?$_Parallel_chunk_helper@HKV<lambda_b013cdf8003cce4124d8df0eda79d9db>@@Vauto_partitioner@Concurrency@@$0A@@Concurrency@@@Concurrency@@UAEPAXI@Z 00403940 f i Compressor:SoftwareCompressionStateEvaluator.obj
 0001:00002940       ??_G?$task_handle@V?$_Parallel_chunk_helper@HKV<lambda_999a37e34589117deea2394e9f04c39c>@@Vauto_partitioner@Concurrency@@$0A@@Concurrency@@@Concurrency@@UAEPAXI@Z 00403940 f i Compressor:Compressor.obj
 0001:00002940       ??_E?$task_handle@V?$_Parallel_chunk_helper@HKV<lambda_97b9ff38a0f6517bf858f9ee632bc09d>@@Vauto_partitioner@Concurrency@@$0A@@Concurrency@@@Concurrency@@UAEPAXI@Z 00403940 f i Compressor:Compressor.obj
 0001:00002940       ??_G?$task_handle@V?$_Parallel_chunk_helper@HKV<lambda_97b9ff38a0f6517bf858f9ee632bc09d>@@Vauto_partitioner@Concurrency@@$0A@@Concurrency@@@Concurrency@@UAEPAXI@Z 00403940 f i Compressor:Compressor.obj
 0001:00002940       ??_G?$task_handle@V?$_Parallel_chunk_helper@HKV<lambda_4380338d88b6c874d7cf342938e70ef2>@@Vauto_partitioner@Concurrency@@$0A@@Concurrency@@@Concurrency@@UAEPAXI@Z 00403940 f i Crinkler.obj
 0001:00002940       ??_E?$task_handle@V?$_Parallel_chunk_helper@HKV<lambda_03d10979867dcf9adb990123b786fe83>@@Vauto_partitioner@Concurrency@@$0A@@Concurrency@@@Concurrency@@UAEPAXI@Z 00403940 f i Compressor:CompressionState.obj
 0001:00002940       ??_E?$task_handle@V?$_Parallel_chunk_helper@HKV<lambda_999a37e34589117deea2394e9f04c39c>@@Vauto_partitioner@Concurrency@@$0A@@Concurrency@@@Concurrency@@UAEPAXI@Z 00403940 f i Compressor:Compressor.obj
 0001:00002940       ??_E?$task_handle@V?$_Parallel_chunk_helper@HKV<lambda_b5f0cd7b569291211aea5d633333e2eb>@@Vauto_partitioner@Concurrency@@$0A@@Concurrency@@@Concurrency@@UAEPAXI@Z 00403940 f i Compressor:Compressor.obj
 0001:00002940       ??_G?$task_handle@V?$_Parallel_chunk_helper@HKV<lambda_b5f0cd7b569291211aea5d633333e2eb>@@Vauto_partitioner@Concurrency@@$0A@@Concurrency@@@Concurrency@@UAEPAXI@Z 00403940 f i Compressor:Compressor.obj
 0001:00002990       ??_ECompositeProgressBar@@UAEPAXI@Z 00403990 f i Crinkler.obj
 0001:00002990       ??_GCompositeProgressBar@@UAEPAXI@Z 00403990 f i Crinkler.obj
 0001:000029b0       ??_GCompressionReportRecord@@QAEPAXI@Z 004039b0 f i Crinkler.obj
 0001:00002ad0       ??_EConsoleProgressBar@@UAEPAXI@Z 00403ad0 f i Crinkler.obj
 0001:00002ad0       ??_GConsoleProgressBar@@UAEPAXI@Z 00403ad0 f i Crinkler.obj
 0001:00002b00       ??_EProgressBar@@UAEPAXI@Z 00403b00 f i Crinkler.obj
 0001:00002b00       ??_GProgressBar@@UAEPAXI@Z 00403b00 f i Crinkler.obj
 0001:00002b30       ??_GWindowProgressBar@@UAEPAXI@Z 00403b30 f i Crinkler.obj
 0001:00002b30       ??_EWindowProgressBar@@UAEPAXI@Z 00403b30 f i Crinkler.obj
 0001:00002ba0       ??_E_Chore@details@Concurrency@@MAEPAXI@Z 00403ba0 f i Crinkler.obj
 0001:00002ba0       ??_G_Chore@details@Concurrency@@MAEPAXI@Z 00403ba0 f i Crinkler.obj
 0001:00002bd0       ??_G_UnrealizedChore@details@Concurrency@@UAEPAXI@Z 00403bd0 f i Crinkler.obj
 0001:00002bd0       ??_E_UnrealizedChore@details@Concurrency@@UAEPAXI@Z 00403bd0 f i Crinkler.obj
 0001:00002c10       ??_Gexception@std@@UAEPAXI@Z 00403c10 f i Crinkler.obj
 0001:00002c10       ??_Ebad_alloc@std@@UAEPAXI@Z 00403c10 f i Crinkler.obj
 0001:00002c10       ??_Gbad_cast@std@@UAEPAXI@Z 00403c10 f i HtmlReport.obj
 0001:00002c10       ??_Glogic_error@std@@UAEPAXI@Z 00403c10 f i Crinkler.obj
 0001:00002c10       ??_Elogic_error@std@@UAEPAXI@Z 00403c10 f i Crinkler.obj
 0001:00002c10       ??_Eexception@std@@UAEPAXI@Z 00403c10 f i Crinkler.obj
 0001:00002c10       ??_Gruntime_error@std@@UAEPAXI@Z 00403c10 f i HtmlReport.obj
 0001:00002c10       ??_Gbad_alloc@std@@UAEPAXI@Z 00403c10 f i Crinkler.obj
 0001:00002c10       ??_Eruntime_error@std@@UAEPAXI@Z 00403c10 f i HtmlReport.obj
 0001:00002c10       ??_Einvalid_argument@std@@UAEPAXI@Z 00403c10 f i Crinkler.obj
 0001:00002c10       ??_Ebad_cast@std@@UAEPAXI@Z 00403c10 f i HtmlReport.obj
 0001:00002c10       ??_Ginvalid_argument@std@@UAEPAXI@Z 00403c10 f i Crinkler.obj
 0001:00002c40       ?_Buyheadnode@?$_Tree_comp_alloc@V?$_Tmap_traits@V?$basic_string@DU?$char_traits@D@std@@V?$allocator@D@2@@std@@V12@U?$less@V?$basic_string@DU?$char_traits@D@std@@V?$allocator@D@2@@std@@@2@V?$allocator@U?$pair@$$CBV?$basic_string@DU?$char_traits@D@std@@V?$allocator@D@2@@std@@V12@@std@@@2@$0A@@std@@@std@@QAEPAU?$_Tree_node@U?$pair@$$CBV?$basic_string@DU?$char_traits@D@std@@V?$allocator@D@2@@std@@V12@@std@@PAX@2@XZ 00403c40 f i Crinkler.obj
 0001:00002cc0       ?_Buyheadnode@?$_Tree_comp_alloc@V?$_Tset_traits@V?$basic_string@DU?$char_traits@D@std@@V?$allocator@D@2@@std@@U?$less@V?$basic_string@DU?$char_traits@D@std@@V?$allocator@D@2@@std@@@2@V?$allocator@V?$basic_string@DU?$char_traits@D@std@@V?$allocator@D@2@@std@@@2@$0A@@std@@@std@@QAEPAU?$_Tree_node@V?$basic_string@DU?$char_traits@D@std@@V?$allocator@D@2@@std@@PAX@2@XZ 00403cc0 f i Crinkler.obj
 0001:00002d40       ?_Buyheadnode@?$_Tree_comp_alloc@V?$_Tset_traits@VExport@@U?$less@VExport@@@std@@V?$allocator@VExport@@@3@$0A@@std@@@std@@QAEPAU?$_Tree_node@VExport@@PAX@2@XZ 00403d40 f i Crinkler.obj
 0001:00002dc0       ?_Buynode0@?$_List_alloc@U?$_List_base_types@PAVCmdParam@@V?$allocator@PAVCmdParam@@@std@@@std@@@std@@QAEPAU?$_List_node@PAVCmdParam@@PAX@2@PAU32@0@Z 00403dc0 f i CmdLineInterface.obj
 0001:00002dc0       ?_Buynode0@?$_List_alloc@U?$_List_base_types@PAVHunk@@V?$allocator@PAVHunk@@@std@@@std@@@std@@QAEPAU?$_List_node@PAVHunk@@PAX@2@PAU32@0@Z 00403dc0 f i Crinkler.obj
 0001:00002dc0       ?_Buynode0@?$_List_alloc@U?$_List_base_types@PAVHunkLoader@@V?$allocator@PAVHunkLoader@@@std@@@std@@@std@@QAEPAU?$_List_node@PAVHunkLoader@@PAX@2@PAU32@0@Z 00403dc0 f i MultiLoader.obj
 0001:00002e40       ?_Buynode0@?$_Tree_comp_alloc@V?$_Tmap_traits@V?$basic_string@DU?$char_traits@D@std@@V?$allocator@D@2@@std@@V12@U?$less@V?$basic_string@DU?$char_traits@D@std@@V?$allocator@D@2@@std@@@2@V?$allocator@U?$pair@$$CBV?$basic_string@DU?$char_traits@D@std@@V?$allocator@D@2@@std@@V12@@std@@@2@$0A@@std@@@std@@QAEPAU?$_Tree_node@U?$pair@$$CBV?$basic_string@DU?$char_traits@D@std@@V?$allocator@D@2@@std@@V12@@std@@PAX@2@XZ 00403e40 f i Crinkler.obj
 0001:00002ec0       ?_Buynode0@?$_Tree_comp_alloc@V?$_Tset_traits@V?$basic_string@DU?$char_traits@D@std@@V?$allocator@D@2@@std@@U?$less@V?$basic_string@DU?$char_traits@D@std@@V?$allocator@D@2@@std@@@2@V?$allocator@V?$basic_string@DU?$char_traits@D@std@@V?$allocator@D@2@@std@@@2@$0A@@std@@@std@@QAEPAU?$_Tree_node@V?$basic_string@DU?$char_traits@D@std@@V?$allocator@D@2@@std@@PAX@2@XZ 00403ec0 f i Crinkler.obj
 0001:00002f40       ?_Buynode0@?$_Tree_comp_alloc@V?$_Tset_traits@VExport@@U?$less@VExport@@@std@@V?$allocator@VExport@@@3@$0A@@std@@@std@@QAEPAU?$_Tree_node@VExport@@PAX@2@XZ 00403f40 f i Crinkler.obj
 0001:00002fe0       ?_Delete_this@?$_Func_impl_no_alloc@P6A_JXZ_J$$V@std@@EAEX_N@Z 00403fe0 f   Compressor:SoftwareCompressionStateEvaluator.obj
 0001:00003000       ?_Destroy@?$vector@V?$basic_string@DU?$char_traits@D@std@@V?$allocator@D@2@@std@@V?$allocator@V?$basic_string@DU?$char_traits@D@std@@V?$allocator@D@2@@std@@@2@@std@@AAEXPAV?$basic_string@DU?$char_traits@D@std@@V?$allocator@D@2@@2@0@Z 00404000 f i Crinkler.obj
 0001:00003070       ?_Destroy_if_node@?$_Tree@V?$_Tmap_traits@V?$basic_string@DU?$char_traits@D@std@@V?$allocator@D@2@@std@@V12@U?$less@V?$basic_string@DU?$char_traits@D@std@@V?$allocator@D@2@@std@@@2@V?$allocator@U?$pair@$$CBV?$basic_string@DU?$char_traits@D@std@@V?$allocator@D@2@@std@@V12@@std@@@2@$0A@@std@@@std@@IAEXPAU?$_Tree_node@U?$pair@$$CBV?$basic_string@DU?$char_traits@D@std@@V?$allocator@D@2@@std@@V12@@std@@PAX@2@@Z 00404070 f i Crinkler.obj
 0001:000030c0       ?_Erase@?$_Tree@V?$_Tmap_traits@V?$basic_string@DU?$char_traits@D@std@@V?$allocator@D@2@@std@@V12@U?$less@V?$basic_string@DU?$char_traits@D@std@@V?$allocator@D@2@@std@@@2@V?$allocator@U?$pair@$$CBV?$basic_string@DU?$char_traits@D@std@@V?$allocator@D@2@@std@@V12@@std@@@2@$0A@@std@@@std@@IAEXPAU?$_Tree_node@U?$pair@$$CBV?$basic_string@DU?$char_traits@D@std@@V?$allocator@D@2@@std@@V12@@std@@PAX@2@@Z 004040c0 f i Crinkler.obj
 0001:00003100       ?_Erase@?$_Tree@V?$_Tset_traits@V?$basic_string@DU?$char_traits@D@std@@V?$allocator@D@2@@std@@U?$less@V?$basic_string@DU?$char_traits@D@std@@V?$allocator@D@2@@std@@@2@V?$allocator@V?$basic_string@DU?$char_traits@D@std@@V?$allocator@D@2@@std@@@2@$0A@@std@@@std@@IAEXPAU?$_Tree_node@V?$basic_string@DU?$char_traits@D@std@@V?$allocator@D@2@@std@@PAX@2@@Z 00404100 f i Crinkler.obj
 0001:00003180       ?_Erase@?$_Tree@V?$_Tset_traits@VExport@@U?$less@VExport@@@std@@V?$allocator@VExport@@@3@$0A@@std@@@std@@IAEXPAU?$_Tree_node@VExport@@PAX@2@@Z 00404180 f i Crinkler.obj
 0001:000031c0       ?_Extract@?$_Tree_val@U?$_Tree_simple_types@U?$pair@$$CBV?$basic_string@DU?$char_traits@D@std@@V?$allocator@D@2@@std@@PAVMemoryFile@@@std@@@std@@@std@@QAEPAU?$_Tree_node@U?$pair@$$CBV?$basic_string@DU?$char_traits@D@std@@V?$allocator@D@2@@std@@PAVMemoryFile@@@std@@PAX@2@V?$_Tree_const_iterator@V?$_Tree_val@U?$_Tree_simple_types@U?$pair@$$CBV?$basic_string@DU?$char_traits@D@std@@V?$allocator@D@2@@std@@PAVMemoryFile@@@std@@@std@@@std@@@2@@Z 004041c0 f i main.obj
 0001:000031c0       ?_Extract@?$_Tree_val@U?$_Tree_simple_types@V?$basic_string@DU?$char_traits@D@std@@V?$allocator@D@2@@std@@@std@@@std@@QAEPAU?$_Tree_node@V?$basic_string@DU?$char_traits@D@std@@V?$allocator@D@2@@std@@PAX@2@V?$_Tree_const_iterator@V?$_Tree_val@U?$_Tree_simple_types@V?$basic_string@DU?$char_traits@D@std@@V?$allocator@D@2@@std@@@std@@@std@@@2@@Z 004041c0 f i Crinkler.obj
 0001:000031c0       ?_Extract@?$_Tree_val@U?$_Tree_simple_types@U?$pair@$$CBV?$basic_string@DU?$char_traits@D@std@@V?$allocator@D@2@@std@@H@std@@@std@@@std@@QAEPAU?$_Tree_node@U?$pair@$$CBV?$basic_string@DU?$char_traits@D@std@@V?$allocator@D@2@@std@@H@std@@PAX@2@V?$_Tree_const_iterator@V?$_Tree_val@U?$_Tree_simple_types@U?$pair@$$CBV?$basic_string@DU?$char_traits@D@std@@V?$allocator@D@2@@std@@H@std@@@std@@@std@@@2@@Z 004041c0 f i HtmlReport.obj
 0001:00003460       ?_Freenode0@?$_Tree_comp_alloc@V?$_Tmap_traits@V?$basic_string@DU?$char_traits@D@std@@V?$allocator@D@2@@std@@V12@U?$less@V?$basic_string@DU?$char_traits@D@std@@V?$allocator@D@2@@std@@@2@V?$allocator@U?$pair@$$CBV?$basic_string@DU?$char_traits@D@std@@V?$allocator@D@2@@std@@V12@@std@@@2@$0A@@std@@@std@@QAEXPAU?$_Tree_node@U?$pair@$$CBV?$basic_string@DU?$char_traits@D@std@@V?$allocator@D@2@@std@@V12@@std@@PAX@2@@Z 00404460 f i Crinkler.obj
 0001:00003480       ?_Freenode0@?$_Tree_comp_alloc@V?$_Tset_traits@V?$basic_string@DU?$char_traits@D@std@@V?$allocator@D@2@@std@@U?$less@V?$basic_string@DU?$char_traits@D@std@@V?$allocator@D@2@@std@@@2@V?$allocator@V?$basic_string@DU?$char_traits@D@std@@V?$allocator@D@2@@std@@@2@$0A@@std@@@std@@QAEXPAU?$_Tree_node@V?$basic_string@DU?$char_traits@D@std@@V?$allocator@D@2@@std@@PAX@2@@Z 00404480 f i Crinkler.obj
 0001:000034a0       ?_Freenode0@?$_Tree_comp_alloc@V?$_Tset_traits@VExport@@U?$less@VExport@@@std@@V?$allocator@VExport@@@3@$0A@@std@@@std@@QAEXPAU?$_Tree_node@VExport@@PAX@2@@Z 004044a0 f i Crinkler.obj
 0001:000034c0       ?_Get@?$_Func_impl_no_alloc@P6A_JXZ_J$$V@std@@EBEPBXXZ 004044c0 f   Compressor:SoftwareCompressionStateEvaluator.obj
 0001:000034d0       ?_Lrotate@?$_Tree_val@U?$_Tree_simple_types@VExport@@@std@@@std@@QAEXPAU?$_Tree_node@VExport@@PAX@2@@Z 004044d0 f i Crinkler.obj
 0001:000034d0       ?_Lrotate@?$_Tree_val@U?$_Tree_simple_types@U?$pair@$$CBV?$basic_string@DU?$char_traits@D@std@@V?$allocator@D@2@@std@@PAVMemoryFile@@@std@@@std@@@std@@QAEXPAU?$_Tree_node@U?$pair@$$CBV?$basic_string@DU?$char_traits@D@std@@V?$allocator@D@2@@std@@PAVMemoryFile@@@std@@PAX@2@@Z 004044d0 f i main.obj
 0001:000034d0       ?_Lrotate@?$_Tree_val@U?$_Tree_simple_types@U?$pair@$$CBHPAVSymbol@@@std@@@std@@@std@@QAEXPAU?$_Tree_node@U?$pair@$$CBHPAVSymbol@@@std@@PAX@2@@Z 004044d0 f i Hunk.obj
 0001:000034d0       ?_Lrotate@?$_Tree_val@U?$_Tree_simple_types@U?$pair@$$CBV?$basic_string@DU?$char_traits@D@std@@V?$allocator@D@2@@std@@V12@@std@@@std@@@std@@QAEXPAU?$_Tree_node@U?$pair@$$CBV?$basic_string@DU?$char_traits@D@std@@V?$allocator@D@2@@std@@V12@@std@@PAX@2@@Z 004044d0 f i Crinkler.obj
 0001:000034d0       ?_Lrotate@?$_Tree_val@U?$_Tree_simple_types@U?$pair@$$CBHH@std@@@std@@@std@@QAEXPAU?$_Tree_node@U?$pair@$$CBHH@std@@PAX@2@@Z 004044d0 f i Export.obj
 0001:000034d0       ?_Lrotate@?$_Tree_val@U?$_Tree_simple_types@U?$pair@$$CBV?$basic_string@DU?$char_traits@D@std@@V?$allocator@D@2@@std@@H@std@@@std@@@std@@QAEXPAU?$_Tree_node@U?$pair@$$CBV?$basic_string@DU?$char_traits@D@std@@V?$allocator@D@2@@std@@H@std@@PAX@2@@Z 004044d0 f i HtmlReport.obj
 0001:000034d0       ?_Lrotate@?$_Tree_val@U?$_Tree_simple_types@V?$basic_string@DU?$char_traits@D@std@@V?$allocator@D@2@@std@@@std@@@std@@QAEXPAU?$_Tree_node@V?$basic_string@DU?$char_traits@D@std@@V?$allocator@D@2@@std@@PAX@2@@Z 004044d0 f i Crinkler.obj
 0001:000034d0       ?_Lrotate@?$_Tree_val@U?$_Tree_simple_types@U?$pair@$$CBV?$basic_string@DU?$char_traits@D@std@@V?$allocator@D@2@@std@@PAVSymbol@@@std@@@std@@@std@@QAEXPAU?$_Tree_node@U?$pair@$$CBV?$basic_string@DU?$char_traits@D@std@@V?$allocator@D@2@@std@@PAVSymbol@@@std@@PAX@2@@Z 004044d0 f i Hunk.obj
 0001:00003520       ?_Receive_range@?$_Worker_proxy@K@Concurrency@@QAE_NPAV?$_Range@K@2@@Z 00404520 f i Crinkler.obj
 0001:000036c0       ?_Reset@?$_SpinWait@$00@details@Concurrency@@IAEXXZ 004046c0 f i Crinkler.obj
 0001:000036f0       ?_Rrotate@?$_Tree_val@U?$_Tree_simple_types@U?$pair@$$CBV?$basic_string@DU?$char_traits@D@std@@V?$allocator@D@2@@std@@V12@@std@@@std@@@std@@QAEXPAU?$_Tree_node@U?$pair@$$CBV?$basic_string@DU?$char_traits@D@std@@V?$allocator@D@2@@std@@V12@@std@@PAX@2@@Z 004046f0 f i Crinkler.obj
 0001:000036f0       ?_Rrotate@?$_Tree_val@U?$_Tree_simple_types@U?$pair@$$CBHPAVSymbol@@@std@@@std@@@std@@QAEXPAU?$_Tree_node@U?$pair@$$CBHPAVSymbol@@@std@@PAX@2@@Z 004046f0 f i Hunk.obj
 0001:000036f0       ?_Rrotate@?$_Tree_val@U?$_Tree_simple_types@U?$pair@$$CBHH@std@@@std@@@std@@QAEXPAU?$_Tree_node@U?$pair@$$CBHH@std@@PAX@2@@Z 004046f0 f i Export.obj
 0001:000036f0       ?_Rrotate@?$_Tree_val@U?$_Tree_simple_types@U?$pair@$$CBV?$basic_string@DU?$char_traits@D@std@@V?$allocator@D@2@@std@@PAVSymbol@@@std@@@std@@@std@@QAEXPAU?$_Tree_node@U?$pair@$$CBV?$basic_string@DU?$char_traits@D@std@@V?$allocator@D@2@@std@@PAVSymbol@@@std@@PAX@2@@Z 004046f0 f i Hunk.obj
 0001:000036f0       ?_Rrotate@?$_Tree_val@U?$_Tree_simple_types@VExport@@@std@@@std@@QAEXPAU?$_Tree_node@VExport@@PAX@2@@Z 004046f0 f i Crinkler.obj
 0001:000036f0       ?_Rrotate@?$_Tree_val@U?$_Tree_simple_types@U?$pair@$$CBV?$basic_string@DU?$char_traits@D@std@@V?$allocator@D@2@@std@@H@std@@@std@@@std@@QAEXPAU?$_Tree_node@U?$pair@$$CBV?$basic_string@DU?$char_traits@D@std@@V?$allocator@D@2@@std@@H@std@@PAX@2@@Z 004046f0 f i HtmlReport.obj
 0001:000036f0       ?_Rrotate@?$_Tree_val@U?$_Tree_simple_types@V?$basic_string@DU?$char_traits@D@std@@V?$allocator@D@2@@std@@@std@@@std@@QAEXPAU?$_Tree_node@V?$basic_string@DU?$char_traits@D@std@@V?$allocator@D@2@@std@@PAX@2@@Z 004046f0 f i Crinkler.obj
 0001:000036f0       ?_Rrotate@?$_Tree_val@U?$_Tree_simple_types@U?$pair@$$CBV?$basic_string@DU?$char_traits@D@std@@V?$allocator@D@2@@std@@PAVMemoryFile@@@std@@@std@@@std@@QAEXPAU?$_Tree_node@U?$pair@$$CBV?$basic_string@DU?$char_traits@D@std@@V?$allocator@D@2@@std@@PAVMemoryFile@@@std@@PAX@2@@Z 004046f0 f i main.obj
 0001:00003750       ?_SpinOnce@?$_SpinWait@$00@details@Concurrency@@QAE_NXZ 00404750 f i Crinkler.obj
 0001:000037e0       ?_Tidy@?$list@PAVHunk@@V?$allocator@PAVHunk@@@std@@@std@@QAEXXZ 004047e0 f i Crinkler.obj
 0001:00003820       ?_Tidy@?$vector@DV?$allocator@D@std@@@std@@AAEXXZ 00404820 f i Export.obj
 0001:00003820       ?_Tidy@?$vector@EV?$allocator@E@std@@@std@@AAEXXZ 00404820 f i Crinkler.obj
 0001:00003870       ?_Unchecked_erase@?$list@PAVHunk@@V?$allocator@PAVHunk@@@std@@@std@@QAEXV?$_List_unchecked_const_iterator@V?$_List_val@U?$_List_simple_types@PAVHunk@@@std@@@std@@U_Iterator_base0@2@@2@@Z 00404870 f i Crinkler.obj
 0001:000038a0       ?_Xlen@?$basic_string@DU?$char_traits@D@std@@V?$allocator@D@2@@std@@SAXXZ 004048a0 f i Crinkler.obj
 0001:000038b0       ?_Xlength@?$vector@V?$basic_string@DU?$char_traits@D@std@@V?$allocator@D@2@@std@@V?$allocator@V?$basic_string@DU?$char_traits@D@std@@V?$allocator@D@2@@std@@@2@@std@@CAXXZ 004048b0 f i ImportHandler.obj
 0001:000038b0       ?_Xlength@?$vector@U?$pair@PADH@std@@V?$allocator@U?$pair@PADH@std@@@2@@std@@CAXXZ 004048b0 f i Export.obj
 0001:000038b0       ?_Xlength@?$vector@PBDV?$allocator@PBD@std@@@std@@CAXXZ 004048b0 f i CoffLibraryLoader.obj
 0001:000038b0       ?_Xlength@?$vector@EV?$allocator@E@std@@@std@@CAXXZ 004048b0 f i Crinkler.obj
 0001:000038b0       ?_Xlength@?$vector@PAVHunk@@V?$allocator@PAVHunk@@@std@@@std@@CAXXZ 004048b0 f i ExplicitHunkSorter.obj
 0001:000038b0       ?_Xlength@?$vector@VModelList@@V?$allocator@VModelList@@@std@@@std@@CAXXZ 004048b0 f i Compressor:Compressor.obj
 0001:000038b0       ?_Xlength@?$vector@Urelocation@@V?$allocator@Urelocation@@@std@@@std@@CAXXZ 004048b0 f i Hunk.obj
 0001:000038b0       ?_Xlength@?$vector@HV?$allocator@H@std@@@std@@CAXXZ 004048b0 f i HtmlReport.obj
 0001:000038b0       ?_Xlength@?$vector@DV?$allocator@D@std@@@std@@CAXXZ 004048b0 f i Export.obj
 0001:000038b0       ?_Xlength@?$vector@PAVProgressBar@@V?$allocator@PAVProgressBar@@@std@@@std@@CAXXZ 004048b0 f i CompositeProgressBar.obj
 0001:000038b0       ?_Xlength@?$vector@PAVSymbol@@V?$allocator@PAVSymbol@@@std@@@std@@CAXXZ 004048b0 f i Crinkler.obj
 0001:000038b0       ?_Xlength@?$vector@IV?$allocator@I@std@@@std@@CAXXZ 004048b0 f i ImportHandler.obj
 0001:000038b0       ?_Xlength@?$vector@V?$_List_unchecked_iterator@V?$_List_val@U?$_List_simple_types@U?$pair@$$CBV?$basic_string@DU?$char_traits@D@std@@V?$allocator@D@2@@std@@PAVHunk@@@std@@@std@@@std@@@std@@V?$allocator@V?$_List_unchecked_iterator@V?$_List_val@U?$_List_simple_types@U?$pair@$$CBV?$basic_string@DU?$char_traits@D@std@@V?$allocator@D@2@@std@@PAVHunk@@@std@@@std@@@std@@@std@@@2@@std@@CAXXZ 004048b0 f i ExplicitHunkSorter.obj
 0001:000038b0       ?_Xlength@?$vector@PAUCompressionReportRecord@@V?$allocator@PAUCompressionReportRecord@@@std@@@std@@CAXXZ 004048b0 f i Hunk.obj
 0001:000038c0       @_guard_check_icall_nop@4  004048c0 f i LIBCMT:guard_support.obj
 0001:000038c0       ?Destroy@WaitAnyBlock@details@Concurrency@@UAEXXZ 004048c0 f i libconcrt:event.obj
 0001:000038c0       __initialize_denormal_control 004048c0 f i LIBCMT:denormal_control.obj
 0001:000038c0       ?_Lock@?$basic_streambuf@DU?$char_traits@D@std@@@std@@UAEXXZ 004048c0 f i HtmlReport.obj
 0001:000038c0       ??1critical_section@Concurrency@@QAE@XZ 004048c0 f i libconcrt:rtlocks.obj
 0001:000038c0       ?init@ProgressBar@@UAEXXZ  004048c0 f i Crinkler.obj
 0001:000038c0       ?endTask@WindowProgressBar@@UAEXXZ 004048c0 f i WindowProgressBar.obj
 0001:000038c0       ??1CompressionStream@@QAE@XZ 004048c0 f i Compressor:CompressionStream.obj
 0001:000038c0       ?RMAwaken@InternalContextBase@details@Concurrency@@EAEXXZ 004048c0 f i libconcrt:InternalContextBase.obj
 0001:000038c0       ?destroy@stl_condition_variable_win7@details@Concurrency@@UAEXXZ 004048c0 f i libcpmt:cond.obj
 0001:000038c0       ?NotifyAffinitizedWork@FairScheduleGroupSegment@details@Concurrency@@UAEXXZ 004048c0 f i libconcrt:SchedulerBase.obj
 0001:000038c0       ?__empty_global_delete@@YAXPAXI@Z 004048c0 f i Crinkler.obj
 0001:000038c0       __initialize_invalid_parameter_handler 004048c0 f i LIBCMT:invalid_parameter_handler.obj
 0001:000038c0       ?__global_delete@@YAXPAXI@Z 004048c0 f i Crinkler.obj
 0001:000038c0       ?destroy@stl_critical_section_win7@details@Concurrency@@UAEXXZ 004048c0 f i libcpmt:mutex.obj
 0001:000038c0       ?destroy@stl_condition_variable_vista@details@Concurrency@@UAEXXZ 004048c0 f i libcpmt:cond.obj
 0001:000038c0       ?endTask@ConsoleProgressBar@@UAEXXZ 004048c0 f i ConsoleProgressBar.obj
 0001:000038c0       ?_Unlock@?$basic_streambuf@DU?$char_traits@D@std@@@std@@UAEXXZ 004048c0 f i HtmlReport.obj
 0001:000038c0       ?deinit@ProgressBar@@UAEXXZ 004048c0 f i Crinkler.obj
 0001:000038d0       ?addExport@Crinkler@@QAEXVExport@@@Z 004048d0 f i Crinkler.obj
 0001:00003a20       ?assign@?$basic_string@DU?$char_traits@D@std@@V?$allocator@D@2@@std@@QAEAAV12@QBDI@Z 00404a20 f i Crinkler.obj
 0001:00003b40       ?createDynamicInitializerHunk@Crinkler@@AAEPAVHunk@@XZ 00404b40 f   Crinkler.obj
 0001:00003e60       ?createModelHunk@Crinkler@@AAEPAVHunk@@HH@Z 00404e60 f   Crinkler.obj
 0001:00003f90       ?deallocate@?$allocator@H@std@@QAEXQAHI@Z 00404f90 f i HtmlReport.obj
 0001:00003f90       ?deallocate@?$allocator@V?$_List_unchecked_iterator@V?$_List_val@U?$_List_simple_types@U?$pair@$$CBV?$basic_string@DU?$char_traits@D@std@@V?$allocator@D@2@@std@@PAVHunk@@@std@@@std@@@std@@@std@@@std@@QAEXQAV?$_List_unchecked_iterator@V?$_List_val@U?$_List_simple_types@U?$pair@$$CBV?$basic_string@DU?$char_traits@D@std@@V?$allocator@D@2@@std@@PAVHunk@@@std@@@std@@@std@@@2@I@Z 00404f90 f i ExplicitHunkSorter.obj
 0001:00003f90       ?deallocate@?$allocator@PAUCompressionReportRecord@@@std@@QAEXQAPAUCompressionReportRecord@@I@Z 00404f90 f i Hunk.obj
 0001:00003f90       ?deallocate@?$allocator@PAVHunk@@@std@@QAEXQAPAVHunk@@I@Z 00404f90 f i ExplicitHunkSorter.obj
 0001:00003f90       ?deallocate@?$allocator@PAVSymbol@@@std@@QAEXQAPAVSymbol@@I@Z 00404f90 f i Crinkler.obj
 0001:00003f90       ?deallocate@?$allocator@I@std@@QAEXQAII@Z 00404f90 f i ImportHandler.obj
 0001:00003f90       ?deallocate@?$allocator@PAVProgressBar@@@std@@QAEXQAPAVProgressBar@@I@Z 00404f90 f i CompositeProgressBar.obj
 0001:00003fd0       ?deallocate@?$allocator@U?$_List_node@PAVCmdParam@@PAX@std@@@std@@QAEXQAU?$_List_node@PAVCmdParam@@PAX@2@I@Z 00404fd0 f i CmdLineInterface.obj
 0001:00003fd0       ?deallocate@?$allocator@U?$_List_node@PAVHunk@@PAX@std@@@std@@QAEXQAU?$_List_node@PAVHunk@@PAX@2@I@Z 00404fd0 f i Crinkler.obj
 0001:00003fd0       ?deallocate@?$allocator@U?$_List_node@PAVHunkLoader@@PAX@std@@@std@@QAEXQAU?$_List_node@PAVHunkLoader@@PAX@2@I@Z 00404fd0 f i MultiLoader.obj
 0001:00004010       ?deallocate@?$allocator@U?$_Tree_node@U?$pair@$$CBV?$basic_string@DU?$char_traits@D@std@@V?$allocator@D@2@@std@@V12@@std@@PAX@std@@@std@@QAEXQAU?$_Tree_node@U?$pair@$$CBV?$basic_string@DU?$char_traits@D@std@@V?$allocator@D@2@@std@@V12@@std@@PAX@2@I@Z 00405010 f i Crinkler.obj
 0001:00004050       ?deallocate@?$allocator@U?$_Tree_node@V?$basic_string@DU?$char_traits@D@std@@V?$allocator@D@2@@std@@PAX@std@@@std@@QAEXQAU?$_Tree_node@V?$basic_string@DU?$char_traits@D@std@@V?$allocator@D@2@@std@@PAX@2@I@Z 00405050 f i Crinkler.obj
 0001:00004090       ?deallocate@?$allocator@U?$_Tree_node@VExport@@PAX@std@@@std@@QAEXQAU?$_Tree_node@VExport@@PAX@2@I@Z 00405090 f i Crinkler.obj
 0001:000040d0       ?deinitProgressBar@Crinkler@@AAEXXZ 004050d0 f   Crinkler.obj
 0001:000040e0       ?erase@?$_Tree@V?$_Tset_traits@V?$basic_string@DU?$char_traits@D@std@@V?$allocator@D@2@@std@@U?$less@V?$basic_string@DU?$char_traits@D@std@@V?$allocator@D@2@@std@@@2@V?$allocator@V?$basic_string@DU?$char_traits@D@std@@V?$allocator@D@2@@std@@@2@$0A@@std@@@std@@QAE?AV?$_Tree_const_iterator@V?$_Tree_val@U?$_Tree_simple_types@V?$basic_string@DU?$char_traits@D@std@@V?$allocator@D@2@@std@@@std@@@std@@@2@V32@0@Z 004050e0 f i Crinkler.obj
 0001:00004240       ?estimateModels@Crinkler@@AAEHPAEHH_N1HH@Z 00405240 f   Crinkler.obj
 0001:000045e0       ?finalLink@Crinkler@@AAEPAVHunk@@PAV2@000PAEHHH@Z 004055e0 f   Crinkler.obj
 0001:00004810       ?findEntryPoint@Crinkler@@AAEPAVSymbol@@XZ 00405810 f   Crinkler.obj
 0001:000048c0       ?getEntrySymbolName@Crinkler@@ABE?AV?$basic_string@DU?$char_traits@D@std@@V?$allocator@D@2@@std@@XZ 004058c0 f   Crinkler.obj
 0001:00004940       ?initProgressBar@Crinkler@@AAEXXZ 00405940 f   Crinkler.obj
 0001:00004990       ?link@Crinkler@@QAEXPBD@Z  00405990 f   Crinkler.obj
 0001:00005650       ?load@Crinkler@@QAEXPBD@Z  00406650 f   Crinkler.obj
 0001:000056a0       ?load@Crinkler@@QAEXPBDH0@Z 004066a0 f   Crinkler.obj
 0001:000056e0       ?loadImportCode@Crinkler@@AAEX_N000@Z 004066e0 f   Crinkler.obj
 0001:00005800       ?lower_bound@?$_Tree@V?$_Tmap_traits@V?$basic_string@DU?$char_traits@D@std@@V?$allocator@D@2@@std@@PAVMemoryFile@@U?$less@V?$basic_string@DU?$char_traits@D@std@@V?$allocator@D@2@@std@@@2@V?$allocator@U?$pair@$$CBV?$basic_string@DU?$char_traits@D@std@@V?$allocator@D@2@@std@@PAVMemoryFile@@@std@@@2@$0A@@std@@@std@@QAE?AV?$_Tree_iterator@V?$_Tree_val@U?$_Tree_simple_types@U?$pair@$$CBV?$basic_string@DU?$char_traits@D@std@@V?$allocator@D@2@@std@@PAVMemoryFile@@@std@@@std@@@std@@@2@ABV?$basic_string@DU?$char_traits@D@std@@V?$allocator@D@2@@2@@Z 00406800 f i main.obj
 0001:00005800       ?lower_bound@?$_Tree@V?$_Tmap_traits@V?$basic_string@DU?$char_traits@D@std@@V?$allocator@D@2@@std@@V12@U?$less@V?$basic_string@DU?$char_traits@D@std@@V?$allocator@D@2@@std@@@2@V?$allocator@U?$pair@$$CBV?$basic_string@DU?$char_traits@D@std@@V?$allocator@D@2@@std@@V12@@std@@@2@$0A@@std@@@std@@QAE?AV?$_Tree_iterator@V?$_Tree_val@U?$_Tree_simple_types@U?$pair@$$CBV?$basic_string@DU?$char_traits@D@std@@V?$allocator@D@2@@std@@V12@@std@@@std@@@std@@@2@ABV?$basic_string@DU?$char_traits@D@std@@V?$allocator@D@2@@2@@Z 00406800 f i Crinkler.obj
 0001:00005880       ?optimizeHashsize@Crinkler@@AAEHPAEHHHH@Z 00406880 f   Crinkler.obj
 0001:00005bf0       ?overrideAlignments@Crinkler@@AAEXAAVHunkList@@@Z 00406bf0 f   Crinkler.obj
 0001:00005c60       ?printOptions@Crinkler@@QAEXPAU_iobuf@@@Z 00406c60 f   Crinkler.obj
 0001:00006080       ?recompress@Crinkler@@QAEXPBD0@Z 00407080 f   Crinkler.obj
 0001:000079f0       ?removeUnreferencedHunks@Crinkler@@AAEXPAVHunk@@@Z 004089f0 f   Crinkler.obj
 0001:00007d10       ?replaceDlls@Crinkler@@AAEXAAVHunkList@@@Z 00408d10 f   Crinkler.obj
 0001:00008000       ?setHeaderConstants@Crinkler@@AAEXPAVHunk@@0HHHHIHH_N@Z 00409000 f   Crinkler.obj
 0001:00008340       ?setHeaderSaturation@Crinkler@@AAEXPAVHunk@@@Z 00409340 f   Crinkler.obj
 0001:000083b0       ?verboseLabels@@YAXPAUCompressionReportRecord@@@Z 004093b0 f   Crinkler.obj
 0001:000084f0       ?what@exception@std@@UBEPBDXZ 004094f0 f i Crinkler.obj
 0001:00008500       ___local_stdio_printf_options 00409500 f i Crinkler.obj
 0001:00008510       _fprintf                   00409510 f i Crinkler.obj
 0001:00008540       _printf                    00409540 f i Crinkler.obj
 0001:00008570       ??$_Buynode@ABUpiecewise_construct_t@std@@V?$tuple@ABV?$basic_string@DU?$char_traits@D@std@@V?$allocator@D@2@@std@@@2@V?$tuple@$$V@2@@?$_List_buy@U?$pair@$$CBV?$basic_string@DU?$char_traits@D@std@@V?$allocator@D@2@@std@@PAVHunk@@@std@@V?$allocator@U?$pair@$$CBV?$basic_string@DU?$char_traits@D@std@@V?$allocator@D@2@@std@@PAVHunk@@@std@@@2@@std@@QAEPAU?$_List_node@U?$pair@$$CBV?$basic_string@DU?$char_traits@D@std@@V?$allocator@D@2@@std@@PAVHunk@@@std@@PAX@1@PAU21@0ABUpiecewise_construct_t@1@$$QAV?$tuple@ABV?$basic_string@DU?$char_traits@D@std@@V?$allocator@D@2@@std@@@1@$$QAV?$tuple@$$V@1@@Z 00409570 f i ExplicitHunkSorter.obj
 0001:00008600       ??$_Fill_unchecked@PAV?$_List_unchecked_iterator@V?$_List_val@U?$_List_simple_types@U?$pair@$$CBV?$basic_string@DU?$char_traits@D@std@@V?$allocator@D@2@@std@@PAVHunk@@@std@@@std@@@std@@@std@@V12@@std@@YAXPAV?$_List_unchecked_iterator@V?$_List_val@U?$_List_simple_types@U?$pair@$$CBV?$basic_string@DU?$char_traits@D@std@@V?$allocator@D@2@@std@@PAVHunk@@@std@@@std@@@std@@@0@0ABV10@@Z 00409600 f i ExplicitHunkSorter.obj
 0001:00008670       ??$_Insert@AAU?$pair@$$CBV?$basic_string@DU?$char_traits@D@std@@V?$allocator@D@2@@std@@PAVHunk@@@std@@V?$_List_unchecked_iterator@V?$_List_val@U?$_List_simple_types@U?$pair@$$CBV?$basic_string@DU?$char_traits@D@std@@V?$allocator@D@2@@std@@PAVHunk@@@std@@@std@@@std@@@2@@?$_Hash@V?$_Umap_traits@V?$basic_string@DU?$char_traits@D@std@@V?$allocator@D@2@@std@@PAVHunk@@V?$_Uhash_compare@V?$basic_string@DU?$char_traits@D@std@@V?$allocator@D@2@@std@@U?$hash@V?$basic_string@DU?$char_traits@D@std@@V?$allocator@D@2@@std@@@2@U?$equal_to@V?$basic_string@DU?$char_traits@D@std@@V?$allocator@D@2@@std@@@2@@2@V?$allocator@U?$pair@$$CBV?$basic_string@DU?$char_traits@D@std@@V?$allocator@D@2@@std@@PAVHunk@@@std@@@2@$0A@@std@@@std@@IAE?AU?$pair@V?$_List_iterator@V?$_List_val@U?$_List_simple_types@U?$pair@$$CBV?$basic_string@DU?$char_traits@D@std@@V?$allocator@D@2@@std@@PAVHunk@@@std@@@std@@@std@@@std@@_N@1@AAU?$pair@$$CBV?$basic_string@DU?$char_traits@D@std@@V?$allocator@D@2@@std@@PAVHunk@@@1@V?$_List_unchecked_iterator@V?$_List_val@U?$_List_simple_types@U?$pair@$$CBV?$basic_string@DU?$char_traits@D@std@@V?$allocator@D@2@@std@@PAVHunk@@@std@@@std@@@std@@@1@@Z 00409670 f i ExplicitHunkSorter.obj
 0001:00008850       ??$_Try_emplace@ABV?$basic_string@DU?$char_traits@D@std@@V?$allocator@D@2@@std@@$$V@?$unordered_map@V?$basic_string@DU?$char_traits@D@std@@V?$allocator@D@2@@std@@PAVHunk@@U?$hash@V?$basic_string@DU?$char_traits@D@std@@V?$allocator@D@2@@std@@@2@U?$equal_to@V?$basic_string@DU?$char_traits@D@std@@V?$allocator@D@2@@std@@@2@V?$allocator@U?$pair@$$CBV?$basic_string@DU?$char_traits@D@std@@V?$allocator@D@2@@std@@PAVHunk@@@std@@@2@@std@@QAE?AU?$pair@V?$_List_iterator@V?$_List_val@U?$_List_simple_types@U?$pair@$$CBV?$basic_string@DU?$char_traits@D@std@@V?$allocator@D@2@@std@@PAVHunk@@@std@@@std@@@std@@@std@@_N@1@ABV?$basic_string@DU?$char_traits@D@std@@V?$allocator@D@2@@1@@Z 00409850 f i ExplicitHunkSorter.obj
 0001:00008a60       ??$erase@V?$_List_iterator@V?$_List_val@U?$_List_simple_types@U?$pair@$$CBV?$basic_string@DU?$char_traits@D@std@@V?$allocator@D@2@@std@@PAVHunk@@@std@@@std@@@std@@@std@@X@?$_Hash@V?$_Umap_traits@V?$basic_string@DU?$char_traits@D@std@@V?$allocator@D@2@@std@@PAVHunk@@V?$_Uhash_compare@V?$basic_string@DU?$char_traits@D@std@@V?$allocator@D@2@@std@@U?$hash@V?$basic_string@DU?$char_traits@D@std@@V?$allocator@D@2@@std@@@2@U?$equal_to@V?$basic_string@DU?$char_traits@D@std@@V?$allocator@D@2@@std@@@2@@2@V?$allocator@U?$pair@$$CBV?$basic_string@DU?$char_traits@D@std@@V?$allocator@D@2@@std@@PAVHunk@@@std@@@2@$0A@@std@@@std@@QAE?AV?$_List_iterator@V?$_List_val@U?$_List_simple_types@U?$pair@$$CBV?$basic_string@DU?$char_traits@D@std@@V?$allocator@D@2@@std@@PAVHunk@@@std@@@std@@@std@@@1@V21@@Z 00409a60 f i ExplicitHunkSorter.obj
 0001:00008b10       ??1?$_Hash@V?$_Umap_traits@V?$basic_string@DU?$char_traits@D@std@@V?$allocator@D@2@@std@@PAVHunk@@V?$_Uhash_compare@V?$basic_string@DU?$char_traits@D@std@@V?$allocator@D@2@@std@@U?$hash@V?$basic_string@DU?$char_traits@D@std@@V?$allocator@D@2@@std@@@2@U?$equal_to@V?$basic_string@DU?$char_traits@D@std@@V?$allocator@D@2@@std@@@2@@2@V?$allocator@U?$pair@$$CBV?$basic_string@DU?$char_traits@D@std@@V?$allocator@D@2@@std@@PAVHunk@@@std@@@2@$0A@@std@@@std@@QAE@XZ 00409b10 f i ExplicitHunkSorter.obj
 0001:00008b70       ??1?$list@U?$pair@$$CBV?$basic_string@DU?$char_traits@D@std@@V?$allocator@D@2@@std@@PAVHunk@@@std@@V?$allocator@U?$pair@$$CBV?$basic_string@DU?$char_traits@D@std@@V?$allocator@D@2@@std@@PAVHunk@@@std@@@2@@std@@QAE@XZ 00409b70 f i ExplicitHunkSorter.obj
 0001:00008c00       ?_Buynode0@?$_List_alloc@U?$_List_base_types@U?$pair@$$CBV?$basic_string@DU?$char_traits@D@std@@V?$allocator@D@2@@std@@PAVHunk@@@std@@V?$allocator@U?$pair@$$CBV?$basic_string@DU?$char_traits@D@std@@V?$allocator@D@2@@std@@PAVHunk@@@std@@@2@@std@@@std@@QAEPAU?$_List_node@U?$pair@$$CBV?$basic_string@DU?$char_traits@D@std@@V?$allocator@D@2@@std@@PAVHunk@@@std@@PAX@2@PAU32@0@Z 00409c00 f i ExplicitHunkSorter.obj
 0001:00008c80       ?_Check_size@?$_Hash@V?$_Umap_traits@V?$basic_string@DU?$char_traits@D@std@@V?$allocator@D@2@@std@@PAVHunk@@V?$_Uhash_compare@V?$basic_string@DU?$char_traits@D@std@@V?$allocator@D@2@@std@@U?$hash@V?$basic_string@DU?$char_traits@D@std@@V?$allocator@D@2@@std@@@2@U?$equal_to@V?$basic_string@DU?$char_traits@D@std@@V?$allocator@D@2@@std@@@2@@2@V?$allocator@U?$pair@$$CBV?$basic_string@DU?$char_traits@D@std@@V?$allocator@D@2@@std@@PAVHunk@@@std@@@2@$0A@@std@@@std@@IAEXXZ 00409c80 f i ExplicitHunkSorter.obj
 0001:00008d20       ?_Destroy_if_node@?$_Hash@V?$_Umap_traits@V?$basic_string@DU?$char_traits@D@std@@V?$allocator@D@2@@std@@PAVHunk@@V?$_Uhash_compare@V?$basic_string@DU?$char_traits@D@std@@V?$allocator@D@2@@std@@U?$hash@V?$basic_string@DU?$char_traits@D@std@@V?$allocator@D@2@@std@@@2@U?$equal_to@V?$basic_string@DU?$char_traits@D@std@@V?$allocator@D@2@@std@@@2@@2@V?$allocator@U?$pair@$$CBV?$basic_string@DU?$char_traits@D@std@@V?$allocator@D@2@@std@@PAVHunk@@@std@@@2@$0A@@std@@@std@@IAEXV?$_List_unchecked_iterator@V?$_List_val@U?$_List_simple_types@U?$pair@$$CBV?$basic_string@DU?$char_traits@D@std@@V?$allocator@D@2@@std@@PAVHunk@@@std@@@std@@@std@@@2@@Z 00409d20 f i ExplicitHunkSorter.obj
 0001:00008d50       ?_End@?$_Hash@V?$_Umap_traits@V?$basic_string@DU?$char_traits@D@std@@V?$allocator@D@2@@std@@PAVHunk@@V?$_Uhash_compare@V?$basic_string@DU?$char_traits@D@std@@V?$allocator@D@2@@std@@U?$hash@V?$basic_string@DU?$char_traits@D@std@@V?$allocator@D@2@@std@@@2@U?$equal_to@V?$basic_string@DU?$char_traits@D@std@@V?$allocator@D@2@@std@@@2@@2@V?$allocator@U?$pair@$$CBV?$basic_string@DU?$char_traits@D@std@@V?$allocator@D@2@@std@@PAVHunk@@@std@@@2@$0A@@std@@@std@@IAE?AV?$_List_unchecked_iterator@V?$_List_val@U?$_List_simple_types@U?$pair@$$CBV?$basic_string@DU?$char_traits@D@std@@V?$allocator@D@2@@std@@PAVHunk@@@std@@@std@@@std@@@2@I@Z 00409d50 f i ExplicitHunkSorter.obj
 0001:00008d70       ?_Freenode@?$_List_buy@U?$pair@$$CBV?$basic_string@DU?$char_traits@D@std@@V?$allocator@D@2@@std@@PAVHunk@@@std@@V?$allocator@U?$pair@$$CBV?$basic_string@DU?$char_traits@D@std@@V?$allocator@D@2@@std@@PAVHunk@@@std@@@2@@std@@QAEXPAU?$_List_node@U?$pair@$$CBV?$basic_string@DU?$char_traits@D@std@@V?$allocator@D@2@@std@@PAVHunk@@@std@@PAX@2@@Z 00409d70 f i ExplicitHunkSorter.obj
 0001:00008dd0       ?_Getal@?$_Vector_alloc@U?$_Vec_base_types@IV?$allocator@I@std@@@std@@@std@@QAEAAV?$allocator@I@2@XZ 00409dd0 f i Compressor:CompressionStream.obj
 0001:00008dd0       ?_Getal@?$_Vector_alloc@U?$_Vec_base_types@V?$_List_unchecked_iterator@V?$_List_val@U?$_List_simple_types@U?$pair@$$CBV?$basic_string@DU?$char_traits@D@std@@V?$allocator@D@2@@std@@PAVHunk@@@std@@@std@@@std@@@std@@V?$allocator@V?$_List_unchecked_iterator@V?$_List_val@U?$_List_simple_types@U?$pair@$$CBV?$basic_string@DU?$char_traits@D@std@@V?$allocator@D@2@@std@@PAVHunk@@@std@@@std@@@std@@@std@@@2@@std@@@std@@QAEAAV?$allocator@V?$_List_unchecked_iterator@V?$_List_val@U?$_List_simple_types@U?$pair@$$CBV?$basic_string@DU?$char_traits@D@std@@V?$allocator@D@2@@std@@PAVHunk@@@std@@@std@@@std@@@std@@@2@XZ 00409dd0 f i ExplicitHunkSorter.obj
 0001:00008dd0       ?_Getal@?$_Vector_alloc@U?$_Vec_base_types@HV?$allocator@H@std@@@std@@@std@@QAEAAV?$allocator@H@2@XZ 00409dd0 f i Compressor:CompressionStream.obj
 0001:00008dd0       ?_Getal@?$_Vector_alloc@U?$_Vec_base_types@DV?$allocator@D@std@@@std@@@std@@QAEAAV?$allocator@D@2@XZ 00409dd0 f i Hunk.obj
 0001:00008de0       ?_Hashval@?$_Hash@V?$_Umap_traits@V?$basic_string@DU?$char_traits@D@std@@V?$allocator@D@2@@std@@PAVHunk@@V?$_Uhash_compare@V?$basic_string@DU?$char_traits@D@std@@V?$allocator@D@2@@std@@U?$hash@V?$basic_string@DU?$char_traits@D@std@@V?$allocator@D@2@@std@@@2@U?$equal_to@V?$basic_string@DU?$char_traits@D@std@@V?$allocator@D@2@@std@@@2@@2@V?$allocator@U?$pair@$$CBV?$basic_string@DU?$char_traits@D@std@@V?$allocator@D@2@@std@@PAVHunk@@@std@@@2@$0A@@std@@@std@@IBEIABV?$basic_string@DU?$char_traits@D@std@@V?$allocator@D@2@@2@@Z 00409de0 f i ExplicitHunkSorter.obj
 0001:00008e30       ?_Init@?$_Hash@V?$_Umap_traits@V?$basic_string@DU?$char_traits@D@std@@V?$allocator@D@2@@std@@PAVHunk@@V?$_Uhash_compare@V?$basic_string@DU?$char_traits@D@std@@V?$allocator@D@2@@std@@U?$hash@V?$basic_string@DU?$char_traits@D@std@@V?$allocator@D@2@@std@@@2@U?$equal_to@V?$basic_string@DU?$char_traits@D@std@@V?$allocator@D@2@@std@@@2@@2@V?$allocator@U?$pair@$$CBV?$basic_string@DU?$char_traits@D@std@@V?$allocator@D@2@@std@@PAVHunk@@@std@@@2@$0A@@std@@@std@@IAEXI@Z 00409e30 f i ExplicitHunkSorter.obj
 0001:00008e90       ?_Make_iter@?$_Hash@V?$_Umap_traits@V?$basic_string@DU?$char_traits@D@std@@V?$allocator@D@2@@std@@PAVHunk@@V?$_Uhash_compare@V?$basic_string@DU?$char_traits@D@std@@V?$allocator@D@2@@std@@U?$hash@V?$basic_string@DU?$char_traits@D@std@@V?$allocator@D@2@@std@@@2@U?$equal_to@V?$basic_string@DU?$char_traits@D@std@@V?$allocator@D@2@@std@@@2@@2@V?$allocator@U?$pair@$$CBV?$basic_string@DU?$char_traits@D@std@@V?$allocator@D@2@@std@@PAVHunk@@@std@@@2@$0A@@std@@@std@@QBE?AV?$_List_iterator@V?$_List_val@U?$_List_simple_types@U?$pair@$$CBV?$basic_string@DU?$char_traits@D@std@@V?$allocator@D@2@@std@@PAVHunk@@@std@@@std@@@std@@@2@V?$_List_unchecked_const_iterator@V?$_List_val@U?$_List_simple_types@U?$pair@$$CBV?$basic_string@DU?$char_traits@D@std@@V?$allocator@D@2@@std@@PAVHunk@@@std@@@std@@@std@@U_Iterator_base0@2@@2@@Z 00409e90 f i ExplicitHunkSorter.obj
 0001:00008ea0       ?_Reallocate_exactly@?$vector@V?$_List_unchecked_iterator@V?$_List_val@U?$_List_simple_types@U?$pair@$$CBV?$basic_string@DU?$char_traits@D@std@@V?$allocator@D@2@@std@@PAVHunk@@@std@@@std@@@std@@@std@@V?$allocator@V?$_List_unchecked_iterator@V?$_List_val@U?$_List_simple_types@U?$pair@$$CBV?$basic_string@DU?$char_traits@D@std@@V?$allocator@D@2@@std@@PAVHunk@@@std@@@std@@@std@@@std@@@2@@std@@AAEXI@Z 00409ea0 f i ExplicitHunkSorter.obj
 0001:00008fd0       ?_Umove_if_noexcept@?$vector@V?$_List_unchecked_iterator@V?$_List_val@U?$_List_simple_types@U?$pair@$$CBV?$basic_string@DU?$char_traits@D@std@@V?$allocator@D@2@@std@@PAVHunk@@@std@@@std@@@std@@@std@@V?$allocator@V?$_List_unchecked_iterator@V?$_List_val@U?$_List_simple_types@U?$pair@$$CBV?$basic_string@DU?$char_traits@D@std@@V?$allocator@D@2@@std@@PAVHunk@@@std@@@std@@@std@@@std@@@2@@std@@AAEXPAV?$_List_unchecked_iterator@V?$_List_val@U?$_List_simple_types@U?$pair@$$CBV?$basic_string@DU?$char_traits@D@std@@V?$allocator@D@2@@std@@PAVHunk@@@std@@@std@@@std@@@2@00@Z 00409fd0 f i ExplicitHunkSorter.obj
 0001:00009010       ?assign@?$vector@V?$_List_unchecked_iterator@V?$_List_val@U?$_List_simple_types@U?$pair@$$CBV?$basic_string@DU?$char_traits@D@std@@V?$allocator@D@2@@std@@PAVHunk@@@std@@@std@@@std@@@std@@V?$allocator@V?$_List_unchecked_iterator@V?$_List_val@U?$_List_simple_types@U?$pair@$$CBV?$basic_string@DU?$char_traits@D@std@@V?$allocator@D@2@@std@@PAVHunk@@@std@@@std@@@std@@@std@@@2@@std@@QAEXIABV?$_List_unchecked_iterator@V?$_List_val@U?$_List_simple_types@U?$pair@$$CBV?$basic_string@DU?$char_traits@D@std@@V?$allocator@D@2@@std@@PAVHunk@@@std@@@std@@@std@@@2@@Z 0040a010 f i ExplicitHunkSorter.obj
 0001:00009180       ?deallocate@?$allocator@U?$_List_node@U?$pair@$$CBV?$basic_string@DU?$char_traits@D@std@@V?$allocator@D@2@@std@@PAVHunk@@@std@@PAX@std@@@std@@QAEXQAU?$_List_node@U?$pair@$$CBV?$basic_string@DU?$char_traits@D@std@@V?$allocator@D@2@@std@@PAVHunk@@@std@@PAX@2@I@Z 0040a180 f i ExplicitHunkSorter.obj
 0001:000091c0       ?pickHunks@@YA?AV?$vector@PAVHunk@@V?$allocator@PAVHunk@@@std@@@std@@ABV?$vector@V?$basic_string@DU?$char_traits@D@std@@V?$allocator@D@2@@std@@V?$allocator@V?$basic_string@DU?$char_traits@D@std@@V?$allocator@D@2@@std@@@2@@2@AAV?$unordered_map@V?$basic_string@DU?$char_traits@D@std@@V?$allocator@D@2@@std@@PAVHunk@@U?$hash@V?$basic_string@DU?$char_traits@D@std@@V?$allocator@D@2@@std@@@2@U?$equal_to@V?$basic_string@DU?$char_traits@D@std@@V?$allocator@D@2@@std@@@2@V?$allocator@U?$pair@$$CBV?$basic_string@DU?$char_traits@D@std@@V?$allocator@D@2@@std@@PAVHunk@@@std@@@2@@2@@Z 0040a1c0 f   ExplicitHunkSorter.obj
 0001:00009560       ?sortHunkList@ExplicitHunkSorter@@SAXPAVHunkList@@PAVReuse@@@Z 0040a560 f   ExplicitHunkSorter.obj
 0001:0000a0b0       ??$_Buffered_rotate_unchecked@PAU?$pair@PADH@std@@@std@@YAPAU?$pair@PADH@0@QAU10@00HH0H@Z 0040b0b0 f i Export.obj
 0001:0000a200       ??$_Buynode@ABUpiecewise_construct_t@std@@V?$tuple@$$QAH@2@V?$tuple@$$V@2@@?$_Tree_comp_alloc@V?$_Tmap_traits@HHU?$less@H@std@@V?$allocator@U?$pair@$$CBHH@std@@@2@$0A@@std@@@std@@QAEPAU?$_Tree_node@U?$pair@$$CBHH@std@@PAX@1@ABUpiecewise_construct_t@1@$$QAV?$tuple@$$QAH@1@$$QAV?$tuple@$$V@1@@Z 0040b200 f i Export.obj
 0001:0000a200       ??$_Buynode@ABUpiecewise_construct_t@std@@V?$tuple@ABH@2@V?$tuple@$$V@2@@?$_Tree_comp_alloc@V?$_Tmap_traits@HPAVSymbol@@U?$less@H@std@@V?$allocator@U?$pair@$$CBHPAVSymbol@@@std@@@3@$0A@@std@@@std@@QAEPAU?$_Tree_node@U?$pair@$$CBHPAVSymbol@@@std@@PAX@1@ABUpiecewise_construct_t@1@$$QAV?$tuple@ABH@1@$$QAV?$tuple@$$V@1@@Z 0040b200 f i Hunk.obj
 0001:0000a280       ??$_Emplace_reallocate@AAPADAAH@?$vector@U?$pair@PADH@std@@V?$allocator@U?$pair@PADH@std@@@2@@std@@QAEPAU?$pair@PADH@1@QAU21@AAPADAAH@Z 0040b280 f i Export.obj
 0001:0000a430       ??$_Insert_at@AAU?$pair@$$CBHPAVSymbol@@@std@@PAU?$_Tree_node@U?$pair@$$CBHPAVSymbol@@@std@@PAX@2@@?$_Tree@V?$_Tmap_traits@HPAVSymbol@@U?$less@H@std@@V?$allocator@U?$pair@$$CBHPAVSymbol@@@std@@@3@$0A@@std@@@std@@IAE?AV?$_Tree_iterator@V?$_Tree_val@U?$_Tree_simple_types@U?$pair@$$CBHPAVSymbol@@@std@@@std@@@std@@@1@_NPAU?$_Tree_node@U?$pair@$$CBHPAVSymbol@@@std@@PAX@1@AAU?$pair@$$CBHPAVSymbol@@@1@1@Z 0040b430 f i Hunk.obj
 0001:0000a430       ??$_Insert_at@AAU?$pair@$$CBHH@std@@PAU?$_Tree_node@U?$pair@$$CBHH@std@@PAX@2@@?$_Tree@V?$_Tmap_traits@HHU?$less@H@std@@V?$allocator@U?$pair@$$CBHH@std@@@2@$0A@@std@@@std@@IAE?AV?$_Tree_iterator@V?$_Tree_val@U?$_Tree_simple_types@U?$pair@$$CBHH@std@@@std@@@std@@@1@_NPAU?$_Tree_node@U?$pair@$$CBHH@std@@PAX@1@AAU?$pair@$$CBHH@1@1@Z 0040b430 f i Export.obj
 0001:0000a5d0       ??$_Insert_hint@AAU?$pair@$$CBHH@std@@PAU?$_Tree_node@U?$pair@$$CBHH@std@@PAX@2@@?$_Tree@V?$_Tmap_traits@HHU?$less@H@std@@V?$allocator@U?$pair@$$CBHH@std@@@2@$0A@@std@@@std@@IAE?AV?$_Tree_iterator@V?$_Tree_val@U?$_Tree_simple_types@U?$pair@$$CBHH@std@@@std@@@std@@@1@V?$_Tree_const_iterator@V?$_Tree_val@U?$_Tree_simple_types@U?$pair@$$CBHH@std@@@std@@@std@@@1@AAU?$pair@$$CBHH@1@PAU?$_Tree_node@U?$pair@$$CBHH@std@@PAX@1@@Z 0040b5d0 f i Export.obj
 0001:0000a770       ??$_Insert_nohint@AAU?$pair@$$CBHH@std@@PAU?$_Tree_node@U?$pair@$$CBHH@std@@PAX@2@@?$_Tree@V?$_Tmap_traits@HHU?$less@H@std@@V?$allocator@U?$pair@$$CBHH@std@@@2@$0A@@std@@@std@@IAE?AU?$pair@V?$_Tree_iterator@V?$_Tree_val@U?$_Tree_simple_types@U?$pair@$$CBHH@std@@@std@@@std@@@std@@_N@1@_NAAU?$pair@$$CBHH@1@PAU?$_Tree_node@U?$pair@$$CBHH@std@@PAX@1@@Z 0040b770 f i Export.obj
 0001:0000a770       ??$_Insert_nohint@AAU?$pair@$$CBHPAVSymbol@@@std@@PAU?$_Tree_node@U?$pair@$$CBHPAVSymbol@@@std@@PAX@2@@?$_Tree@V?$_Tmap_traits@HPAVSymbol@@U?$less@H@std@@V?$allocator@U?$pair@$$CBHPAVSymbol@@@std@@@3@$0A@@std@@@std@@IAE?AU?$pair@V?$_Tree_iterator@V?$_Tree_val@U?$_Tree_simple_types@U?$pair@$$CBHPAVSymbol@@@std@@@std@@@std@@@std@@_N@1@_NAAU?$pair@$$CBHPAVSymbol@@@1@PAU?$_Tree_node@U?$pair@$$CBHPAVSymbol@@@std@@PAX@1@@Z 0040b770 f i Hunk.obj
 0001:0000aa10       ??$_Move_backward_unchecked@PAU?$pair@PADH@std@@PAU12@@std@@YAPAU?$pair@PADH@0@PAU10@00@Z 0040ba10 f i Export.obj
 0001:0000aa40       ??$_Move_unchecked@PAU?$pair@PADH@std@@PAU12@@std@@YAPAU?$pair@PADH@0@PAU10@00@Z 0040ba40 f i Export.obj
 0001:0000acf0       ??$_Uninitialized_move_unchecked@PAU?$pair@PADH@std@@PAU12@@std@@YAPAU?$pair@PADH@0@QAU10@00@Z 0040bcf0 f i Export.obj
 0001:0000ad20       ??0?$vector@DV?$allocator@D@std@@@std@@QAE@IABV?$allocator@D@1@@Z 0040bd20 f i Export.obj
 0001:0000ae00       ??0Export@@QAE@V?$basic_string@DU?$char_traits@D@std@@V?$allocator@D@2@@std@@0@Z 0040be00 f   Export.obj
 0001:0000aeb0       ??0Export@@QAE@V?$basic_string@DU?$char_traits@D@std@@V?$allocator@D@2@@std@@H@Z 0040beb0 f   Export.obj
 0001:0000af30       ??0relocation@@QAE@$$QAU0@@Z 0040bf30 f i Export.obj
 0001:0000afb0       ??1?$_Tree@V?$_Tmap_traits@HHU?$less@H@std@@V?$allocator@U?$pair@$$CBHH@std@@@2@$0A@@std@@@std@@QAE@XZ 0040bfb0 f i Export.obj
 0001:0000afb0       ??1?$_Tree@V?$_Tmap_traits@HPAVSymbol@@U?$less@H@std@@V?$allocator@U?$pair@$$CBHPAVSymbol@@@std@@@3@$0A@@std@@@std@@QAE@XZ 0040bfb0 f i Hunk.obj
 0001:0000b010       ?_Tidy_deallocate@?$basic_string@DU?$char_traits@D@std@@V?$allocator@D@2@@std@@QAEXXZ 0040c010 f i HtmlReport.obj
 0001:0000b010       ??1?$basic_string@DU?$char_traits@D@std@@V?$allocator@D@2@@std@@QAE@XZ 0040c010 f i Export.obj
 0001:0000b060       ??1relocation@@QAE@XZ      0040c060 f i Export.obj
 0001:0000b0f0       ?_Become_small@?$basic_string@DU?$char_traits@D@std@@V?$allocator@D@2@@std@@QAEXXZ 0040c0f0 f i Export.obj
 0001:0000b140       ?_Buyheadnode@?$_Tree_comp_alloc@V?$_Tmap_traits@HHU?$less@H@std@@V?$allocator@U?$pair@$$CBHH@std@@@2@$0A@@std@@@std@@QAEPAU?$_Tree_node@U?$pair@$$CBHH@std@@PAX@2@XZ 0040c140 f i Export.obj
 0001:0000b140       ?_Buyheadnode@?$_Tree_comp_alloc@V?$_Tmap_traits@HPAVSymbol@@U?$less@H@std@@V?$allocator@U?$pair@$$CBHPAVSymbol@@@std@@@3@$0A@@std@@@std@@QAEPAU?$_Tree_node@U?$pair@$$CBHPAVSymbol@@@std@@PAX@2@XZ 0040c140 f i HtmlReport.obj
 0001:0000b1c0       ?_Buynode0@?$_Tree_comp_alloc@V?$_Tmap_traits@HPAVSymbol@@U?$less@H@std@@V?$allocator@U?$pair@$$CBHPAVSymbol@@@std@@@3@$0A@@std@@@std@@QAEPAU?$_Tree_node@U?$pair@$$CBHPAVSymbol@@@std@@PAX@2@XZ 0040c1c0 f i HtmlReport.obj
 0001:0000b1c0       ?_Buynode0@?$_Tree_comp_alloc@V?$_Tmap_traits@HHU?$less@H@std@@V?$allocator@U?$pair@$$CBHH@std@@@2@$0A@@std@@@std@@QAEPAU?$_Tree_node@U?$pair@$$CBHH@std@@PAX@2@XZ 0040c1c0 f i Export.obj
 0001:0000b240       ?_Freenode0@?$_Tree_comp_alloc@V?$_Tmap_traits@HPAVSymbol@@U?$less@H@std@@V?$allocator@U?$pair@$$CBHPAVSymbol@@@std@@@3@$0A@@std@@@std@@QAEXPAU?$_Tree_node@U?$pair@$$CBHPAVSymbol@@@std@@PAX@2@@Z 0040c240 f i HtmlReport.obj
 0001:0000b240       ?_Destroy_if_node@?$_Tree@V?$_Tmap_traits@HHU?$less@H@std@@V?$allocator@U?$pair@$$CBHH@std@@@2@$0A@@std@@@std@@IAEXPAU?$_Tree_node@U?$pair@$$CBHH@std@@PAX@2@@Z 0040c240 f i Export.obj
 0001:0000b240       ?_Freenode0@?$_Tree_comp_alloc@V?$_Tmap_traits@HHU?$less@H@std@@V?$allocator@U?$pair@$$CBHH@std@@@2@$0A@@std@@@std@@QAEXPAU?$_Tree_node@U?$pair@$$CBHH@std@@PAX@2@@Z 0040c240 f i Export.obj
 0001:0000b240       ?_Destroy_if_node@?$_Tree@V?$_Tmap_traits@HPAVSymbol@@U?$less@H@std@@V?$allocator@U?$pair@$$CBHPAVSymbol@@@std@@@3@$0A@@std@@@std@@IAEXPAU?$_Tree_node@U?$pair@$$CBHPAVSymbol@@@std@@PAX@2@@Z 0040c240 f i Hunk.obj
 0001:0000b260       ?_Erase@?$_Tree@V?$_Tmap_traits@HHU?$less@H@std@@V?$allocator@U?$pair@$$CBHH@std@@@2@$0A@@std@@@std@@IAEXPAU?$_Tree_node@U?$pair@$$CBHH@std@@PAX@2@@Z 0040c260 f i Export.obj
 0001:0000b260       ?_Erase@?$_Tree@V?$_Tmap_traits@HPAVSymbol@@U?$less@H@std@@V?$allocator@U?$pair@$$CBHPAVSymbol@@@std@@@3@$0A@@std@@@std@@IAEXPAU?$_Tree_node@U?$pair@$$CBHPAVSymbol@@@std@@PAX@2@@Z 0040c260 f i HtmlReport.obj
 0001:0000b2a0       ?_Umove@?$vector@U?$pair@PADH@std@@V?$allocator@U?$pair@PADH@std@@@2@@std@@AAEPAU?$pair@PADH@2@PAU32@00@Z 0040c2a0 f i Export.obj
 0001:0000b2d0       ?_Umove_if_noexcept@?$vector@U?$pair@PADH@std@@V?$allocator@U?$pair@PADH@std@@@2@@std@@AAEXPAU?$pair@PADH@2@00@Z 0040c2d0 f i Export.obj
 0001:0000b300       ?append@?$basic_string@DU?$char_traits@D@std@@V?$allocator@D@2@@std@@QAEAAV12@ABV12@@Z 0040c300 f i Export.obj
 0001:0000b370       ?c_str@?$basic_string@DU?$char_traits@D@std@@V?$allocator@D@2@@std@@QBEPBDXZ 0040c370 f i Export.obj
 0001:0000b380       ?createExportTable@@YAPAVHunk@@ABV?$set@VExport@@U?$less@VExport@@@std@@V?$allocator@VExport@@@3@@std@@@Z 0040c380 f   Export.obj
 0001:0000c0e0       ?deallocate@?$allocator@V?$basic_string@DU?$char_traits@D@std@@V?$allocator@D@2@@std@@@std@@QAEXQAV?$basic_string@DU?$char_traits@D@std@@V?$allocator@D@2@@2@I@Z 0040d0e0 f i ImportHandler.obj
 0001:0000c0e0       ?deallocate@?$allocator@U?$_Tree_node@U?$pair@$$CBHPAVSymbol@@@std@@PAX@std@@@std@@QAEXQAU?$_Tree_node@U?$pair@$$CBHPAVSymbol@@@std@@PAX@2@I@Z 0040d0e0 f i HtmlReport.obj
 0001:0000c0e0       ?deallocate@?$allocator@U?$_Tree_node@U?$pair@$$CBHH@std@@PAX@std@@@std@@QAEXQAU?$_Tree_node@U?$pair@$$CBHH@std@@PAX@2@I@Z 0040d0e0 f i Export.obj
 0001:0000c120       ?deallocate@?$allocator@U?$pair@PADH@std@@@std@@QAEXQAU?$pair@PADH@2@I@Z 0040d120 f i Export.obj
 0001:0000c160       ?parseExport@@YA?AVExport@@ABV?$basic_string@DU?$char_traits@D@std@@V?$allocator@D@2@@std@@0@Z 0040d160 f   Export.obj
 0001:0000c2c0       ?printExports@@YAXABV?$set@VExport@@U?$less@VExport@@@std@@V?$allocator@VExport@@@3@@std@@@Z 0040d2c0 f   Export.obj
 0001:0000c3f0       ?reserve@?$basic_string@DU?$char_traits@D@std@@V?$allocator@D@2@@std@@QAEXI@Z 0040d3f0 f i Export.obj
 0001:0000c540       ?stripExports@@YA?AV?$set@VExport@@U?$less@VExport@@@std@@V?$allocator@VExport@@@3@@std@@PAVHunk@@H@Z 0040d540 f   Export.obj
 0001:0000ca30       ??_GCoffObjectLoader@@UAEPAXI@Z 0040da30 f i Fix.obj
 0001:0000ca30       ??_ECoffObjectLoader@@UAEPAXI@Z 0040da30 f i Fix.obj
 0001:0000ca50       ??_GCompressionStateEvaluator@@UAEPAXI@Z 0040da50 f i Compressor:SoftwareCompressionStateEvaluator.obj
 0001:0000ca50       ??_EHunkLoader@@UAEPAXI@Z  0040da50 f i Fix.obj
 0001:0000ca50       ??_GHunkLoader@@UAEPAXI@Z  0040da50 f i Fix.obj
 0001:0000ca50       ??_ECompressionStateEvaluator@@UAEPAXI@Z 0040da50 f i Compressor:SoftwareCompressionStateEvaluator.obj
 0001:0000ca50       ??_GLTCGLoader@@UAEPAXI@Z  0040da50 f i MultiLoader.obj
 0001:0000ca50       ??_ELTCGLoader@@UAEPAXI@Z  0040da50 f i MultiLoader.obj
 0001:0000ca50       ??_ECoffLibraryLoader@@UAEPAXI@Z 0040da50 f i MultiLoader.obj
 0001:0000ca50       ??_GCoffLibraryLoader@@UAEPAXI@Z 0040da50 f i MultiLoader.obj
 0001:0000ca80       ?FixMemory@@YAXPAD@Z       0040da80 f   Fix.obj
 0001:0000cb60       ??$?0V?$allocator@U?$_Tree_node@U?$pair@$$CBHPAVSymbol@@@std@@PAX@std@@@std@@@?$_Tree@V?$_Tmap_traits@HPAVSymbol@@U?$less@H@std@@V?$allocator@U?$pair@$$CBHPAVSymbol@@@std@@@3@$0A@@std@@@std@@QAE@ABV01@$$QAV?$allocator@U?$_Tree_node@U?$pair@$$CBHPAVSymbol@@@std@@PAX@std@@@1@@Z 0040db60 f i HtmlReport.obj
 0001:0000cbe0       ??$?6U?$char_traits@D@std@@@std@@YAAAV?$basic_ostream@DU?$char_traits@D@std@@@0@AAV10@D@Z 0040dbe0 f i HtmlReport.obj
 0001:0000cde0       ??$?6U?$char_traits@D@std@@@std@@YAAAV?$basic_ostream@DU?$char_traits@D@std@@@0@AAV10@PBD@Z 0040dde0 f i HtmlReport.obj
 0001:0000cff0       ??$?HDU?$char_traits@D@std@@V?$allocator@D@1@@std@@YA?AV?$basic_string@DU?$char_traits@D@std@@V?$allocator@D@2@@0@$$QAV10@QBD@Z 0040dff0 f i HtmlReport.obj
 0001:0000d090       ??$_Buynode@AAU?$pair@$$CBHPAVSymbol@@@std@@@?$_Tree_comp_alloc@V?$_Tmap_traits@HPAVSymbol@@U?$less@H@std@@V?$allocator@U?$pair@$$CBHPAVSymbol@@@std@@@3@$0A@@std@@@std@@QAEPAU?$_Tree_node@U?$pair@$$CBHPAVSymbol@@@std@@PAX@1@AAU?$pair@$$CBHPAVSymbol@@@1@@Z 0040e090 f i HtmlReport.obj
 0001:0000d090       ??$_Buynode@U?$pair@HPAVSymbol@@@std@@@?$_Tree_comp_alloc@V?$_Tmap_traits@HPAVSymbol@@U?$less@H@std@@V?$allocator@U?$pair@$$CBHPAVSymbol@@@std@@@3@$0A@@std@@@std@@QAEPAU?$_Tree_node@U?$pair@$$CBHPAVSymbol@@@std@@PAX@1@$$QAU?$pair@HPAVSymbol@@@1@@Z 0040e090 f i Hunk.obj
 0001:0000d110       ??$_Buynode@ABUpiecewise_construct_t@std@@V?$tuple@ABV?$basic_string@DU?$char_traits@D@std@@V?$allocator@D@2@@std@@@2@V?$tuple@$$V@2@@?$_Tree_comp_alloc@V?$_Tmap_traits@V?$basic_string@DU?$char_traits@D@std@@V?$allocator@D@2@@std@@V12@U?$less@V?$basic_string@DU?$char_traits@D@std@@V?$allocator@D@2@@std@@@2@V?$allocator@U?$pair@$$CBV?$basic_string@DU?$char_traits@D@std@@V?$allocator@D@2@@std@@V12@@std@@@2@$0A@@std@@@std@@QAEPAU?$_Tree_node@U?$pair@$$CBV?$basic_string@DU?$char_traits@D@std@@V?$allocator@D@2@@std@@V12@@std@@PAX@1@ABUpiecewise_construct_t@1@$$QAV?$tuple@ABV?$basic_string@DU?$char_traits@D@std@@V?$allocator@D@2@@std@@@1@$$QAV?$tuple@$$V@1@@Z 0040e110 f i HtmlReport.obj
 0001:0000d1a0       ??$_Copy@U_Copy_tag@?$_Tree@V?$_Tmap_traits@HPAVSymbol@@U?$less@H@std@@V?$allocator@U?$pair@$$CBHPAVSymbol@@@std@@@3@$0A@@std@@@std@@@?$_Tree@V?$_Tmap_traits@HPAVSymbol@@U?$less@H@std@@V?$allocator@U?$pair@$$CBHPAVSymbol@@@std@@@3@$0A@@std@@@std@@IAEXABV01@U_Copy_tag@01@@Z 0040e1a0 f i HtmlReport.obj
 0001:0000d220       ??$_Copy_nodes@U_Copy_tag@?$_Tree@V?$_Tmap_traits@HPAVSymbol@@U?$less@H@std@@V?$allocator@U?$pair@$$CBHPAVSymbol@@@std@@@3@$0A@@std@@@std@@@?$_Tree@V?$_Tmap_traits@HPAVSymbol@@U?$less@H@std@@V?$allocator@U?$pair@$$CBHPAVSymbol@@@std@@@3@$0A@@std@@@std@@IAEPAU?$_Tree_node@U?$pair@$$CBHPAVSymbol@@@std@@PAX@1@PAU21@0U_Copy_tag@01@@Z 0040e220 f i HtmlReport.obj
 0001:0000d2e0       ??$_Emplace_reallocate@PAVHunk@@@?$vector@PAVHunk@@V?$allocator@PAVHunk@@@std@@@std@@QAEPAPAVHunk@@QAPAV2@$$QAPAV2@@Z 0040e2e0 f i HunkList.obj
 0001:0000d2e0       ??$_Emplace_reallocate@H@?$vector@HV?$allocator@H@std@@@std@@QAEPAHQAH$$QAH@Z 0040e2e0 f i HtmlReport.obj
 0001:0000d2e0       ??$_Emplace_reallocate@ABH@?$vector@HV?$allocator@H@std@@@std@@QAEPAHQAHABH@Z 0040e2e0 f i HtmlReport.obj
 0001:0000d460       ??$_Immortalize_impl@V_Iostream_error_category@std@@@std@@YGHPAX0PAPAX@Z 0040e460 f i HtmlReport.obj
 0001:0000d480       ??$_Insert_at@AAU?$pair@$$CBV?$basic_string@DU?$char_traits@D@std@@V?$allocator@D@2@@std@@PAVSymbol@@@std@@PAU?$_Tree_node@U?$pair@$$CBV?$basic_string@DU?$char_traits@D@std@@V?$allocator@D@2@@std@@PAVSymbol@@@std@@PAX@2@@?$_Tree@V?$_Tmap_traits@V?$basic_string@DU?$char_traits@D@std@@V?$allocator@D@2@@std@@PAVSymbol@@U?$less@V?$basic_string@DU?$char_traits@D@std@@V?$allocator@D@2@@std@@@2@V?$allocator@U?$pair@$$CBV?$basic_string@DU?$char_traits@D@std@@V?$allocator@D@2@@std@@PAVSymbol@@@std@@@2@$0A@@std@@@std@@IAE?AV?$_Tree_iterator@V?$_Tree_val@U?$_Tree_simple_types@U?$pair@$$CBV?$basic_string@DU?$char_traits@D@std@@V?$allocator@D@2@@std@@PAVSymbol@@@std@@@std@@@std@@@1@_NPAU?$_Tree_node@U?$pair@$$CBV?$basic_string@DU?$char_traits@D@std@@V?$allocator@D@2@@std@@PAVSymbol@@@std@@PAX@1@AAU?$pair@$$CBV?$basic_string@DU?$char_traits@D@std@@V?$allocator@D@2@@std@@PAVSymbol@@@1@1@Z 0040e480 f i Hunk.obj
 0001:0000d480       ??$_Insert_at@AAU?$pair@$$CBV?$basic_string@DU?$char_traits@D@std@@V?$allocator@D@2@@std@@H@std@@PAU?$_Tree_node@U?$pair@$$CBV?$basic_string@DU?$char_traits@D@std@@V?$allocator@D@2@@std@@H@std@@PAX@2@@?$_Tree@V?$_Tmap_traits@V?$basic_string@DU?$char_traits@D@std@@V?$allocator@D@2@@std@@HU?$less@V?$basic_string@DU?$char_traits@D@std@@V?$allocator@D@2@@std@@@2@V?$allocator@U?$pair@$$CBV?$basic_string@DU?$char_traits@D@std@@V?$allocator@D@2@@std@@H@std@@@2@$0A@@std@@@std@@IAE?AV?$_Tree_iterator@V?$_Tree_val@U?$_Tree_simple_types@U?$pair@$$CBV?$basic_string@DU?$char_traits@D@std@@V?$allocator@D@2@@std@@H@std@@@std@@@std@@@1@_NPAU?$_Tree_node@U?$pair@$$CBV?$basic_string@DU?$char_traits@D@std@@V?$allocator@D@2@@std@@H@std@@PAX@1@AAU?$pair@$$CBV?$basic_string@DU?$char_traits@D@std@@V?$allocator@D@2@@std@@H@1@1@Z 0040e480 f i HtmlReport.obj
 0001:0000d480       ??$_Insert_at@AAU?$pair@$$CBV?$basic_string@DU?$char_traits@D@std@@V?$allocator@D@2@@std@@PAVMemoryFile@@@std@@PAU?$_Tree_node@U?$pair@$$CBV?$basic_string@DU?$char_traits@D@std@@V?$allocator@D@2@@std@@PAVMemoryFile@@@std@@PAX@2@@?$_Tree@V?$_Tmap_traits@V?$basic_string@DU?$char_traits@D@std@@V?$allocator@D@2@@std@@PAVMemoryFile@@U?$less@V?$basic_string@DU?$char_traits@D@std@@V?$allocator@D@2@@std@@@2@V?$allocator@U?$pair@$$CBV?$basic_string@DU?$char_traits@D@std@@V?$allocator@D@2@@std@@PAVMemoryFile@@@std@@@2@$0A@@std@@@std@@IAE?AV?$_Tree_iterator@V?$_Tree_val@U?$_Tree_simple_types@U?$pair@$$CBV?$basic_string@DU?$char_traits@D@std@@V?$allocator@D@2@@std@@PAVMemoryFile@@@std@@@std@@@std@@@1@_NPAU?$_Tree_node@U?$pair@$$CBV?$basic_string@DU?$char_traits@D@std@@V?$allocator@D@2@@std@@PAVMemoryFile@@@std@@PAX@1@AAU?$pair@$$CBV?$basic_string@DU?$char_traits@D@std@@V?$allocator@D@2@@std@@PAVMemoryFile@@@1@1@Z 0040e480 f i main.obj
 0001:0000d620       ??$_Insert_nohint@AAU?$pair@$$CBV?$basic_string@DU?$char_traits@D@std@@V?$allocator@D@2@@std@@H@std@@PAU?$_Tree_node@U?$pair@$$CBV?$basic_string@DU?$char_traits@D@std@@V?$allocator@D@2@@std@@H@std@@PAX@2@@?$_Tree@V?$_Tmap_traits@V?$basic_string@DU?$char_traits@D@std@@V?$allocator@D@2@@std@@HU?$less@V?$basic_string@DU?$char_traits@D@std@@V?$allocator@D@2@@std@@@2@V?$allocator@U?$pair@$$CBV?$basic_string@DU?$char_traits@D@std@@V?$allocator@D@2@@std@@H@std@@@2@$0A@@std@@@std@@IAE?AU?$pair@V?$_Tree_iterator@V?$_Tree_val@U?$_Tree_simple_types@U?$pair@$$CBV?$basic_string@DU?$char_traits@D@std@@V?$allocator@D@2@@std@@H@std@@@std@@@std@@@std@@_N@1@_NAAU?$pair@$$CBV?$basic_string@DU?$char_traits@D@std@@V?$allocator@D@2@@std@@H@1@PAU?$_Tree_node@U?$pair@$$CBV?$basic_string@DU?$char_traits@D@std@@V?$allocator@D@2@@std@@H@std@@PAX@1@@Z 0040e620 f i HtmlReport.obj
 0001:0000d620       ??$_Insert_nohint@AAU?$pair@$$CBV?$basic_string@DU?$char_traits@D@std@@V?$allocator@D@2@@std@@PAVSymbol@@@std@@PAU?$_Tree_node@U?$pair@$$CBV?$basic_string@DU?$char_traits@D@std@@V?$allocator@D@2@@std@@PAVSymbol@@@std@@PAX@2@@?$_Tree@V?$_Tmap_traits@V?$basic_string@DU?$char_traits@D@std@@V?$allocator@D@2@@std@@PAVSymbol@@U?$less@V?$basic_string@DU?$char_traits@D@std@@V?$allocator@D@2@@std@@@2@V?$allocator@U?$pair@$$CBV?$basic_string@DU?$char_traits@D@std@@V?$allocator@D@2@@std@@PAVSymbol@@@std@@@2@$0A@@std@@@std@@IAE?AU?$pair@V?$_Tree_iterator@V?$_Tree_val@U?$_Tree_simple_types@U?$pair@$$CBV?$basic_string@DU?$char_traits@D@std@@V?$allocator@D@2@@std@@PAVSymbol@@@std@@@std@@@std@@@std@@_N@1@_NAAU?$pair@$$CBV?$basic_string@DU?$char_traits@D@std@@V?$allocator@D@2@@std@@PAVSymbol@@@1@PAU?$_Tree_node@U?$pair@$$CBV?$basic_string@DU?$char_traits@D@std@@V?$allocator@D@2@@std@@PAVSymbol@@@std@@PAX@1@@Z 0040e620 f i Hunk.obj
 0001:0000d620       ??$_Insert_nohint@AAU?$pair@$$CBV?$basic_string@DU?$char_traits@D@std@@V?$allocator@D@2@@std@@PAVMemoryFile@@@std@@PAU?$_Tree_node@U?$pair@$$CBV?$basic_string@DU?$char_traits@D@std@@V?$allocator@D@2@@std@@PAVMemoryFile@@@std@@PAX@2@@?$_Tree@V?$_Tmap_traits@V?$basic_string@DU?$char_traits@D@std@@V?$allocator@D@2@@std@@PAVMemoryFile@@U?$less@V?$basic_string@DU?$char_traits@D@std@@V?$allocator@D@2@@std@@@2@V?$allocator@U?$pair@$$CBV?$basic_string@DU?$char_traits@D@std@@V?$allocator@D@2@@std@@PAVMemoryFile@@@std@@@2@$0A@@std@@@std@@IAE?AU?$pair@V?$_Tree_iterator@V?$_Tree_val@U?$_Tree_simple_types@U?$pair@$$CBV?$basic_string@DU?$char_traits@D@std@@V?$allocator@D@2@@std@@PAVMemoryFile@@@std@@@std@@@std@@@std@@_N@1@_NAAU?$pair@$$CBV?$basic_string@DU?$char_traits@D@std@@V?$allocator@D@2@@std@@PAVMemoryFile@@@1@PAU?$_Tree_node@U?$pair@$$CBV?$basic_string@DU?$char_traits@D@std@@V?$allocator@D@2@@std@@PAVMemoryFile@@@std@@PAX@1@@Z 0040e620 f i main.obj
 0001:0000d7d0       ??$_Maklocstr@D@std@@YAPADPBDPADABU_Cvtvec@@@Z 0040e7d0 f i HtmlReport.obj
 0001:0000dc70       ??$construct@U?$pair@$$CBV?$basic_string@DU?$char_traits@D@std@@V?$allocator@D@2@@std@@V12@@std@@ABUpiecewise_construct_t@2@V?$tuple@ABV?$basic_string@DU?$char_traits@D@std@@V?$allocator@D@2@@std@@@2@V?$tuple@$$V@2@@?$_Default_allocator_traits@V?$allocator@U?$_Tree_node@U?$pair@$$CBV?$basic_string@DU?$char_traits@D@std@@V?$allocator@D@2@@std@@V12@@std@@PAX@std@@@std@@@std@@SAXAAV?$allocator@U?$_Tree_node@U?$pair@$$CBV?$basic_string@DU?$char_traits@D@std@@V?$allocator@D@2@@std@@V12@@std@@PAX@std@@@1@QAU?$pair@$$CBV?$basic_string@DU?$char_traits@D@std@@V?$allocator@D@2@@std@@V12@@1@ABUpiecewise_construct_t@1@$$QAV?$tuple@ABV?$basic_string@DU?$char_traits@D@std@@V?$allocator@D@2@@std@@@1@$$QAV?$tuple@$$V@1@@Z 0040ec70 f i HtmlReport.obj
 0001:0000dca0       ??$use_facet@V?$ctype@D@std@@@std@@YAABV?$ctype@D@0@ABVlocale@0@@Z 0040eca0 f i HtmlReport.obj
 0001:0000dde0       ??$use_facet@V?$numpunct@D@std@@@std@@YAABV?$numpunct@D@0@ABVlocale@0@@Z 0040ede0 f i HtmlReport.obj
 0001:0000df20       ??0?$basic_string@DU?$char_traits@D@std@@V?$allocator@D@2@@std@@QAE@ID@Z 0040ef20 f i HtmlReport.obj
 0001:0000e060       ??0?$basic_stringstream@DU?$char_traits@D@std@@V?$allocator@D@2@@std@@QAE@H@Z 0040f060 f i HtmlReport.obj
 0001:0000e2b0       ??0_Locinfo@std@@QAE@PBD@Z 0040f2b0 f i HtmlReport.obj
 0001:0000e330       ??0_System_error@std@@IAE@Verror_code@1@ABV?$basic_string@DU?$char_traits@D@std@@V?$allocator@D@2@@1@@Z 0040f330 f i HtmlReport.obj
 0001:0000e530       ??0_System_error@std@@QAE@ABV01@@Z 0040f530 f i HtmlReport.obj
 0001:0000e570       ??0bad_cast@std@@QAE@ABV01@@Z 0040f570 f i HtmlReport.obj
 0001:0000e5a0       ??0failure@ios_base@std@@QAE@ABV012@@Z 0040f5a0 f i HtmlReport.obj
 0001:0000e5f0       ??0failure@ios_base@std@@QAE@PBDABVerror_code@2@@Z 0040f5f0 f i HtmlReport.obj
 0001:0000e690       ??0runtime_error@std@@QAE@ABV01@@Z 0040f690 f i HtmlReport.obj
 0001:0000e6c0       ??0runtime_error@std@@QAE@PBD@Z 0040f6c0 f i HtmlReport.obj
 0001:0000e700       ??0sentry@?$basic_ostream@DU?$char_traits@D@std@@@std@@QAE@AAV12@@Z 0040f700 f i HtmlReport.obj
 0001:0000e7d0       ??0system_error@std@@QAE@ABV01@@Z 0040f7d0 f i HtmlReport.obj
 0001:0000e820       ??1?$basic_ios@DU?$char_traits@D@std@@@std@@UAE@XZ 0040f820 f i HtmlReport.obj
 0001:0000e830       ??1?$basic_streambuf@DU?$char_traits@D@std@@@std@@UAE@XZ 0040f830 f i HtmlReport.obj
 0001:0000e870       ??1?$basic_stringbuf@DU?$char_traits@D@std@@V?$allocator@D@2@@std@@UAE@XZ 0040f870 f i HtmlReport.obj
 0001:0000e940       ??1_Locinfo@std@@QAE@XZ    0040f940 f i HtmlReport.obj
 0001:0000e9e0       ??4?$basic_string@DU?$char_traits@D@std@@V?$allocator@D@2@@std@@QAEAAV01@$$QAV01@@Z 0040f9e0 f i HtmlReport.obj
 0001:0000ea20       ??6?$basic_ostream@DU?$char_traits@D@std@@@std@@QAEAAV01@H@Z 0040fa20 f i HtmlReport.obj
 0001:0000ec70       ??_D?$basic_stringstream@DU?$char_traits@D@std@@V?$allocator@D@2@@std@@QAEXXZ 0040fc70 f i HtmlReport.obj
 0001:0000ecf8       ??_E?$basic_iostream@DU?$char_traits@D@std@@@std@@$4PPPPPPPM@A@AEPAXI@Z 0040fcf8 f i HtmlReport.obj
 0001:0000ed00       ??_E?$basic_istream@DU?$char_traits@D@std@@@std@@$4PPPPPPPM@A@AEPAXI@Z 0040fd00 f i HtmlReport.obj
 0001:0000ed08       ??_E?$basic_ostream@DU?$char_traits@D@std@@@std@@$4PPPPPPPM@A@AEPAXI@Z 0040fd08 f i HtmlReport.obj
 0001:0000ed10       ??_E?$basic_stringstream@DU?$char_traits@D@std@@V?$allocator@D@2@@std@@$4PPPPPPPM@A@AEPAXI@Z 0040fd10 f i HtmlReport.obj
 0001:0000ed20       ??_G?$basic_ios@DU?$char_traits@D@std@@@std@@UAEPAXI@Z 0040fd20 f i HtmlReport.obj
 0001:0000ed20       ??_E?$basic_ios@DU?$char_traits@D@std@@@std@@UAEPAXI@Z 0040fd20 f i HtmlReport.obj
 0001:0000ed50       ??_E?$basic_iostream@DU?$char_traits@D@std@@@std@@UAEPAXI@Z 0040fd50 f i HtmlReport.obj
 0001:0000ed50       ??_G?$basic_iostream@DU?$char_traits@D@std@@@std@@UAEPAXI@Z 0040fd50 f i HtmlReport.obj
 0001:0000edd0       ??_E?$basic_istream@DU?$char_traits@D@std@@@std@@UAEPAXI@Z 0040fdd0 f i HtmlReport.obj
 0001:0000edd0       ??_G?$basic_istream@DU?$char_traits@D@std@@@std@@UAEPAXI@Z 0040fdd0 f i HtmlReport.obj
 0001:0000ee20       ??_G?$basic_ostream@DU?$char_traits@D@std@@@std@@UAEPAXI@Z 0040fe20 f i HtmlReport.obj
 0001:0000ee20       ??_E?$basic_ostream@DU?$char_traits@D@std@@@std@@UAEPAXI@Z 0040fe20 f i HtmlReport.obj
 0001:0000ee70       ??_G?$basic_streambuf@DU?$char_traits@D@std@@@std@@UAEPAXI@Z 0040fe70 f i HtmlReport.obj
 0001:0000ee70       ??_E?$basic_streambuf@DU?$char_traits@D@std@@@std@@UAEPAXI@Z 0040fe70 f i HtmlReport.obj
 0001:0000eec0       ??_G?$basic_stringbuf@DU?$char_traits@D@std@@V?$allocator@D@2@@std@@UAEPAXI@Z 0040fec0 f i HtmlReport.obj
 0001:0000eec0       ??_E?$basic_stringbuf@DU?$char_traits@D@std@@V?$allocator@D@2@@std@@UAEPAXI@Z 0040fec0 f i HtmlReport.obj
 0001:0000eee0       ??_G?$basic_stringstream@DU?$char_traits@D@std@@V?$allocator@D@2@@std@@UAEPAXI@Z 0040fee0 f i HtmlReport.obj
 0001:0000eee0       ??_E?$basic_stringstream@DU?$char_traits@D@std@@V?$allocator@D@2@@std@@UAEPAXI@Z 0040fee0 f i HtmlReport.obj
 0001:0000ef10       ??_E?$ctype@D@std@@MAEPAXI@Z 0040ff10 f i HtmlReport.obj
 0001:0000ef10       ??_G?$ctype@D@std@@MAEPAXI@Z 0040ff10 f i HtmlReport.obj
 0001:0000ef60       ??_E?$num_put@DV?$ostreambuf_iterator@DU?$char_traits@D@std@@@std@@@std@@MAEPAXI@Z 0040ff60 f i HtmlReport.obj
 0001:0000ef60       ??_G?$num_put@DV?$ostreambuf_iterator@DU?$char_traits@D@std@@@std@@@std@@MAEPAXI@Z 0040ff60 f i HtmlReport.obj
 0001:0000ef90       ??_G?$numpunct@D@std@@MAEPAXI@Z 0040ff90 f i HtmlReport.obj
 0001:0000ef90       ??_E?$numpunct@D@std@@MAEPAXI@Z 0040ff90 f i HtmlReport.obj
 0001:0000efe0       ??_G_Facet_base@std@@UAEPAXI@Z 0040ffe0 f i HtmlReport.obj
 0001:0000efe0       ??_E_Facet_base@std@@UAEPAXI@Z 0040ffe0 f i HtmlReport.obj
 0001:0000f010       ??_E_Generic_error_category@std@@UAEPAXI@Z 00410010 f i HtmlReport.obj
 0001:0000f010       ??_E_Iostream_error_category@std@@UAEPAXI@Z 00410010 f i HtmlReport.obj
 0001:0000f010       ??_G_Generic_error_category@std@@UAEPAXI@Z 00410010 f i HtmlReport.obj
 0001:0000f010       ??_G_Iostream_error_category@std@@UAEPAXI@Z 00410010 f i HtmlReport.obj
 0001:0000f030       ??_Efailure@ios_base@std@@UAEPAXI@Z 00410030 f i HtmlReport.obj
 0001:0000f030       ??_G_System_error@std@@UAEPAXI@Z 00410030 f i HtmlReport.obj
 0001:0000f030       ??_Gsystem_error@std@@UAEPAXI@Z 00410030 f i HtmlReport.obj
 0001:0000f030       ??_Gfailure@ios_base@std@@UAEPAXI@Z 00410030 f i HtmlReport.obj
 0001:0000f030       ??_Esystem_error@std@@UAEPAXI@Z 00410030 f i HtmlReport.obj
 0001:0000f030       ??_E_System_error@std@@UAEPAXI@Z 00410030 f i HtmlReport.obj
 0001:0000f060       ??_Eios_base@std@@UAEPAXI@Z 00410060 f i HtmlReport.obj
 0001:0000f060       ??_Gios_base@std@@UAEPAXI@Z 00410060 f i HtmlReport.obj
 0001:0000f090       ?_Buyheadnode@?$_Tree_comp_alloc@V?$_Tmap_traits@V?$basic_string@DU?$char_traits@D@std@@V?$allocator@D@2@@std@@PAVMemoryFile@@U?$less@V?$basic_string@DU?$char_traits@D@std@@V?$allocator@D@2@@std@@@2@V?$allocator@U?$pair@$$CBV?$basic_string@DU?$char_traits@D@std@@V?$allocator@D@2@@std@@PAVMemoryFile@@@std@@@2@$0A@@std@@@std@@QAEPAU?$_Tree_node@U?$pair@$$CBV?$basic_string@DU?$char_traits@D@std@@V?$allocator@D@2@@std@@PAVMemoryFile@@@std@@PAX@2@XZ 00410090 f i main.obj
 0001:0000f090       ?_Buyheadnode@?$_Tree_comp_alloc@V?$_Tmap_traits@V?$basic_string@DU?$char_traits@D@std@@V?$allocator@D@2@@std@@PAVSymbol@@U?$less@V?$basic_string@DU?$char_traits@D@std@@V?$allocator@D@2@@std@@@2@V?$allocator@U?$pair@$$CBV?$basic_string@DU?$char_traits@D@std@@V?$allocator@D@2@@std@@PAVSymbol@@@std@@@2@$0A@@std@@@std@@QAEPAU?$_Tree_node@U?$pair@$$CBV?$basic_string@DU?$char_traits@D@std@@V?$allocator@D@2@@std@@PAVSymbol@@@std@@PAX@2@XZ 00410090 f i Hunk.obj
 0001:0000f090       ?_Buyheadnode@?$_Tree_comp_alloc@V?$_Tmap_traits@V?$basic_string@DU?$char_traits@D@std@@V?$allocator@D@2@@std@@HU?$less@V?$basic_string@DU?$char_traits@D@std@@V?$allocator@D@2@@std@@@2@V?$allocator@U?$pair@$$CBV?$basic_string@DU?$char_traits@D@std@@V?$allocator@D@2@@std@@H@std@@@2@$0A@@std@@@std@@QAEPAU?$_Tree_node@U?$pair@$$CBV?$basic_string@DU?$char_traits@D@std@@V?$allocator@D@2@@std@@H@std@@PAX@2@XZ 00410090 f i HtmlReport.obj
 0001:0000f110       ?_Buynode0@?$_Tree_comp_alloc@V?$_Tmap_traits@V?$basic_string@DU?$char_traits@D@std@@V?$allocator@D@2@@std@@HU?$less@V?$basic_string@DU?$char_traits@D@std@@V?$allocator@D@2@@std@@@2@V?$allocator@U?$pair@$$CBV?$basic_string@DU?$char_traits@D@std@@V?$allocator@D@2@@std@@H@std@@@2@$0A@@std@@@std@@QAEPAU?$_Tree_node@U?$pair@$$CBV?$basic_string@DU?$char_traits@D@std@@V?$allocator@D@2@@std@@H@std@@PAX@2@XZ 00410110 f i HtmlReport.obj
 0001:0000f110       ?_Buynode0@?$_Tree_comp_alloc@V?$_Tmap_traits@V?$basic_string@DU?$char_traits@D@std@@V?$allocator@D@2@@std@@PAVMemoryFile@@U?$less@V?$basic_string@DU?$char_traits@D@std@@V?$allocator@D@2@@std@@@2@V?$allocator@U?$pair@$$CBV?$basic_string@DU?$char_traits@D@std@@V?$allocator@D@2@@std@@PAVMemoryFile@@@std@@@2@$0A@@std@@@std@@QAEPAU?$_Tree_node@U?$pair@$$CBV?$basic_string@DU?$char_traits@D@std@@V?$allocator@D@2@@std@@PAVMemoryFile@@@std@@PAX@2@XZ 00410110 f i main.obj
 0001:0000f110       ?_Buynode0@?$_Tree_comp_alloc@V?$_Tmap_traits@V?$basic_string@DU?$char_traits@D@std@@V?$allocator@D@2@@std@@PAVSymbol@@U?$less@V?$basic_string@DU?$char_traits@D@std@@V?$allocator@D@2@@std@@@2@V?$allocator@U?$pair@$$CBV?$basic_string@DU?$char_traits@D@std@@V?$allocator@D@2@@std@@PAVSymbol@@@std@@@2@$0A@@std@@@std@@QAEPAU?$_Tree_node@U?$pair@$$CBV?$basic_string@DU?$char_traits@D@std@@V?$allocator@D@2@@std@@PAVSymbol@@@std@@PAX@2@XZ 00410110 f i Hunk.obj
 0001:0000f190       ?_Change_array@?$vector@HV?$allocator@H@std@@@std@@AAEXQAHII@Z 00410190 f i HtmlReport.obj
 0001:0000f190       ?_Change_array@?$vector@PAVHunk@@V?$allocator@PAVHunk@@@std@@@std@@AAEXQAPAVHunk@@II@Z 00410190 f i HunkList.obj
 0001:0000f190       ?_Change_array@?$vector@IV?$allocator@I@std@@@std@@AAEXQAIII@Z 00410190 f i Compressor:CompressionStream.obj
 0001:0000f1f0       ?_Decref@facet@locale@std@@UAEPAV_Facet_base@3@XZ 004101f0 f i HtmlReport.obj
 0001:0000f210       ?_Destroy_if_node@?$_Tree@V?$_Tmap_traits@V?$basic_string@DU?$char_traits@D@std@@V?$allocator@D@2@@std@@PAVSymbol@@U?$less@V?$basic_string@DU?$char_traits@D@std@@V?$allocator@D@2@@std@@@2@V?$allocator@U?$pair@$$CBV?$basic_string@DU?$char_traits@D@std@@V?$allocator@D@2@@std@@PAVSymbol@@@std@@@2@$0A@@std@@@std@@IAEXPAU?$_Tree_node@U?$pair@$$CBV?$basic_string@DU?$char_traits@D@std@@V?$allocator@D@2@@std@@PAVSymbol@@@std@@PAX@2@@Z 00410210 f i Hunk.obj
 0001:0000f210       ?_Destroy_if_node@?$_Tree@V?$_Tmap_traits@V?$basic_string@DU?$char_traits@D@std@@V?$allocator@D@2@@std@@PAVMemoryFile@@U?$less@V?$basic_string@DU?$char_traits@D@std@@V?$allocator@D@2@@std@@@2@V?$allocator@U?$pair@$$CBV?$basic_string@DU?$char_traits@D@std@@V?$allocator@D@2@@std@@PAVMemoryFile@@@std@@@2@$0A@@std@@@std@@IAEXPAU?$_Tree_node@U?$pair@$$CBV?$basic_string@DU?$char_traits@D@std@@V?$allocator@D@2@@std@@PAVMemoryFile@@@std@@PAX@2@@Z 00410210 f i main.obj
 0001:0000f210       ?_Destroy_if_node@?$_Tree@V?$_Tmap_traits@V?$basic_string@DU?$char_traits@D@std@@V?$allocator@D@2@@std@@HU?$less@V?$basic_string@DU?$char_traits@D@std@@V?$allocator@D@2@@std@@@2@V?$allocator@U?$pair@$$CBV?$basic_string@DU?$char_traits@D@std@@V?$allocator@D@2@@std@@H@std@@@2@$0A@@std@@@std@@IAEXPAU?$_Tree_node@U?$pair@$$CBV?$basic_string@DU?$char_traits@D@std@@V?$allocator@D@2@@std@@H@std@@PAX@2@@Z 00410210 f i HtmlReport.obj
 0001:0000f270       ?_Erase@?$_Tree@V?$_Tmap_traits@V?$basic_string@DU?$char_traits@D@std@@V?$allocator@D@2@@std@@HU?$less@V?$basic_string@DU?$char_traits@D@std@@V?$allocator@D@2@@std@@@2@V?$allocator@U?$pair@$$CBV?$basic_string@DU?$char_traits@D@std@@V?$allocator@D@2@@std@@H@std@@@2@$0A@@std@@@std@@IAEXPAU?$_Tree_node@U?$pair@$$CBV?$basic_string@DU?$char_traits@D@std@@V?$allocator@D@2@@std@@H@std@@PAX@2@@Z 00410270 f i HtmlReport.obj
 0001:0000f270       ?_Erase@?$_Tree@V?$_Tmap_traits@V?$basic_string@DU?$char_traits@D@std@@V?$allocator@D@2@@std@@PAVSymbol@@U?$less@V?$basic_string@DU?$char_traits@D@std@@V?$allocator@D@2@@std@@@2@V?$allocator@U?$pair@$$CBV?$basic_string@DU?$char_traits@D@std@@V?$allocator@D@2@@std@@PAVSymbol@@@std@@@2@$0A@@std@@@std@@IAEXPAU?$_Tree_node@U?$pair@$$CBV?$basic_string@DU?$char_traits@D@std@@V?$allocator@D@2@@std@@PAVSymbol@@@std@@PAX@2@@Z 00410270 f i Hunk.obj
 0001:0000f270       ?_Erase@?$_Tree@V?$_Tmap_traits@V?$basic_string@DU?$char_traits@D@std@@V?$allocator@D@2@@std@@PAVMemoryFile@@U?$less@V?$basic_string@DU?$char_traits@D@std@@V?$allocator@D@2@@std@@@2@V?$allocator@U?$pair@$$CBV?$basic_string@DU?$char_traits@D@std@@V?$allocator@D@2@@std@@PAVMemoryFile@@@std@@@2@$0A@@std@@@std@@IAEXPAU?$_Tree_node@U?$pair@$$CBV?$basic_string@DU?$char_traits@D@std@@V?$allocator@D@2@@std@@PAVMemoryFile@@@std@@PAX@2@@Z 00410270 f i main.obj
 0001:0000f2f0       ?_Ffmt@?$num_put@DV?$ostreambuf_iterator@DU?$char_traits@D@std@@@std@@@std@@ABAPADPADDH@Z 004102f0 f i HtmlReport.obj
 0001:0000f3b0       ?_Fput@?$num_put@DV?$ostreambuf_iterator@DU?$char_traits@D@std@@@std@@@std@@ABA?AV?$ostreambuf_iterator@DU?$char_traits@D@std@@@2@V32@AAVios_base@2@DPBDI@Z 004103b0 f i HtmlReport.obj
 0001:0000f7e0       ?_Freenode0@?$_Tree_comp_alloc@V?$_Tmap_traits@V?$basic_string@DU?$char_traits@D@std@@V?$allocator@D@2@@std@@PAVSymbol@@U?$less@V?$basic_string@DU?$char_traits@D@std@@V?$allocator@D@2@@std@@@2@V?$allocator@U?$pair@$$CBV?$basic_string@DU?$char_traits@D@std@@V?$allocator@D@2@@std@@PAVSymbol@@@std@@@2@$0A@@std@@@std@@QAEXPAU?$_Tree_node@U?$pair@$$CBV?$basic_string@DU?$char_traits@D@std@@V?$allocator@D@2@@std@@PAVSymbol@@@std@@PAX@2@@Z 004107e0 f i Hunk.obj
 0001:0000f7e0       ?_Freenode0@?$_Tree_comp_alloc@V?$_Tmap_traits@V?$basic_string@DU?$char_traits@D@std@@V?$allocator@D@2@@std@@HU?$less@V?$basic_string@DU?$char_traits@D@std@@V?$allocator@D@2@@std@@@2@V?$allocator@U?$pair@$$CBV?$basic_string@DU?$char_traits@D@std@@V?$allocator@D@2@@std@@H@std@@@2@$0A@@std@@@std@@QAEXPAU?$_Tree_node@U?$pair@$$CBV?$basic_string@DU?$char_traits@D@std@@V?$allocator@D@2@@std@@H@std@@PAX@2@@Z 004107e0 f i HtmlReport.obj
 0001:0000f7e0       ?_Freenode0@?$_Tree_comp_alloc@V?$_Tmap_traits@V?$basic_string@DU?$char_traits@D@std@@V?$allocator@D@2@@std@@PAVMemoryFile@@U?$less@V?$basic_string@DU?$char_traits@D@std@@V?$allocator@D@2@@std@@@2@V?$allocator@U?$pair@$$CBV?$basic_string@DU?$char_traits@D@std@@V?$allocator@D@2@@std@@PAVMemoryFile@@@std@@@2@$0A@@std@@@std@@QAEXPAU?$_Tree_node@U?$pair@$$CBV?$basic_string@DU?$char_traits@D@std@@V?$allocator@D@2@@std@@PAVMemoryFile@@@std@@PAX@2@@Z 004107e0 f i main.obj
 0001:0000f800       ?_Ifmt@?$num_put@DV?$ostreambuf_iterator@DU?$char_traits@D@std@@@std@@@std@@ABAPADPADPBDH@Z 00410800 f i HtmlReport.obj
 0001:0000f890       ?_Incref@facet@locale@std@@UAEXXZ 00410890 f i HtmlReport.obj
 0001:0000f8a0       ?_Init@?$numpunct@D@std@@IAEXABV_Locinfo@2@_N@Z 004108a0 f i HtmlReport.obj
 0001:0000f9d0       ?_Iput@?$num_put@DV?$ostreambuf_iterator@DU?$char_traits@D@std@@@std@@@std@@ABA?AV?$ostreambuf_iterator@DU?$char_traits@D@std@@@2@V32@AAVios_base@2@DPADI@Z 004109d0 f i HtmlReport.obj
 0001:0000fda0       ?_Osfx@?$basic_ostream@DU?$char_traits@D@std@@@std@@QAEXXZ 00410da0 f i HtmlReport.obj
 0001:0000fe20       ?_Put@?$num_put@DV?$ostreambuf_iterator@DU?$char_traits@D@std@@@std@@@std@@ABA?AV?$ostreambuf_iterator@DU?$char_traits@D@std@@@2@V32@PBDI@Z 00410e20 f i HtmlReport.obj
 0001:0000fea0       ?_Rep@?$num_put@DV?$ostreambuf_iterator@DU?$char_traits@D@std@@@std@@@std@@ABA?AV?$ostreambuf_iterator@DU?$char_traits@D@std@@@2@V32@DI@Z 00410ea0 f i HtmlReport.obj
 0001:0000ff10       ?_Tidy@?$_Tree@V?$_Tmap_traits@HPAVSymbol@@U?$less@H@std@@V?$allocator@U?$pair@$$CBHPAVSymbol@@@std@@@3@$0A@@std@@@std@@IAEXXZ 00410f10 f i HtmlReport.obj
 0001:0000ff60       ?_Tidy@?$numpunct@D@std@@AAEXXZ 00410f60 f i HtmlReport.obj
 0001:0000ff80       ?_Xran@?$_String_val@U?$_Simple_types@D@std@@@std@@SAXXZ 00410f80 f i HtmlReport.obj
 0001:000102d0       ?clear@ios_base@std@@QAEXH_N@Z 004112d0 f i HtmlReport.obj
 0001:00010380       ?deallocate@?$allocator@U?$_Tree_node@U?$pair@$$CBV?$basic_string@DU?$char_traits@D@std@@V?$allocator@D@2@@std@@PAVMemoryFile@@@std@@PAX@std@@@std@@QAEXQAU?$_Tree_node@U?$pair@$$CBV?$basic_string@DU?$char_traits@D@std@@V?$allocator@D@2@@std@@PAVMemoryFile@@@std@@PAX@2@I@Z 00411380 f i main.obj
 0001:00010380       ?deallocate@?$allocator@U?$_Tree_node@U?$pair@$$CBV?$basic_string@DU?$char_traits@D@std@@V?$allocator@D@2@@std@@H@std@@PAX@std@@@std@@QAEXQAU?$_Tree_node@U?$pair@$$CBV?$basic_string@DU?$char_traits@D@std@@V?$allocator@D@2@@std@@H@std@@PAX@2@I@Z 00411380 f i HtmlReport.obj
 0001:00010380       ?deallocate@?$allocator@U?$_Tree_node@U?$pair@$$CBV?$basic_string@DU?$char_traits@D@std@@V?$allocator@D@2@@std@@PAVSymbol@@@std@@PAX@std@@@std@@QAEXQAU?$_Tree_node@U?$pair@$$CBV?$basic_string@DU?$char_traits@D@std@@V?$allocator@D@2@@std@@PAVSymbol@@@std@@PAX@2@I@Z 00411380 f i Hunk.obj
 0001:000103c0       ?default_error_condition@error_category@std@@UBE?AVerror_condition@2@H@Z 004113c0 f i HtmlReport.obj
 0001:000103d0       ?do_decimal_point@?$numpunct@D@std@@MBEDXZ 004113d0 f i HtmlReport.obj
 0001:000103e0       ?do_falsename@?$numpunct@D@std@@MBE?AV?$basic_string@DU?$char_traits@D@std@@V?$allocator@D@2@@2@XZ 004113e0 f i HtmlReport.obj
 0001:00010420       ?do_grouping@?$numpunct@D@std@@MBE?AV?$basic_string@DU?$char_traits@D@std@@V?$allocator@D@2@@2@XZ 00411420 f i HtmlReport.obj
 0001:00010460       ?do_narrow@?$ctype@D@std@@MBEDDD@Z 00411460 f i HtmlReport.obj
 0001:00010470       ?do_narrow@?$ctype@D@std@@MBEPBDPBD0DPAD@Z 00411470 f i HtmlReport.obj
 0001:00010490       ?do_put@?$num_put@DV?$ostreambuf_iterator@DU?$char_traits@D@std@@@std@@@std@@MBE?AV?$ostreambuf_iterator@DU?$char_traits@D@std@@@2@V32@AAVios_base@2@DJ@Z 00411490 f i HtmlReport.obj
 0001:000104f0       ?do_put@?$num_put@DV?$ostreambuf_iterator@DU?$char_traits@D@std@@@std@@@std@@MBE?AV?$ostreambuf_iterator@DU?$char_traits@D@std@@@2@V32@AAVios_base@2@DK@Z 004114f0 f i HtmlReport.obj
 0001:00010550       ?do_put@?$num_put@DV?$ostreambuf_iterator@DU?$char_traits@D@std@@@std@@@std@@MBE?AV?$ostreambuf_iterator@DU?$char_traits@D@std@@@2@V32@AAVios_base@2@DN@Z 00411550 f i HtmlReport.obj
 0001:000106d0       ?do_put@?$num_put@DV?$ostreambuf_iterator@DU?$char_traits@D@std@@@std@@@std@@MBE?AV?$ostreambuf_iterator@DU?$char_traits@D@std@@@2@V32@AAVios_base@2@DO@Z 004116d0 f i HtmlReport.obj
 0001:00010850       ?do_put@?$num_put@DV?$ostreambuf_iterator@DU?$char_traits@D@std@@@std@@@std@@MBE?AV?$ostreambuf_iterator@DU?$char_traits@D@std@@@2@V32@AAVios_base@2@DPBX@Z 00411850 f i HtmlReport.obj
 0001:000108a0       ?do_put@?$num_put@DV?$ostreambuf_iterator@DU?$char_traits@D@std@@@std@@@std@@MBE?AV?$ostreambuf_iterator@DU?$char_traits@D@std@@@2@V32@AAVios_base@2@D_J@Z 004118a0 f i HtmlReport.obj
 0001:00010910       ?do_put@?$num_put@DV?$ostreambuf_iterator@DU?$char_traits@D@std@@@std@@@std@@MBE?AV?$ostreambuf_iterator@DU?$char_traits@D@std@@@2@V32@AAVios_base@2@D_K@Z 00411910 f i HtmlReport.obj
 0001:00010980       ?do_put@?$num_put@DV?$ostreambuf_iterator@DU?$char_traits@D@std@@@std@@@std@@MBE?AV?$ostreambuf_iterator@DU?$char_traits@D@std@@@2@V32@AAVios_base@2@D_N@Z 00411980 f i HtmlReport.obj
 0001:00010ba0       ?do_thousands_sep@?$numpunct@D@std@@MBEDXZ 00411ba0 f i HtmlReport.obj
 0001:00010bb0       ?do_tolower@?$ctype@D@std@@MBEDD@Z 00411bb0 f i HtmlReport.obj
 0001:00010bd0       ?do_tolower@?$ctype@D@std@@MBEPBDPADPBD@Z 00411bd0 f i HtmlReport.obj
 0001:00010c10       ?do_toupper@?$ctype@D@std@@MBEDD@Z 00411c10 f i HtmlReport.obj
 0001:00010c30       ?do_toupper@?$ctype@D@std@@MBEPBDPADPBD@Z 00411c30 f i HtmlReport.obj
 0001:00010c70       ?do_truename@?$numpunct@D@std@@MBE?AV?$basic_string@DU?$char_traits@D@std@@V?$allocator@D@2@@2@XZ 00411c70 f i HtmlReport.obj
 0001:00010cb0       ?do_widen@?$ctype@D@std@@MBEDD@Z 00411cb0 f i HtmlReport.obj
 0001:00010cc0       ?do_widen@?$ctype@D@std@@MBEPBDPBD0PAD@Z 00411cc0 f i HtmlReport.obj
 0001:00010ce0       ?equivalent@error_category@std@@UBE_NABVerror_code@2@H@Z 00411ce0 f i HtmlReport.obj
 0001:00010d10       ?equivalent@error_category@std@@UBE_NHABVerror_condition@2@@Z 00411d10 f i HtmlReport.obj
 0001:00010d50       ?erase@?$_Tree@V?$_Tmap_traits@V?$basic_string@DU?$char_traits@D@std@@V?$allocator@D@2@@std@@PAVMemoryFile@@U?$less@V?$basic_string@DU?$char_traits@D@std@@V?$allocator@D@2@@std@@@2@V?$allocator@U?$pair@$$CBV?$basic_string@DU?$char_traits@D@std@@V?$allocator@D@2@@std@@PAVMemoryFile@@@std@@@2@$0A@@std@@@std@@QAE?AV?$_Tree_iterator@V?$_Tree_val@U?$_Tree_simple_types@U?$pair@$$CBV?$basic_string@DU?$char_traits@D@std@@V?$allocator@D@2@@std@@PAVMemoryFile@@@std@@@std@@@std@@@2@V?$_Tree_const_iterator@V?$_Tree_val@U?$_Tree_simple_types@U?$pair@$$CBV?$basic_string@DU?$char_traits@D@std@@V?$allocator@D@2@@std@@PAVMemoryFile@@@std@@@std@@@std@@@2@0@Z 00411d50 f i main.obj
 0001:00010d50       ?erase@?$_Tree@V?$_Tmap_traits@V?$basic_string@DU?$char_traits@D@std@@V?$allocator@D@2@@std@@HU?$less@V?$basic_string@DU?$char_traits@D@std@@V?$allocator@D@2@@std@@@2@V?$allocator@U?$pair@$$CBV?$basic_string@DU?$char_traits@D@std@@V?$allocator@D@2@@std@@H@std@@@2@$0A@@std@@@std@@QAE?AV?$_Tree_iterator@V?$_Tree_val@U?$_Tree_simple_types@U?$pair@$$CBV?$basic_string@DU?$char_traits@D@std@@V?$allocator@D@2@@std@@H@std@@@std@@@std@@@2@V?$_Tree_const_iterator@V?$_Tree_val@U?$_Tree_simple_types@U?$pair@$$CBV?$basic_string@DU?$char_traits@D@std@@V?$allocator@D@2@@std@@H@std@@@std@@@std@@@2@0@Z 00411d50 f i HtmlReport.obj
 0001:00010eb0       ?erase@?$basic_string@DU?$char_traits@D@std@@V?$allocator@D@2@@std@@QAEAAV12@II@Z 00411eb0 f i HtmlReport.obj
 0001:00011000       ?find@?$_Tree@V?$_Tmap_traits@HPAVSymbol@@U?$less@H@std@@V?$allocator@U?$pair@$$CBHPAVSymbol@@@std@@@3@$0A@@std@@@std@@QAE?AV?$_Tree_iterator@V?$_Tree_val@U?$_Tree_simple_types@U?$pair@$$CBHPAVSymbol@@@std@@@std@@@std@@@2@ABH@Z 00412000 f i HtmlReport.obj
 0001:00011620       ?htmlReport@@YAXPAUCompressionReportRecord@@PBDAAVHunk@@2PBH1HPAVCrinkler@@@Z 00412620 f   HtmlReport.obj
 0001:00012840       ?imbue@?$basic_streambuf@DU?$char_traits@D@std@@@std@@MAEXABVlocale@2@@Z 00413840 f i HtmlReport.obj
 0001:00012850       ?insert@?$basic_string@DU?$char_traits@D@std@@V?$allocator@D@2@@std@@QAEAAV12@IQBDI@Z 00413850 f i HtmlReport.obj
 0001:00012950       ?make_error_code@std@@YA?AVerror_code@1@W4io_errc@1@@Z 00413950 f i HtmlReport.obj
 0001:00012990       ?message@_Generic_error_category@std@@UBE?AV?$basic_string@DU?$char_traits@D@std@@V?$allocator@D@2@@2@H@Z 00413990 f i HtmlReport.obj
 0001:000129e0       ?message@_Iostream_error_category@std@@UBE?AV?$basic_string@DU?$char_traits@D@std@@V?$allocator@D@2@@2@H@Z 004139e0 f i HtmlReport.obj
 0001:00012a50       ?name@_Generic_error_category@std@@UBEPBDXZ 00413a50 f i HtmlReport.obj
 0001:00012a60       ?name@_Iostream_error_category@std@@UBEPBDXZ 00413a60 f i HtmlReport.obj
 0001:00012a70       ?overflow@?$basic_streambuf@DU?$char_traits@D@std@@@std@@MAEHH@Z 00413a70 f i HtmlReport.obj
 0001:00012a70       ?pbackfail@?$basic_streambuf@DU?$char_traits@D@std@@@std@@MAEHH@Z 00413a70 f i HtmlReport.obj
 0001:00012a80       ?overflow@?$basic_stringbuf@DU?$char_traits@D@std@@V?$allocator@D@2@@std@@MAEHH@Z 00413a80 f i HtmlReport.obj
 0001:00012ca0       ?pbackfail@?$basic_stringbuf@DU?$char_traits@D@std@@V?$allocator@D@2@@std@@MAEHH@Z 00413ca0 f i HtmlReport.obj
 0001:00012e50       ?put@?$num_put@DV?$ostreambuf_iterator@DU?$char_traits@D@std@@@std@@@std@@QBE?AV?$ostreambuf_iterator@DU?$char_traits@D@std@@@2@V32@AAVios_base@2@DJ@Z 00413e50 f i HtmlReport.obj
 0001:00012e80       ?resize@?$basic_string@DU?$char_traits@D@std@@V?$allocator@D@2@@std@@QAEXID@Z 00413e80 f i HtmlReport.obj
 0001:00012ef0       ?seekoff@?$basic_streambuf@DU?$char_traits@D@std@@@std@@MAE?AV?$fpos@U_Mbstatet@@@2@_JHH@Z 00413ef0 f i HtmlReport.obj
 0001:00012f20       ?seekoff@?$basic_stringbuf@DU?$char_traits@D@std@@V?$allocator@D@2@@std@@MAE?AV?$fpos@U_Mbstatet@@@2@_JHH@Z 00413f20 f i HtmlReport.obj
 0001:00013100       ?seekpos@?$basic_streambuf@DU?$char_traits@D@std@@@std@@MAE?AV?$fpos@U_Mbstatet@@@2@V32@H@Z 00414100 f i HtmlReport.obj
 0001:00013130       ?seekpos@?$basic_stringbuf@DU?$char_traits@D@std@@V?$allocator@D@2@@std@@MAE?AV?$fpos@U_Mbstatet@@@2@V32@H@Z 00414130 f i HtmlReport.obj
 0001:00013260       ?setbuf@?$basic_streambuf@DU?$char_traits@D@std@@@std@@MAEPAV12@PAD_J@Z 00414260 f i HtmlReport.obj
 0001:00013270       ?setstate@?$basic_ios@DU?$char_traits@D@std@@@std@@QAEXH_N@Z 00414270 f i HtmlReport.obj
 0001:000132a0       ?_DefaultInit@?$combinable@_J@Concurrency@@CA_JXZ 004142a0 f i Compressor:SoftwareCompressionStateEvaluator.obj
 0001:000132a0       ?showmanyc@?$basic_streambuf@DU?$char_traits@D@std@@@std@@MAE_JXZ 004142a0 f i HtmlReport.obj
 0001:00013300       ?sputc@?$basic_streambuf@DU?$char_traits@D@std@@@std@@QAEHD@Z 00414300 f i HtmlReport.obj
 0001:00013340       ?EnterCriticalRegion@ContextBase@details@Concurrency@@QAEHXZ 00414340 f i libconcrt:ContextBase.obj
 0001:00013340       ?GetDefaultDestination@VirtualProcessor@details@Concurrency@@UAEPAUIExecutionContext@3@XZ 00414340 f i libconcrt:VirtualProcessor.obj
 0001:00013340       ___scrt_initialize_winrt   00414340 f i LIBCMT:utility_desktop.obj
 0001:00013340       ?getDetransformer@IdentityTransform@@UAEPAVHunk@@XZ 00414340 f i IdentityTransform.obj
 0001:00013340       ?ExitCriticalRegion@ContextBase@details@Concurrency@@QAEHXZ 00414340 f i libconcrt:ContextBase.obj
 0001:00013340       ?PreRunnableSearch@VirtualProcessor@details@Concurrency@@UAEPAVInternalContextBase@23@XZ 00414340 f i libconcrt:VirtualProcessor.obj
 0001:00013340       ?ExitHyperCriticalRegion@ContextBase@details@Concurrency@@QAEHXZ 00414340 f i libconcrt:ContextBase.obj
 0001:00013340       __matherr                  00414340 f i LIBCMT:matherr.obj
 0001:00013340       ?GetContextKind@ExternalContextBase@details@Concurrency@@EBE?AW4ContextKind@ContextBase@23@XZ 00414340 f i libconcrt:ExternalContextBase.obj
 0001:00013340       __get_startup_thread_locale_mode 00414340 f i LIBCMT:thread_locale.obj
 0001:00013340       ?EnterHyperCriticalRegion@ContextBase@details@Concurrency@@QAEHXZ 00414340 f i libconcrt:ContextBase.obj
 0001:00013340       __get_startup_commit_mode  00414340 f i LIBCMT:commit_mode.obj
 0001:00013340       __get_startup_new_mode     00414340 f i LIBCMT:new_mode.obj
 0001:00013340       ?sync@?$basic_streambuf@DU?$char_traits@D@std@@@std@@MAEHXZ 00414340 f i HtmlReport.obj
 0001:00013720       ?uflow@?$basic_streambuf@DU?$char_traits@D@std@@@std@@MAEHXZ 00414720 f i HtmlReport.obj
 0001:00013750       ?underflow@?$basic_streambuf@DU?$char_traits@D@std@@@std@@MAEHXZ 00414750 f i HtmlReport.obj
 0001:00013750       ?GetVirtualProcessorId@ExternalContextBase@details@Concurrency@@UBEIXZ 00414750 f i libconcrt:ExternalContextBase.obj
 0001:00013760       ?underflow@?$basic_stringbuf@DU?$char_traits@D@std@@V?$allocator@D@2@@std@@MAEHXZ 00414760 f i HtmlReport.obj
 0001:000137c0       ?xsgetn@?$basic_streambuf@DU?$char_traits@D@std@@@std@@MAE_JPAD_J@Z 004147c0 f i HtmlReport.obj
 0001:000138d0       ?xsputn@?$basic_streambuf@DU?$char_traits@D@std@@@std@@MAE_JPBD_J@Z 004148d0 f i HtmlReport.obj
 0001:000139f0       ___local_stdio_scanf_options 004149f0 f i HtmlReport.obj
 0001:00013a00       _sprintf_s                 00414a00 f i HtmlReport.obj
 0001:00013a30       _sscanf_s                  00414a30 f i HtmlReport.obj
 0001:00013a60       ??$?HDU?$char_traits@D@std@@V?$allocator@D@1@@std@@YA?AV?$basic_string@DU?$char_traits@D@std@@V?$allocator@D@2@@0@$$QAV10@0@Z 00414a60 f i Hunk.obj
 0001:00013ba0       ??$_Buynode@ABUpiecewise_construct_t@std@@V?$tuple@$$QAV?$basic_string@DU?$char_traits@D@std@@V?$allocator@D@2@@std@@@2@V?$tuple@$$V@2@@?$_Tree_comp_alloc@V?$_Tmap_traits@V?$basic_string@DU?$char_traits@D@std@@V?$allocator@D@2@@std@@PAVSymbol@@U?$less@V?$basic_string@DU?$char_traits@D@std@@V?$allocator@D@2@@std@@@2@V?$allocator@U?$pair@$$CBV?$basic_string@DU?$char_traits@D@std@@V?$allocator@D@2@@std@@PAVSymbol@@@std@@@2@$0A@@std@@@std@@QAEPAU?$_Tree_node@U?$pair@$$CBV?$basic_string@DU?$char_traits@D@std@@V?$allocator@D@2@@std@@PAVSymbol@@@std@@PAX@1@ABUpiecewise_construct_t@1@$$QAV?$tuple@$$QAV?$basic_string@DU?$char_traits@D@std@@V?$allocator@D@2@@std@@@1@$$QAV?$tuple@$$V@1@@Z 00414ba0 f i Hunk.obj
 0001:00013c30       ??$_Buynode@ABUpiecewise_construct_t@std@@V?$tuple@ABV?$basic_string@DU?$char_traits@D@std@@V?$allocator@D@2@@std@@@2@V?$tuple@$$V@2@@?$_Tree_comp_alloc@V?$_Tmap_traits@V?$basic_string@DU?$char_traits@D@std@@V?$allocator@D@2@@std@@PAVMemoryFile@@U?$less@V?$basic_string@DU?$char_traits@D@std@@V?$allocator@D@2@@std@@@2@V?$allocator@U?$pair@$$CBV?$basic_string@DU?$char_traits@D@std@@V?$allocator@D@2@@std@@PAVMemoryFile@@@std@@@2@$0A@@std@@@std@@QAEPAU?$_Tree_node@U?$pair@$$CBV?$basic_string@DU?$char_traits@D@std@@V?$allocator@D@2@@std@@PAVMemoryFile@@@std@@PAX@1@ABUpiecewise_construct_t@1@$$QAV?$tuple@ABV?$basic_string@DU?$char_traits@D@std@@V?$allocator@D@2@@std@@@1@$$QAV?$tuple@$$V@1@@Z 00414c30 f i main.obj
 0001:00013c30       ??$_Buynode@ABUpiecewise_construct_t@std@@V?$tuple@ABV?$basic_string@DU?$char_traits@D@std@@V?$allocator@D@2@@std@@@2@V?$tuple@$$V@2@@?$_Tree_comp_alloc@V?$_Tmap_traits@V?$basic_string@DU?$char_traits@D@std@@V?$allocator@D@2@@std@@PAVSymbol@@U?$less@V?$basic_string@DU?$char_traits@D@std@@V?$allocator@D@2@@std@@@2@V?$allocator@U?$pair@$$CBV?$basic_string@DU?$char_traits@D@std@@V?$allocator@D@2@@std@@PAVSymbol@@@std@@@2@$0A@@std@@@std@@QAEPAU?$_Tree_node@U?$pair@$$CBV?$basic_string@DU?$char_traits@D@std@@V?$allocator@D@2@@std@@PAVSymbol@@@std@@PAX@1@ABUpiecewise_construct_t@1@$$QAV?$tuple@ABV?$basic_string@DU?$char_traits@D@std@@V?$allocator@D@2@@std@@@1@$$QAV?$tuple@$$V@1@@Z 00414c30 f i Hunk.obj
 0001:00013cc0       ??$_Buynode@U?$pair@V?$basic_string@DU?$char_traits@D@std@@V?$allocator@D@2@@std@@H@std@@@?$_Tree_comp_alloc@V?$_Tmap_traits@V?$basic_string@DU?$char_traits@D@std@@V?$allocator@D@2@@std@@HU?$less@V?$basic_string@DU?$char_traits@D@std@@V?$allocator@D@2@@std@@@2@V?$allocator@U?$pair@$$CBV?$basic_string@DU?$char_traits@D@std@@V?$allocator@D@2@@std@@H@std@@@2@$0A@@std@@@std@@QAEPAU?$_Tree_node@U?$pair@$$CBV?$basic_string@DU?$char_traits@D@std@@V?$allocator@D@2@@std@@H@std@@PAX@1@$$QAU?$pair@V?$basic_string@DU?$char_traits@D@std@@V?$allocator@D@2@@std@@H@1@@Z 00414cc0 f i CmdParamFlags.obj
 0001:00013cc0       ??$_Buynode@U?$pair@V?$basic_string@DU?$char_traits@D@std@@V?$allocator@D@2@@std@@PAVSymbol@@@std@@@?$_Tree_comp_alloc@V?$_Tmap_traits@V?$basic_string@DU?$char_traits@D@std@@V?$allocator@D@2@@std@@PAVSymbol@@U?$less@V?$basic_string@DU?$char_traits@D@std@@V?$allocator@D@2@@std@@@2@V?$allocator@U?$pair@$$CBV?$basic_string@DU?$char_traits@D@std@@V?$allocator@D@2@@std@@PAVSymbol@@@std@@@2@$0A@@std@@@std@@QAEPAU?$_Tree_node@U?$pair@$$CBV?$basic_string@DU?$char_traits@D@std@@V?$allocator@D@2@@std@@PAVSymbol@@@std@@PAX@1@$$QAU?$pair@V?$basic_string@DU?$char_traits@D@std@@V?$allocator@D@2@@std@@PAVSymbol@@@1@@Z 00414cc0 f i Hunk.obj
 0001:00013d40       ??$_Emplace_reallocate@ABUrelocation@@@?$vector@Urelocation@@V?$allocator@Urelocation@@@std@@@std@@QAEPAUrelocation@@QAU2@ABU2@@Z 00414d40 f i Hunk.obj
 0001:00013f90       ??$_Emplace_reallocate@D@?$vector@DV?$allocator@D@std@@@std@@QAEPADQAD$$QAD@Z 00414f90 f i Hunk.obj
 0001:000140f0       ??$_Guess_median_unchecked@PAPAVHunk@@P6A_NPBV1@0@Z@std@@YAXPAPAVHunk@@00P6A_NPBV1@1@Z@Z 004150f0 f i ImportHandler.obj
 0001:000140f0       ??$_Guess_median_unchecked@PAPAVSymbol@@P6A_NPAV1@0@Z@std@@YAXPAPAVSymbol@@00P6A_NPAV1@1@Z@Z 004150f0 f i Hunk.obj
 0001:000140f0       ??$_Guess_median_unchecked@PAPAVHunk@@P6A_NPAV1@0@Z@std@@YAXPAPAVHunk@@00P6A_NPAV1@1@Z@Z 004150f0 f i HeuristicHunkSorter.obj
 0001:000142d0       ??$_Insert_hint@AAU?$pair@$$CBHPAVSymbol@@@std@@PAU?$_Tree_node@U?$pair@$$CBHPAVSymbol@@@std@@PAX@2@@?$_Tree@V?$_Tmap_traits@HPAVSymbol@@U?$less@H@std@@V?$allocator@U?$pair@$$CBHPAVSymbol@@@std@@@3@$0A@@std@@@std@@IAE?AV?$_Tree_iterator@V?$_Tree_val@U?$_Tree_simple_types@U?$pair@$$CBHPAVSymbol@@@std@@@std@@@std@@@1@V?$_Tree_const_iterator@V?$_Tree_val@U?$_Tree_simple_types@U?$pair@$$CBHPAVSymbol@@@std@@@std@@@std@@@1@AAU?$pair@$$CBHPAVSymbol@@@1@PAU?$_Tree_node@U?$pair@$$CBHPAVSymbol@@@std@@PAX@1@@Z 004152d0 f i Hunk.obj
 0001:00014490       ??$_Insert_hint@AAU?$pair@$$CBV?$basic_string@DU?$char_traits@D@std@@V?$allocator@D@2@@std@@PAVSymbol@@@std@@PAU?$_Tree_node@U?$pair@$$CBV?$basic_string@DU?$char_traits@D@std@@V?$allocator@D@2@@std@@PAVSymbol@@@std@@PAX@2@@?$_Tree@V?$_Tmap_traits@V?$basic_string@DU?$char_traits@D@std@@V?$allocator@D@2@@std@@PAVSymbol@@U?$less@V?$basic_string@DU?$char_traits@D@std@@V?$allocator@D@2@@std@@@2@V?$allocator@U?$pair@$$CBV?$basic_string@DU?$char_traits@D@std@@V?$allocator@D@2@@std@@PAVSymbol@@@std@@@2@$0A@@std@@@std@@IAE?AV?$_Tree_iterator@V?$_Tree_val@U?$_Tree_simple_types@U?$pair@$$CBV?$basic_string@DU?$char_traits@D@std@@V?$allocator@D@2@@std@@PAVSymbol@@@std@@@std@@@std@@@1@V?$_Tree_const_iterator@V?$_Tree_val@U?$_Tree_simple_types@U?$pair@$$CBV?$basic_string@DU?$char_traits@D@std@@V?$allocator@D@2@@std@@PAVSymbol@@@std@@@std@@@std@@@1@AAU?$pair@$$CBV?$basic_string@DU?$char_traits@D@std@@V?$allocator@D@2@@std@@PAVSymbol@@@1@PAU?$_Tree_node@U?$pair@$$CBV?$basic_string@DU?$char_traits@D@std@@V?$allocator@D@2@@std@@PAVSymbol@@@std@@PAX@1@@Z 00415490 f i Hunk.obj
 0001:00014710       ??$_Lbound@V?$basic_string@DU?$char_traits@D@std@@V?$allocator@D@2@@std@@@?$_Tree@V?$_Tmap_traits@V?$basic_string@DU?$char_traits@D@std@@V?$allocator@D@2@@std@@PAVSymbol@@U?$less@V?$basic_string@DU?$char_traits@D@std@@V?$allocator@D@2@@std@@@2@V?$allocator@U?$pair@$$CBV?$basic_string@DU?$char_traits@D@std@@V?$allocator@D@2@@std@@PAVSymbol@@@std@@@2@$0A@@std@@@std@@IBEPAU?$_Tree_node@U?$pair@$$CBV?$basic_string@DU?$char_traits@D@std@@V?$allocator@D@2@@std@@PAVSymbol@@@std@@PAX@1@ABV?$basic_string@DU?$char_traits@D@std@@V?$allocator@D@2@@1@@Z 00415710 f i Hunk.obj
 0001:00014770       ??$_Partition_by_median_guess_unchecked@PAPAVHunk@@P6A_NPAV1@0@Z@std@@YA?AU?$pair@PAPAVHunk@@PAPAV1@@0@PAPAVHunk@@0P6A_NPAV2@1@Z@Z 00415770 f i HeuristicHunkSorter.obj
 0001:00014770       ??$_Partition_by_median_guess_unchecked@PAPAVHunk@@P6A_NPBV1@0@Z@std@@YA?AU?$pair@PAPAVHunk@@PAPAV1@@0@PAPAVHunk@@0P6A_NPBV2@1@Z@Z 00415770 f i ImportHandler.obj
 0001:00014770       ??$_Partition_by_median_guess_unchecked@PAPAVSymbol@@P6A_NPAV1@0@Z@std@@YA?AU?$pair@PAPAVSymbol@@PAPAV1@@0@PAPAVSymbol@@0P6A_NPAV2@1@Z@Z 00415770 f i Hunk.obj
 0001:00014960       ??$_Pop_heap_hole_by_index@PAPAVHunk@@PAV1@P6A_NPBV1@0@Z@std@@YAXPAPAVHunk@@HH$$QAPAV1@P6A_NPBV1@2@Z@Z 00415960 f i ImportHandler.obj
 0001:00014960       ??$_Pop_heap_hole_by_index@PAPAVSymbol@@PAV1@P6A_NPAV1@0@Z@std@@YAXPAPAVSymbol@@HH$$QAPAV1@P6A_NPAV1@2@Z@Z 00415960 f i Hunk.obj
 0001:00014960       ??$_Pop_heap_hole_by_index@PAPAVHunk@@PAV1@P6A_NPAV1@0@Z@std@@YAXPAPAVHunk@@HH$$QAPAV1@P6A_NPAV1@2@Z@Z 00415960 f i HeuristicHunkSorter.obj
 0001:00014bb0       ??$_Sort_unchecked@PAPAVHunk@@P6A_NPAV1@0@Z@std@@YAXPAPAVHunk@@0HP6A_NPAV1@1@Z@Z 00415bb0 f i HeuristicHunkSorter.obj
 0001:00014bb0       ??$_Sort_unchecked@PAPAVSymbol@@P6A_NPAV1@0@Z@std@@YAXPAPAVSymbol@@0HP6A_NPAV1@1@Z@Z 00415bb0 f i Hunk.obj
 0001:00014bb0       ??$_Sort_unchecked@PAPAVHunk@@P6A_NPBV1@0@Z@std@@YAXPAPAVHunk@@0HP6A_NPBV1@1@Z@Z 00415bb0 f i ImportHandler.obj
 0001:00014e20       ??$_Ucopy@PAUrelocation@@@?$vector@Urelocation@@V?$allocator@Urelocation@@@std@@@std@@AAEPAUrelocation@@PAU2@00@Z 00415e20 f i Hunk.obj
 0001:00014e80       ??$_Uninitialized_move@PAUrelocation@@PAU1@V?$allocator@Urelocation@@@std@@@std@@YAPAUrelocation@@QAU1@0PAU1@AAV?$allocator@Urelocation@@@0@@Z 00415e80 f i Hunk.obj
 0001:00014f30       ??$construct@U?$pair@$$CBV?$basic_string@DU?$char_traits@D@std@@V?$allocator@D@2@@std@@PAVSymbol@@@std@@ABUpiecewise_construct_t@2@V?$tuple@$$QAV?$basic_string@DU?$char_traits@D@std@@V?$allocator@D@2@@std@@@2@V?$tuple@$$V@2@@?$_Default_allocator_traits@V?$allocator@U?$_Tree_node@U?$pair@$$CBV?$basic_string@DU?$char_traits@D@std@@V?$allocator@D@2@@std@@PAVSymbol@@@std@@PAX@std@@@std@@@std@@SAXAAV?$allocator@U?$_Tree_node@U?$pair@$$CBV?$basic_string@DU?$char_traits@D@std@@V?$allocator@D@2@@std@@PAVSymbol@@@std@@PAX@std@@@1@QAU?$pair@$$CBV?$basic_string@DU?$char_traits@D@std@@V?$allocator@D@2@@std@@PAVSymbol@@@1@ABUpiecewise_construct_t@1@$$QAV?$tuple@$$QAV?$basic_string@DU?$char_traits@D@std@@V?$allocator@D@2@@std@@@1@$$QAV?$tuple@$$V@1@@Z 00415f30 f i Hunk.obj
 0001:00014f80       ??$construct@U?$pair@$$CBV?$basic_string@DU?$char_traits@D@std@@V?$allocator@D@2@@std@@PAVSymbol@@@std@@U?$pair@V?$basic_string@DU?$char_traits@D@std@@V?$allocator@D@2@@std@@PAVSymbol@@@2@@?$_Default_allocator_traits@V?$allocator@U?$_Tree_node@U?$pair@$$CBV?$basic_string@DU?$char_traits@D@std@@V?$allocator@D@2@@std@@PAVSymbol@@@std@@PAX@std@@@std@@@std@@SAXAAV?$allocator@U?$_Tree_node@U?$pair@$$CBV?$basic_string@DU?$char_traits@D@std@@V?$allocator@D@2@@std@@PAVSymbol@@@std@@PAX@std@@@1@QAU?$pair@$$CBV?$basic_string@DU?$char_traits@D@std@@V?$allocator@D@2@@std@@PAVSymbol@@@1@$$QAU?$pair@V?$basic_string@DU?$char_traits@D@std@@V?$allocator@D@2@@std@@PAVSymbol@@@1@@Z 00415f80 f i Hunk.obj
 0001:00014f80       ??$construct@U?$pair@$$CBV?$basic_string@DU?$char_traits@D@std@@V?$allocator@D@2@@std@@H@std@@U?$pair@V?$basic_string@DU?$char_traits@D@std@@V?$allocator@D@2@@std@@H@2@@?$_Default_allocator_traits@V?$allocator@U?$_Tree_node@U?$pair@$$CBV?$basic_string@DU?$char_traits@D@std@@V?$allocator@D@2@@std@@H@std@@PAX@std@@@std@@@std@@SAXAAV?$allocator@U?$_Tree_node@U?$pair@$$CBV?$basic_string@DU?$char_traits@D@std@@V?$allocator@D@2@@std@@H@std@@PAX@std@@@1@QAU?$pair@$$CBV?$basic_string@DU?$char_traits@D@std@@V?$allocator@D@2@@std@@H@1@$$QAU?$pair@V?$basic_string@DU?$char_traits@D@std@@V?$allocator@D@2@@std@@H@1@@Z 00415f80 f i CmdParamFlags.obj
 0001:00014fc0       ??$construct@Urelocation@@ABU1@@?$_Default_allocator_traits@V?$allocator@Urelocation@@@std@@@std@@SAXAAV?$allocator@Urelocation@@@1@QAUrelocation@@ABU3@@Z 00415fc0 f i Hunk.obj
 0001:00014ff0       ??0?$vector@DV?$allocator@D@std@@@std@@QAE@ABV01@@Z 00415ff0 f i Hunk.obj
 0001:000150f0       ??0?$vector@Urelocation@@V?$allocator@Urelocation@@@std@@@std@@QAE@ABV01@@Z 004160f0 f i Hunk.obj
 0001:00015210       ??0Hunk@@QAE@ABV0@@Z       00416210 f   Hunk.obj
 0001:000153d0       ??0Hunk@@QAE@PBD00@Z       004163d0 f   Hunk.obj
 0001:00015530       ??0Hunk@@QAE@PBD0IHHH@Z    00416530 f   Hunk.obj
 0001:00015640       ??1Hunk@@QAE@XZ            00416640 f   Hunk.obj
 0001:00015910       ??_GSymbol@@QAEPAXI@Z      00416910 f i Hunk.obj
 0001:00015b20       ?_Change_array@?$vector@DV?$allocator@D@std@@@std@@AAEXQADII@Z 00416b20 f i Hunk.obj
 0001:00015b80       ?_Destroy@?$vector@Urelocation@@V?$allocator@Urelocation@@@std@@@std@@AAEXPAUrelocation@@0@Z 00416b80 f i Hunk.obj
 0001:00015bb0       ?_Tidy@?$vector@Urelocation@@V?$allocator@Urelocation@@@std@@@std@@AAEXXZ 00416bb0 f i Hunk.obj
 0001:00015c40       ?_Umove@?$vector@Urelocation@@V?$allocator@Urelocation@@@std@@@std@@AAEPAUrelocation@@PAU3@00@Z 00416c40 f i Hunk.obj
 0001:00015c60       ?addRelocation@Hunk@@QAEXUrelocation@@@Z 00416c60 f   Hunk.obj
 0001:00015cc0       ?addSymbol@Hunk@@QAEXPAVSymbol@@@Z 00416cc0 f   Hunk.obj
 0001:00015f00       ?appendZeroes@Hunk@@QAEXH@Z 00416f00 f   Hunk.obj
 0001:00015f40       ?calculateSize@CompressionReportRecord@@QAEXHH@Z 00416f40 f i Hunk.obj
 0001:00015fd0       ?deallocate@?$allocator@D@std@@QAEXQADI@Z 00416fd0 f i Hunk.obj
 0001:00016010       ?deallocate@?$allocator@U?$_List_node@U?$pair@V?$basic_string@DU?$char_traits@D@std@@V?$allocator@D@2@@std@@V12@@std@@PAX@std@@@std@@QAEXQAU?$_List_node@U?$pair@V?$basic_string@DU?$char_traits@D@std@@V?$allocator@D@2@@std@@V12@@std@@PAX@2@I@Z 00417010 f i CmdParamMultiAssign.obj
 0001:00016010       ?deallocate@?$allocator@Urelocation@@@std@@QAEXQAUrelocation@@I@Z 00417010 f i Hunk.obj
 0001:00016060       ?findSymbol@Hunk@@QBEPAVSymbol@@PBD@Z 00417060 f   Hunk.obj
 0001:00016150       ?findUndecoratedSymbol@Hunk@@QBEPAVSymbol@@PBD@Z 00417150 f   Hunk.obj
 0001:00016220       ??$?CV__ExceptionPtr@@$0A@@?$shared_ptr@V__ExceptionPtr@@@std@@QBEPAV__ExceptionPtr@@XZ 00417220 f   libcpmt:excptptr.obj
 0001:00016220       ?getPtr@MemoryFile@@QBEPADXZ 00417220 f   MemoryFile.obj
 0001:00016220       ?getAlignmentBits@Hunk@@QBEHXZ 00417220 f   Hunk.obj
 0001:00016230       ?GetExecutionResourceTls@?$ThreadProxyFactory@VFreeThreadProxy@details@Concurrency@@@details@Concurrency@@UAEKXZ 00417230 f   libconcrt:ThreadProxyFactoryManager.obj
 0001:00016230       ?getSize@MemoryFile@@QBEHXZ 00417230 f   MemoryFile.obj
 0001:00016230       ?getAlignmentOffset@Hunk@@QBEHXZ 00417230 f   Hunk.obj
 0001:00016240       ?getCompressionSummary@Hunk@@QAEPAUCompressionReportRecord@@PAHH@Z 00417240 f   Hunk.obj
 0001:00016b60       ?getContinuation@Hunk@@QBEPAVSymbol@@XZ 00417b60 f   Hunk.obj
 0001:00016b70       ?GetId@ContextBase@details@Concurrency@@UBEIXZ 00417b70 f   libconcrt:ContextBase.obj
 0001:00016b70       ?getFlags@Hunk@@QBEIXZ     00417b70 f   Hunk.obj
 0001:00016b80       ?getID@Hunk@@QAEABV?$basic_string@DU?$char_traits@D@std@@V?$allocator@D@2@@std@@XZ 00417b80 f   Hunk.obj
 0001:000170f0       ?getImportDll@Hunk@@QBEPBDXZ 004180f0 f   Hunk.obj
 0001:00017100       ?getImportName@Hunk@@QBEPBDXZ 00418100 f   Hunk.obj
 0001:00017110       ?getLevel@CompressionReportRecord@@QAEHXZ 00418110 f i Hunk.obj
 0001:00017140       ?getName@Hunk@@QBEPBDXZ    00418140 f   Hunk.obj
 0001:00017150       ?getNumReferences@Hunk@@QBEHXZ 00418150 f   Hunk.obj
 0001:00017160       ?getOffsetToRelocationMap@Hunk@@QAE?AV?$map@HPAVSymbol@@U?$less@H@std@@V?$allocator@U?$pair@$$CBHPAVSymbol@@@std@@@3@@std@@XZ 00418160 f   Hunk.obj
 0001:00017240       ?getOffsetToSymbolMap@Hunk@@QAE?AV?$map@HPAVSymbol@@U?$less@H@std@@V?$allocator@U?$pair@$$CBHPAVSymbol@@@std@@@3@@std@@XZ 00418240 f   Hunk.obj
 0001:00017390       ?getPtr@Hunk@@QAEPADXZ     00418390 f   Hunk.obj
 0001:000173a0       ?getRawSize@Hunk@@QBEHXZ   004183a0 f   Hunk.obj
 0001:000173e0       ?getVirtualSize@Hunk@@QBEHXZ 004183e0 f   Hunk.obj
 0001:000173e0       ?GetId@InternalContextBase@details@Concurrency@@UBEIXZ 004183e0 f   libconcrt:InternalContextBase.obj
 0001:000173f0       ?insert@Hunk@@QAEXHPBEH@Z  004183f0 f   Hunk.obj
 0001:000174a0       ?markHunkAsLibrary@Hunk@@QAEXXZ 004184a0 f   Hunk.obj
 0001:000174d0       ?overrideAlignment@Hunk@@QAEXH@Z 004184d0 f   Hunk.obj
 0001:00017720       ?relocate@Hunk@@QAEXH@Z    00418720 f   Hunk.obj
 0001:00017960       ?roundFloats@Hunk@@QAEXH@Z 00418960 f   Hunk.obj
 0001:00017e20       ?setAlignmentBits@Hunk@@QAEXH@Z 00418e20 f   Hunk.obj
 0001:00017e30       ?setAlignmentOffset@Hunk@@QAEXH@Z 00418e30 f   Hunk.obj
 0001:00017e40       ?setContinuation@Hunk@@QAEXPAVSymbol@@@Z 00418e40 f   Hunk.obj
 0001:00017e50       ?setImportDll@Hunk@@QAEXPBD@Z 00418e50 f   Hunk.obj
 0001:00017e80       ?setRawSize@Hunk@@QAEXH@Z  00418e80 f   Hunk.obj
 0001:00017e90       ?setVirtualSize@Hunk@@QAEXH@Z 00418e90 f   Hunk.obj
 0001:00017ea0       ?substr@?$basic_string@DU?$char_traits@D@std@@V?$allocator@D@2@@std@@QBE?AV12@II@Z 00418ea0 f i Hunk.obj
 0001:00017f70       ?trim@Hunk@@QAEXXZ         00418f70 f   Hunk.obj
 0001:00017fc0       ??0HunkList@@QAE@XZ        00418fc0 f   HunkList.obj
 0001:00017fe0       ??1?$deque@PAVHunk@@V?$allocator@PAVHunk@@@std@@@std@@QAE@XZ 00418fe0 f i HunkList.obj
 0001:00018090       ??1HunkList@@QAE@XZ        00419090 f   HunkList.obj
 0001:00018120       ??AHunkList@@QBEABQAVHunk@@I@Z 00419120 f   HunkList.obj
 0001:00018120       ??AHunkList@@QAEAAPAVHunk@@I@Z 00419120 f   HunkList.obj
 0001:00018130       ?_Growmap@?$deque@PAVHunk@@V?$allocator@PAVHunk@@@std@@@std@@IAEXI@Z 00419130 f i HunkList.obj
 0001:000182d0       ?_Xlen@?$deque@PAVHunk@@V?$allocator@PAVHunk@@@std@@@std@@IBEXXZ 004192d0 f i HunkList.obj
 0001:000182e0       ?addHunkBack@HunkList@@QAEXPAVHunk@@@Z 004192e0 f   HunkList.obj
 0001:00018310       ?addHunkFront@HunkList@@QAEXPAVHunk@@@Z 00419310 f   HunkList.obj
 0001:00018370       ?append@HunkList@@QAEXPAV1@@Z 00419370 f   HunkList.obj
 0001:000183d0       ?clear@HunkList@@QAEXXZ    004193d0 f   HunkList.obj
 0001:000183e0       ?findSymbol@HunkList@@QBEPAVSymbol@@PBD@Z 004193e0 f   HunkList.obj
 0001:00018420       ?findUndecoratedSymbol@HunkList@@QBEPAVSymbol@@PBD@Z 00419420 f   HunkList.obj
 0001:00018490       ?getNumHunks@HunkList@@QBEHXZ 00419490 f   HunkList.obj
 0001:000184a0       ?insertHunk@HunkList@@QAEXHPAVHunk@@@Z 004194a0 f   HunkList.obj
 0001:00018500       ?markHunksAsLibrary@HunkList@@QAEXXZ 00419500 f   HunkList.obj
 0001:00018530       ?needsContinuationJump@HunkList@@QBE_NAAV?$_Vector_const_iterator@V?$_Vector_val@U?$_Simple_types@PAVHunk@@@std@@@std@@@std@@@Z 00419530 f   HunkList.obj
 0001:00018570       ?removeHunk@HunkList@@QAEPAVHunk@@PAV2@@Z 00419570 f   HunkList.obj
 0001:000185b0       ?removeImportHunks@HunkList@@QAEXXZ 004195b0 f   HunkList.obj
 0001:00018610       ?removeUnreferencedHunks@HunkList@@QAEXV?$list@PAVHunk@@V?$allocator@PAVHunk@@@std@@@std@@@Z 00419610 f   HunkList.obj
 0001:00018960       ?roundFloats@HunkList@@QAEXH@Z 00419960 f   HunkList.obj
 0001:00018990       ?toHunk@HunkList@@QBEPAVHunk@@PBDHPAH@Z 00419990 f   HunkList.obj
 0001:00018ef0       ?trim@HunkList@@QAEXXZ     00419ef0 f   HunkList.obj
 0001:00018f20       ??$_Assign_range@PAV?$basic_string@DU?$char_traits@D@std@@V?$allocator@D@2@@std@@@?$vector@V?$basic_string@DU?$char_traits@D@std@@V?$allocator@D@2@@std@@V?$allocator@V?$basic_string@DU?$char_traits@D@std@@V?$allocator@D@2@@std@@@2@@std@@AAEXPAV?$basic_string@DU?$char_traits@D@std@@V?$allocator@D@2@@1@0Uforward_iterator_tag@1@@Z 00419f20 f i ImportHandler.obj
 0001:00019090       ??$_Buynode@V?$basic_string@DU?$char_traits@D@std@@V?$allocator@D@2@@std@@@?$_Tree_comp_alloc@V?$_Tset_traits@V?$basic_string@DU?$char_traits@D@std@@V?$allocator@D@2@@std@@U?$less@V?$basic_string@DU?$char_traits@D@std@@V?$allocator@D@2@@std@@@2@V?$allocator@V?$basic_string@DU?$char_traits@D@std@@V?$allocator@D@2@@std@@@2@$0A@@std@@@std@@QAEPAU?$_Tree_node@V?$basic_string@DU?$char_traits@D@std@@V?$allocator@D@2@@std@@PAX@1@$$QAV?$basic_string@DU?$char_traits@D@std@@V?$allocator@D@2@@1@@Z 0041a090 f i ImportHandler.obj
 0001:00019110       ??$_Copy_unchecked@PAV?$basic_string@DU?$char_traits@D@std@@V?$allocator@D@2@@std@@PAV12@@std@@YAPAV?$basic_string@DU?$char_traits@D@std@@V?$allocator@D@2@@0@PAV10@00@Z 0041a110 f i ImportHandler.obj
 0001:00019150       ??$_Deallocate@$07$0A@@std@@YAXPAXI@Z 0041a150 f i ImportHandler.obj
 0001:00019190       ??$_Emplace_reallocate@V?$basic_string@DU?$char_traits@D@std@@V?$allocator@D@2@@std@@@?$vector@V?$basic_string@DU?$char_traits@D@std@@V?$allocator@D@2@@std@@V?$allocator@V?$basic_string@DU?$char_traits@D@std@@V?$allocator@D@2@@std@@@2@@std@@QAEPAV?$basic_string@DU?$char_traits@D@std@@V?$allocator@D@2@@1@QAV21@$$QAV21@@Z 0041a190 f i ImportHandler.obj
 0001:000193b0       ??$_Insert_at@V?$basic_string@DU?$char_traits@D@std@@V?$allocator@D@2@@std@@U_Not_a_node_tag@2@@?$_Tree@V?$_Tset_traits@V?$basic_string@DU?$char_traits@D@std@@V?$allocator@D@2@@std@@U?$less@V?$basic_string@DU?$char_traits@D@std@@V?$allocator@D@2@@std@@@2@V?$allocator@V?$basic_string@DU?$char_traits@D@std@@V?$allocator@D@2@@std@@@2@$0A@@std@@@std@@IAE?AV?$_Tree_const_iterator@V?$_Tree_val@U?$_Tree_simple_types@V?$basic_string@DU?$char_traits@D@std@@V?$allocator@D@2@@std@@@std@@@std@@@1@_NPAU?$_Tree_node@V?$basic_string@DU?$char_traits@D@std@@V?$allocator@D@2@@std@@PAX@1@$$QAV?$basic_string@DU?$char_traits@D@std@@V?$allocator@D@2@@1@U_Not_a_node_tag@1@@Z 0041a3b0 f i ImportHandler.obj
 0001:00019550       ??$_Insert_nohint@V?$basic_string@DU?$char_traits@D@std@@V?$allocator@D@2@@std@@U_Not_a_node_tag@2@@?$_Tree@V?$_Tset_traits@V?$basic_string@DU?$char_traits@D@std@@V?$allocator@D@2@@std@@U?$less@V?$basic_string@DU?$char_traits@D@std@@V?$allocator@D@2@@std@@@2@V?$allocator@V?$basic_string@DU?$char_traits@D@std@@V?$allocator@D@2@@std@@@2@$0A@@std@@@std@@IAE?AU?$pair@V?$_Tree_const_iterator@V?$_Tree_val@U?$_Tree_simple_types@V?$basic_string@DU?$char_traits@D@std@@V?$allocator@D@2@@std@@@std@@@std@@@std@@_N@1@_N$$QAV?$basic_string@DU?$char_traits@D@std@@V?$allocator@D@2@@1@U_Not_a_node_tag@1@@Z 0041a550 f i ImportHandler.obj
 0001:000196f0       ??$_Insertion_sort_unchecked@PAV?$basic_string@DU?$char_traits@D@std@@V?$allocator@D@2@@std@@U?$less@X@2@@std@@YAPAV?$basic_string@DU?$char_traits@D@std@@V?$allocator@D@2@@0@PAV10@QAV10@U?$less@X@0@@Z 0041a6f0 f i ImportHandler.obj
 0001:000199e0       ??$_InvokeBridge@V?$task_handle@V?$_Parallel_chunk_helper@HKV<lambda_91b4ac066d0e4c817a748d9f83c77b67>@@Vauto_partitioner@Concurrency@@$0A@@Concurrency@@@Concurrency@@@_UnrealizedChore@details@Concurrency@@KAXPAX@Z 0041a9e0 f i ImportHandler.obj
 0001:000199f0       ??$_Med3_unchecked@PAV?$basic_string@DU?$char_traits@D@std@@V?$allocator@D@2@@std@@U?$less@X@2@@std@@YAXPAV?$basic_string@DU?$char_traits@D@std@@V?$allocator@D@2@@0@00U?$less@X@0@@Z 0041a9f0 f i ImportHandler.obj
 0001:00019b00       ??$_Move_backward_unchecked@PAV?$basic_string@DU?$char_traits@D@std@@V?$allocator@D@2@@std@@PAV12@@std@@YAPAV?$basic_string@DU?$char_traits@D@std@@V?$allocator@D@2@@0@PAV10@00@Z 0041ab00 f i ImportHandler.obj
 0001:00019ba0       ??$_Move_unchecked@PAV?$basic_string@DU?$char_traits@D@std@@V?$allocator@D@2@@std@@PAV12@@std@@YAPAV?$basic_string@DU?$char_traits@D@std@@V?$allocator@D@2@@0@PAV10@00@Z 0041aba0 f i ImportHandler.obj
 0001:00019ee0       ??$_Partition_by_median_guess_unchecked@PAV?$basic_string@DU?$char_traits@D@std@@V?$allocator@D@2@@std@@U?$less@X@2@@std@@YA?AU?$pair@PAV?$basic_string@DU?$char_traits@D@std@@V?$allocator@D@2@@std@@PAV12@@0@PAV?$basic_string@DU?$char_traits@D@std@@V?$allocator@D@2@@0@0U?$less@X@0@@Z 0041aee0 f i ImportHandler.obj
 0001:0001a2d0       ??$_Pop_heap_hole_by_index@PAV?$basic_string@DU?$char_traits@D@std@@V?$allocator@D@2@@std@@V12@U?$less@X@2@@std@@YAXPAV?$basic_string@DU?$char_traits@D@std@@V?$allocator@D@2@@0@HH$$QAV10@U?$less@X@0@@Z 0041b2d0 f i ImportHandler.obj
 0001:0001a440       ??$_Push_heap_by_index@PAV?$basic_string@DU?$char_traits@D@std@@V?$allocator@D@2@@std@@V12@U?$less@X@2@@std@@YAXPAV?$basic_string@DU?$char_traits@D@std@@V?$allocator@D@2@@0@HH$$QAV10@U?$less@X@0@@Z 0041b440 f i ImportHandler.obj
 0001:0001a5a0       ??$_Range_construct_or_tidy@V?$_Tree_unchecked_const_iterator@V?$_Tree_val@U?$_Tree_simple_types@V?$basic_string@DU?$char_traits@D@std@@V?$allocator@D@2@@std@@@std@@@std@@U_Iterator_base0@2@@std@@@?$vector@V?$basic_string@DU?$char_traits@D@std@@V?$allocator@D@2@@std@@V?$allocator@V?$basic_string@DU?$char_traits@D@std@@V?$allocator@D@2@@std@@@2@@std@@AAEXV?$_Tree_unchecked_const_iterator@V?$_Tree_val@U?$_Tree_simple_types@V?$basic_string@DU?$char_traits@D@std@@V?$allocator@D@2@@std@@@std@@@std@@U_Iterator_base0@2@@1@0Uforward_iterator_tag@1@@Z 0041b5a0 f i ImportHandler.obj
 0001:0001a830       ??$_Sort_unchecked@PAV?$basic_string@DU?$char_traits@D@std@@V?$allocator@D@2@@std@@U?$less@X@2@@std@@YAXPAV?$basic_string@DU?$char_traits@D@std@@V?$allocator@D@2@@0@0HU?$less@X@0@@Z 0041b830 f i ImportHandler.obj
 0001:0001ab00       ??$_Ucopy@V?$_Tree_unchecked_const_iterator@V?$_Tree_val@U?$_Tree_simple_types@V?$basic_string@DU?$char_traits@D@std@@V?$allocator@D@2@@std@@@std@@@std@@U_Iterator_base0@2@@std@@@?$vector@V?$basic_string@DU?$char_traits@D@std@@V?$allocator@D@2@@std@@V?$allocator@V?$basic_string@DU?$char_traits@D@std@@V?$allocator@D@2@@std@@@2@@std@@AAEPAV?$basic_string@DU?$char_traits@D@std@@V?$allocator@D@2@@1@V?$_Tree_unchecked_const_iterator@V?$_Tree_val@U?$_Tree_simple_types@V?$basic_string@DU?$char_traits@D@std@@V?$allocator@D@2@@std@@@std@@@std@@U_Iterator_base0@2@@1@0PAV21@@Z 0041bb00 f i ImportHandler.obj
 0001:0001ab80       ??$_Uninitialized_move@PAV?$basic_string@DU?$char_traits@D@std@@V?$allocator@D@2@@std@@PAV12@V?$allocator@V?$basic_string@DU?$char_traits@D@std@@V?$allocator@D@2@@std@@@2@@std@@YAPAV?$basic_string@DU?$char_traits@D@std@@V?$allocator@D@2@@0@QAV10@0PAV10@AAV?$allocator@V?$basic_string@DU?$char_traits@D@std@@V?$allocator@D@2@@std@@@0@@Z 0041bb80 f i ImportHandler.obj
 0001:0001abe0       ??$construct@V?$basic_string@DU?$char_traits@D@std@@V?$allocator@D@2@@std@@V12@@?$_Default_allocator_traits@V?$allocator@U?$_List_node@V?$basic_string@DU?$char_traits@D@std@@V?$allocator@D@2@@std@@PAX@std@@@std@@@std@@SAXAAV?$allocator@U?$_List_node@V?$basic_string@DU?$char_traits@D@std@@V?$allocator@D@2@@std@@PAX@std@@@1@QAV?$basic_string@DU?$char_traits@D@std@@V?$allocator@D@2@@1@$$QAV31@@Z 0041bbe0 f i main.obj
 0001:0001abe0       ??$construct@V?$basic_string@DU?$char_traits@D@std@@V?$allocator@D@2@@std@@V12@@?$_Default_allocator_traits@V?$allocator@U?$_Tree_node@V?$basic_string@DU?$char_traits@D@std@@V?$allocator@D@2@@std@@PAX@std@@@std@@@std@@SAXAAV?$allocator@U?$_Tree_node@V?$basic_string@DU?$char_traits@D@std@@V?$allocator@D@2@@std@@PAX@std@@@1@QAV?$basic_string@DU?$char_traits@D@std@@V?$allocator@D@2@@1@$$QAV31@@Z 0041bbe0 f i ImportHandler.obj
 0001:0001abe0       ??$construct@V?$basic_string@DU?$char_traits@D@std@@V?$allocator@D@2@@std@@V12@@?$_Default_allocator_traits@V?$allocator@V?$basic_string@DU?$char_traits@D@std@@V?$allocator@D@2@@std@@@std@@@std@@SAXAAV?$allocator@V?$basic_string@DU?$char_traits@D@std@@V?$allocator@D@2@@std@@@1@QAV?$basic_string@DU?$char_traits@D@std@@V?$allocator@D@2@@1@$$QAV31@@Z 0041bbe0 f i ImportHandler.obj
 0001:0001ac80       ??0?$vector@IV?$allocator@I@std@@@std@@QAE@ABV01@@Z 0041bc80 f i ImportHandler.obj
 0001:0001ad30       ??0?$vector@IV?$allocator@I@std@@@std@@QAE@IABIABV?$allocator@I@1@@Z 0041bd30 f i ImportHandler.obj
 0001:0001adc0       ??0?$vector@IV?$allocator@I@std@@@std@@QAE@IABV?$allocator@I@1@@Z 0041bdc0 f i ImportHandler.obj
 0001:0001af50       ??0?$vector@V?$basic_string@DU?$char_traits@D@std@@V?$allocator@D@2@@std@@V?$allocator@V?$basic_string@DU?$char_traits@D@std@@V?$allocator@D@2@@std@@@2@@std@@QAE@IABV?$allocator@V?$basic_string@DU?$char_traits@D@std@@V?$allocator@D@2@@std@@@1@@Z 0041bf50 f i ImportHandler.obj
 0001:0001afe0       ?_Tidy@?$vector@PBDV?$allocator@PBD@std@@@std@@AAEXXZ 0041bfe0 f i CoffLibraryLoader.obj
 0001:0001afe0       ?_Tidy@?$vector@IV?$allocator@I@std@@@std@@AAEXXZ 0041bfe0 f i ImportHandler.obj
 0001:0001afe0       ??1?$_Vb_val@V?$allocator@_N@std@@@std@@QAE@XZ 0041bfe0 f i ImportHandler.obj
 0001:0001b9b0       ?RVAToFileOffset@@YAIPBDI@Z 0041c9b0 f   ImportHandler.obj
 0001:0001ba10       ?_Buy@?$vector@IV?$allocator@I@std@@@std@@AAE_NI@Z 0041ca10 f i ImportHandler.obj
 0001:0001bac0       ?_Buy@?$vector@V?$basic_string@DU?$char_traits@D@std@@V?$allocator@D@2@@std@@V?$allocator@V?$basic_string@DU?$char_traits@D@std@@V?$allocator@D@2@@std@@@2@@std@@AAE_NI@Z 0041cac0 f i ImportHandler.obj
 0001:0001bc50       ?_Tidy@?$vector@V?$basic_string@DU?$char_traits@D@std@@V?$allocator@D@2@@std@@V?$allocator@V?$basic_string@DU?$char_traits@D@std@@V?$allocator@D@2@@std@@@2@@std@@AAEXXZ 0041cc50 f i ImportHandler.obj
 0001:0001bd30       ?_Udefault@?$vector@V?$basic_string@DU?$char_traits@D@std@@V?$allocator@D@2@@std@@V?$allocator@V?$basic_string@DU?$char_traits@D@std@@V?$allocator@D@2@@std@@@2@@std@@AAEPAV?$basic_string@DU?$char_traits@D@std@@V?$allocator@D@2@@2@PAV32@I@Z 0041cd30 f i ImportHandler.obj
 0001:0001bd60       ?_Ufill@?$vector@IV?$allocator@I@std@@@std@@AAEPAIPAIIABI@Z 0041cd60 f i ImportHandler.obj
 0001:0001bd90       ?_Umove@?$vector@V?$basic_string@DU?$char_traits@D@std@@V?$allocator@D@2@@std@@V?$allocator@V?$basic_string@DU?$char_traits@D@std@@V?$allocator@D@2@@std@@@2@@std@@AAEPAV?$basic_string@DU?$char_traits@D@std@@V?$allocator@D@2@@2@PAV32@00@Z 0041cd90 f i ImportHandler.obj
 0001:0001bdb0       ?_Xlen@?$vector@_NV?$allocator@_N@std@@@std@@QBEXXZ 0041cdb0 f i ImportHandler.obj
 0001:0001bdc0       ?count@?$_Tree@V?$_Tset_traits@V?$basic_string@DU?$char_traits@D@std@@V?$allocator@D@2@@std@@U?$less@V?$basic_string@DU?$char_traits@D@std@@V?$allocator@D@2@@std@@@2@V?$allocator@V?$basic_string@DU?$char_traits@D@std@@V?$allocator@D@2@@std@@@2@$0A@@std@@@std@@QBEIABV?$basic_string@DU?$char_traits@D@std@@V?$allocator@D@2@@2@@Z 0041cdc0 f i ImportHandler.obj
 0001:0001bed0       ?createImportHunks1K@ImportHandler@@SAPAVHunkList@@PAV2@_NAAH2@Z 0041ced0 f   ImportHandler.obj
 0001:0001c9d0       ?createImportHunks@ImportHandler@@SAPAVHunkList@@PAV2@AAPAVHunk@@AAV?$map@V?$basic_string@DU?$char_traits@D@std@@V?$allocator@D@2@@std@@V12@U?$less@V?$basic_string@DU?$char_traits@D@std@@V?$allocator@D@2@@std@@@2@V?$allocator@U?$pair@$$CBV?$basic_string@DU?$char_traits@D@std@@V?$allocator@D@2@@std@@V12@@std@@@2@@std@@ABV?$vector@V?$basic_string@DU?$char_traits@D@std@@V?$allocator@D@2@@std@@V?$allocator@V?$basic_string@DU?$char_traits@D@std@@V?$allocator@D@2@@std@@@2@@5@_NAA_N@Z 0041d9d0 f   ImportHandler.obj
 0001:0001e550       ?forwardImport@@YAPAVHunk@@PAV1@@Z 0041f550 f   ImportHandler.obj
 0001:0001e860       ?getForwardRVA@@YAPBDPBD0@Z 0041f860 f   ImportHandler.obj
 0001:0001e970       ?getOrdinal@@YAHPBD0@Z     0041f970 f   ImportHandler.obj
 0001:0001ea60       ?hashCode@@YA?BHPBD@Z      0041fa60 f   ImportHandler.obj
 0001:0001ea80       ?importHunkRelation@@YA_NPBVHunk@@0@Z 0041fa80 f   ImportHandler.obj
 0001:0001ed20       ?clicks@LTCGLoader@@UAE_NPBDH@Z 0041fd20 f   LTCGLoader.obj
 0001:0001ed50       ?load@LTCGLoader@@UAEPAVHunkList@@PBDH0@Z 0041fd50 f   LTCGLoader.obj
 0001:0001ed70       ??$?0V?$allocator@U?$_Tree_node@VExport@@PAX@std@@@std@@@?$_Tree@V?$_Tset_traits@VExport@@U?$less@VExport@@@std@@V?$allocator@VExport@@@3@$0A@@std@@@std@@QAE@ABV01@$$QAV?$allocator@U?$_Tree_node@VExport@@PAX@std@@@1@@Z 0041fd70 f i main.obj
 0001:0001edf0       ??$?HDU?$char_traits@D@std@@V?$allocator@D@1@@std@@YA?AV?$basic_string@DU?$char_traits@D@std@@V?$allocator@D@2@@0@QBD$$QAV10@@Z 0041fdf0 f i main.obj
 0001:0001eee0       ??$_Buynode@AAVExport@@@?$_Tree_comp_alloc@V?$_Tset_traits@VExport@@U?$less@VExport@@@std@@V?$allocator@VExport@@@3@$0A@@std@@@std@@QAEPAU?$_Tree_node@VExport@@PAX@1@AAVExport@@@Z 0041fee0 f i main.obj
 0001:0001ef60       ??$_Buynode@U?$pair@V?$basic_string@DU?$char_traits@D@std@@V?$allocator@D@2@@std@@V12@@std@@@?$_Tree_comp_alloc@V?$_Tmap_traits@V?$basic_string@DU?$char_traits@D@std@@V?$allocator@D@2@@std@@V12@U?$less@V?$basic_string@DU?$char_traits@D@std@@V?$allocator@D@2@@std@@@2@V?$allocator@U?$pair@$$CBV?$basic_string@DU?$char_traits@D@std@@V?$allocator@D@2@@std@@V12@@std@@@2@$0A@@std@@@std@@QAEPAU?$_Tree_node@U?$pair@$$CBV?$basic_string@DU?$char_traits@D@std@@V?$allocator@D@2@@std@@V12@@std@@PAX@1@$$QAU?$pair@V?$basic_string@DU?$char_traits@D@std@@V?$allocator@D@2@@std@@V12@@1@@Z 0041ff60 f i main.obj
 0001:0001efe0       ??$_Buynode@V?$basic_string@DU?$char_traits@D@std@@V?$allocator@D@2@@std@@@?$_List_buy@V?$basic_string@DU?$char_traits@D@std@@V?$allocator@D@2@@std@@V?$allocator@V?$basic_string@DU?$char_traits@D@std@@V?$allocator@D@2@@std@@@2@@std@@QAEPAU?$_List_node@V?$basic_string@DU?$char_traits@D@std@@V?$allocator@D@2@@std@@PAX@1@PAU21@0$$QAV?$basic_string@DU?$char_traits@D@std@@V?$allocator@D@2@@1@@Z 0041ffe0 f i main.obj
 0001:0001f060       ??$_Copy@U_Copy_tag@?$_Tree@V?$_Tset_traits@VExport@@U?$less@VExport@@@std@@V?$allocator@VExport@@@3@$0A@@std@@@std@@@?$_Tree@V?$_Tset_traits@VExport@@U?$less@VExport@@@std@@V?$allocator@VExport@@@3@$0A@@std@@@std@@IAEXABV01@U_Copy_tag@01@@Z 00420060 f i main.obj
 0001:0001f0e0       ??$_Copy_nodes@U_Copy_tag@?$_Tree@V?$_Tset_traits@VExport@@U?$less@VExport@@@std@@V?$allocator@VExport@@@3@$0A@@std@@@std@@@?$_Tree@V?$_Tset_traits@VExport@@U?$less@VExport@@@std@@V?$allocator@VExport@@@3@$0A@@std@@@std@@IAEPAU?$_Tree_node@VExport@@PAX@1@PAU21@0U_Copy_tag@01@@Z 004200e0 f i main.obj
 0001:0001f1a0       ??$_Insert_hint@AAU?$pair@$$CBV?$basic_string@DU?$char_traits@D@std@@V?$allocator@D@2@@std@@PAVMemoryFile@@@std@@PAU?$_Tree_node@U?$pair@$$CBV?$basic_string@DU?$char_traits@D@std@@V?$allocator@D@2@@std@@PAVMemoryFile@@@std@@PAX@2@@?$_Tree@V?$_Tmap_traits@V?$basic_string@DU?$char_traits@D@std@@V?$allocator@D@2@@std@@PAVMemoryFile@@U?$less@V?$basic_string@DU?$char_traits@D@std@@V?$allocator@D@2@@std@@@2@V?$allocator@U?$pair@$$CBV?$basic_string@DU?$char_traits@D@std@@V?$allocator@D@2@@std@@PAVMemoryFile@@@std@@@2@$0A@@std@@@std@@IAE?AV?$_Tree_iterator@V?$_Tree_val@U?$_Tree_simple_types@U?$pair@$$CBV?$basic_string@DU?$char_traits@D@std@@V?$allocator@D@2@@std@@PAVMemoryFile@@@std@@@std@@@std@@@1@V?$_Tree_const_iterator@V?$_Tree_val@U?$_Tree_simple_types@U?$pair@$$CBV?$basic_string@DU?$char_traits@D@std@@V?$allocator@D@2@@std@@PAVMemoryFile@@@std@@@std@@@std@@@1@AAU?$pair@$$CBV?$basic_string@DU?$char_traits@D@std@@V?$allocator@D@2@@std@@PAVMemoryFile@@@1@PAU?$_Tree_node@U?$pair@$$CBV?$basic_string@DU?$char_traits@D@std@@V?$allocator@D@2@@std@@PAVMemoryFile@@@std@@PAX@1@@Z 004201a0 f i main.obj
 0001:0001f5e0       ??$construct@U?$pair@$$CBV?$basic_string@DU?$char_traits@D@std@@V?$allocator@D@2@@std@@V12@@std@@U?$pair@V?$basic_string@DU?$char_traits@D@std@@V?$allocator@D@2@@std@@V12@@2@@?$_Default_allocator_traits@V?$allocator@U?$_Tree_node@U?$pair@$$CBV?$basic_string@DU?$char_traits@D@std@@V?$allocator@D@2@@std@@V12@@std@@PAX@std@@@std@@@std@@SAXAAV?$allocator@U?$_Tree_node@U?$pair@$$CBV?$basic_string@DU?$char_traits@D@std@@V?$allocator@D@2@@std@@V12@@std@@PAX@std@@@1@QAU?$pair@$$CBV?$basic_string@DU?$char_traits@D@std@@V?$allocator@D@2@@std@@V12@@1@$$QAU?$pair@V?$basic_string@DU?$char_traits@D@std@@V?$allocator@D@2@@std@@V12@@1@@Z 004205e0 f i main.obj
 0001:0001f5e0       ??$construct@U?$pair@V?$basic_string@DU?$char_traits@D@std@@V?$allocator@D@2@@std@@V12@@std@@U12@@?$_Default_allocator_traits@V?$allocator@U?$_List_node@U?$pair@V?$basic_string@DU?$char_traits@D@std@@V?$allocator@D@2@@std@@V12@@std@@PAX@std@@@std@@@std@@SAXAAV?$allocator@U?$_List_node@U?$pair@V?$basic_string@DU?$char_traits@D@std@@V?$allocator@D@2@@std@@V12@@std@@PAX@std@@@1@QAU?$pair@V?$basic_string@DU?$char_traits@D@std@@V?$allocator@D@2@@std@@V12@@1@$$QAU31@@Z 004205e0 f i CmdParamMultiAssign.obj
 0001:0001f650       ??$construct@VExport@@AAV1@@?$_Default_allocator_traits@V?$allocator@U?$_Tree_node@VExport@@PAX@std@@@std@@@std@@SAXAAV?$allocator@U?$_Tree_node@VExport@@PAX@std@@@1@QAVExport@@AAV3@@Z 00420650 f i main.obj
 0001:0001f680       ??$make_pair@V?$basic_string@DU?$char_traits@D@std@@V?$allocator@D@2@@std@@V12@@std@@YA?AU?$pair@V?$basic_string@DU?$char_traits@D@std@@V?$allocator@D@2@@std@@V12@@0@$$QAV?$basic_string@DU?$char_traits@D@std@@V?$allocator@D@2@@0@0@Z 00420680 f i main.obj
 0001:0001f6f0       ??1CmdParam@@UAE@XZ        004206f0 f i main.obj
 0001:0001f7d0       ??1CmdParamFlags@@UAE@XZ   004207d0 f i main.obj
 0001:0001f810       ??1CmdParamMultiAssign@@UAE@XZ 00420810 f i main.obj
 0001:0001f870       ??1CmdParamString@@UAE@XZ  00420870 f i main.obj
 0001:0001f8a0       ??_ECallTransform@@UAEPAXI@Z 004208a0 f i main.obj
 0001:0001f8a0       ??_GCallTransform@@UAEPAXI@Z 004208a0 f i main.obj
 0001:0001f8d0       ??_GCmdParam@@UAEPAXI@Z    004208d0 f i main.obj
 0001:0001f8d0       ??_ECmdParam@@UAEPAXI@Z    004208d0 f i main.obj
 0001:0001f8f0       ??_GTransform@@UAEPAXI@Z   004208f0 f i main.obj
 0001:0001f8f0       ??_GIdentityTransform@@UAEPAXI@Z 004208f0 f i main.obj
 0001:0001f8f0       ??_ETransform@@UAEPAXI@Z   004208f0 f i main.obj
 0001:0001f8f0       ??_EIdentityTransform@@UAEPAXI@Z 004208f0 f i main.obj
 0001:0001f920       ?LoadDLL@@YAPBDPBD@Z       00420920 f   main.obj
 0001:0001fc70       ?_Buynode0@?$_List_alloc@U?$_List_base_types@V?$basic_string@DU?$char_traits@D@std@@V?$allocator@D@2@@std@@V?$allocator@V?$basic_string@DU?$char_traits@D@std@@V?$allocator@D@2@@std@@@2@@std@@@std@@QAEPAU?$_List_node@V?$basic_string@DU?$char_traits@D@std@@V?$allocator@D@2@@std@@PAX@2@PAU32@0@Z 00420c70 f i main.obj
 0001:0001fcf0       ?_Tidy@?$_Tree@V?$_Tset_traits@VExport@@U?$less@VExport@@@std@@V?$allocator@VExport@@@3@$0A@@std@@@std@@IAEXXZ 00420cf0 f i main.obj
 0001:0001fd20       ?addFallbackDll@Crinkler@@QAEXPBD0@Z 00420d20 f i main.obj
 0001:0001ff20       ?addReplaceDll@Crinkler@@QAEXPBD0@Z 00420f20 f i main.obj
 0001:00020120       ?clear@?$list@V?$basic_string@DU?$char_traits@D@std@@V?$allocator@D@2@@std@@V?$allocator@V?$basic_string@DU?$char_traits@D@std@@V?$allocator@D@2@@std@@@2@@std@@QAEXXZ 00421120 f i main.obj
 0001:000201a0       ?count@?$_Tree@V?$_Tset_traits@VExport@@U?$less@VExport@@@std@@V?$allocator@VExport@@@3@$0A@@std@@@std@@QBEIABVExport@@@Z 004211a0 f i main.obj
 0001:000202f0       ?deallocate@?$allocator@U?$_List_node@V?$basic_string@DU?$char_traits@D@std@@V?$allocator@D@2@@std@@PAX@std@@@std@@QAEXQAU?$_List_node@V?$basic_string@DU?$char_traits@D@std@@V?$allocator@D@2@@std@@PAX@2@I@Z 004212f0 f i main.obj
 0001:00020d40       ?find_first_not_of@?$basic_string@DU?$char_traits@D@std@@V?$allocator@D@2@@std@@QBEIABV12@I@Z 00421d40 f i main.obj
 0001:00020df0       ?find_first_of@?$basic_string@DU?$char_traits@D@std@@V?$allocator@D@2@@std@@QBEIABV12@I@Z 00421df0 f i main.obj
 0001:00021220       ?replace@?$basic_string@DU?$char_traits@D@std@@V?$allocator@D@2@@std@@QAEAAV12@IIQBDI@Z 00422220 f i main.obj
 0001:00021630       _main                      00422630 f   main.obj
 0001:00023780       ??$_Emplace_reallocate@ABV?$basic_string@DU?$char_traits@D@std@@V?$allocator@D@2@@std@@@?$vector@V?$basic_string@DU?$char_traits@D@std@@V?$allocator@D@2@@std@@V?$allocator@V?$basic_string@DU?$char_traits@D@std@@V?$allocator@D@2@@std@@@2@@std@@QAEPAV?$basic_string@DU?$char_traits@D@std@@V?$allocator@D@2@@1@QAV21@ABV21@@Z 00424780 f i Reuse.obj
 0001:000239a0       ??0Reuse@@QAE@ABVModelList@@0ABVHunkList@@H@Z 004249a0 f   Reuse.obj
 0001:00023b10       ??0Reuse@@QAE@XZ           00424b10 f   Reuse.obj
 0001:00023b70       ?loadReuseFile@@YAPAVReuse@@PBD@Z 00424b70 f   Reuse.obj
 0001:00024080       ?parseModelList@@YAPAVModelList@@PBD@Z 00425080 f   Reuse.obj
 0001:00024120       ?save@Reuse@@QBEXPBD@Z     00425120 f   Reuse.obj
 0001:00024570       _sscanf                    00425570 f i Reuse.obj
 0001:000245a0       ??0Symbol@@QAE@PBDHIPAVHunk@@0@Z 004255a0 f   Symbol.obj
 0001:00024640       ?getUndecoratedName@Symbol@@QAE?AV?$basic_string@DU?$char_traits@D@std@@V?$allocator@D@2@@std@@XZ 00425640 f   Symbol.obj
 0001:000246f0       ?error@Log@@SAXPBD0ZZ      004256f0 f   Log.obj
 0001:00024750       ?nonfatalError@Log@@SAXPBD0ZZ 00425750 f   Log.obj
 0001:000247b0       ?warning@Log@@SAXPBD0ZZ    004257b0 f   Log.obj
 0001:00024810       _vsprintf_s                00425810 f i Log.obj
 0001:00024840       ??0MemoryFile@@QAE@PBD_N@Z 00425840 f   MemoryFile.obj
 0001:000248f0       ??1MemoryFile@@QAE@XZ      004258f0 f   MemoryFile.obj
 0001:00024900       ?write@MemoryFile@@QBE_NPBD@Z 00425900 f   MemoryFile.obj
 0001:00024950       ?align@@YAHHH@Z            00425950 f   misc.obj
 0001:00024970       ?roundInt64@@YA_K_KH@Z     00425970 f   misc.obj
 0001:000249f0       ?stripCrinklerSymbolPrefix@@YA?AV?$basic_string@DU?$char_traits@D@std@@V?$allocator@D@2@@std@@PBD@Z 004259f0 f   NameMangling.obj
 0001:00024ab0       ?stripSymbolPrefix@@YA?AV?$basic_string@DU?$char_traits@D@std@@V?$allocator@D@2@@std@@PBD@Z 00425ab0 f   NameMangling.obj
 0001:00024b30       ?undecorateSymbolName@@YA?AV?$basic_string@DU?$char_traits@D@std@@V?$allocator@D@2@@std@@PBD@Z 00425b30 f   NameMangling.obj
 0001:00024c10       ??$_Emplace_reallocate@PBDH@?$vector@V?$basic_string@DU?$char_traits@D@std@@V?$allocator@D@2@@std@@V?$allocator@V?$basic_string@DU?$char_traits@D@std@@V?$allocator@D@2@@std@@@2@@std@@QAEPAV?$basic_string@DU?$char_traits@D@std@@V?$allocator@D@2@@1@QAV21@$$QAPBD$$QAH@Z 00425c10 f i StringMisc.obj
 0001:00024e30       ??$construct@V?$basic_string@DU?$char_traits@D@std@@V?$allocator@D@2@@std@@PBDH@?$_Default_allocator_traits@V?$allocator@V?$basic_string@DU?$char_traits@D@std@@V?$allocator@D@2@@std@@@std@@@std@@SAXAAV?$allocator@V?$basic_string@DU?$char_traits@D@std@@V?$allocator@D@2@@std@@@1@QAV?$basic_string@DU?$char_traits@D@std@@V?$allocator@D@2@@1@$$QAPBD$$QAH@Z 00425e30 f i StringMisc.obj
 0001:00024e60       ?endsWith@@YA_NPBD0@Z      00425e60 f   StringMisc.obj
 0001:00024ef0       ?intoLines@@YA?AV?$vector@V?$basic_string@DU?$char_traits@D@std@@V?$allocator@D@2@@std@@V?$allocator@V?$basic_string@DU?$char_traits@D@std@@V?$allocator@D@2@@std@@@2@@std@@PBDH@Z 00425ef0 f   StringMisc.obj
 0001:00024f90       ?startsWith@@YA_NPBD0@Z    00425f90 f   StringMisc.obj
 0001:00024fc0       ?stripPath@@YA?AV?$basic_string@DU?$char_traits@D@std@@V?$allocator@D@2@@std@@ABV12@@Z 00425fc0 f   StringMisc.obj
 0001:00025060       ?toLower@@YA?AV?$basic_string@DU?$char_traits@D@std@@V?$allocator@D@2@@std@@ABV12@@Z 00426060 f   StringMisc.obj
 0001:000250e0       ?toUpper@@YA?AV?$basic_string@DU?$char_traits@D@std@@V?$allocator@D@2@@std@@ABV12@@Z 004260e0 f   StringMisc.obj
 0001:00025160       ??$_Insert_string@DU?$char_traits@D@std@@I@std@@YAAAV?$basic_ostream@DU?$char_traits@D@std@@@0@AAV10@QBDI@Z 00426160 f i CmdLineInterface.obj
 0001:00025360       ??$endl@DU?$char_traits@D@std@@@std@@YAAAV?$basic_ostream@DU?$char_traits@D@std@@@0@AAV10@@Z 00426360 f i CmdLineInterface.obj
 0001:000253d0       ??0CmdLineInterface@@QAE@PBDH@Z 004263d0 f   CmdLineInterface.obj
 0001:00025450       ??1CmdLineInterface@@QAE@XZ 00426450 f   CmdLineInterface.obj
 0001:000254c0       ?_Freenode@?$_List_buy@V?$basic_string@DU?$char_traits@D@std@@V?$allocator@D@2@@std@@V?$allocator@V?$basic_string@DU?$char_traits@D@std@@V?$allocator@D@2@@std@@@2@@std@@QAEXPAU?$_List_node@V?$basic_string@DU?$char_traits@D@std@@V?$allocator@D@2@@std@@PAX@2@@Z 004264c0 f i CmdLineInterface.obj
 0001:00025520       ?addParams@CmdLineInterface@@QAAXPAVCmdParam@@ZZ 00426520 f   CmdLineInterface.obj
 0001:00025580       ?addTokens@CmdLineInterface@@AAEXPBD@Z 00426580 f   CmdLineInterface.obj
 0001:00025700       ?flush@?$basic_ostream@DU?$char_traits@D@std@@@std@@QAEAAV12@XZ 00426700 f i CmdLineInterface.obj
 0001:00025780       ?parse@CmdLineInterface@@QAE_NXZ 00426780 f   CmdLineInterface.obj
 0001:00026010       ?printHeader@CmdLineInterface@@QAEXXZ 00427010 f   CmdLineInterface.obj
 0001:00026030       ?printSyntax@CmdLineInterface@@QAEXXZ 00427030 f   CmdLineInterface.obj
 0001:000260d0       ?put@?$basic_ostream@DU?$char_traits@D@std@@@std@@QAEAAV12@D@Z 004270d0 f i CmdLineInterface.obj
 0001:00026210       ?removeToken@CmdLineInterface@@QAE_NPBD@Z 00427210 f   CmdLineInterface.obj
 0001:000262e0       ?setCmdParameters@CmdLineInterface@@QAE_NHQAPAD@Z 004272e0 f   CmdLineInterface.obj
 0001:00026410       ??0CmdParam@@QAE@PBD00H@Z  00427410 f   CmdParam.obj
 0001:000264d0       ?getFlags@CmdParam@@QBEHXZ 004274d0 f   CmdParam.obj
 0001:000264d0       ?GetExecutionResourceId@VirtualProcessorRoot@details@Concurrency@@UBEIXZ 004274d0 f   libconcrt:VirtualProcessorRoot.obj
 0001:000264e0       ?getNumMatches@CmdParam@@QBEHXZ 004274e0 f   CmdParam.obj
 0001:000264f0       ?getParameterName@CmdParam@@QBEPBDXZ 004274f0 f   CmdParam.obj
 0001:00026500       ?toString@CmdParam@@UBE?AV?$basic_string@DU?$char_traits@D@std@@V?$allocator@D@2@@std@@XZ 00427500 f   CmdParam.obj
 0001:00026600       ??0CmdParamFlags@@QAA@PBD0HH0HZZ 00427600 f   CmdParamFlags.obj
 0001:00026930       ??_GCmdParamFlags@@UAEPAXI@Z 00427930 f i CmdParamFlags.obj
 0001:00026930       ??_ECmdParamFlags@@UAEPAXI@Z 00427930 f i CmdParamFlags.obj
 0001:00026980       ?getValue@CmdParamFlags@@QAEHXZ 00427980 f   CmdParamFlags.obj
 0001:00026990       ?getValueIfPresent@CmdParamFlags@@QAEHH@Z 00427990 f   CmdParamFlags.obj
 0001:000269b0       ?parse@CmdParamFlags@@UAEHPBDPADH@Z 004279b0 f   CmdParamFlags.obj
 0001:00026c10       ??0CmdParamInt@@QAE@PBD00HHHH@Z 00427c10 f   CmdParamInt.obj
 0001:00026c50       ??_GCmdParamInt@@UAEPAXI@Z 00427c50 f i CmdParamInt.obj
 0001:00026c50       ??_ECmdParamInt@@UAEPAXI@Z 00427c50 f i CmdParamInt.obj
 0001:00026c70       ?getValue@CmdParamInt@@QBEHXZ 00427c70 f   CmdParamInt.obj
 0001:00026c80       ?parse@CmdParamInt@@UAEHPBDPADH@Z 00427c80 f   CmdParamInt.obj
 0001:00026d10       ?toString@CmdParamInt@@UBE?AV?$basic_string@DU?$char_traits@D@std@@V?$allocator@D@2@@std@@XZ 00427d10 f   CmdParamInt.obj
 0001:00026d20       ??$_Buynode@U?$pair@V?$basic_string@DU?$char_traits@D@std@@V?$allocator@D@2@@std@@V12@@std@@@?$_List_buy@U?$pair@V?$basic_string@DU?$char_traits@D@std@@V?$allocator@D@2@@std@@V12@@std@@V?$allocator@U?$pair@V?$basic_string@DU?$char_traits@D@std@@V?$allocator@D@2@@std@@V12@@std@@@2@@std@@QAEPAU?$_List_node@U?$pair@V?$basic_string@DU?$char_traits@D@std@@V?$allocator@D@2@@std@@V12@@std@@PAX@1@PAU21@0$$QAU?$pair@V?$basic_string@DU?$char_traits@D@std@@V?$allocator@D@2@@std@@V12@@1@@Z 00427d20 f i CmdParamMultiAssign.obj
 0001:00026da0       ??0CmdParamMultiAssign@@QAE@PBD00H@Z 00427da0 f   CmdParamMultiAssign.obj
 0001:00026e00       ??1?$list@U?$pair@V?$basic_string@DU?$char_traits@D@std@@V?$allocator@D@2@@std@@V12@@std@@V?$allocator@U?$pair@V?$basic_string@DU?$char_traits@D@std@@V?$allocator@D@2@@std@@V12@@std@@@2@@std@@QAE@XZ 00427e00 f i CmdParamMultiAssign.obj
 0001:00026e50       ??_ECmdParamMultiAssign@@UAEPAXI@Z 00427e50 f i CmdParamMultiAssign.obj
 0001:00026e50       ??_GCmdParamMultiAssign@@UAEPAXI@Z 00427e50 f i CmdParamMultiAssign.obj
 0001:00026e80       ?_Buynode0@?$_List_alloc@U?$_List_base_types@U?$pair@V?$basic_string@DU?$char_traits@D@std@@V?$allocator@D@2@@std@@V12@@std@@V?$allocator@U?$pair@V?$basic_string@DU?$char_traits@D@std@@V?$allocator@D@2@@std@@V12@@std@@@2@@std@@@std@@QAEPAU?$_List_node@U?$pair@V?$basic_string@DU?$char_traits@D@std@@V?$allocator@D@2@@std@@V12@@std@@PAX@2@PAU32@0@Z 00427e80 f i CmdParamMultiAssign.obj
 0001:00026f00       ?getValue1@CmdParamMultiAssign@@QAEPBDXZ 00427f00 f   CmdParamMultiAssign.obj
 0001:00026f00       ?getValue@CmdParamString@@QAEPBDXZ 00427f00 f   CmdParamString.obj
 0001:00026f20       ?getValue2@CmdParamMultiAssign@@QAEPBDXZ 00427f20 f   CmdParamMultiAssign.obj
 0001:00026f40       ?hasNext@CmdParamString@@QBE_NXZ 00427f40 f   CmdParamString.obj
 0001:00026f40       ?hasNext@CmdParamMultiAssign@@QBE_NXZ 00427f40 f   CmdParamMultiAssign.obj
 0001:00026f50       ?next@CmdParamMultiAssign@@QAEXXZ 00427f50 f   CmdParamMultiAssign.obj
 0001:00026f50       ?next@CmdParamString@@QAEXXZ 00427f50 f   CmdParamString.obj
 0001:00026f60       ?parse@CmdParamMultiAssign@@UAEHPBDPADH@Z 00427f60 f   CmdParamMultiAssign.obj
 0001:00027220       ?push_back@?$list@U?$pair@V?$basic_string@DU?$char_traits@D@std@@V?$allocator@D@2@@std@@V12@@std@@V?$allocator@U?$pair@V?$basic_string@DU?$char_traits@D@std@@V?$allocator@D@2@@std@@V12@@std@@@2@@std@@QAEX$$QAU?$pair@V?$basic_string@DU?$char_traits@D@std@@V?$allocator@D@2@@std@@V12@@2@@Z 00428220 f i CmdParamMultiAssign.obj
 0001:00027260       ??0CmdParamString@@QAE@PBD00H0@Z 00428260 f   CmdParamString.obj
 0001:00027370       ??_ECmdParamString@@UAEPAXI@Z 00428370 f i CmdParamString.obj
 0001:00027370       ??_GCmdParamString@@UAEPAXI@Z 00428370 f i CmdParamString.obj
 0001:000273b0       ?parse@CmdParamString@@UAEHPBDPADH@Z 004283b0 f   CmdParamString.obj
 0001:00027490       ??0CmdParamSwitch@@QAE@PBD0H@Z 00428490 f   CmdParamSwitch.obj
 0001:000274c0       ??_ECmdParamSwitch@@UAEPAXI@Z 004284c0 f i CmdParamSwitch.obj
 0001:000274c0       ??_GCmdParamSwitch@@UAEPAXI@Z 004284c0 f i CmdParamSwitch.obj
 0001:000274e0       ?getValue@CmdParamSwitch@@QBE_NXZ 004284e0 f   CmdParamSwitch.obj
 0001:000274f0       ?parse@CmdParamSwitch@@UAEHPBDPADH@Z 004284f0 f   CmdParamSwitch.obj
 0001:00027500       ??0?$vector@PBDV?$allocator@PBD@std@@@std@@QAE@IABV?$allocator@PBD@1@@Z 00428500 f i CoffLibraryLoader.obj
 0001:000275f0       ?clicks@CoffLibraryLoader@@UAE_NPBDH@Z 004285f0 f   CoffLibraryLoader.obj
 0001:00027680       ?load@CoffLibraryLoader@@UAEPAVHunkList@@PBDH0@Z 00428680 f   CoffLibraryLoader.obj
 0001:00027e60       ??1CoffObjectLoader@@UAE@XZ 00428e60 f   CoffObjectLoader.obj
 0001:00027e70       ?clicks@CoffObjectLoader@@UAE_NPBDH@Z 00428e70 f   CoffObjectLoader.obj
 0001:00027ff0       ?load@CoffObjectLoader@@UAEPAVHunkList@@PBDH0@Z 00428ff0 f   CoffObjectLoader.obj
 0001:00028b00       ?loadFromFile@HunkLoader@@QAEPAVHunkList@@PBD@Z 00429b00 f   HunkLoader.obj
 0001:00028b50       ??0MultiLoader@@QAE@XZ     00429b50 f   MultiLoader.obj
 0001:00028ca0       ??1MultiLoader@@UAE@XZ     00429ca0 f   MultiLoader.obj
 0001:00028ce0       ??_EMultiLoader@@UAEPAXI@Z 00429ce0 f i MultiLoader.obj
 0001:00028ce0       ??_GMultiLoader@@UAEPAXI@Z 00429ce0 f i MultiLoader.obj
 0001:00028d00       ?clicks@MultiLoader@@UAE_NPBDH@Z 00429d00 f   MultiLoader.obj
 0001:00028d40       ?load@MultiLoader@@UAEPAVHunkList@@PBDH0@Z 00429d40 f   MultiLoader.obj
 0001:00028d90       ?permuteHunklist@@YAXPAVHunkList@@H@Z 00429d90 f   EmpiricalHunkSorter.obj
 0001:00028f50       ?sortHunkList@EmpiricalHunkSorter@@SAHPAVHunkList@@AAVTransform@@AAVModelList@@2AAVModelList1k@@H_NHPAVProgressBar@@4PAH6@Z 00429f50 f   EmpiricalHunkSorter.obj
 0001:00029320       ?tryHunkCombination@EmpiricalHunkSorter@@CAHPAVHunkList@@AAVTransform@@AAVModelList@@2AAVModelList1k@@H_N4PAH5@Z 0042a320 f   EmpiricalHunkSorter.obj
 0001:00029440       ?hunkRelation@@YA_NPAVHunk@@0@Z 0042a440 f   HeuristicHunkSorter.obj
 0001:00029660       ?sortHunkList@HeuristicHunkSorter@@SAXPAVHunkList@@@Z 0042a660 f   HeuristicHunkSorter.obj
 0001:00029820       ?getDetransformer@CallTransform@@UAEPAVHunk@@XZ 0042a820 f   CallTransform.obj
 0001:00029890       ?transform@CallTransform@@UAE_NPAVHunk@@H_N@Z 0042a890 f   CallTransform.obj
 0001:00029980       ?transform@IdentityTransform@@UAE_NPAVHunk@@H_N@Z 0042a980 f   IdentityTransform.obj
 0001:00029990       ?linkAndTransform@Transform@@QAE_NPAVHunkList@@PAVSymbol@@HAAPAVHunk@@PAPAV4@PAH_N@Z 0042a990 f   Transform.obj
 0001:00029ab0       ?addProgressBar@CompositeProgressBar@@QAEXPAVProgressBar@@@Z 0042aab0 f   CompositeProgressBar.obj
 0001:00029ae0       ?beginTask@CompositeProgressBar@@UAEXPBD@Z 0042aae0 f   CompositeProgressBar.obj
 0001:00029b10       ?deinit@CompositeProgressBar@@UAEXXZ 0042ab10 f   CompositeProgressBar.obj
 0001:00029b40       ?endTask@CompositeProgressBar@@UAEXXZ 0042ab40 f   CompositeProgressBar.obj
 0001:00029b70       ?init@CompositeProgressBar@@UAEXXZ 0042ab70 f   CompositeProgressBar.obj
 0001:00029ba0       ?update@CompositeProgressBar@@UAEXHH@Z 0042aba0 f   CompositeProgressBar.obj
 0001:00029bd0       ?beginTask@ConsoleProgressBar@@UAEXPBD@Z 0042abd0 f   ConsoleProgressBar.obj
 0001:00029c60       ?update@ConsoleProgressBar@@UAEXHH@Z 0042ac60 f   ConsoleProgressBar.obj
 0001:00029d00       ?DlgProc@@YGJPAUHWND__@@IIJ@Z 0042ad00 f   WindowProgressBar.obj
 0001:00029da0       ?ThreadProc@@YGKPAX@Z      0042ada0 f   WindowProgressBar.obj
 0001:00029dc0       ?beginTask@WindowProgressBar@@UAEXPBD@Z 0042adc0 f   WindowProgressBar.obj
 0001:00029e10       ?centerWindow@@YAXPAUHWND__@@0@Z 0042ae10 f   WindowProgressBar.obj
 0001:00029f10       ?init@WindowProgressBar@@UAEXXZ 0042af10 f   WindowProgressBar.obj
 0001:00029fa0       ?update@WindowProgressBar@@UAEXHH@Z 0042afa0 f   WindowProgressBar.obj
 0001:0002a0a0       _distorm_decode64          0042b0a0 f   distorm:distorm.obj
 0001:0002a110       _distorm_version           0042b110 f   distorm:distorm.obj
 0001:0002a120       _internal_decode           0042b120 f   distorm:decoder.obj
 0001:0002a6d0       _ADDR_SIZE_AFFECT          0042b6d0 f   distorm:decoder.obj
 0001:0002a710       _OP_SIZE_AFFECT            0042b710 f   distorm:decoder.obj
 0001:0002afa0       @strcpy_WS@8               0042bfa0 f   distorm:wstring.obj
 0001:0002afd0       @strcpylen_WS@12           0042bfd0 f   distorm:wstring.obj
 0001:0002aff0       @strcatlen_WS@12           0042bff0 f   distorm:wstring.obj
 0001:0002b020       _is_prefix                 0042c020 f   distorm:prefix.obj
 0001:0002b130       _decode_prefixes           0042c130 f   distorm:prefix.obj
 0001:0002b910       _get_unused_prefixes_list  0042c910 f   distorm:prefix.obj
 0001:0002ba60       _str_seg_text              0042ca60 f   distorm:prefix.obj
 0001:0002bb10       _get_prefix_flag           0042cb10 f   distorm:prefix.obj
 0001:0002bd10       @str_hex_b@8               0042cd10 f   distorm:textdefs.obj
 0001:0002bd30       @str_code_hb@8             0042cd30 f   distorm:textdefs.obj
 0001:0002bd60       @str_hex_sp_b@8            0042cd60 f   distorm:textdefs.obj
 0001:0002bd80       @str_code_sp_hb@8          0042cd80 f   distorm:textdefs.obj
 0001:0002bdc0       @str_hex_sp_w@8            0042cdc0 f   distorm:textdefs.obj
 0001:0002be20       @str_code_hw@8             0042ce20 f   distorm:textdefs.obj
 0001:0002bea0       @str_hex_sp_dw@8           0042cea0 f   distorm:textdefs.obj
 0001:0002bf40       @str_code_hdw@8            0042cf40 f   distorm:textdefs.obj
 0001:0002bfa0       @str_hex_sp_qw@8           0042cfa0 f   distorm:textdefs.obj
 0001:0002c0d0       @str_code_hqw@8            0042d0d0 f   distorm:textdefs.obj
 0001:0002c160       @str_off64@12              0042d160 f   distorm:textdefs.obj
 0001:0002c1e0       _locate_inst               0042d1e0 f   distorm:instructions.obj
 0001:0002c320       _locate_3dnow_inst         0042d320 f   distorm:instructions.obj
 0001:0002c370       _str_indirection_text      0042d370 f   distorm:instructions.obj
 0001:0002c900       _extract_operand           0042d900 f   distorm:operands.obj
 0001:0002f070       ??4ModelList@@QAEAAV0@ABV0@@Z 00430070 f   Compressor:ModelList.obj
 0001:0002f070       ??0ModelList@@QAE@ABV0@@Z  00430070 f   Compressor:ModelList.obj
 0001:0002f0b0       ??0ModelList@@QAE@XZ       004300b0 f   Compressor:ModelList.obj
 0001:0002f0c0       ??AModelList@@QAEAAUModel@@I@Z 004300c0 f   Compressor:ModelList.obj
 0001:0002f0c0       ??AModelList@@QBEABUModel@@I@Z 004300c0 f   Compressor:ModelList.obj
 0001:0002f0d0       ?addModel@ModelList@@QAEXUModel@@@Z 004300d0 f   Compressor:ModelList.obj
 0001:0002f0f0       ?detectCompressionType@ModelList@@QBE?AW4CompressionType@@XZ 004300f0 f   Compressor:ModelList.obj
 0001:0002f1e0       ?getMaskList@ModelList@@QBEIPAE_N@Z 004301e0 f   Compressor:ModelList.obj
 0001:0002f2b0       ?print@ModelList1k@@QBEXXZ 004302b0 f   Compressor:ModelList.obj
 0001:0002f2d0       ?print@ModelList@@QBEXPAU_iobuf@@@Z 004302d0 f   Compressor:ModelList.obj
 0001:0002f340       ?setFromModelsAndMask@ModelList@@QAEXPBEH@Z 00430340 f   Compressor:ModelList.obj
 0001:0002f710       ??0CompressionStream@@QAE@PAEPAHH_N@Z 00430710 f   Compressor:CompressionStream.obj
 0001:0002f760       ??H?$_Vb_iterator@U?$_Wrap_alloc@V?$allocator@I@std@@@std@@@std@@QBE?AV01@H@Z 00430760 f i Compressor:CompressionStream.obj
 0001:0002f7c0       ?Close@CompressionStream@@QAEHXZ 004307c0 f   Compressor:CompressionStream.obj
 0001:0002f7e0       ?CompressFromHashBits@CompressionStream@@QAEXABUHashBits@@HH@Z 004307e0 f   Compressor:CompressionStream.obj
 0001:0002faf0       ?ComputeHashBits@@YA?AUHashBits@@PBEHPAEABVModelList@@_N3@Z 00430af0 f   Compressor:CompressionStream.obj
 0001:0002fe30       ?EvaluateSize@CompressionStream@@QAEHPBEHABVModelList@@HPADH@Z 00430e30 f   Compressor:CompressionStream.obj
 0001:000302b0       ?_Insert_n@?$vector@_NV?$allocator@_N@std@@@std@@QAE?AV?$_Vb_iterator@U?$_Wrap_alloc@V?$allocator@I@std@@@std@@@2@V?$_Vb_const_iterator@U?$_Wrap_alloc@V?$allocator@I@std@@@std@@@2@IAB_N@Z 004312b0 f i Compressor:CompressionStream.obj
 0001:000304c0       ?_Reallocate_exactly@?$vector@IV?$allocator@I@std@@@std@@AAEXI@Z 004314c0 f i Compressor:CompressionStream.obj
 0001:000305f0       ?end@?$vector@_NV?$allocator@_N@std@@@std@@QAE?AV?$_Vb_iterator@U?$_Wrap_alloc@V?$allocator@I@std@@@std@@@2@XZ 004315f0 f i Compressor:CompressionStream.obj
 0001:00030650       ??$?0H@?$_Temporary_buffer@VModelList@@@std@@QAE@H@Z 00431650 f i Compressor:Compressor.obj
 0001:00030ff0       ??$_Buffered_rotate_unchecked@PAVModelList@@@std@@YAPAVModelList@@QAV1@00HH0H@Z 00431ff0 f i Compressor:Compressor.obj
 0001:000311c0       ??$_InvokeBridge@V?$task_handle@V?$_Parallel_chunk_helper@HKV<lambda_97b9ff38a0f6517bf858f9ee632bc09d>@@Vauto_partitioner@Concurrency@@$0A@@Concurrency@@@Concurrency@@@_UnrealizedChore@details@Concurrency@@KAXPAX@Z 004321c0 f i Compressor:Compressor.obj
 0001:000311d0       ??$_InvokeBridge@V?$task_handle@V?$_Parallel_chunk_helper@HKV<lambda_999a37e34589117deea2394e9f04c39c>@@Vauto_partitioner@Concurrency@@$0A@@Concurrency@@@Concurrency@@@_UnrealizedChore@details@Concurrency@@KAXPAX@Z 004321d0 f i Compressor:Compressor.obj
 0001:000311e0       ??$_InvokeBridge@V?$task_handle@V?$_Parallel_chunk_helper@HKV<lambda_b5f0cd7b569291211aea5d633333e2eb>@@Vauto_partitioner@Concurrency@@$0A@@Concurrency@@@Concurrency@@@_UnrealizedChore@details@Concurrency@@KAXPAX@Z 004321e0 f i Compressor:Compressor.obj
 0001:000311f0       ??$_Move_backward_unchecked@PAVModelList@@PAV1@@std@@YAPAVModelList@@PAV1@00@Z 004321f0 f i Compressor:Compressor.obj
 0001:00031230       ??$_Uninitialized_move_unchecked@PAVModelList@@PAV1@@std@@YAPAVModelList@@QAV1@00@Z 00432230 f i Compressor:Compressor.obj
 0001:00031230       ??$_Move_unchecked@PAVModelList@@PAV1@@std@@YAPAVModelList@@PAV1@00@Z 00432230 f i Compressor:Compressor.obj
 0001:00031900       ??$_Reverse_unchecked@PAVModelList@@@std@@YAXQAVModelList@@0@Z 00432900 f i Compressor:Compressor.obj
 0001:00031960       ??$_Rotate_one_left@PAVModelList@@@std@@YAXPAVModelList@@00@Z 00432960 f i Compressor:Compressor.obj
 0001:000319c0       ??$_Rotate_one_right@PAVModelList@@@std@@YAXPAVModelList@@00@Z 004329c0 f i Compressor:Compressor.obj
 0001:00031ad0       ??0?$vector@VModelList@@V?$allocator@VModelList@@@std@@@std@@QAE@IABV?$allocator@VModelList@@@1@@Z 00432ad0 f i Compressor:Compressor.obj
 0001:00032b40       ?ApproximateModels1k@@YA?AVModelList1k@@PBEHPAHPAVProgressBar@@@Z 00433b40 f   Compressor:Compressor.obj
 0001:00032d50       ?ApproximateModels4k@@YA?AVModelList@@PBEHH_NPAHPAVProgressBar@@W4CompressionType@@PAD@Z 00433d50 f   Compressor:Compressor.obj
 0001:00033350       ?Compress1K@@YAHPAEH0HHHHIPAH1@Z 00434350 f   Compressor:Compressor.obj
 0001:000335c0       ?Compress@@YAHPAEPAHH_NPBEHHABVModelList@@4HH@Z 004345c0 f   Compressor:Compressor.obj
 0001:000336b0       ?CompressFromHashBits@@YAHPAEPAHH_NABUHashBits@@3HH@Z 004346b0 f   Compressor:Compressor.obj
 0001:00033710       ?EvaluateSize@@YAHPBEHHABVModelList@@1H_NPAH3@Z 00434710 f   Compressor:Compressor.obj
 0001:00033b80       ?InstantModels@@YA?AVModelList@@XZ 00434b80 f   Compressor:Compressor.obj
 0001:00033cb0       ?_Tidy@?$vector@VModelList@@V?$allocator@VModelList@@@std@@@std@@AAEXXZ 00434cb0 f i Compressor:Compressor.obj
 0001:00033d20       ?_Udefault@?$vector@VModelList@@V?$allocator@VModelList@@@std@@@std@@AAEPAVModelList@@PAV3@I@Z 00434d20 f i Compressor:Compressor.obj
 0001:00033d50       ?approximateWeights@@YAIAAVCompressionState@@AAVModelList@@@Z 00434d50 f   Compressor:Compressor.obj
 0001:00033dc0       ?compTypeName@@YAPBDW4CompressionType@@@Z 00434dc0 f   Compressor:Compressor.obj
 0001:00033e00       ?evaluate1K@@YAHPAEHPAH111I@Z 00434e00 f   Compressor:Compressor.obj
 0001:00034090       ?optimizeWeights@@YAIAAVCompressionState@@AAVModelList@@@Z 00435090 f   Compressor:Compressor.obj
 0001:00034250       _AritCode                  00435250 f   Compressor:AritCode.obj
 0001:00034350       _AritCodeEnd               00435350 f   Compressor:AritCode.obj
 0001:000343a0       _AritCodeInit              004353a0 f   Compressor:AritCode.obj
 0001:000343c0       _AritCodePos               004353c0 f   Compressor:AritCode.obj
 0001:00034420       _ModelHash@16              00435420 f   Compressor:Model.obj
 0001:00034490       _ModelHashStart@8          00435490 f   Compressor:Model.obj
 0001:000344c0       ??$_InvokeBridge@V?$task_handle@V?$_Parallel_chunk_helper@HKV<lambda_03d10979867dcf9adb990123b786fe83>@@Vauto_partitioner@Concurrency@@$0A@@Concurrency@@@Concurrency@@@_UnrealizedChore@details@Concurrency@@KAXPAX@Z 004354c0 f i Compressor:CompressionState.obj
 0001:00034700       ??0CompressionState@@QAE@PBEHH_NPAVCompressionStateEvaluator@@PAD@Z 00435700 f   Compressor:CompressionState.obj
 0001:00034810       ??1CompressionState@@QAE@XZ 00435810 f   Compressor:CompressionState.obj
 0001:00034c70       ?applyModel@CompressionState@@AAE?AUModelPredictions@@PBEHE@Z 00435c70 f   Compressor:CompressionState.obj
 0001:00034fb0       ?getCompressedSize@CompressionState@@QBEHXZ 00435fb0 f   Compressor:CompressionState.obj
 0001:00034fd0       ?setModels@CompressionState@@QAEHABVModelList@@@Z 00435fd0 f   Compressor:CompressionState.obj
 0001:00035000       ?updateWeights@@YAXPAUWeights@@H_N@Z 00436000 f   Compressor:CompressionState.obj
 0001:00035030       ??$_InvokeBridge@V?$task_handle@V?$_Parallel_chunk_helper@HKV<lambda_b013cdf8003cce4124d8df0eda79d9db>@@Vauto_partitioner@Concurrency@@$0A@@Concurrency@@@Concurrency@@@_UnrealizedChore@details@Concurrency@@KAXPAX@Z 00436030 f i Compressor:SoftwareCompressionStateEvaluator.obj
 0001:00035270       ??0SoftwareCompressionStateEvaluator@@QAE@XZ 00436270 f   Compressor:SoftwareCompressionStateEvaluator.obj
 0001:000352b0       ??1SoftwareCompressionStateEvaluator@@UAE@XZ 004362b0 f   Compressor:SoftwareCompressionStateEvaluator.obj
 0001:00035ce0       ??_GSoftwareCompressionStateEvaluator@@UAEPAXI@Z 00436ce0 f i Compressor:SoftwareCompressionStateEvaluator.obj
 0001:00035ce0       ??_ESoftwareCompressionStateEvaluator@@UAEPAXI@Z 00436ce0 f i Compressor:SoftwareCompressionStateEvaluator.obj
 0001:00035d30       ?_Move@?$_Func_impl_no_alloc@P6A_JXZ_J$$V@std@@EAEPAV?$_Func_base@_J$$V@2@PAX@Z 00436d30 f i Compressor:SoftwareCompressionStateEvaluator.obj
 0001:00035d30       ?_Copy@?$_Func_impl_no_alloc@P6A_JXZ_J$$V@std@@EBEPAV?$_Func_base@_J$$V@2@PAX@Z 00436d30 f i Compressor:SoftwareCompressionStateEvaluator.obj
 0001:00035d50       ?_Do_call@?$_Func_impl_no_alloc@P6A_JXZ_J$$V@std@@EAE_JXZ 00436d50 f i Compressor:SoftwareCompressionStateEvaluator.obj
 0001:00035d60       ?_Target_type@?$_Func_impl_no_alloc@P6A_JXZ_J$$V@std@@EBEABVtype_info@@XZ 00436d60 f i Compressor:SoftwareCompressionStateEvaluator.obj
 0001:00035d70       ?changeWeight@SoftwareCompressionStateEvaluator@@AAE_JHH@Z 00436d70 f   Compressor:SoftwareCompressionStateEvaluator.obj
 0001:00035fa0       ?evaluate@SoftwareCompressionStateEvaluator@@UAE_JABVModelList@@@Z 00436fa0 f   Compressor:SoftwareCompressionStateEvaluator.obj
 0001:00036080       ?init@SoftwareCompressionStateEvaluator@@UAE_NPAUModelPredictions@@HHM@Z 00437080 f   Compressor:SoftwareCompressionStateEvaluator.obj
 0001:000361e1       ??0bad_function_call@std@@QAE@ABV01@@Z 004371e1 f i libcpmt:xthrow.obj
 0001:000361fc       ??0bad_function_call@std@@QAE@XZ 004371fc f i libcpmt:xthrow.obj
 0001:0003620d       ??0exception@std@@QAE@QBD@Z 0043720d f i libcpmt:xthrow.obj
 0001:00036244       ??0length_error@std@@QAE@ABV01@@Z 00437244 f i libcpmt:xthrow.obj
 0001:0003625f       ??0length_error@std@@QAE@PBD@Z 0043725f f i libcpmt:xthrow.obj
 0001:00036280       ??0out_of_range@std@@QAE@ABV01@@Z 00437280 f i libcpmt:xthrow.obj
 0001:0003629b       ??0out_of_range@std@@QAE@PBD@Z 0043729b f i libcpmt:xthrow.obj
 0001:000362bc       ??_Ginvalid_multiple_scheduling@Concurrency@@UAEPAXI@Z 004372bc f i libconcrt:TaskCollection.obj
 0001:000362bc       ??_Ebad_array_new_length@std@@UAEPAXI@Z 004372bc f i LIBCMT:throw_bad_alloc.obj
 0001:000362bc       ??_Ginvalid_operation@Concurrency@@UAEPAXI@Z 004372bc f i libconcrt:ResourceManager.obj
 0001:000362bc       ??_Gmissing_wait@Concurrency@@UAEPAXI@Z 004372bc f i libconcrt:Chores.obj
 0001:000362bc       ??_Einvalid_scheduler_policy_thread_specification@Concurrency@@UAEPAXI@Z 004372bc f i libconcrt:Exceptions.obj
 0001:000362bc       ??_Ebad_function_call@std@@UAEPAXI@Z 004372bc f i libcpmt:xthrow.obj
 0001:000362bc       ??_Gunsupported_os@Concurrency@@UAEPAXI@Z 004372bc f i libconcrt:Exceptions.obj
 0001:000362bc       ??_Econtext_unblock_unbalanced@Concurrency@@UAEPAXI@Z 004372bc f i libconcrt:Exceptions.obj
 0001:000362bc       ??_Gimproper_scheduler_reference@Concurrency@@UAEPAXI@Z 004372bc f i libconcrt:SchedulerBase.obj
 0001:000362bc       ??_Econtext_self_unblock@Concurrency@@UAEPAXI@Z 004372bc f i libconcrt:Exceptions.obj
 0001:000362bc       ??_Ebad_exception@std@@UAEPAXI@Z 004372bc f i libvcruntime:frame.obj
 0001:000362bc       ??_Eimproper_lock@Concurrency@@UAEPAXI@Z 004372bc f i libconcrt:rtlocks.obj
 0001:000362bc       ??_Glength_error@std@@UAEPAXI@Z 004372bc f i libcpmt:xthrow.obj
 0001:000362bc       ??_Enested_scheduler_missing_detach@Concurrency@@UAEPAXI@Z 004372bc f i libconcrt:Exceptions.obj
 0001:000362bc       ??_Gimproper_lock@Concurrency@@UAEPAXI@Z 004372bc f i libconcrt:rtlocks.obj
 0001:000362bc       ??_Ginvalid_scheduler_policy_key@Concurrency@@UAEPAXI@Z 004372bc f i libconcrt:Exceptions.obj
 0001:000362bc       ??_Elength_error@std@@UAEPAXI@Z 004372bc f i libcpmt:xthrow.obj
 0001:000362bc       ??_E__non_rtti_object@std@@UAEPAXI@Z 004372bc f i libvcruntime:rtti.obj
 0001:000362bc       ??_Eout_of_range@std@@UAEPAXI@Z 004372bc f i libcpmt:xthrow.obj
 0001:000362bc       ??_Ginvalid_scheduler_policy_thread_specification@Concurrency@@UAEPAXI@Z 004372bc f i libconcrt:Exceptions.obj
 0001:000362bc       ??_Einvalid_scheduler_policy_key@Concurrency@@UAEPAXI@Z 004372bc f i libconcrt:Exceptions.obj
 0001:000362bc       ??_Gimproper_scheduler_attach@Concurrency@@UAEPAXI@Z 004372bc f i libconcrt:SchedulerBase.obj
 0001:000362bc       ??_Gcontext_unblock_unbalanced@Concurrency@@UAEPAXI@Z 004372bc f i libconcrt:Exceptions.obj
 0001:000362bc       ??_Ginvalid_oversubscribe_operation@Concurrency@@UAEPAXI@Z 004372bc f i libconcrt:Exceptions.obj
 0001:000362bc       ??_Gbad_function_call@std@@UAEPAXI@Z 004372bc f i libcpmt:xthrow.obj
 0001:000362bc       ??_Eimproper_scheduler_attach@Concurrency@@UAEPAXI@Z 004372bc f i libconcrt:SchedulerBase.obj
 0001:000362bc       ??_E_Interruption_exception@details@Concurrency@@UAEPAXI@Z 004372bc f i libconcrt:Chores.obj
 0001:000362bc       ??_Gbad_exception@std@@UAEPAXI@Z 004372bc f i libvcruntime:frame.obj
 0001:000362bc       ??_Ebad_typeid@std@@UAEPAXI@Z 004372bc f i libvcruntime:rtti.obj
 0001:000362bc       ??_Gcontext_self_unblock@Concurrency@@UAEPAXI@Z 004372bc f i libconcrt:Exceptions.obj
 0001:000362bc       ??_Einvalid_scheduler_policy_value@Concurrency@@UAEPAXI@Z 004372bc f i libconcrt:Exceptions.obj
 0001:000362bc       ??_Einvalid_oversubscribe_operation@Concurrency@@UAEPAXI@Z 004372bc f i libconcrt:Exceptions.obj
 0001:000362bc       ??_Gbad_typeid@std@@UAEPAXI@Z 004372bc f i libvcruntime:rtti.obj
 0001:000362bc       ??_Emissing_wait@Concurrency@@UAEPAXI@Z 004372bc f i libconcrt:Chores.obj
 0001:000362bc       ??_Einvalid_multiple_scheduling@Concurrency@@UAEPAXI@Z 004372bc f i libconcrt:TaskCollection.obj
 0001:000362bc       ??_G_Interruption_exception@details@Concurrency@@UAEPAXI@Z 004372bc f i libconcrt:Chores.obj
 0001:000362bc       ??_Gbad_array_new_length@std@@UAEPAXI@Z 004372bc f i LIBCMT:throw_bad_alloc.obj
 0001:000362bc       ??_Ginvalid_scheduler_policy_value@Concurrency@@UAEPAXI@Z 004372bc f i libconcrt:Exceptions.obj
 0001:000362bc       ??_Eunsupported_os@Concurrency@@UAEPAXI@Z 004372bc f i libconcrt:Exceptions.obj
 0001:000362bc       ??_Gnested_scheduler_missing_detach@Concurrency@@UAEPAXI@Z 004372bc f i libconcrt:Exceptions.obj
 0001:000362bc       ??_G__non_rtti_object@std@@UAEPAXI@Z 004372bc f i libvcruntime:rtti.obj
 0001:000362bc       ??_Einvalid_operation@Concurrency@@UAEPAXI@Z 004372bc f i libconcrt:ResourceManager.obj
 0001:000362bc       ??_Gout_of_range@std@@UAEPAXI@Z 004372bc f i libcpmt:xthrow.obj
 0001:000362bc       ??_Eimproper_scheduler_reference@Concurrency@@UAEPAXI@Z 004372bc f i libconcrt:SchedulerBase.obj
 0001:000362e9       ?__scrt_throw_std_bad_alloc@@YAXXZ 004372e9 f   LIBCMT:throw_bad_alloc.obj
 0001:000362e9       ?_Xbad_alloc@std@@YAXXZ    004372e9 f   libcpmt:xthrow.obj
 0001:00036306       ?_Xbad_function_call@std@@YAXXZ 00437306 f   libcpmt:xthrow.obj
 0001:00036323       ?_Xlength_error@std@@YAXPBD@Z 00437323 f   libcpmt:xthrow.obj
 0001:00036343       ?_Xout_of_range@std@@YAXPBD@Z 00437343 f   libcpmt:xthrow.obj
 0001:00036363       ?what@bad_function_call@std@@UBEPBDXZ 00437363 f i libcpmt:xthrow.obj
 0001:00036369       ?GetCurrentThreadId@platform@details@Concurrency@@YAJXZ 00437369 f   libcpmt:ppltasks.obj
 0001:0003636f       ??0_Init_locks@std@@QAE@XZ 0043736f f   libcpmt:xlock.obj
 0001:0003639c       ??0_Lockit@std@@QAE@H@Z    0043739c f   libcpmt:xlock.obj
 0001:000363cd       ??1_Init_locks@std@@QAE@XZ 004373cd f   libcpmt:xlock.obj
 0001:000363f4       ??1_Lockit@std@@QAE@XZ     004373f4 f   libcpmt:xlock.obj
 0001:00036413       ?uncaught_exception@std@@YA_NXZ 00437413 f   libcpmt:uncaught_exception.obj
 0001:00036418       __Getctype                 00437418 f   libcpmt:_tolower.obj
 0001:00036480       __Tolower                  00437480 f   libcpmt:_tolower.obj
 0001:00036580       __Getcvt                   00437580 f   libcpmt:xwctomb.obj
 0001:000365eb       __Toupper                  004375eb f   libcpmt:_toupper.obj
 0001:000366eb       ??0_Locimp@locale@std@@AAE@_N@Z 004376eb f i libcpmt:locale0.obj
 0001:0003672e       ??1_Fac_node@std@@QAE@XZ   0043772e f i libcpmt:locale0.obj
 0001:0003678f       ??1_Fac_tidy_reg_t@std@@QAE@XZ 0043778f f i libcpmt:locale0.obj
 0001:000367b6       ??1_Locimp@locale@std@@MAE@XZ 004377b6 f i libcpmt:locale0.obj
 0001:00036811       ??1locale@std@@QAE@XZ      00437811 f i libcpmt:locale0.obj
 0001:00036876       ??4?$_Yarn@D@std@@QAEAAV01@PBD@Z 00437876 f i libcpmt:locale0.obj
 0001:000368ca       ??_G_Locimp@locale@std@@MAEPAXI@Z 004378ca f i libcpmt:locale0.obj
 0001:000368ca       ??_E_Locimp@locale@std@@MAEPAXI@Z 004378ca f i libcpmt:locale0.obj
 0001:000368ec       ?_Facet_Register@std@@YAXPAV_Facet_base@1@@Z 004378ec f   libcpmt:locale0.obj
 0001:0003691a       ?_Getgloballocale@locale@std@@CAPAV_Locimp@12@XZ 0043791a f   libcpmt:locale0.obj
 0001:00036920       ?_Init@locale@std@@CAPAV_Locimp@12@_N@Z 00437920 f   libcpmt:locale0.obj
 0001:000369ca       ?_Locimp_dtor@_Locimp@locale@std@@CAXPAV123@@Z 004379ca f   libcpmt:locale0.obj
 0001:00036a41       ?_Locinfo_ctor@_Locinfo@std@@SAXPAV12@PBD@Z 00437a41 f   libcpmt:locale0.obj
 0001:00036a8c       ?_Locinfo_dtor@_Locinfo@std@@SAXPAV12@@Z 00437a8c f   libcpmt:locale0.obj
 0001:00036aa6       ?_New_Locimp@_Locimp@locale@std@@CAPAV123@_N@Z 00437aa6 f   libcpmt:locale0.obj
 0001:00036acb       __Deletegloballocale       00437acb f   libcpmt:locale0.obj
 0001:00036b32       ??$_Allocate@$07U_Default_allocate_traits@std@@$0A@@std@@YAPAXI@Z 00437b32 f i libcpmt:xonce.obj
 0001:00036b58       ??$_Allocate_manually_vector_aligned@U_Default_allocate_traits@std@@@std@@YAPAXI@Z 00437b58 f i libcpmt:xonce.obj
 0001:00036b84       ??$_Immortalize_impl@V_Generic_error_category@std@@@std@@YGHPAX0PAPAX@Z 00437b84 f i libcpmt:xonce.obj
 0001:00036d0f       ??0?$basic_string@DU?$char_traits@D@std@@V?$allocator@D@2@@std@@QAE@QBD@Z 00437d0f f i libcpmt:xonce.obj
 0001:00036d44       ?_Adjust_manually_vector_aligned@std@@YAXAAPAXAAI@Z 00437d44 f i libcpmt:xonce.obj
 0001:00036d68       ?_Calculate_growth@?$basic_string@DU?$char_traits@D@std@@V?$allocator@D@2@@std@@QBEII@Z 00437d68 f i libcpmt:xonce.obj
 0001:00036d9e       ?_Execute_once@std@@YAHAAUonce_flag@1@P6GHPAX1PAPAX@Z1@Z 00437d9e f   libcpmt:xonce.obj
 0001:00036db6       ?append@?$basic_string@DU?$char_traits@D@std@@V?$allocator@D@2@@std@@QAEAAV12@ID@Z 00437db6 f i libcpmt:xonce.obj
 0001:00036e14       ?assign@?$basic_string@DU?$char_traits@D@std@@V?$allocator@D@2@@std@@QAEAAV12@ID@Z 00437e14 f i libcpmt:xonce.obj
 0001:00036e62       ?generic_category@std@@YAABVerror_category@1@XZ 00437e62 f i libcpmt:xonce.obj
 0001:00036e8b       ?_Syserror_map@std@@YAPBDH@Z 00437e8b f   libcpmt:syserror.obj
 0001:00036eb0       ?_Addstd@ios_base@std@@SAXPAV12@@Z 00437eb0 f   libcpmt:ios.obj
 0001:00036efe       ?_Callfns@ios_base@std@@AAEXW4event@12@@Z 00437efe f i libcpmt:ios.obj
 0001:00036f31       ?_Ios_base_dtor@ios_base@std@@CAXPAV12@@Z 00437f31 f   libcpmt:ios.obj
 0001:00036f71       ?_Tidy@ios_base@std@@AAEXXZ 00437f71 f i libcpmt:ios.obj
 0001:00036fb9       ??$use_facet@V?$codecvt@DDU_Mbstatet@@@std@@@std@@YAABV?$codecvt@DDU_Mbstatet@@@0@ABVlocale@0@@Z 00437fb9 f i libcpmt:cerr.obj
 0001:0003705f       ??0?$basic_ostream@DU?$char_traits@D@std@@@std@@QAE@PAV?$basic_streambuf@DU?$char_traits@D@std@@@1@_N@Z 0043805f f i libcpmt:cerr.obj
 0001:000370c6       ??0?$basic_streambuf@DU?$char_traits@D@std@@@std@@IAE@XZ 004380c6 f i libcpmt:cerr.obj
 0001:0003710d       ??0_Init_cerr@std@@QAE@XZ  0043810d f i libcpmt:cerr.obj
 0001:0003713c       ??0bad_cast@std@@QAE@XZ    0043813c f i libcpmt:cerr.obj
 0001:00037154       ??0locale@std@@QAE@ABV01@@Z 00438154 f i libcpmt:cerr.obj
 0001:000371ab       ??1?$basic_filebuf@DU?$char_traits@D@std@@@std@@UAE@XZ 004381ab f i libcpmt:cerr.obj
 0001:00037205       ??1?$unique_ptr@V_Facet_base@std@@U?$default_delete@V_Facet_base@std@@@2@@std@@QAE@XZ 00438205 f i libcpmt:cerr.obj
 0001:00037212       ??Bid@locale@std@@QAEIXZ   00438212 f i libcpmt:cerr.obj
 0001:00037249       ??R?$default_delete@V_Facet_base@std@@@std@@QBEXPAV_Facet_base@1@@Z 00438249 f i libcpmt:cerr.obj
 0001:0003726d       ??_D?$basic_ostream@DU?$char_traits@D@std@@@std@@QAEXXZ 0043826d f i libcpmt:cerr.obj
 0001:000372cd       ??_E?$basic_filebuf@DU?$char_traits@D@std@@@std@@UAEPAXI@Z 004382cd f i libcpmt:cerr.obj
 0001:000372cd       ??_G?$basic_filebuf@DU?$char_traits@D@std@@@std@@UAEPAXI@Z 004382cd f i libcpmt:cerr.obj
 0001:000372ef       ??_G?$codecvt@DDU_Mbstatet@@@std@@MAEPAXI@Z 004382ef f i libcpmt:cerr.obj
 0001:000372ef       ??_E?$codecvt@DDU_Mbstatet@@@std@@MAEPAXI@Z 004382ef f i libcpmt:cerr.obj
 0001:00037312       ?_Endwrite@?$basic_filebuf@DU?$char_traits@D@std@@@std@@IAE_NXZ 00438312 f i libcpmt:cerr.obj
 0001:00037446       ?_Getcat@?$codecvt@DDU_Mbstatet@@@std@@SAIPAPBVfacet@locale@2@PBV42@@Z 00438446 f i libcpmt:cerr.obj
 0001:000374c3       ?_Getfacet@locale@std@@QBEPBVfacet@12@I@Z 004384c3 f i libcpmt:cerr.obj
 0001:00037500       ?_Init@?$basic_filebuf@DU?$char_traits@D@std@@@std@@IAEXPAU_iobuf@@W4_Initfl@12@@Z 00438500 f i libcpmt:cerr.obj
 0001:0003757e       ?_Init@?$basic_streambuf@DU?$char_traits@D@std@@@std@@IAEXXZ 0043857e f i libcpmt:cerr.obj
 0001:000375c2       ?_Init@ios_base@std@@IAEXXZ 004385c2 f i libcpmt:cerr.obj
 0001:00037628       ?_Initcvt@?$basic_filebuf@DU?$char_traits@D@std@@@std@@IAEXABV?$codecvt@DDU_Mbstatet@@@2@@Z 00438628 f i libcpmt:cerr.obj
 0001:0003765f       ?_Lock@?$basic_filebuf@DU?$char_traits@D@std@@@std@@UAEXXZ 0043865f f i libcpmt:cerr.obj
 0001:0003766f       ?_Reset_back@?$basic_filebuf@DU?$char_traits@D@std@@@std@@AAEXXZ 0043866f f i libcpmt:cerr.obj
 0001:00037692       ?_Set_back@?$basic_filebuf@DU?$char_traits@D@std@@@std@@AAEXXZ 00438692 f i libcpmt:cerr.obj
 0001:000376c8       ?_Unlock@?$basic_filebuf@DU?$char_traits@D@std@@@std@@UAEXXZ 004386c8 f i libcpmt:cerr.obj
 0001:000376d8       ?close@?$basic_filebuf@DU?$char_traits@D@std@@@std@@QAEPAV12@XZ 004386d8 f i libcpmt:cerr.obj
 0001:00037737       ?AllowGeneralFetchOfReservedContexts@SchedulerBase@details@Concurrency@@MAE_NXZ 00438737 f i libconcrt:SchedulerBase.obj
 0001:00037737       ?do_always_noconv@?$codecvt@DDU_Mbstatet@@@std@@MBE_NXZ 00438737 f i libcpmt:cerr.obj
 0001:00037737       ?SweepWaitNode@SingleWaitBlock@details@Concurrency@@UAE_NXZ 00438737 f i libconcrt:event.obj
 0001:00037737       ___acrt_uninitialize_command_line 00438737 f i libucrt:argv_data.obj
 0001:00037737       __should_initialize_environment 00438737 f i LIBCMT:env_mode.obj
 0001:0003773a       ?do_max_length@codecvt_base@std@@MBEHXZ 0043873a f i libcpmt:cerr.obj
 0001:0003773a       ?GetContextKind@ThreadInternalContext@details@Concurrency@@UBE?AW4ContextKind@ContextBase@23@XZ 0043873a f i libconcrt:ThreadScheduler.obj
 0001:0003773a       ?do_encoding@codecvt_base@std@@MBEHXZ 0043873a f i libcpmt:cerr.obj
 0001:0003773a       __get_startup_argv_mode    0043873a f i LIBCMT:argv_mode.obj
 0001:0003773e       ?do_in@?$codecvt@DDU_Mbstatet@@@std@@MBEHAAU_Mbstatet@@PBD1AAPBDPAD3AAPAD@Z 0043873e f i libcpmt:cerr.obj
 0001:0003773e       ?do_out@?$codecvt@DDU_Mbstatet@@@std@@MBEHAAU_Mbstatet@@PBD1AAPBDPAD3AAPAD@Z 0043873e f i libcpmt:cerr.obj
 0001:00037758       ?do_length@?$codecvt@DDU_Mbstatet@@@std@@MBEHAAU_Mbstatet@@PBD1I@Z 00438758 f i libcpmt:cerr.obj
 0001:00037770       ?do_unshift@?$codecvt@DDU_Mbstatet@@@std@@MBEHAAU_Mbstatet@@PAD1AAPAD@Z 00438770 f i libcpmt:cerr.obj
 0001:00037781       ?imbue@?$basic_filebuf@DU?$char_traits@D@std@@@std@@MAEXABVlocale@2@@Z 00438781 f i libcpmt:cerr.obj
 0001:0003779d       ?init@?$basic_ios@DU?$char_traits@D@std@@@std@@IAEXPAV?$basic_streambuf@DU?$char_traits@D@std@@@2@_N@Z 0043879d f i libcpmt:cerr.obj
 0001:000377e6       ?overflow@?$basic_filebuf@DU?$char_traits@D@std@@@std@@MAEHH@Z 004387e6 f i libcpmt:cerr.obj
 0001:00037987       ?pbackfail@?$basic_filebuf@DU?$char_traits@D@std@@@std@@MAEHH@Z 00438987 f i libcpmt:cerr.obj
 0001:00037a09       ?seekoff@?$basic_filebuf@DU?$char_traits@D@std@@@std@@MAE?AV?$fpos@U_Mbstatet@@@2@_JHH@Z 00438a09 f i libcpmt:cerr.obj
 0001:00037ad5       ?seekpos@?$basic_filebuf@DU?$char_traits@D@std@@@std@@MAE?AV?$fpos@U_Mbstatet@@@2@V32@H@Z 00438ad5 f i libcpmt:cerr.obj
 0001:00037ba0       ?setbuf@?$basic_filebuf@DU?$char_traits@D@std@@@std@@MAEPAV?$basic_streambuf@DU?$char_traits@D@std@@@2@PAD_J@Z 00438ba0 f i libcpmt:cerr.obj
 0001:00037bee       ?sync@?$basic_filebuf@DU?$char_traits@D@std@@@std@@MAEHXZ 00438bee f i libcpmt:cerr.obj
 0001:00037c27       ?uflow@?$basic_filebuf@DU?$char_traits@D@std@@@std@@MAEHXZ 00438c27 f i libcpmt:cerr.obj
 0001:00037dc6       ?underflow@?$basic_filebuf@DU?$char_traits@D@std@@@std@@MAEHXZ 00438dc6 f i libcpmt:cerr.obj
 0001:00037e16       ?widen@?$basic_ios@DU?$char_traits@D@std@@@std@@QBEDD@Z 00438e16 f i libcpmt:cerr.obj
 0001:00037ee4       __Mtxdst                   00438ee4 f   libcpmt:xmtx.obj
 0001:00037ef2       __Mtxinit                  00438ef2 f   libcpmt:xmtx.obj
 0001:00037f09       __Mtxlock                  00438f09 f   libcpmt:xmtx.obj
 0001:00037f17       __Mtxunlock                00438f17 f   libcpmt:xmtx.obj
 0001:00037f25       ___crtLCMapStringA         00438f25 f   libcpmt:StlLCMapStringA.obj
 0001:000380fc       __freea_crt                004390fc f i libcpmt:StlLCMapStringA.obj
 0001:000380fc       __freea                    004390fc f i libconcrt:TaskCollection.obj
 0001:0003811a       ??1_Init_atexit@@QAE@XZ    0043911a f i libcpmt:iosptrs.obj
 0001:0003817f       ?_Atexit@@YAXP6AXXZ@Z      0043917f f   libcpmt:iosptrs.obj
 0001:00038557       ___crtAcquireSRWLockExclusive 00439557 f   libcpmt:winapisupp.obj
 0001:00038577       ___crtCloseThreadpoolTimer 00439577 f   libcpmt:winapisupp.obj
 0001:00038599       ___crtCloseThreadpoolWait  00439599 f   libcpmt:winapisupp.obj
 0001:000385bb       ___crtCreateEventExW       004395bb f   libcpmt:winapisupp.obj
 0001:00038601       ___crtCreateSemaphoreExW   00439601 f   libcpmt:winapisupp.obj
 0001:00038659       ___crtCreateThreadpoolTimer 00439659 f   libcpmt:winapisupp.obj
 0001:00038685       ___crtCreateThreadpoolWait 00439685 f   libcpmt:winapisupp.obj
 0001:000386b1       ___crtFlushProcessWriteBuffers 004396b1 f   libcpmt:winapisupp.obj
 0001:000386cc       ___crtFreeLibraryWhenCallbackReturns 004396cc f   libcpmt:winapisupp.obj
 0001:000386f1       ___crtGetCurrentProcessorNumber 004396f1 f   libcpmt:winapisupp.obj
 0001:00038710       ___crtGetSystemTimePreciseAsFileTime 00439710 f   libcpmt:winapisupp.obj
 0001:0003873a       ___crtGetTickCount64       0043973a f   libcpmt:winapisupp.obj
 0001:0003875f       ___crtInitOnceExecuteOnce  0043975f f   libcpmt:winapisupp.obj
 0001:000387ed       ___crtInitializeConditionVariable 004397ed f   libcpmt:winapisupp.obj
 0001:0003880d       ___crtInitializeCriticalSectionEx 0043980d f   libcpmt:winapisupp.obj
 0001:00038846       ___crtInitializeSRWLock    00439846 f   libcpmt:winapisupp.obj
 0001:00038866       ___crtReleaseSRWLockExclusive 00439866 f   libcpmt:winapisupp.obj
 0001:00038886       ___crtSetThreadpoolTimer   00439886 f   libcpmt:winapisupp.obj
 0001:000388b1       ___crtSetThreadpoolWait    004398b1 f   libcpmt:winapisupp.obj
 0001:000388d9       ___crtSleepConditionVariableCS 004398d9 f   libcpmt:winapisupp.obj
 0001:000388ff       ___crtSleepConditionVariableSRW 004398ff f   libcpmt:winapisupp.obj
 0001:00038928       ___crtTryAcquireSRWLockExclusive 00439928 f   libcpmt:winapisupp.obj
 0001:00038948       ___crtWaitForThreadpoolTimerCallbacks 00439948 f   libcpmt:winapisupp.obj
 0001:0003896d       ___crtWakeAllConditionVariable 0043996d f   libcpmt:winapisupp.obj
 0001:0003898d       ___crtWakeConditionVariable 0043998d f   libcpmt:winapisupp.obj
 0001:000389ad       _GetTableIndexFromLocaleName 004399ad f   libcpmt:winapinls.obj
 0001:000389fb       ___crtDownlevelLocaleNameToLCID 004399fb f   libcpmt:winapinls.obj
 0001:00038a25       ___crtLCMapStringEx        00439a25 f   libcpmt:winapinls.obj
 0001:00038a7c       ___wcsnicmp_ascii          00439a7c f   libcpmt:winapinls.obj
 0001:00038ae6       ??0AllocatorBucket@details@Concurrency@@QAE@XZ 00439ae6 f   libconcrt:SubAllocator.obj
 0001:00038afb       ??1AllocatorBucket@details@Concurrency@@QAE@XZ 00439afb f   libconcrt:SubAllocator.obj
 0001:00038b4f       ??1GlobalCore@details@Concurrency@@QAE@XZ 00439b4f f i libconcrt:SubAllocator.obj
 0001:00038b5c       ??_EGlobalCore@details@Concurrency@@QAEPAXI@Z 00439b5c f i libconcrt:SubAllocator.obj
 0001:00038be8       ??_H@YGXPAXIIP6EPAX0@Z@Z   00439be8 f i libconcrt:SubAllocator.obj
 0001:00038c13       ?Alloc@AllocatorBucket@details@Concurrency@@QAEPATAllocationEntry@23@XZ 00439c13 f   libconcrt:SubAllocator.obj
 0001:00038c2c       ?Alloc@SubAllocator@details@Concurrency@@QAEPAXI@Z 00439c2c f   libconcrt:SubAllocator.obj
 0001:00038c7c       ?Free@AllocatorBucket@details@Concurrency@@QAE_NPATAllocationEntry@23@@Z 00439c7c f   libconcrt:SubAllocator.obj
 0001:00038ca6       ?Free@Concurrency@@YAXPAX@Z 00439ca6 f   libconcrt:SubAllocator.obj
 0001:00038cee       ?Free@SubAllocator@details@Concurrency@@QAEXPAX@Z 00439cee f   libconcrt:SubAllocator.obj
 0001:00038d25       ?GetBucketIndex@SubAllocator@details@Concurrency@@SAHI@Z 00439d25 f   libconcrt:SubAllocator.obj
 0001:00038d76       ?StaticAlloc@SubAllocator@details@Concurrency@@SAPAXI@Z 00439d76 f   libconcrt:SubAllocator.obj
 0001:00038daf       ?Block@Context@Concurrency@@SAXXZ 00439daf f   libconcrt:Context.obj
 0001:00038dea       ?CurrentContext@Context@Concurrency@@SAPAV12@XZ 00439dea f   libconcrt:Context.obj
 0001:00038e0c       ?_CurrentContext@_Context@details@Concurrency@@SA?AV123@XZ 00439e0c f   libconcrt:Context.obj
 0001:00038e3b       ?_IsSynchronouslyBlocked@_Context@details@Concurrency@@QBE_NXZ 00439e3b f   libconcrt:Context.obj
 0001:00038e53       ?_Yield@_Context@details@Concurrency@@SAXXZ 00439e53 f   libconcrt:Context.obj
 0001:00038e8e       ?GetNumberOfVirtualProcessors@CurrentScheduler@Concurrency@@SAIXZ 00439e8e f   libconcrt:CurrentScheduler.obj
 0001:00038eb4       ?_GetNumberOfVirtualProcessors@_CurrentScheduler@details@Concurrency@@SAIXZ 00439eb4 f   libconcrt:CurrentScheduler.obj
 0001:00038ed1       ??0LockQueueNode@details@Concurrency@@QAE@I@Z 00439ed1 f i libconcrt:rtlocks.obj
 0001:00038f93       ??0_ReentrantBlockingLock@details@Concurrency@@QAE@XZ 00439f93 f   libconcrt:rtlocks.obj
 0001:00038f93       ??0_NonReentrantBlockingLock@details@Concurrency@@QAE@XZ 00439f93 f   libconcrt:rtlocks.obj
 0001:00038fa8       ??0_ReaderWriterLock@details@Concurrency@@QAE@XZ 00439fa8 f   libconcrt:rtlocks.obj
 0001:00038fb8       ??0critical_section@Concurrency@@QAE@XZ 00439fb8 f   libconcrt:rtlocks.obj
 0001:00038fd8       ??0improper_lock@Concurrency@@QAE@ABV01@@Z 00439fd8 f i libconcrt:rtlocks.obj
 0001:00038ff3       ??0scoped_lock@critical_section@Concurrency@@QAE@AAV12@@Z 00439ff3 f   libconcrt:rtlocks.obj
 0001:0003901d       ??1_ReentrantBlockingLock@details@Concurrency@@QAE@XZ 0043a01d f   libconcrt:rtlocks.obj
 0001:0003901d       ??1_NonReentrantBlockingLock@details@Concurrency@@QAE@XZ 0043a01d f   libconcrt:rtlocks.obj
 0001:00039025       ??1scoped_lock@critical_section@Concurrency@@QAE@XZ 0043a025 f   libconcrt:rtlocks.obj
 0001:0003905d       ?Block@LockQueueNode@details@Concurrency@@QAEXI@Z 0043a05d f i libconcrt:rtlocks.obj
 0001:000390e5       ?DerefTimerNode@LockQueueNode@details@Concurrency@@QAEXXZ 0043a0e5 f i libconcrt:rtlocks.obj
 0001:00039104       ?DispatchNodeTimeoutTimer@LockQueueNode@details@Concurrency@@SGXPAU_TP_CALLBACK_INSTANCE@@PAXPAU_TP_TIMER@@@Z 0043a104 f i libconcrt:rtlocks.obj
 0001:0003914b       ?DispatchNodeTimeoutTimerXP@LockQueueNode@details@Concurrency@@SGXPAXE@Z 0043a14b f i libconcrt:rtlocks.obj
 0001:00039198       ?TryCompensateTimer@LockQueueNode@details@Concurrency@@QAEXXZ 0043a198 f i libconcrt:rtlocks.obj
 0001:000391bd       ?Unblock@LockQueueNode@details@Concurrency@@QAE_NXZ 0043a1bd f i libconcrt:rtlocks.obj
 0001:000391ef       ?UpdateQueuePosition@LockQueueNode@details@Concurrency@@QAEXPAV123@@Z 0043a1ef f i libconcrt:rtlocks.obj
 0001:00039259       ?WaitForNextNode@LockQueueNode@details@Concurrency@@QAEPAV123@XZ 0043a259 f i libconcrt:rtlocks.obj
 0001:00039286       ?_Acquire@_NonReentrantBlockingLock@details@Concurrency@@QAEXXZ 0043a286 f   libconcrt:rtlocks.obj
 0001:00039286       ?_Acquire@_ReentrantBlockingLock@details@Concurrency@@QAEXXZ 0043a286 f   libconcrt:rtlocks.obj
 0001:0003928e       ?_AcquireRead@_ReaderWriterLock@details@Concurrency@@QAEXXZ 0043a28e f   libconcrt:rtlocks.obj
 0001:000392be       ?_AcquireWrite@_ReaderWriterLock@details@Concurrency@@QAEXXZ 0043a2be f   libconcrt:rtlocks.obj
 0001:000392ec       ?_Acquire_lock@critical_section@Concurrency@@QAE_NPAX_N@Z 0043a2ec f   libconcrt:rtlocks.obj
 0001:00039389       ?_FlushWriteOwners@_ReaderWriterLock@details@Concurrency@@QAEXXZ 0043a389 f   libconcrt:rtlocks.obj
 0001:0003939f       ?_Flush_current_owner@critical_section@Concurrency@@QAEXXZ 0043a39f f   libconcrt:rtlocks.obj
 0001:000393b7       ?_Initialize@_SpinCount@details@Concurrency@@SAXXZ 0043a3b7 f   libconcrt:rtlocks.obj
 0001:000393ce       ?_Release@_ReentrantBlockingLock@details@Concurrency@@QAEXXZ 0043a3ce f   libconcrt:rtlocks.obj
 0001:000393ce       ?_Release@_NonReentrantBlockingLock@details@Concurrency@@QAEXXZ 0043a3ce f   libconcrt:rtlocks.obj
 0001:000393d6       ?_ReleaseRead@_ReaderWriterLock@details@Concurrency@@QAEXXZ 0043a3d6 f   libconcrt:rtlocks.obj
 0001:000393da       ?_ReleaseWrite@_ReaderWriterLock@details@Concurrency@@QAEXXZ 0043a3da f   libconcrt:rtlocks.obj
 0001:000393e5       ?_SetSpinCount@?$_SpinWait@$0A@@details@Concurrency@@QAEXI@Z 0043a3e5 f i libconcrt:rtlocks.obj
 0001:00039404       ?_SpinOnce@?$_SpinWait@$0A@@details@Concurrency@@QAE_NXZ 0043a404 f i libconcrt:rtlocks.obj
 0001:0003947b       ?_Switch_to_active@critical_section@Concurrency@@AAEXPAX@Z 0043a47b f   libconcrt:rtlocks.obj
 0001:000394ca       ?_TryAcquireWrite@_ReaderWriterLock@details@Concurrency@@QAE_NXZ 0043a4ca f   libconcrt:rtlocks.obj
 0001:000394e1       ?_Value@_SpinCount@details@Concurrency@@SAIXZ 0043a4e1 f   libconcrt:rtlocks.obj
 0001:000394e7       ?_WaitEquals@_ReaderWriterLock@details@Concurrency@@CAXADJJJ@Z 0043a4e7 f   libconcrt:rtlocks.obj
 0001:00039524       ?lock@critical_section@Concurrency@@QAEXXZ 0043a524 f   libconcrt:rtlocks.obj
 0001:00039554       ?try_lock@critical_section@Concurrency@@QAE_NXZ 0043a554 f   libconcrt:rtlocks.obj
 0001:000395a1       ?try_lock_for@critical_section@Concurrency@@QAE_NI@Z 0043a5a1 f   libconcrt:rtlocks.obj
 0001:000395ff       ?unlock@critical_section@Concurrency@@QAEXXZ 0043a5ff f   libconcrt:rtlocks.obj
 0001:00039670       __concrt_static_cleanup    0043a670 f   libconcrt:utils.obj
 0001:0003967e       ??0scheduler_resource_allocation_error@Concurrency@@QAE@ABV01@@Z 0043a67e f i libconcrt:utils.obj
 0001:000396a2       ??_Escheduler_worker_creation_error@Concurrency@@UAEPAXI@Z 0043a6a2 f i libconcrt:Exceptions.obj
 0001:000396a2       ??_Escheduler_resource_allocation_error@Concurrency@@UAEPAXI@Z 0043a6a2 f i libconcrt:utils.obj
 0001:000396a2       ??_Gscheduler_resource_allocation_error@Concurrency@@UAEPAXI@Z 0043a6a2 f i libconcrt:utils.obj
 0001:000396a2       ??_Gscheduler_worker_creation_error@Concurrency@@UAEPAXI@Z 0043a6a2 f i libconcrt:Exceptions.obj
 0001:000396cf       ?EncodePointer@Security@details@Concurrency@@SAPAXPAX@Z 0043a6cf f   libconcrt:utils.obj
 0001:000396cf       ?DecodePointer@Security@details@Concurrency@@SAPAXPAX@Z 0043a6cf f   libconcrt:utils.obj
 0001:000396dc       ?DeleteAsyncTimerAndUnloadLibrary@details@Concurrency@@YAXPAU_TP_TIMER@@@Z 0043a6dc f   libconcrt:utils.obj
 0001:00039718       ?FreeLibraryAndDestroyThread@details@Concurrency@@YAXK@Z 0043a718 f   libconcrt:utils.obj
 0001:00039742       ?InitializeCookie@Security@details@Concurrency@@SAKXZ 0043a742 f   libconcrt:utils.obj
 0001:00039790       ?LoadLibraryAndCreateThread@details@Concurrency@@YAPAXPAU_SECURITY_ATTRIBUTES@@KP6GKPAX@Z1KPAK@Z 0043a790 f   libconcrt:utils.obj
 0001:000397d6       ?ReferenceLoadLibrary@details@Concurrency@@YAXXZ 0043a7d6 f   libconcrt:utils.obj
 0001:0003986c       ?RegisterAsyncTimerAndLoadLibrary@details@Concurrency@@YAPAU_TP_TIMER@@KP6GXPAU_TP_CALLBACK_INSTANCE@@PAXPAU3@@Z1_N@Z 0043a86c f   libconcrt:utils.obj
 0001:000398cd       ?RegisterAsyncWaitAndLoadLibrary@details@Concurrency@@YAPAU_TP_WAIT@@PAXP6GXPAU_TP_CALLBACK_INSTANCE@@0PAU3@K@Z0@Z 0043a8cd f   libconcrt:utils.obj
 0001:00039906       ?UnRegisterAsyncTimerAndUnloadLibrary@details@Concurrency@@YAXPAU_TP_CALLBACK_INSTANCE@@PAU_TP_TIMER@@@Z 0043a906 f   libconcrt:utils.obj
 0001:0003993c       ?UnRegisterAsyncWaitAndUnloadLibrary@details@Concurrency@@YAXPAU_TP_CALLBACK_INSTANCE@@PAU_TP_WAIT@@@Z 0043a93c f   libconcrt:utils.obj
 0001:00039971       ?_Acquire@_HyperNonReentrantLock@details@Concurrency@@QAEXXZ 0043a971 f   libconcrt:utils.obj
 0001:00039971       ?_Acquire@_CriticalNonReentrantLock@details@Concurrency@@QAEXXZ 0043a971 f   libconcrt:utils.obj
 0001:00039981       ?_Acquire@_NonReentrantLock@details@Concurrency@@QAEXXZ 0043a981 f i libconcrt:utils.obj
 0001:000399b4       ?_Release@_CriticalNonReentrantLock@details@Concurrency@@QAEXXZ 0043a9b4 f   libconcrt:utils.obj
 0001:000399b4       ?_Release@_HyperNonReentrantLock@details@Concurrency@@QAEXXZ 0043a9b4 f   libconcrt:utils.obj
 0001:000399bf       ?_Sleep0@details@Concurrency@@YAXXZ 0043a9bf f   libconcrt:utils.obj
 0001:000399c8       ?_TryAcquire@_CriticalNonReentrantLock@details@Concurrency@@QAE_NXZ 0043a9c8 f   libconcrt:utils.obj
 0001:000399ed       ?_UnderlyingYield@details@Concurrency@@YAXXZ 0043a9ed f   libconcrt:utils.obj
 0001:00039a14       ??$atomic_compare_exchange@J@details@Concurrency@@YAJAAU?$atomic@J@std@@JJ@Z 0043aa14 f i libconcrt:Chores.obj
 0001:00039a3b       ??0?$unique_lock@Vmutex@std@@@std@@QAE@AAVmutex@1@@Z 0043aa3b f i libconcrt:Chores.obj
 0001:00039a67       ??0CancellationTokenRegistration_TaskProc@details@Concurrency@@QAE@P6AXPAX@Z0H@Z 0043aa67 f i libconcrt:Chores.obj
 0001:00039a94       ??0_CancellationTokenRegistration@details@Concurrency@@QAE@J@Z 0043aa94 f i libconcrt:Chores.obj
 0001:00039adf       ??0_Interruption_exception@details@Concurrency@@QAE@ABV012@@Z 0043aadf f i libconcrt:Chores.obj
 0001:00039afa       ??0_Interruption_exception@details@Concurrency@@QAE@XZ 0043aafa f i libconcrt:Chores.obj
 0001:00039b0b       ??0missing_wait@Concurrency@@QAE@ABV01@@Z 0043ab0b f i libconcrt:Chores.obj
 0001:00039b26       ??1?$lock_guard@Vmutex@std@@@std@@QAE@XZ 0043ab26 f i libconcrt:Chores.obj
 0001:00039b6a       ??1?$unique_lock@Vmutex@std@@@std@@QAE@XZ 0043ab6a f i libconcrt:Chores.obj
 0001:00039bb4       ??1_CancellationTokenRegistration@details@Concurrency@@MAE@XZ 0043abb4 f i libconcrt:Chores.obj
 0001:00039bd9       ??_GCancellationTokenRegistration_TaskProc@details@Concurrency@@UAEPAXI@Z 0043abd9 f i libconcrt:Chores.obj
 0001:00039bd9       ??_ECancellationTokenRegistration_TaskProc@details@Concurrency@@UAEPAXI@Z 0043abd9 f i libconcrt:Chores.obj
 0001:00039bfb       ??_E_CancellationTokenRegistration@details@Concurrency@@MAEPAXI@Z 0043abfb f i libconcrt:Chores.obj
 0001:00039bfb       ??_G_CancellationTokenRegistration@details@Concurrency@@MAEPAXI@Z 0043abfb f i libconcrt:Chores.obj
 0001:00039c1d       ??_E_RefCounter@details@Concurrency@@UAEPAXI@Z 0043ac1d f i libconcrt:Chores.obj
 0001:00039c1d       ??_G_RefCounter@details@Concurrency@@UAEPAXI@Z 0043ac1d f i libconcrt:Chores.obj
 0001:00039c40       ?AddTail@?$List@UListEntry@details@Concurrency@@VNoCount@CollectionTypes@23@@details@Concurrency@@QAEXPAUListEntry@23@@Z 0043ac40 f i libconcrt:Chores.obj
 0001:00039c6f       ?AddTail@?$SafeRWList@UListEntry@details@Concurrency@@VNoCount@CollectionTypes@23@V_ReaderWriterLock@23@@details@Concurrency@@QAEXPAUListEntry@23@@Z 0043ac6f f i libconcrt:Chores.obj
 0001:00039ca3       ?Remove@?$List@UListEntry@details@Concurrency@@VNoCount@CollectionTypes@23@@details@Concurrency@@QAEXPAUListEntry@23@@Z 0043aca3 f i libconcrt:Chores.obj
 0001:00039cd1       ?Remove@?$SafeRWList@UListEntry@details@Concurrency@@VNoCount@CollectionTypes@23@V_ReaderWriterLock@23@@details@Concurrency@@QAEXPAUListEntry@23@@Z 0043acd1 f i libconcrt:Chores.obj
 0001:00039d05       ?_Atomic_compare_exchange_strong_4@std@@YAHPCKPAKKW4memory_order@1@2@Z 0043ad05 f i libconcrt:Chores.obj
 0001:00039d75       ?_CancelViaToken@_UnrealizedChore@details@Concurrency@@CAXPAVContextBase@23@@Z 0043ad75 f   libconcrt:Chores.obj
 0001:00039d9c       ?_CheckTaskCollection@_UnrealizedChore@details@Concurrency@@IAEXXZ 0043ad9c f   libconcrt:Chores.obj
 0001:00039de7       ?_Compare_exchange_relaxed_4@std@@YAHPCKPAKK@Z 0043ade7 f i libconcrt:Chores.obj
 0001:00039de7       ?_Compare_exchange_release_4@std@@YAHPCKPAKK@Z 0043ade7 f i libconcrt:Chores.obj
 0001:00039de7       ?_Compare_exchange_seq_cst_4@std@@YAHPCKPAKK@Z 0043ade7 f i libconcrt:Chores.obj
 0001:00039de7       ?_Compare_exchange_acquire_4@std@@YAHPCKPAKK@Z 0043ade7 f i libconcrt:Chores.obj
 0001:00039e0e       ?_DeregisterCallback@_CancellationTokenState@details@Concurrency@@QAEXPAV_CancellationTokenRegistration@23@@Z 0043ae0e f i libconcrt:Chores.obj
 0001:00039ee9       ?_Destroy@_RefCounter@details@Concurrency@@MAEXXZ 0043aee9 f i libconcrt:Chores.obj
 0001:00039f06       ?_Exec@CancellationTokenRegistration_TaskProc@details@Concurrency@@MAEXXZ 0043af06 f i libconcrt:Chores.obj
 0001:00039f1a       ?_InternalFree@_UnrealizedChore@details@Concurrency@@CAXPAV123@@Z 0043af1a f   libconcrt:Chores.obj
 0001:00039f38       ?_Invoke@_CancellationTokenRegistration@details@Concurrency@@AAEXXZ 0043af38 f i libconcrt:Chores.obj
 0001:00039fe1       ?_PrepareSteal@_UnrealizedChore@details@Concurrency@@QAEXPAVContextBase@23@@Z 0043afe1 f   libconcrt:Chores.obj
 0001:00039ff9       ?_PrepareStealStructured@_UnrealizedChore@details@Concurrency@@AAEXPAVContextBase@23@@Z 0043aff9 f   libconcrt:Chores.obj
 0001:0003a02f       ?_PrepareStealUnstructured@_UnrealizedChore@details@Concurrency@@AAEXPAVContextBase@23@@Z 0043b02f f   libconcrt:Chores.obj
 0001:0003a09a       ?_RegisterCallback@_CancellationTokenState@details@Concurrency@@QAEPAV_CancellationTokenRegistration@23@P6AXPAX@Z0H@Z 0043b09a f i libconcrt:Chores.obj
 0001:0003a0d9       ?_RegisterCallback@_CancellationTokenState@details@Concurrency@@QAEXPAV_CancellationTokenRegistration@23@@Z 0043b0d9 f i libconcrt:Chores.obj
 0001:0003a161       ?_Release@_RefCounter@details@Concurrency@@QAEJXZ 0043b161 f i libconcrt:Chores.obj
 0001:0003a188       ?_SetDetached@_UnrealizedChore@details@Concurrency@@QAEX_N@Z 0043b188 f   libconcrt:Chores.obj
 0001:0003a195       ?_StructuredChoreWrapper@_UnrealizedChore@details@Concurrency@@CAXPAV123@@Z 0043b195 f   libconcrt:Chores.obj
 0001:0003a2fb       ?_TaskCleanup@_StructuredTaskCollection@details@Concurrency@@AAE_NXZ 0043b2fb f i libconcrt:Chores.obj
 0001:0003a313       ?push_back@TokenRegistrationContainer@_CancellationTokenState@details@Concurrency@@QAEXPAV_CancellationTokenRegistration@34@@Z 0043b313 f i libconcrt:Chores.obj
 0001:0003a351       ?remove@TokenRegistrationContainer@_CancellationTokenState@details@Concurrency@@QAEXPAV_CancellationTokenRegistration@34@@Z 0043b351 f i libconcrt:Chores.obj
 0001:0003a396       ?wait@condition_variable@std@@QAEXAAV?$unique_lock@Vmutex@std@@@2@@Z 0043b396 f i libconcrt:Chores.obj
 0001:0003a3b5       ??0_TaskCollection@details@Concurrency@@AAE@PAV012@_N@Z 0043b3b5 f   libconcrt:TaskCollection.obj
 0001:0003a4c1       ??0invalid_multiple_scheduling@Concurrency@@QAE@ABV01@@Z 0043b4c1 f i libconcrt:TaskCollection.obj
 0001:0003a4dc       ??1?$_MallocaArrayHolder@PAVevent@Concurrency@@@details@Concurrency@@UAE@XZ 0043b4dc f i libconcrt:TaskCollection.obj
 0001:0003a4ec       ??1_Scoped_lock_read@?$SafeRWList@UListEntry@details@Concurrency@@VNoCount@CollectionTypes@23@V_ReaderWriterLock@23@@details@Concurrency@@QAE@XZ 0043b4ec f i libconcrt:TaskCollection.obj
 0001:0003a527       ??1_StructuredTaskCollection@details@Concurrency@@QAE@XZ 0043b527 f   libconcrt:TaskCollection.obj
 0001:0003a5a2       ??1_TaskCollection@details@Concurrency@@QAE@XZ 0043b5a2 f   libconcrt:TaskCollection.obj
 0001:0003a66a       ??1exception_ptr@std@@QAE@XZ 0043b66a f i libconcrt:TaskCollection.obj
 0001:0003a6a2       ??_E?$_MallocaArrayHolder@PAVevent@Concurrency@@@details@Concurrency@@UAEPAXI@Z 0043b6a2 f i libconcrt:TaskCollection.obj
 0001:0003a6a2       ??_G?$_MallocaArrayHolder@PAVevent@Concurrency@@@details@Concurrency@@UAEPAXI@Z 0043b6a2 f i libconcrt:TaskCollection.obj
 0001:0003a6ce       ??_GTaskStack@details@Concurrency@@QAEPAXI@Z 0043b6ce f i libconcrt:TaskCollection.obj
 0001:0003a6fa       ??_Gexception_ptr@std@@QAEPAXI@Z 0043b6fa f i libconcrt:TaskCollection.obj
 0001:0003a74e       ?Find@?$Hash@PAV_TaskCollection@details@Concurrency@@PAV123@@details@Concurrency@@QAEPAUListNode@123@ABQAV_TaskCollection@23@PAPAV523@@Z 0043b74e f i libconcrt:TaskCollection.obj
 0001:0003a74e       ?Find@?$Hash@II@details@Concurrency@@QAEPAUListNode@123@ABIPAI@Z 0043b74e f i libconcrt:SchedulerBase.obj
 0001:0003a784       ?FindAndDelete@?$Hash@PAV_TaskCollection@details@Concurrency@@PAV123@@details@Concurrency@@QAE_NABQAV_TaskCollection@23@PAPAV423@@Z 0043b784 f i libconcrt:TaskCollection.obj
 0001:0003a7c6       ?GetArbitraryAlias@ContextBase@details@Concurrency@@QAEPAV_TaskCollection@23@PAV423@@Z 0043b7c6 f i libconcrt:TaskCollection.obj
 0001:0003a82a       ?HashValue@?$Hash@II@details@Concurrency@@CAIABIH@Z 0043b82a f i libconcrt:SchedulerBase.obj
 0001:0003a82a       ?HashValue@?$Hash@PAV_TaskCollection@details@Concurrency@@PAV123@@details@Concurrency@@CAIABQAV_TaskCollection@23@H@Z 0043b82a f i libconcrt:TaskCollection.obj
 0001:0003a856       ?Insert@?$Hash@II@details@Concurrency@@QAEPAUListNode@123@ABI0@Z 0043b856 f i libconcrt:SchedulerBase.obj
 0001:0003a856       ?Insert@?$Hash@PAV_TaskCollection@details@Concurrency@@PAV123@@details@Concurrency@@QAEPAUListNode@123@ABQAV_TaskCollection@23@0@Z 0043b856 f i libconcrt:TaskCollection.obj
 0001:0003a8c0       ?Lookup@?$Hash@II@details@Concurrency@@AAEPAUListNode@123@ABIH@Z 0043b8c0 f i libconcrt:SchedulerBase.obj
 0001:0003a8c0       ?Lookup@?$Hash@PAV_TaskCollection@details@Concurrency@@PAV123@@details@Concurrency@@AAEPAUListNode@123@ABQAV_TaskCollection@23@H@Z 0043b8c0 f i libconcrt:TaskCollection.obj
 0001:0003a8ea       ?Remove@?$Hash@PAV_TaskCollection@details@Concurrency@@PAV123@@details@Concurrency@@AAEPAUListNode@123@ABQAV_TaskCollection@23@H@Z 0043b8ea f i libconcrt:TaskCollection.obj
 0001:0003a93a       ?_Abort@_StructuredTaskCollection@details@Concurrency@@AAEXXZ 0043b93a f   libconcrt:TaskCollection.obj
 0001:0003a9f0       ?_Abort@_TaskCollection@details@Concurrency@@AAEX_N@Z 0043b9f0 f   libconcrt:TaskCollection.obj
 0001:0003ab40       ?_AbortiveSweep@_TaskCollection@details@Concurrency@@AAEXPAX@Z 0043bb40 f   libconcrt:TaskCollection.obj
 0001:0003ab8a       ?_Alias@_TaskCollection@details@Concurrency@@AAEPAV123@XZ 0043bb8a f   libconcrt:TaskCollection.obj
 0001:0003ac4d       ?_Cancel@_StructuredTaskCollection@details@Concurrency@@QAEXXZ 0043bc4d f   libconcrt:TaskCollection.obj
 0001:0003acbe       ?_Cancel@_TaskCollection@details@Concurrency@@AAEX_NPAV123@@Z 0043bcbe f   libconcrt:TaskCollection.obj
 0001:0003ad6a       ?_CancelDirectAliases@_TaskCollection@details@Concurrency@@AAEX_NPAV123@@Z 0043bd6a f   libconcrt:TaskCollection.obj
 0001:0003ad89       ?_CancelFromArbitraryThread@_TaskCollection@details@Concurrency@@AAEX_N@Z 0043bd89 f   libconcrt:TaskCollection.obj
 0001:0003ae2e       ?_CancelStolenContexts@_TaskCollection@details@Concurrency@@AAEX_N0@Z 0043be2e f   libconcrt:TaskCollection.obj
 0001:0003aeb9       ?_CleanupToken@_StructuredTaskCollection@details@Concurrency@@AAEXXZ 0043beb9 f   libconcrt:TaskCollection.obj
 0001:0003aef7       ?_CollectionMatchPredicate@_TaskCollection@details@Concurrency@@CA_NPAV_UnrealizedChore@23@PAX@Z 0043bef7 f   libconcrt:TaskCollection.obj
 0001:0003af0a       ?_CountUp@_StructuredTaskCollection@details@Concurrency@@AAEXXZ 0043bf0a f   libconcrt:TaskCollection.obj
 0001:0003af3a       ?_FullAliasWait@_TaskCollection@details@Concurrency@@AAEXPAV123@@Z 0043bf3a f   libconcrt:TaskCollection.obj
 0001:0003b017       ?_GetStealTrackingList@_TaskCollection@details@Concurrency@@ABEPAXXZ 0043c017 f   libconcrt:TaskCollection.obj
 0001:0003b01b       ?_InitOnRawMalloca@?$_MallocaArrayHolder@PAVevent@Concurrency@@@details@Concurrency@@QAEPAPAVevent@3@PAX@Z 0043c01b f i libconcrt:TaskCollection.obj
 0001:0003b01b       ?_InitOnRawMalloca@?$_MallocaArrayHolder@PAVContext@Concurrency@@@details@Concurrency@@QAEPAPAVContext@3@PAX@Z 0043c01b f i libconcrt:event.obj
 0001:0003b04c       ?_Initialize@_StructuredTaskCollection@details@Concurrency@@AAEXXZ 0043c04c f   libconcrt:TaskCollection.obj
 0001:0003b099       ?_Initialize@_TaskCollection@details@Concurrency@@AAEXXZ 0043c099 f   libconcrt:TaskCollection.obj
 0001:0003b0af       ?_IsMarkedForAbnormalExit@_TaskCollection@details@Concurrency@@QBE_NXZ 0043c0af f   libconcrt:TaskCollection.obj
 0001:0003b0ba       ?_IsStaleAlias@_TaskCollection@details@Concurrency@@ABE_NXZ 0043c0ba f   libconcrt:TaskCollection.obj
 0001:0003b0c2       ?_NotifyCompletedChoreAndFree@_TaskCollection@details@Concurrency@@AAEXPAV_UnrealizedChore@23@@Z 0043c0c2 f   libconcrt:TaskCollection.obj
 0001:0003b113       ?_OriginalCollection@_TaskCollection@details@Concurrency@@QBEPAV123@XZ 0043c113 f   libconcrt:TaskCollection.obj
 0001:0003b117       ?_ReleaseAlias@_TaskCollection@details@Concurrency@@AAEXXZ 0043c117 f   libconcrt:TaskCollection.obj
 0001:0003b151       ?_Reset@_TaskCollection@details@Concurrency@@AAEXPAV123@@Z 0043c151 f   libconcrt:TaskCollection.obj
 0001:0003b24c       ?_RunAndWait@_StructuredTaskCollection@details@Concurrency@@QAG?AW4_TaskCollectionStatus@23@PAV_UnrealizedChore@23@@Z 0043c24c f   libconcrt:TaskCollection.obj
 0001:0003b506       ?_Schedule@_StructuredTaskCollection@details@Concurrency@@QAEXPAV_UnrealizedChore@23@@Z 0043c506 f   libconcrt:TaskCollection.obj
 0001:0003b578       ?_SetCancelState@_TaskCollection@details@Concurrency@@AAE_NJ@Z 0043c578 f   libconcrt:TaskCollection.obj
 0001:0003b5b2       ?_SweepAbortedChore@_TaskCollection@details@Concurrency@@CA_NPAV_UnrealizedChore@23@PAX@Z 0043c5b2 f   libconcrt:TaskCollection.obj
 0001:0003b5cb       ?_TaskCleanup@_TaskCollection@details@Concurrency@@AAE_N_N@Z 0043c5cb f   libconcrt:TaskCollection.obj
 0001:0003b622       ?_WaitOnStolenChores@_StructuredTaskCollection@details@Concurrency@@AAEXJ@Z 0043c622 f   libconcrt:TaskCollection.obj
 0001:0003b658       ??$_InternalDeleteHelper@VWorkQueue@details@Concurrency@@@details@Concurrency@@YAXPAVWorkQueue@01@@Z 0043c658 f i libconcrt:ContextBase.obj
 0001:0003b677       ??0?$Hash@II@details@Concurrency@@QAE@H@Z 0043c677 f i libconcrt:SchedulerBase.obj
 0001:0003b677       ??0?$Hash@PAV_TaskCollection@details@Concurrency@@PAV123@@details@Concurrency@@QAE@H@Z 0043c677 f i libconcrt:ContextBase.obj
 0001:0003b6b5       ??0CancellationBeaconStack@ContextBase@details@Concurrency@@QAE@XZ 0043c6b5 f i libconcrt:ContextBase.obj
 0001:0003b6ce       ??0ContextBase@details@Concurrency@@QAE@PAVSchedulerBase@12@_N@Z 0043c6ce f   libconcrt:ContextBase.obj
 0001:0003b7a0       ??0Slot@?$Mailbox@V_UnrealizedChore@details@Concurrency@@@details@Concurrency@@QAE@XZ 0043c7a0 f i libconcrt:ContextBase.obj
 0001:0003b7a0       ??0Slot@?$Mailbox@VInternalContextBase@details@Concurrency@@@details@Concurrency@@QAE@XZ 0043c7a0 f i libconcrt:VirtualProcessor.obj
 0001:0003b7aa       ??0_Cancellation_beacon@details@Concurrency@@QAE@XZ 0043c7aa f   libconcrt:ContextBase.obj
 0001:0003b7db       ??1?$Hash@PAV_TaskCollection@details@Concurrency@@PAV123@@details@Concurrency@@QAE@XZ 0043c7db f i libconcrt:ContextBase.obj
 0001:0003b7db       ??1?$Hash@II@details@Concurrency@@QAE@XZ 0043c7db f i libconcrt:SchedulerBase.obj
 0001:0003b7ee       ??1?$StructuredWorkStealingQueue@V_UnrealizedChore@details@Concurrency@@V_CriticalNonReentrantLock@23@@details@Concurrency@@QAE@XZ 0043c7ee f i libconcrt:ContextBase.obj
 0001:0003b805       ??1?$WorkStealingQueue@V_UnrealizedChore@details@Concurrency@@V_CriticalNonReentrantLock@23@@details@Concurrency@@QAE@XZ 0043c805 f i libconcrt:ContextBase.obj
 0001:0003b81c       ??1CancellationBeaconStack@ContextBase@details@Concurrency@@QAE@XZ 0043c81c f i libconcrt:ContextBase.obj
 0001:0003b858       ??1Context@Concurrency@@MAE@XZ 0043c858 f i libconcrt:ContextBase.obj
 0001:0003b85f       ??1ContextBase@details@Concurrency@@UAE@XZ 0043c85f f i libconcrt:ContextBase.obj
 0001:0003b88d       ??1QuickBitSet@details@Concurrency@@QAE@XZ 0043c88d f i libconcrt:ContextBase.obj
 0001:0003b897       ??1WorkQueue@details@Concurrency@@QAE@XZ 0043c897 f i libconcrt:ContextBase.obj
 0001:0003b8bf       ??1_Cancellation_beacon@details@Concurrency@@QAE@XZ 0043c8bf f   libconcrt:ContextBase.obj
 0001:0003b917       ??1_Scoped_lock@_CriticalNonReentrantLock@details@Concurrency@@QAE@XZ 0043c917 f i libconcrt:ContextBase.obj
 0001:0003b917       ??1_Scoped_lock@_HyperNonReentrantLock@details@Concurrency@@QAE@XZ 0043c917 f i libconcrt:SchedulerBase.obj
 0001:0003b94f       ??8location@Concurrency@@QBE_NABV01@@Z 0043c94f f i libconcrt:ContextBase.obj
 0001:0003b972       ??ACancellationBeaconStack@ContextBase@details@Concurrency@@QAEPAUCancellationBeacon@123@J@Z 0043c972 f i libconcrt:ContextBase.obj
 0001:0003b9a6       ??_GContext@Concurrency@@MAEPAXI@Z 0043c9a6 f i libconcrt:ContextBase.obj
 0001:0003b9a6       ??_EContext@Concurrency@@MAEPAXI@Z 0043c9a6 f i libconcrt:ContextBase.obj
 0001:0003b9c9       ??_EContextBase@details@Concurrency@@UAEPAXI@Z 0043c9c9 f i libconcrt:ContextBase.obj
 0001:0003b9c9       ??_GContextBase@details@Concurrency@@UAEPAXI@Z 0043c9c9 f i libconcrt:ContextBase.obj
 0001:0003b9ee       ??_GSegment@?$Mailbox@VInternalContextBase@details@Concurrency@@@details@Concurrency@@QAEPAXI@Z 0043c9ee f i libconcrt:VirtualProcessor.obj
 0001:0003b9ee       ??_GSegment@?$Mailbox@V_UnrealizedChore@details@Concurrency@@@details@Concurrency@@QAEPAXI@Z 0043c9ee f i libconcrt:ContextBase.obj
 0001:0003ba1d       ?AcquirePushBeacon@CancellationBeaconStack@ContextBase@details@Concurrency@@QAEPAUCancellationBeacon@234@H@Z 0043ca1d f i libconcrt:ContextBase.obj
 0001:0003ba57       ?Add@?$ListArray@VWorkQueue@details@Concurrency@@@details@Concurrency@@QAEHPAVWorkQueue@23@@Z 0043ca57 f i libconcrt:ContextBase.obj
 0001:0003bbbb       ?AddStealer@ContextBase@details@Concurrency@@QAEXPAV123@_N@Z 0043cbbb f   libconcrt:ContextBase.obj
 0001:0003bbe5       ?CancelCollection@ContextBase@details@Concurrency@@QAEXH@Z 0043cbe5 f   libconcrt:ContextBase.obj
 0001:0003bc4c       ?CancelCollectionComplete@ContextBase@details@Concurrency@@QAE_NH@Z 0043cc4c f   libconcrt:ContextBase.obj
 0001:0003bc7c       ?CancelStealers@ContextBase@details@Concurrency@@QAEXPAV_TaskCollectionBase@23@@Z 0043cc7c f   libconcrt:ContextBase.obj
 0001:0003bd46       ?CheckForDeletion@?$ListArray@VWorkQueue@details@Concurrency@@@details@Concurrency@@AAEXXZ 0043cd46 f i libconcrt:ContextBase.obj
 0001:0003bd6c       ?CheckForDeletionBridge@?$ListArray@VWorkQueue@details@Concurrency@@@details@Concurrency@@CAXPAV123@@Z 0043cd6c f i libconcrt:ContextBase.obj
 0001:0003bd78       ?Claim@Slot@?$Mailbox@VInternalContextBase@details@Concurrency@@@details@Concurrency@@QAE_NPAPAVInternalContextBase@34@@Z 0043cd78 f i libconcrt:VirtualProcessor.obj
 0001:0003bd78       ?Claim@Slot@?$Mailbox@V_UnrealizedChore@details@Concurrency@@@details@Concurrency@@QAE_NPAPAV_UnrealizedChore@34@@Z 0043cd78 f i libconcrt:ContextBase.obj
 0001:0003bdd4       ?Cleanup@ContextBase@details@Concurrency@@QAEXXZ 0043cdd4 f   libconcrt:ContextBase.obj
 0001:0003be05       ?ClearAliasTable@ContextBase@details@Concurrency@@QAEXXZ 0043ce05 f   libconcrt:ContextBase.obj
 0001:0003be46       ?ClearContextTls@ContextBase@details@Concurrency@@AAEXXZ 0043ce46 f   libconcrt:ContextBase.obj
 0001:0003be56       ?CreateStructuredWorkQueue@ContextBase@details@Concurrency@@QAEXXZ 0043ce56 f   libconcrt:ContextBase.obj
 0001:0003bed6       ?CreateWorkQueue@ContextBase@details@Concurrency@@QAEXXZ 0043ced6 f   libconcrt:ContextBase.obj
 0001:0003bf56       ?DeleteElements@?$ListArray@VWorkQueue@details@Concurrency@@@details@Concurrency@@AAEXPAU_SINGLE_LIST_ENTRY@@@Z 0043cf56 f i libconcrt:ContextBase.obj
 0001:0003bf74       ?DetachStealers@ContextBase@details@Concurrency@@QAEXXZ 0043cf74 f   libconcrt:ContextBase.obj
 0001:0003c0ac       ?EnterCriticalRegionHelper@ContextBase@details@Concurrency@@UAEHXZ 0043d0ac f i libconcrt:ContextBase.obj
 0001:0003c0b4       ?EnterHyperCriticalRegionHelper@ContextBase@details@Concurrency@@UAEHXZ 0043d0b4 f i libconcrt:ContextBase.obj
 0001:0003c0bf       ?ExitCriticalRegionHelper@ContextBase@details@Concurrency@@UAEHXZ 0043d0bf f i libconcrt:ContextBase.obj
 0001:0003c0c7       ?ExitHyperCriticalRegionHelper@ContextBase@details@Concurrency@@UAEHXZ 0043d0c7 f i libconcrt:ContextBase.obj
 0001:0003c0d2       ?FlagCancellationBeacons@ContextBase@details@Concurrency@@QAEXH@Z 0043d0d2 f   libconcrt:ContextBase.obj
 0001:0003c11a       ?GetCriticalRegionType@ContextBase@details@Concurrency@@UBE?AW4CriticalRegionType@3@XZ 0043d11a f i libconcrt:ContextBase.obj
 0001:0003c12e       ?GetIndirectAlias@ContextBase@details@Concurrency@@QBEPAV_TaskCollection@23@XZ 0043d12e f   libconcrt:ContextBase.obj
 0001:0003c132       ?GetScheduleGroup@ContextBase@details@Concurrency@@QBEPAVScheduleGroupBase@23@XZ 0043d132 f   libconcrt:ContextBase.obj
 0001:0003c143       ?GetScheduleGroupId@ContextBase@details@Concurrency@@UBEIXZ 0043d143 f   libconcrt:ContextBase.obj
 0001:0003c16b       ?GetAvailableNodeCount@ResourceManager@details@Concurrency@@UBEIXZ 0043d16b f   libconcrt:ResourceManager.obj
 0001:0003c16b       ?GetScheduleGroupSegment@ContextBase@details@Concurrency@@QBEPAVScheduleGroupSegmentBase@23@XZ 0043d16b f   libconcrt:ContextBase.obj
 0001:0003c16f       ?Id@ScheduleGroupBase@details@Concurrency@@UBEIXZ 0043d16f f   libconcrt:SchedulerBase.obj
 0001:0003c16f       ?GetScheduler@ContextBase@details@Concurrency@@QBEPAVSchedulerBase@23@XZ 0043d16f f   libconcrt:ContextBase.obj
 0001:0003c173       ?Grow@CancellationBeaconStack@ContextBase@details@Concurrency@@AAEXXZ 0043d173 f i libconcrt:ContextBase.obj
 0001:0003c22d       ?GrowAndPush@?$StructuredWorkStealingQueue@V_UnrealizedChore@details@Concurrency@@V_CriticalNonReentrantLock@23@@details@Concurrency@@AAEXPAV_UnrealizedChore@23@VSlot@?$Mailbox@V_UnrealizedChore@details@Concurrency@@@23@@Z 0043d22d f i libconcrt:ContextBase.obj
 0001:0003c22d       ?GrowAndPush@?$StructuredWorkStealingQueue@VInternalContextBase@details@Concurrency@@V_HyperNonReentrantLock@23@@details@Concurrency@@AAEXPAVInternalContextBase@23@VSlot@?$Mailbox@VInternalContextBase@details@Concurrency@@@23@@Z 0043d22d f i libconcrt:InternalContextBase.obj
 0001:0003c3a5       ?IsCanceledAtDepth@ContextBase@details@Concurrency@@AAE_NPAV_TaskCollectionBase@23@H@Z 0043d3a5 f   libconcrt:ContextBase.obj
 0001:0003c490       ?IsCancellationVisible@ContextBase@details@Concurrency@@QBE_NPAV_TaskCollectionBase@23@_N@Z 0043d490 f   libconcrt:ContextBase.obj
 0001:0003c4c8       ?LockedSetOwningContext@WorkQueue@details@Concurrency@@QAEXPAVContextBase@23@@Z 0043d4c8 f i libconcrt:ContextBase.obj
 0001:0003c4eb       ?NextList@?$Hash@PAV_TaskCollection@details@Concurrency@@PAV123@@details@Concurrency@@AAEPAUListNode@123@PAH@Z 0043d4eb f i libconcrt:ContextBase.obj
 0001:0003c51c       ?Pop@?$StructuredWorkStealingQueue@V_UnrealizedChore@details@Concurrency@@V_CriticalNonReentrantLock@23@@details@Concurrency@@QAEPAV_UnrealizedChore@23@XZ 0043d51c f i libconcrt:ContextBase.obj
 0001:0003c51c       ?Pop@?$StructuredWorkStealingQueue@VInternalContextBase@details@Concurrency@@V_HyperNonReentrantLock@23@@details@Concurrency@@QAEPAVInternalContextBase@23@XZ 0043d51c f i libconcrt:VirtualProcessor.obj
 0001:0003c56a       ?Pop@?$WorkStealingQueue@V_UnrealizedChore@details@Concurrency@@V_CriticalNonReentrantLock@23@@details@Concurrency@@QAEPAV_UnrealizedChore@23@XZ 0043d56a f i libconcrt:ContextBase.obj
 0001:0003c5bb       ?PopContextFromTls@ContextBase@details@Concurrency@@AAEPAV123@XZ 0043d5bb f   libconcrt:ContextBase.obj
 0001:0003c5d9       ?PopGoverningTokenState@ContextBase@details@Concurrency@@QAEXPAV_CancellationTokenState@23@@Z 0043d5d9 f   libconcrt:ContextBase.obj
 0001:0003c651       ?PopStructured@ContextBase@details@Concurrency@@QAEPAV_UnrealizedChore@23@XZ 0043d651 f   libconcrt:ContextBase.obj
 0001:0003c659       ?Push@?$StructuredWorkStealingQueue@V_UnrealizedChore@details@Concurrency@@V_CriticalNonReentrantLock@23@@details@Concurrency@@QAEXPAV_UnrealizedChore@23@@Z 0043d659 f i libconcrt:ContextBase.obj
 0001:0003c659       ?Push@?$StructuredWorkStealingQueue@VInternalContextBase@details@Concurrency@@V_HyperNonReentrantLock@23@@details@Concurrency@@QAEXPAVInternalContextBase@23@@Z 0043d659 f i libconcrt:InternalContextBase.obj
 0001:0003c69a       ?PushCancellationBeacon@ContextBase@details@Concurrency@@QAEPAU_Beacon_reference@23@XZ 0043d69a f   libconcrt:ContextBase.obj
 0001:0003c6d7       ?PushContextToTls@ContextBase@details@Concurrency@@AAEXPAV123@@Z 0043d6d7 f   libconcrt:ContextBase.obj
 0001:0003c6f2       ?PushGoverningTokenState@ContextBase@details@Concurrency@@QAEXPAV_CancellationTokenState@23@H@Z 0043d6f2 f   libconcrt:ContextBase.obj
 0001:0003c705       ?PushStructured@ContextBase@details@Concurrency@@QAEXPAV_UnrealizedChore@23@@Z 0043d705 f   libconcrt:ContextBase.obj
 0001:0003c780       ?RecomputeMaximumCancellationDepth@ContextBase@details@Concurrency@@AAEXXZ 0043d780 f   libconcrt:ContextBase.obj
 0001:0003c811       ?ReferenceForCancellation@ContextBase@details@Concurrency@@QAEXXZ 0043d811 f   libconcrt:ContextBase.obj
 0001:0003c816       ?ReleaseWorkQueue@ContextBase@details@Concurrency@@IAEXXZ 0043d816 f   libconcrt:ContextBase.obj
 0001:0003c86d       ?Remove@?$ListArray@VWorkQueue@details@Concurrency@@@details@Concurrency@@QAE_NPAVWorkQueue@23@H_N@Z 0043d86d f i libconcrt:ContextBase.obj
 0001:0003c960       ?RemoveStealer@ContextBase@details@Concurrency@@QAEXPAV123@@Z 0043d960 f   libconcrt:ContextBase.obj
 0001:0003c976       ?SetAsCurrentTls@ContextBase@details@Concurrency@@IAEXXZ 0043d976 f   libconcrt:ContextBase.obj
 0001:0003c985       ?StaticDelete@Segment@?$Mailbox@V_UnrealizedChore@details@Concurrency@@@details@Concurrency@@SAXPAU1234@@Z 0043d985 f i libconcrt:ContextBase.obj
 0001:0003c985       ?StaticDelete@Segment@?$Mailbox@VInternalContextBase@details@Concurrency@@@details@Concurrency@@SAXPAU1234@@Z 0043d985 f i libconcrt:VirtualProcessor.obj
 0001:0003c998       ?StaticExitHyperCriticalRegion@ContextBase@details@Concurrency@@SAXXZ 0043d998 f   libconcrt:ContextBase.obj
 0001:0003c998       ?StaticEnterHyperCriticalRegion@ContextBase@details@Concurrency@@SAXXZ 0043d998 f   libconcrt:ContextBase.obj
 0001:0003c998       ?StaticEnterCriticalRegion@ContextBase@details@Concurrency@@SAXXZ 0043d998 f   libconcrt:ContextBase.obj
 0001:0003c998       ?StaticExitCriticalRegion@ContextBase@details@Concurrency@@SAXXZ 0043d998 f   libconcrt:ContextBase.obj
 0001:0003c99d       ?SweepAliasTable@ContextBase@details@Concurrency@@QAEXXZ 0043d99d f   libconcrt:ContextBase.obj
 0001:0003ca21       ?SweepUnstructured@ContextBase@details@Concurrency@@QAEXP6A_NPAV_UnrealizedChore@23@PAX@Z12@Z 0043da21 f   libconcrt:ContextBase.obj
 0001:0003ca2d       ?SyncPop@?$WorkStealingQueue@V_UnrealizedChore@details@Concurrency@@V_CriticalNonReentrantLock@23@@details@Concurrency@@AAEPAV_UnrealizedChore@23@XZ 0043da2d f i libconcrt:ContextBase.obj
 0001:0003cac6       ?ThrowContextEvent@ContextBase@details@Concurrency@@KAXW4ConcRT_EventType@3@EKK@Z 0043dac6 f   libconcrt:ContextBase.obj
 0001:0003cb39       ?TokenHidesCancellation@ContextBase@details@Concurrency@@QBE_NPAV_TaskCollectionBase@23@_N@Z 0043db39 f   libconcrt:ContextBase.obj
 0001:0003cb85       ?TraceContextEvent@ContextBase@details@Concurrency@@IAEXW4ConcRT_EventType@3@EKK@Z 0043db85 f i libconcrt:ContextBase.obj
 0001:0003cbb2       ?TryPop@?$WorkStealingQueue@V_UnrealizedChore@details@Concurrency@@V_CriticalNonReentrantLock@23@@details@Concurrency@@QAEPAV_UnrealizedChore@23@H@Z 0043dbb2 f i libconcrt:ContextBase.obj
 0001:0003cc15       ?TryPopUnstructured@ContextBase@details@Concurrency@@QAEPAV_UnrealizedChore@23@H@Z 0043dc15 f   libconcrt:ContextBase.obj
 0001:0003cc24       ?Wipe@?$Hash@II@details@Concurrency@@QAEXXZ 0043dc24 f i libconcrt:SchedulerBase.obj
 0001:0003cc24       ?Wipe@?$Hash@PAV_TaskCollection@details@Concurrency@@PAV123@@details@Concurrency@@QAEXXZ 0043dc24 f i libconcrt:ContextBase.obj
 0001:0003cc71       ?_Assign@location@Concurrency@@QAEXABV12@@Z 0043dc71 f i libconcrt:ContextBase.obj
 0001:0003cca6       ?_Confirm_cancel@_Cancellation_beacon@details@Concurrency@@QAE_NXZ 0043dca6 f   libconcrt:ContextBase.obj
 0001:0003cce6       ??0Etw@details@Concurrency@@AAE@XZ 0043dce6 f   libconcrt:Trace.obj
 0001:0003cde2       ??1_Scoped_lock@_NonReentrantLock@details@Concurrency@@QAE@XZ 0043dde2 f i libconcrt:Trace.obj
 0001:0003cdeb       ?ControlCallback@details@Concurrency@@YGKW4WMIDPREQUESTCODE@@PAXPAK1@Z 0043ddeb f   libconcrt:Trace.obj
 0001:0003ceb1       ?GetEnableFlags@Etw@details@Concurrency@@QAEK_K@Z 0043deb1 f   libconcrt:Trace.obj
 0001:0003ceee       ?GetEnableLevel@Etw@details@Concurrency@@QAEE_K@Z 0043deee f   libconcrt:Trace.obj
 0001:0003cf2b       ?GetLoggerHandle@Etw@details@Concurrency@@QAE_KPAX@Z 0043df2b f   libconcrt:Trace.obj
 0001:0003cf68       ?PPL_Trace_Event@details@Concurrency@@YAXABU_GUID@@W4ConcRT_EventType@2@E@Z 0043df68 f   libconcrt:Trace.obj
 0001:0003cfcd       ?RegisterGuids@Etw@details@Concurrency@@QAEKP6GKW4WMIDPREQUESTCODE@@PAXPAK1@ZPBU_GUID@@KPAU_TRACE_GUID_REGISTRATION@@PA_K@Z 0043dfcd f   libconcrt:Trace.obj
 0001:0003d011       ?Trace@Etw@details@Concurrency@@QAEK_KPAU_EVENT_TRACE_HEADER@@@Z 0043e011 f   libconcrt:Trace.obj
 0001:0003d04a       ?UnregisterGuids@Etw@details@Concurrency@@QAEK_K@Z 0043e04a f   libconcrt:Trace.obj
 0001:0003d080       ?_RegisterConcRTEventTracing@details@Concurrency@@YAXXZ 0043e080 f   libconcrt:Trace.obj
 0001:0003d0ef       ?_Trace_ppl_function@Concurrency@@YAXABU_GUID@@EW4ConcRT_EventType@1@@Z 0043e0ef f   libconcrt:Trace.obj
 0001:0003d125       ?_UnregisterConcRTEventTracing@details@Concurrency@@YAXXZ 0043e125 f   libconcrt:Trace.obj
 0001:0003d168       ?_GetCombinableSize@details@Concurrency@@YAIXZ 0043e168 f   libconcrt:ppl.obj
 0001:0003d197       ??1DefaultWaiterPool@platform@details@Concurrency@@QAE@XZ 0043e197 f i libconcrt:Platform.obj
 0001:0003d1bc       ??1WaiterThreadPool@platform@details@Concurrency@@QAE@XZ 0043e1bc f i libconcrt:Platform.obj
 0001:0003d1de       ?InitializeSystemFunctionPointers@platform@details@Concurrency@@YAXXZ 0043e1de f   libconcrt:Platform.obj
 0001:0003d291       ?__ChangeTimerQueueTimer@platform@details@Concurrency@@YAHPAX0KK@Z 0043e291 f   libconcrt:Platform.obj
 0001:0003d2a8       ?__CloseThreadHandle@platform@details@Concurrency@@YAXPAX@Z 0043e2a8 f   libconcrt:Platform.obj
 0001:0003d2b6       ?__CreateAutoResetEvent@platform@details@Concurrency@@YAPAX_N@Z 0043e2b6 f   libconcrt:Platform.obj
 0001:0003d306       ?__CreateThread@platform@details@Concurrency@@YAPAXPAU_SECURITY_ATTRIBUTES@@IP6GKPAX@Z1KPAK@Z 0043e306 f   libconcrt:Platform.obj
 0001:0003d323       ?__CreateTimerQueueTimer@platform@details@Concurrency@@YAHPAPAXPAXP6GX1E@Z1KKK@Z 0043e323 f   libconcrt:Platform.obj
 0001:0003d343       ?__DeleteTimerQueueTimer@platform@details@Concurrency@@YAXPAX00@Z 0043e343 f   libconcrt:Platform.obj
 0001:0003d372       ?__GetCurrentProcessorNumberEx@platform@details@Concurrency@@YAXPAU_PROCESSOR_NUMBER@@@Z 0043e372 f   libconcrt:Platform.obj
 0001:0003d394       ?__GetLogicalProcessorInformation@platform@details@Concurrency@@YAPAU_SYSTEM_LOGICAL_PROCESSOR_INFORMATION@@PAK@Z 0043e394 f   libconcrt:Platform.obj
 0001:0003d41d       ?__GetLogicalProcessorInformationEx@platform@details@Concurrency@@YAPAU_SYSTEM_LOGICAL_PROCESSOR_INFORMATION_EX@@W4_LOGICAL_PROCESSOR_RELATIONSHIP@@PAK@Z 0043e41d f   libconcrt:Platform.obj
 0001:0003d4d3       ?__GetNumaHighestNodeNumber@platform@details@Concurrency@@YAKXZ 0043e4d3 f   libconcrt:Platform.obj
 0001:0003d518       ?__GetThreadGroupAffinity@platform@details@Concurrency@@YAHPAXPAU_GROUP_AFFINITY@@@Z 0043e518 f   libconcrt:Platform.obj
 0001:0003d573       ?__GetThreadPriority@platform@details@Concurrency@@YAHPAX@Z 0043e573 f   libconcrt:Platform.obj
 0001:0003d581       ?__GetTickCount64@platform@details@Concurrency@@YA_KXZ 0043e581 f   libconcrt:Platform.obj
 0001:0003d586       ?__InitializeCriticalSectionEx@platform@details@Concurrency@@YAHPAU_RTL_CRITICAL_SECTION@@K@Z 0043e586 f   libconcrt:Platform.obj
 0001:0003d59b       ?__RegisterWaitForSingleObject@platform@details@Concurrency@@YAPAXPAXP6GX0E@Z0@Z 0043e59b f   libconcrt:Platform.obj
 0001:0003d5ed       ?__SetThreadGroupAffinity@platform@details@Concurrency@@YAHPAXPBU_GROUP_AFFINITY@@@Z 0043e5ed f   libconcrt:Platform.obj
 0001:0003d631       ?__SetThreadPriority@platform@details@Concurrency@@YAXPAXH@Z 0043e631 f   libconcrt:Platform.obj
 0001:0003d675       ?__SignalObjectAndWait@platform@details@Concurrency@@YAKPAX0KH@Z 0043e675 f   libconcrt:Platform.obj
 0001:0003d68c       ?__Sleep@platform@details@Concurrency@@YAXK@Z 0043e68c f   libconcrt:Platform.obj
 0001:0003d69a       ?__SwitchToThread@platform@details@Concurrency@@YAXXZ 0043e69a f   libconcrt:Platform.obj
 0001:0003d6a0       ?__TlsAlloc@platform@details@Concurrency@@YAKXZ 0043e6a0 f   libconcrt:Platform.obj
 0001:0003d6df       ?__TlsFree@platform@details@Concurrency@@YAXK@Z 0043e6df f   libconcrt:Platform.obj
 0001:0003d6ed       ?__TlsGetValue@platform@details@Concurrency@@YAPAXK@Z 0043e6ed f   libconcrt:Platform.obj
 0001:0003d6fb       ?__TlsSetValue@platform@details@Concurrency@@YAXKPAX@Z 0043e6fb f   libconcrt:Platform.obj
 0001:0003d73f       ?__UnregisterWait@platform@details@Concurrency@@YAXPAX@Z 0043e73f f   libconcrt:Platform.obj
 0001:0003d74d       ?__WaitForThread@platform@details@Concurrency@@YAKPAXK@Z 0043e74d f   libconcrt:Platform.obj
 0001:0003d760       ?notify@WaiterThread@platform@details@Concurrency@@AAEX_N@Z 0043e760 f i libconcrt:Platform.obj
 0001:0003d794       ??$_InternalDeleteHelper@VExternalContextBase@details@Concurrency@@@details@Concurrency@@YAXPAVExternalContextBase@01@@Z 0043e794 f i libconcrt:SchedulerBase.obj
 0001:0003d7b7       ??$_InternalDeleteHelper@VInternalContextBase@details@Concurrency@@@details@Concurrency@@YAXPAVInternalContextBase@01@@Z 0043e7b7 f i libconcrt:SchedulerBase.obj
 0001:0003d7dc       ??$_InternalDeleteHelper@VScheduleGroupBase@details@Concurrency@@@details@Concurrency@@YAXPAVScheduleGroupBase@01@@Z 0043e7dc f i libconcrt:SchedulerBase.obj
 0001:0003d7ff       ??0?$ListArray@VExternalStatistics@details@Concurrency@@@details@Concurrency@@QAE@PAVSchedulerBase@12@HH@Z 0043e7ff f i libconcrt:SchedulerBase.obj
 0001:0003d7ff       ??0?$ListArray@VVirtualProcessor@details@Concurrency@@@details@Concurrency@@QAE@PAVSchedulerBase@12@HH@Z 0043e7ff f i libconcrt:SchedulingNode.obj
 0001:0003d7ff       ??0?$ListArray@U?$ListArrayInlineLink@VWorkQueue@details@Concurrency@@@details@Concurrency@@@details@Concurrency@@QAE@PAVSchedulerBase@12@HH@Z 0043e7ff f i libconcrt:ScheduleGroupBase.obj
 0001:0003d7ff       ??0?$ListArray@VWorkQueue@details@Concurrency@@@details@Concurrency@@QAE@PAVSchedulerBase@12@HH@Z 0043e7ff f i libconcrt:ScheduleGroupBase.obj
 0001:0003d7ff       ??0?$ListArray@VScheduleGroupSegmentBase@details@Concurrency@@@details@Concurrency@@QAE@PAVSchedulerBase@12@HH@Z 0043e7ff f i libconcrt:SchedulingRing.obj
 0001:0003d7ff       ??0?$ListArray@VScheduleGroupBase@details@Concurrency@@@details@Concurrency@@QAE@PAVSchedulerBase@12@HH@Z 0043e7ff f i libconcrt:SchedulerBase.obj
 0001:0003d8f8       ??0CacheLocalScheduleGroupSegment@details@Concurrency@@QAE@PAVScheduleGroupBase@12@PAVSchedulingRing@12@PAVlocation@2@@Z 0043e8f8 f i libconcrt:SchedulerBase.obj
 0001:0003d932       ??0FairScheduleGroupSegment@details@Concurrency@@QAE@PAVScheduleGroupBase@12@PAVSchedulingRing@12@PAVlocation@2@@Z 0043e932 f i libconcrt:SchedulerBase.obj
 0001:0003d96c       ??0NumaInformation@SchedulerBase@details@Concurrency@@QAE@XZ 0043e96c f i libconcrt:SchedulerBase.obj
 0001:0003d986       ??0QuickBitSet@details@Concurrency@@QAE@I@Z 0043e986 f i libconcrt:SchedulerBase.obj
 0001:0003d9cc       ??0SchedulerBase@details@Concurrency@@QAE@ABVSchedulerPolicy@2@@Z 0043e9cc f   libconcrt:SchedulerBase.obj
 0001:0003dcea       ??0improper_scheduler_attach@Concurrency@@QAE@ABV01@@Z 0043ecea f i libconcrt:SchedulerBase.obj
 0001:0003dd05       ??0improper_scheduler_reference@Concurrency@@QAE@ABV01@@Z 0043ed05 f i libconcrt:SchedulerBase.obj
 0001:0003dd20       ??1?$ListArray@VExternalStatistics@details@Concurrency@@@details@Concurrency@@QAE@XZ 0043ed20 f i libconcrt:SchedulerBase.obj
 0001:0003dd9a       ??1?$ListArray@VScheduleGroupBase@details@Concurrency@@@details@Concurrency@@QAE@XZ 0043ed9a f i libconcrt:SchedulerBase.obj
 0001:0003de11       ??1NumaInformation@SchedulerBase@details@Concurrency@@QAE@XZ 0043ee11 f i libconcrt:SchedulerBase.obj
 0001:0003de28       ??1ReferenceCountedQuickBitSet@details@Concurrency@@QAE@XZ 0043ee28 f i libconcrt:SchedulerBase.obj
 0001:0003de3f       ??1ScheduleGroup@Concurrency@@MAE@XZ 0043ee3f f i libconcrt:SchedulerBase.obj
 0001:0003de46       ??1Scheduler@Concurrency@@MAE@XZ 0043ee46 f i libconcrt:SchedulerBase.obj
 0001:0003de4d       ??1SchedulerBase@details@Concurrency@@UAE@XZ 0043ee4d f   libconcrt:SchedulerBase.obj
 0001:0003df22       ??A?$ListArray@VWorkQueue@details@Concurrency@@@details@Concurrency@@QBEPAVWorkQueue@12@H@Z 0043ef22 f i libconcrt:ScheduleGroupBase.obj
 0001:0003df22       ??A?$ListArray@VExternalStatistics@details@Concurrency@@@details@Concurrency@@QBEPAVExternalStatistics@12@H@Z 0043ef22 f i libconcrt:SchedulerBase.obj
 0001:0003df22       ??A?$ListArray@VScheduleGroupSegmentBase@details@Concurrency@@@details@Concurrency@@QBEPAVScheduleGroupSegmentBase@12@H@Z 0043ef22 f i libconcrt:SchedulerBase.obj
 0001:0003df22       ??A?$ListArray@VVirtualProcessor@details@Concurrency@@@details@Concurrency@@QBEPAVVirtualProcessor@12@H@Z 0043ef22 f i libconcrt:SchedulerBase.obj
 0001:0003df22       ??A?$ListArray@U?$ListArrayInlineLink@VWorkQueue@details@Concurrency@@@details@Concurrency@@@details@Concurrency@@QBEPAU?$ListArrayInlineLink@VWorkQueue@details@Concurrency@@@12@H@Z 0043ef22 f i libconcrt:ScheduleGroupBase.obj
 0001:0003df6a       ??_ENumaInformation@SchedulerBase@details@Concurrency@@QAEPAXI@Z 0043ef6a f i libconcrt:SchedulerBase.obj
 0001:0003dffe       ??_GScheduleGroupBase@details@Concurrency@@UAEPAXI@Z 0043effe f i libconcrt:ScheduleGroupBase.obj
 0001:0003dffe       ??_EScheduleGroupBase@details@Concurrency@@UAEPAXI@Z 0043effe f i libconcrt:ScheduleGroupBase.obj
 0001:0003dffe       ??_ECacheLocalScheduleGroup@details@Concurrency@@UAEPAXI@Z 0043effe f i libconcrt:SchedulerBase.obj
 0001:0003dffe       ??_GCacheLocalScheduleGroup@details@Concurrency@@UAEPAXI@Z 0043effe f i libconcrt:SchedulerBase.obj
 0001:0003e021       ??_GCacheLocalScheduleGroupSegment@details@Concurrency@@UAEPAXI@Z 0043f021 f i libconcrt:SchedulerBase.obj
 0001:0003e021       ??_ECacheLocalScheduleGroupSegment@details@Concurrency@@UAEPAXI@Z 0043f021 f i libconcrt:SchedulerBase.obj
 0001:0003e021       ??_EFairScheduleGroupSegment@details@Concurrency@@UAEPAXI@Z 0043f021 f i libconcrt:SchedulerBase.obj
 0001:0003e021       ??_GFairScheduleGroupSegment@details@Concurrency@@UAEPAXI@Z 0043f021 f i libconcrt:SchedulerBase.obj
 0001:0003e046       ??_EFairScheduleGroup@details@Concurrency@@UAEPAXI@Z 0043f046 f i libconcrt:SchedulerBase.obj
 0001:0003e046       ??_GFairScheduleGroup@details@Concurrency@@UAEPAXI@Z 0043f046 f i libconcrt:SchedulerBase.obj
 0001:0003e069       ??_ERealizedChore@details@Concurrency@@UAEPAXI@Z 0043f069 f i libconcrt:SchedulerBase.obj
 0001:0003e069       ??_GRealizedChore@details@Concurrency@@UAEPAXI@Z 0043f069 f i libconcrt:SchedulerBase.obj
 0001:0003e08c       ??_EScheduleGroup@Concurrency@@MAEPAXI@Z 0043f08c f i libconcrt:SchedulerBase.obj
 0001:0003e08c       ??_GScheduleGroup@Concurrency@@MAEPAXI@Z 0043f08c f i libconcrt:SchedulerBase.obj
 0001:0003e0af       ??_GScheduler@Concurrency@@MAEPAXI@Z 0043f0af f i libconcrt:SchedulerBase.obj
 0001:0003e0af       ??_EScheduler@Concurrency@@MAEPAXI@Z 0043f0af f i libconcrt:SchedulerBase.obj
 0001:0003e0d2       ??_GSchedulerBase@details@Concurrency@@UAEPAXI@Z 0043f0d2 f i libconcrt:SchedulerBase.obj
 0001:0003e0d2       ??_ESchedulerBase@details@Concurrency@@UAEPAXI@Z 0043f0d2 f i libconcrt:SchedulerBase.obj
 0001:0003e0f7       ??_GSubAllocator@details@Concurrency@@QAEPAXI@Z 0043f0f7 f i libconcrt:SchedulerBase.obj
 0001:0003e159       ?Add@?$ListArray@VScheduleGroupBase@details@Concurrency@@@details@Concurrency@@QAEHPAVScheduleGroupBase@23@@Z 0043f159 f i libconcrt:SchedulerBase.obj
 0001:0003e2bd       ?AddContext@SchedulerBase@details@Concurrency@@QAEXPAVInternalContextBase@23@@Z 0043f2bd f   libconcrt:SchedulerBase.obj
 0001:0003e2f0       ?AddHead@?$List@UBoostedObject@details@Concurrency@@VNoCount@CollectionTypes@23@@details@Concurrency@@QAEXPAUBoostedObject@23@@Z 0043f2f0 f i libconcrt:SchedulerBase.obj
 0001:0003e324       ?AddTail@?$List@VWaitNode@SchedulerBase@details@Concurrency@@VNoCount@CollectionTypes@34@@details@Concurrency@@QAEXPAVWaitNode@SchedulerBase@23@@Z 0043f324 f i libconcrt:SchedulerBase.obj
 0001:0003e351       ?AddTail@?$SafeRWList@VWaitNode@SchedulerBase@details@Concurrency@@VNoCount@CollectionTypes@34@V_ReaderWriterLock@34@@details@Concurrency@@QAEXPAVWaitNode@SchedulerBase@23@@Z 0043f351 f i libconcrt:SchedulerBase.obj
 0001:0003e385       ?AddVirtualProcessors@SchedulerBase@details@Concurrency@@IAEXPAPAUIVirtualProcessorRoot@3@I@Z 0043f385 f   libconcrt:SchedulerBase.obj
 0001:0003e43f       ?AllocateSegment@CacheLocalScheduleGroup@details@Concurrency@@MAEPAVScheduleGroupSegmentBase@23@PAVSchedulingRing@23@PAVlocation@3@@Z 0043f43f f i libconcrt:SchedulerBase.obj
 0001:0003e47a       ?AllocateSegment@FairScheduleGroup@details@Concurrency@@MAEPAVScheduleGroupSegmentBase@23@PAVSchedulingRing@23@PAVlocation@3@@Z 0043f47a f i libconcrt:SchedulerBase.obj
 0001:0003e4c6       ?Attach@SchedulerBase@details@Concurrency@@UAEXXZ 0043f4c6 f   libconcrt:SchedulerBase.obj
 0001:0003e524       ?AttachExternalContext@SchedulerBase@details@Concurrency@@AAEPAVExternalContextBase@23@_N@Z 0043f524 f   libconcrt:SchedulerBase.obj
 0001:0003e596       ?AttemptSchedulerSweep@SchedulerBase@details@Concurrency@@IAEXXZ 0043f596 f   libconcrt:SchedulerBase.obj
 0001:0003e5b9       ?CancelAllContexts@SchedulerBase@details@Concurrency@@MAEXXZ 0043f5b9 f   libconcrt:SchedulerBase.obj
 0001:0003e5f7       ?ChangeThrottlingTimer@SchedulerBase@details@Concurrency@@AAEXK@Z 0043f5f7 f   libconcrt:SchedulerBase.obj
 0001:0003e653       ?CheckForDeletion@?$ListArray@VExternalStatistics@details@Concurrency@@@details@Concurrency@@AAEXXZ 0043f653 f i libconcrt:SchedulerBase.obj
 0001:0003e681       ?CheckForDeletion@?$ListArray@VScheduleGroupBase@details@Concurrency@@@details@Concurrency@@AAEXXZ 0043f681 f i libconcrt:SchedulerBase.obj
 0001:0003e6af       ?CheckForDeletionBridge@?$ListArray@VExternalStatistics@details@Concurrency@@@details@Concurrency@@CAXPAV123@@Z 0043f6af f i libconcrt:SchedulerBase.obj
 0001:0003e6bb       ?CheckForDeletionBridge@?$ListArray@VScheduleGroupBase@details@Concurrency@@@details@Concurrency@@CAXPAV123@@Z 0043f6bb f i libconcrt:SchedulerBase.obj
 0001:0003e6c7       ?CheckOneShotStaticDestruction@SchedulerBase@details@Concurrency@@SAXXZ 0043f6c7 f   libconcrt:SchedulerBase.obj
 0001:0003e700       ?CheckStaticConstruction@SchedulerBase@details@Concurrency@@CAXXZ 0043f700 f   libconcrt:SchedulerBase.obj
 0001:0003e774       ?Cleanup@SchedulerBase@details@Concurrency@@AAEXXZ 0043f774 f   libconcrt:SchedulerBase.obj
 0001:0003e827       ?CommitSafePoints@SchedulerBase@details@Concurrency@@QAEXXZ 0043f827 f   libconcrt:SchedulerBase.obj
 0001:0003e86a       ?CommitToVersion@SchedulerBase@details@Concurrency@@AAEXK@Z 0043f86a f   libconcrt:SchedulerBase.obj
 0001:0003e903       ?ComputeSafePointCommitVersion@SchedulerBase@details@Concurrency@@AAEKXZ 0043f903 f   libconcrt:SchedulerBase.obj
 0001:0003e98e       ?CopyFrom@QuickBitSet@details@Concurrency@@IAEXABV123@@Z 0043f98e f i libconcrt:SchedulerBase.obj
 0001:0003e9cc       ?CreateContextFromDefaultScheduler@SchedulerBase@details@Concurrency@@SAPAVContextBase@23@XZ 0043f9cc f   libconcrt:SchedulerBase.obj
 0001:0003e9f8       ?CreateScheduleGroup@SchedulerBase@details@Concurrency@@UAEPAVScheduleGroup@3@AAVlocation@3@@Z 0043f9f8 f i libconcrt:SchedulerBase.obj
 0001:0003ea01       ?CreateScheduleGroup@SchedulerBase@details@Concurrency@@UAEPAVScheduleGroup@3@XZ 0043fa01 f i libconcrt:SchedulerBase.obj
 0001:0003ea22       ?CreateWithoutInitializing@SchedulerBase@details@Concurrency@@SAPAV123@ABVSchedulerPolicy@3@@Z 0043fa22 f   libconcrt:SchedulerBase.obj
 0001:0003ea48       ?CurrentScheduler@SchedulerBase@details@Concurrency@@SAPAV123@XZ 0043fa48 f   libconcrt:SchedulerBase.obj
 0001:0003ea70       ?DecrementInternalContextCount@SchedulerBase@details@Concurrency@@QAEXXZ 0043fa70 f   libconcrt:SchedulerBase.obj
 0001:0003ea8b       ?DeferredGetInternalContext@SchedulerBase@details@Concurrency@@QAEXXZ 0043fa8b f   libconcrt:SchedulerBase.obj
 0001:0003eaa9       ?DeleteElements@?$ListArray@VExternalStatistics@details@Concurrency@@@details@Concurrency@@AAEXPAU_SINGLE_LIST_ENTRY@@@Z 0043faa9 f i libconcrt:SchedulerBase.obj
 0001:0003eaca       ?DeleteElements@?$ListArray@VScheduleGroupBase@details@Concurrency@@@details@Concurrency@@AAEXPAU_SINGLE_LIST_ENTRY@@@Z 0043faca f i libconcrt:SchedulerBase.obj
 0001:0003eae8       ?Dequeue@?$SQueue@VInternalContextBase@details@Concurrency@@@details@Concurrency@@QAEPAVInternalContextBase@23@XZ 0043fae8 f i libconcrt:SchedulerBase.obj
 0001:0003eb05       ?Dequeue@?$SQueue@VRealizedChore@details@Concurrency@@@details@Concurrency@@QAEPAVRealizedChore@23@XZ 0043fb05 f i libconcrt:ScheduleGroupBase.obj
 0001:0003eb05       ?Dequeue@?$SQueue@VSafePointInvocation@details@Concurrency@@@details@Concurrency@@QAEPAVSafePointInvocation@23@XZ 0043fb05 f i libconcrt:SchedulerBase.obj
 0001:0003eb1f       ?Dequeue@?$SafeSQueue@VInternalContextBase@details@Concurrency@@V_HyperNonReentrantLock@23@@details@Concurrency@@QAEPAVInternalContextBase@23@XZ 0043fb1f f i libconcrt:SchedulerBase.obj
 0001:0003eb53       ?DestroySchedulerEventHandlers@SchedulerBase@details@Concurrency@@MAEXXZ 0043fb53 f   libconcrt:SchedulerBase.obj
 0001:0003eb9e       ?DetachExternalContext@SchedulerBase@details@Concurrency@@AAEXPAVExternalContextBase@23@_N@Z 0043fb9e f   libconcrt:SchedulerBase.obj
 0001:0003ebe0       ?FastCurrentContext@SchedulerBase@details@Concurrency@@SAPAVContextBase@23@XZ 0043fbe0 f   libconcrt:SchedulerBase.obj
 0001:0003ebed       ?Fill@QuickBitSet@details@Concurrency@@QAEXXZ 0043fbed f i libconcrt:SchedulerBase.obj
 0001:0003ec0a       ?Finalize@SchedulerBase@details@Concurrency@@AAEXXZ 0043fc0a f   libconcrt:SchedulerBase.obj
 0001:0003ed36       ?FindCurrentNode@SchedulerBase@details@Concurrency@@QAEPAVSchedulingNode@23@XZ 0043fd36 f   libconcrt:SchedulerBase.obj
 0001:0003ed77       ?FindNodeByLocation@SchedulerBase@details@Concurrency@@QAEPAVSchedulingNode@23@PAVlocation@3@@Z 0043fd77 f   libconcrt:SchedulerBase.obj
 0001:0003edd2       ?FindScheduleGroupSegment@SchedulingRing@details@Concurrency@@AAEPAVScheduleGroupSegmentBase@23@HHPAHPAV?$ListArray@VScheduleGroupSegmentBase@details@Concurrency@@@23@@Z 0043fdd2 f i libconcrt:SchedulerBase.obj
 0001:0003edfd       ?FindVirtualProcessor@SchedulingNode@details@Concurrency@@QAEPAVVirtualProcessor@23@HHPAH@Z 0043fdfd f i libconcrt:SchedulerBase.obj
 0001:0003ee2c       ?FoundAvailableVirtualProcessor@SchedulerBase@details@Concurrency@@QAE_NAAVClaimTicket@VirtualProcessor@23@Vlocation@3@K@Z 0043fe2c f   libconcrt:SchedulerBase.obj
 0001:0003ef26       ?FoundBlockedContexts@SchedulerBase@details@Concurrency@@AAE_NXZ 0043ff26 f   libconcrt:SchedulerBase.obj
 0001:0003ef50       ?FoundUnstartedChores@SchedulerBase@details@Concurrency@@AAE_NXZ 0043ff50 f   libconcrt:SchedulerBase.obj
 0001:0003f019       ?GetAnonymousScheduleGroupSegment@SchedulerBase@details@Concurrency@@QAEPAVScheduleGroupSegmentBase@23@XZ 00440019 f   libconcrt:SchedulerBase.obj
 0001:0003f022       ?GetBitSet@SchedulerBase@details@Concurrency@@QAE?AVQuickBitSet@23@PBVlocation@3@@Z 00440022 f   libconcrt:SchedulerBase.obj
 0001:0003f0d8       ?GetDefaultScheduler@SchedulerBase@details@Concurrency@@CAPAV123@XZ 004400d8 f   libconcrt:SchedulerBase.obj
 0001:0003f186       ?GetExternalContext@SchedulerBase@details@Concurrency@@AAEPAVExternalContextBase@23@_N@Z 00440186 f   libconcrt:SchedulerBase.obj
 0001:0003f1e6       ?GetInternalContext@SchedulerBase@details@Concurrency@@QAEPAVInternalContextBase@23@_N@Z 004401e6 f   libconcrt:SchedulerBase.obj
 0001:0003f316       ?GetNewContextId@SchedulerBase@details@Concurrency@@QAEIXZ 00440316 f   libconcrt:SchedulerBase.obj
 0001:0003f323       ?GetNewScheduleGroupId@SchedulerBase@details@Concurrency@@QAEIXZ 00440323 f   libconcrt:SchedulerBase.obj
 0001:0003f330       ?GetNewWorkQueueId@SchedulerBase@details@Concurrency@@SAIXZ 00440330 f   libconcrt:SchedulerBase.obj
 0001:0003f33d       ?GetNextPriorityObject@SchedulerBase@details@Concurrency@@QAEPAUBoostedObject@23@XZ 0044033d f   libconcrt:SchedulerBase.obj
 0001:0003f372       ?GetNextScheduleGroupSegment@SchedulingRing@details@Concurrency@@AAEPAVScheduleGroupSegmentBase@23@PAHHPAV?$ListArray@VScheduleGroupSegmentBase@details@Concurrency@@@23@@Z 00440372 f i libconcrt:SchedulerBase.obj
 0001:0003f3ae       ?GetNextSchedulingRing@SchedulerBase@details@Concurrency@@QAEPAVSchedulingRing@23@PBV423@PAV423@@Z 004403ae f   libconcrt:SchedulerBase.obj
 0001:0003f3db       ?GetNextSchedulingRing@SchedulerBase@details@Concurrency@@QAEPAVSchedulingRing@23@XZ 004403db f   libconcrt:SchedulerBase.obj
 0001:0003f3fc       ?GetNextValidSchedulingRingIndex@SchedulerBase@details@Concurrency@@AAEHH@Z 004403fc f   libconcrt:SchedulerBase.obj
 0001:0003f41e       ?GetNextVirtualProcessor@SchedulingNode@details@Concurrency@@QAEPAVVirtualProcessor@23@PAHH@Z 0044041e f i libconcrt:SchedulerBase.obj
 0001:0003f453       ?GetNumberOfVirtualProcessors@SchedulerBase@details@Concurrency@@UBEIXZ 00440453 f i libconcrt:SchedulerBase.obj
 0001:0003f457       ?GetPolicy@SchedulerBase@details@Concurrency@@UBE?AVSchedulerPolicy@3@XZ 00440457 f   libconcrt:SchedulerBase.obj
 0001:0003f46d       ?GetRealizedChore@SchedulerBase@details@Concurrency@@QAEPAVRealizedChore@23@P6AXPAX@Z0@Z 0044046d f   libconcrt:SchedulerBase.obj
 0001:0003f4cc       ?GetRunnableContext@CacheLocalScheduleGroupSegment@details@Concurrency@@EAEPAVInternalContextBase@23@XZ 004404cc f i libconcrt:SchedulerBase.obj
 0001:0003f4cc       ?GetRunnableContext@FairScheduleGroupSegment@details@Concurrency@@EAEPAVInternalContextBase@23@XZ 004404cc f i libconcrt:SchedulerBase.obj
 0001:0003f4df       ?GetSubAllocator@SchedulerBase@details@Concurrency@@SAPAVSubAllocator@23@_N@Z 004404df f   libconcrt:SchedulerBase.obj
 0001:0003f55f       ?GetValidSchedulingRingIndex@SchedulerBase@details@Concurrency@@AAEHH@Z 0044055f f   libconcrt:SchedulerBase.obj
 0001:0003f582       ?Grow@QuickBitSet@details@Concurrency@@QAEXI@Z 00440582 f i libconcrt:SchedulerBase.obj
 0001:0003f603       ?Grow@ReferenceCountedQuickBitSet@details@Concurrency@@QAEXI@Z 00440603 f i libconcrt:SchedulerBase.obj
 0001:0003f676       ?HasCompletedShutdown@SchedulerBase@details@Concurrency@@QAE_NXZ 00440676 f   libconcrt:SchedulerBase.obj
 0001:0003f689       ?Id@SchedulerBase@details@Concurrency@@UBEIXZ 00440689 f i libconcrt:SchedulerBase.obj
 0001:0003f690       ?Initialize@SchedulerBase@details@Concurrency@@AAEXXZ 00440690 f   libconcrt:SchedulerBase.obj
 0001:0003fb3d       ?InitializeSchedulerEventHandlers@SchedulerBase@details@Concurrency@@MAEXXZ 00440b3d f   libconcrt:SchedulerBase.obj
 0001:0003fb45       ?InternalCreateScheduleGroup@SchedulerBase@details@Concurrency@@AAEPAVScheduleGroup@3@PAVlocation@3@@Z 00440b45 f   libconcrt:SchedulerBase.obj
 0001:0003fc0b       ?InternalRelease@ScheduleGroupBase@details@Concurrency@@IAEJXZ 00440c0b f i libconcrt:SchedulerBase.obj
 0001:0003fc45       ?Intersects@QuickBitSet@details@Concurrency@@QBE_NABV123@@Z 00440c45 f i libconcrt:SchedulerBase.obj
 0001:0003fc81       ?InvokeAtNextSafePoint@SafePointInvocation@details@Concurrency@@QAEXP6AXPAX@Z0PAVSchedulerBase@23@@Z 00440c81 f   libconcrt:SchedulerBase.obj
 0001:0003fcbd       ?InvokeOnSafePoint@SchedulerBase@details@Concurrency@@AAEXPAVSafePointInvocation@23@@Z 00440cbd f   libconcrt:SchedulerBase.obj
 0001:0003fd01       ?IsActive@ExternalStatistics@details@Concurrency@@QAE_NXZ 00440d01 f i libconcrt:SchedulerBase.obj
 0001:0003fd1d       ?IsAvailableLocation@SchedulerBase@details@Concurrency@@UBE_NABVlocation@3@@Z 00440d1d f   libconcrt:SchedulerBase.obj
 0001:0003fd53       ?MailChore@FairScheduleGroup@details@Concurrency@@UAE?AVSlot@?$Mailbox@V_UnrealizedChore@details@Concurrency@@@23@PAV_UnrealizedChore@23@PAVlocation@3@PAPAVScheduleGroupSegmentBase@23@@Z 00440d53 f i libconcrt:SchedulerBase.obj
 0001:0003fd64       ?MarkSafePoint@SchedulerBase@details@Concurrency@@QAE_NPAVSafePointMarker@23@@Z 00440d64 f   libconcrt:SchedulerBase.obj
 0001:0003fd86       ?NotifyThrottledContext@SchedulerBase@details@Concurrency@@AAE_NPAVInternalContextBase@23@@Z 00440d86 f   libconcrt:SchedulerBase.obj
 0001:0003fe18       ?PerformServiceScan@SchedulerBase@details@Concurrency@@AAEX_K@Z 00440e18 f   libconcrt:SchedulerBase.obj
 0001:0003ffde       ?PhaseOneShutdown@SchedulerBase@details@Concurrency@@AAEXXZ 00440fde f   libconcrt:SchedulerBase.obj
 0001:00040054       ?PhaseTwoShutdown@SchedulerBase@details@Concurrency@@AAEXXZ 00441054 f   libconcrt:SchedulerBase.obj
 0001:000400fa       ?PublishNewDataVersion@SchedulerBase@details@Concurrency@@AAEKXZ 004410fa f i libconcrt:SchedulerBase.obj
 0001:00040112       ?Push@?$LockFreePushStack@VContextNode@SchedulerBase@details@Concurrency@@@details@Concurrency@@QAEXPAVContextNode@SchedulerBase@23@@Z 00441112 f i libconcrt:SchedulerBase.obj
 0001:00040130       ?PushRunnableToInactive@SchedulerBase@details@Concurrency@@UAE_NPAVInternalContextBase@23@Vlocation@3@@Z 00441130 f   libconcrt:SchedulerBase.obj
 0001:0004019f       ?Reallocate@QuickBitSet@details@Concurrency@@IAEXI@Z 0044119f f i libconcrt:SchedulerBase.obj
 0001:000401d6       ?Reference@ScheduleGroupBase@details@Concurrency@@UAEIXZ 004411d6 f i libconcrt:SchedulerBase.obj
 0001:000401e6       ?Reference@SchedulerBase@details@Concurrency@@UAEIXZ 004411e6 f   libconcrt:SchedulerBase.obj
 0001:00040258       ?ReferenceForAttach@SchedulerBase@details@Concurrency@@IAEXXZ 00441258 f   libconcrt:SchedulerBase.obj
 0001:00040277       ?RegisterShutdownEvent@SchedulerBase@details@Concurrency@@UAEXPAX@Z 00441277 f   libconcrt:SchedulerBase.obj
 0001:00040316       ?Release@ScheduleGroupBase@details@Concurrency@@UAEIXZ 00441316 f i libconcrt:SchedulerBase.obj
 0001:0004031b       ?Release@SchedulerBase@details@Concurrency@@UAEIXZ 0044131b f   libconcrt:SchedulerBase.obj
 0001:00040333       ?ReleaseExternalContext@SchedulerBase@details@Concurrency@@AAEXPAVExternalContextBase@23@@Z 00441333 f   libconcrt:SchedulerBase.obj
 0001:00040375       ?ReleaseForDetach@SchedulerBase@details@Concurrency@@IAEXXZ 00441375 f   libconcrt:SchedulerBase.obj
 0001:00040394       ?ReleaseInternalContext@SchedulerBase@details@Concurrency@@QAEXPAVInternalContextBase@23@_N@Z 00441394 f   libconcrt:SchedulerBase.obj
 0001:000403de       ?ReleaseRealizedChore@SchedulerBase@details@Concurrency@@QAEXPAVRealizedChore@23@@Z 004413de f   libconcrt:SchedulerBase.obj
 0001:0004042e       ?ReleaseReservedContexts@SchedulerBase@details@Concurrency@@QAEXXZ 0044142e f   libconcrt:SchedulerBase.obj
 0001:0004049a       ?Remove@?$List@UBoostedObject@details@Concurrency@@VNoCount@CollectionTypes@23@@details@Concurrency@@QAEXPAUBoostedObject@23@@Z 0044149a f i libconcrt:SchedulerBase.obj
 0001:000404cc       ?Remove@?$ListArray@VExternalStatistics@details@Concurrency@@@details@Concurrency@@QAE_NPAVExternalStatistics@23@H_N@Z 004414cc f i libconcrt:SchedulerBase.obj
 0001:000405c7       ?Remove@?$ListArray@VScheduleGroupBase@details@Concurrency@@@details@Concurrency@@QAE_NPAVScheduleGroupBase@23@H_N@Z 004415c7 f i libconcrt:SchedulerBase.obj
 0001:000406c2       ?RemoveHead@?$List@UBoostedObject@details@Concurrency@@VNoCount@CollectionTypes@23@@details@Concurrency@@QAEPAUBoostedObject@23@XZ 004416c2 f i libconcrt:SchedulerBase.obj
 0001:000406ea       ?RemoveHead@?$List@VWaitNode@SchedulerBase@details@Concurrency@@VNoCount@CollectionTypes@34@@details@Concurrency@@QAEPAVWaitNode@SchedulerBase@23@XZ 004416ea f i libconcrt:SchedulerBase.obj
 0001:0004070e       ?RemoveHead@?$SafeRWList@VWaitNode@SchedulerBase@details@Concurrency@@VNoCount@CollectionTypes@34@V_ReaderWriterLock@34@@details@Concurrency@@QAEPAVWaitNode@SchedulerBase@23@XZ 0044170e f i libconcrt:SchedulerBase.obj
 0001:00040742       ?RemovePrioritizedObject@SchedulerBase@details@Concurrency@@QAEXPAUBoostedObject@23@@Z 00441742 f   libconcrt:SchedulerBase.obj
 0001:0004077e       ?RemoveScheduleGroup@SchedulerBase@details@Concurrency@@QAEXPAVScheduleGroupBase@23@@Z 0044177e f   libconcrt:SchedulerBase.obj
 0001:00040796       ?RemoveSegments@FairScheduleGroup@details@Concurrency@@MAEXXZ 00441796 f i libconcrt:SchedulerBase.obj
 0001:000407a4       ?RemoveVirtualProcessors@SchedulerBase@details@Concurrency@@IAEXPAPAUIVirtualProcessorRoot@3@I@Z 004417a4 f   libconcrt:SchedulerBase.obj
 0001:000408a2       ?Resurrect@SchedulerBase@details@Concurrency@@AAEXXZ 004418a2 f   libconcrt:SchedulerBase.obj
 0001:000408e9       ?ReturnSubAllocator@SchedulerBase@details@Concurrency@@SAXPAVSubAllocator@23@@Z 004418e9 f   libconcrt:SchedulerBase.obj
 0001:0004092a       ?SafeFastCurrentContext@SchedulerBase@details@Concurrency@@SAPAVContextBase@23@XZ 0044192a f   libconcrt:SchedulerBase.obj
 0001:00040946       ?SafeFastCurrentScheduler@SchedulerBase@details@Concurrency@@SAPAV123@XZ 00441946 f   libconcrt:SchedulerBase.obj
 0001:00040976       ?ScheduleTask@SchedulerBase@details@Concurrency@@UAEXP6AXPAX@Z0@Z 00441976 f   libconcrt:SchedulerBase.obj
 0001:000409c7       ?ScheduleTask@SchedulerBase@details@Concurrency@@UAEXP6AXPAX@Z0AAVlocation@3@@Z 004419c7 f   libconcrt:SchedulerBase.obj
 0001:00040a04       ?SetNextSchedulingRing@SchedulerBase@details@Concurrency@@QAEXPAVSchedulingRing@23@@Z 00441a04 f   libconcrt:SchedulerBase.obj
 0001:00040a29       ?SpinUntilBitsReset@details@Concurrency@@YAJPCJJ@Z 00441a29 f i libconcrt:SchedulerBase.obj
 0001:00040a5c       ?SpinUntilBitsSet@details@Concurrency@@YAJPCJJ@Z 00441a5c f i libconcrt:SchedulerBase.obj
 0001:00040a98       ?StartupNewVirtualProcessor@SchedulerBase@details@Concurrency@@UAEXPAVScheduleGroupSegmentBase@23@Vlocation@3@@Z 00441a98 f i libconcrt:SchedulerBase.obj
 0001:00040ac0       ?StartupVirtualProcessor@SchedulerBase@details@Concurrency@@QAE_NPAVScheduleGroupSegmentBase@23@Vlocation@3@K@Z 00441ac0 f   libconcrt:SchedulerBase.obj
 0001:00040b17       ?StaticDestruction@SchedulerBase@details@Concurrency@@CAXXZ 00441b17 f   libconcrt:SchedulerBase.obj
 0001:00040b6d       ?Statistics@SchedulerBase@details@Concurrency@@IAEXPAI00@Z 00441b6d f   libconcrt:SchedulerBase.obj
 0001:00040cab       ?SweepSchedulerForFinalize@SchedulerBase@details@Concurrency@@AAEXXZ 00441cab f   libconcrt:SchedulerBase.obj
 0001:00040d52       ?ThrottlerDispatch@SchedulerBase@details@Concurrency@@AAEXXZ 00441d52 f   libconcrt:SchedulerBase.obj
 0001:00040e68       ?ThrottlerDispatchBridge@SchedulerBase@details@Concurrency@@CGXPAU_TP_CALLBACK_INSTANCE@@PAXPAU_TP_TIMER@@@Z 00441e68 f i libconcrt:SchedulerBase.obj
 0001:00040e77       ?ThrottlerDispatchBridgeXP@SchedulerBase@details@Concurrency@@CGXPAXE@Z 00441e77 f i libconcrt:SchedulerBase.obj
 0001:00040e86       ?ThrottlerTrampoline@SchedulerBase@details@Concurrency@@CGXPAXE@Z 00441e86 f   libconcrt:SchedulerBase.obj
 0001:00040ec3       ?ThrottlingTime@SchedulerBase@details@Concurrency@@QAEKK@Z 00441ec3 f   libconcrt:SchedulerBase.obj
 0001:00040f5a       ?ThrowSchedulerEvent@SchedulerBase@details@Concurrency@@CAXW4ConcRT_EventType@3@EI@Z 00441f5a f   libconcrt:SchedulerBase.obj
 0001:00040fc7       ?TraceSchedulerEvent@SchedulerBase@details@Concurrency@@AAEXW4ConcRT_EventType@3@EI@Z 00441fc7 f i libconcrt:SchedulerBase.obj
 0001:00040ff1       ?TriggerCommitSafePoints@SchedulerBase@details@Concurrency@@QAEXPAVSafePointMarker@23@@Z 00441ff1 f   libconcrt:SchedulerBase.obj
 0001:00041026       ?TypeOfWorkPending@SchedulerBase@details@Concurrency@@MAE?AW4PendingWorkType@123@XZ 00442026 f   libconcrt:SchedulerBase.obj
 0001:00041054       ?UpdateCommitVersion@SchedulerBase@details@Concurrency@@AAEKK@Z 00442054 f   libconcrt:SchedulerBase.obj
 0001:0004109c       ?UpdatePendingVersion@SchedulerBase@details@Concurrency@@AAEKXZ 0044209c f   libconcrt:SchedulerBase.obj
 0001:000410ce       ?VirtualProcessorActive@SchedulerBase@details@Concurrency@@QAE_N_N@Z 004420ce f   libconcrt:SchedulerBase.obj
 0001:0004117f       ?NotifyResourcesExternallyIdle@ThreadScheduler@details@Concurrency@@UAEXPAPAUIVirtualProcessorRoot@3@I@Z 0044217f f i libconcrt:ThreadScheduler.obj
 0001:0004117f       ?NotifyResourcesExternallyBusy@ThreadScheduler@details@Concurrency@@UAEXPAPAUIVirtualProcessorRoot@3@I@Z 0044217f f i libconcrt:ThreadScheduler.obj
 0001:0004117f       ?VirtualProcessorActiveNotification@SchedulerBase@details@Concurrency@@MAEX_NJ@Z 0044217f f i libconcrt:SchedulerBase.obj
 0001:00041182       ?VirtualProcessorIdle@SchedulerBase@details@Concurrency@@QAEX_N@Z 00442182 f   libconcrt:SchedulerBase.obj
 0001:000411df       ??0context_self_unblock@Concurrency@@QAE@XZ 004421df f   libconcrt:Exceptions.obj
 0001:000411f0       ??0context_unblock_unbalanced@Concurrency@@QAE@XZ 004421f0 f   libconcrt:Exceptions.obj
 0001:00041201       ??0improper_lock@Concurrency@@QAE@PBD@Z 00442201 f   libconcrt:Exceptions.obj
 0001:0004121c       ??0improper_scheduler_attach@Concurrency@@QAE@XZ 0044221c f   libconcrt:Exceptions.obj
 0001:0004122d       ??0improper_scheduler_reference@Concurrency@@QAE@XZ 0044222d f   libconcrt:Exceptions.obj
 0001:0004123e       ??0invalid_multiple_scheduling@Concurrency@@QAE@XZ 0044223e f   libconcrt:Exceptions.obj
 0001:0004124f       ??0invalid_oversubscribe_operation@Concurrency@@QAE@XZ 0044224f f   libconcrt:Exceptions.obj
 0001:00041260       ??0invalid_scheduler_policy_key@Concurrency@@QAE@PBD@Z 00442260 f   libconcrt:Exceptions.obj
 0001:0004127b       ??0invalid_scheduler_policy_thread_specification@Concurrency@@QAE@XZ 0044227b f   libconcrt:Exceptions.obj
 0001:0004128c       ??0invalid_scheduler_policy_value@Concurrency@@QAE@PBD@Z 0044228c f   libconcrt:Exceptions.obj
 0001:000412a7       ??0missing_wait@Concurrency@@QAE@XZ 004422a7 f   libconcrt:Exceptions.obj
 0001:000412b8       ??0nested_scheduler_missing_detach@Concurrency@@QAE@XZ 004422b8 f   libconcrt:Exceptions.obj
 0001:000412c9       ??0scheduler_resource_allocation_error@Concurrency@@QAE@J@Z 004422c9 f   libconcrt:Exceptions.obj
 0001:000412e6       ??0scheduler_worker_creation_error@Concurrency@@QAE@J@Z 004422e6 f   libconcrt:Exceptions.obj
 0001:00041303       ??0unsupported_os@Concurrency@@QAE@XZ 00442303 f   libconcrt:Exceptions.obj
 0001:00041314       ??0HardwareAffinity@details@Concurrency@@QAE@PAX@Z 00442314 f   libconcrt:ResourceManager.obj
 0001:00041335       ??0ResourceManager@details@Concurrency@@AAE@XZ 00442335 f   libconcrt:ResourceManager.obj
 0001:00041419       ??0SchedulerCore@details@Concurrency@@QAE@XZ 00442419 f i libconcrt:ResourceManager.obj
 0001:00041424       ??0invalid_operation@Concurrency@@QAE@ABV01@@Z 00442424 f i libconcrt:ResourceManager.obj
 0001:0004143f       ??0invalid_operation@Concurrency@@QAE@XZ 0044243f f i libconcrt:ResourceManager.obj
 0001:00041450       ??0unsupported_os@Concurrency@@QAE@ABV01@@Z 00442450 f i libconcrt:ResourceManager.obj
 0001:0004146b       ??1GlobalNode@details@Concurrency@@QAE@XZ 0044246b f i libconcrt:ResourceManager.obj
 0001:00041478       ??1ResourceManager@details@Concurrency@@AAE@XZ 00442478 f   libconcrt:ResourceManager.obj
 0001:0004154d       ??1_Scoped_lock@_NonReentrantBlockingLock@details@Concurrency@@QAE@XZ 0044254d f i libconcrt:ResourceManager.obj
 0001:0004154d       ??1_Scoped_lock@_ReentrantBlockingLock@details@Concurrency@@QAE@XZ 0044254d f i libconcrt:SchedulerProxy.obj
 0001:00041585       ??_EGlobalNode@details@Concurrency@@QAEPAXI@Z 00442585 f i libconcrt:ResourceManager.obj
 0001:00041611       ??_GAffinityRestriction@ResourceManager@details@Concurrency@@QAEPAXI@Z 00442611 f i libconcrt:ResourceManager.obj
 0001:0004163a       ?AddTail@?$List@VSchedulerProxy@details@Concurrency@@VCount@CollectionTypes@23@@details@Concurrency@@QAEXPAVSchedulerProxy@23@@Z 0044263a f i libconcrt:ResourceManager.obj
 0001:00041673       ?AdjustDynamicAllocation@ResourceManager@details@Concurrency@@AAEIIII@Z 00442673 f   libconcrt:ResourceManager.obj
 0001:00041745       ?ApplyAffinityLimits@AffinityRestriction@ResourceManager@details@Concurrency@@QAEXPAU_GROUP_AFFINITY@@@Z 00442745 f i libconcrt:ResourceManager.obj
 0001:00041768       ?ApplyAffinityRestrictions@ResourceManager@details@Concurrency@@CAXPAK@Z 00442768 f   libconcrt:ResourceManager.obj
 0001:0004179b       ?ApplyAffinityRestrictions@ResourceManager@details@Concurrency@@CAXPAU_GROUP_AFFINITY@@@Z 0044279b f   libconcrt:ResourceManager.obj
 0001:000417c2       ?ApplyTo@HardwareAffinity@details@Concurrency@@QAEXPAX@Z 004427c2 f   libconcrt:ResourceManager.obj
 0001:000417d4       ?CaptureProcessAffinity@ResourceManager@details@Concurrency@@CAXXZ 004427d4 f   libconcrt:ResourceManager.obj
 0001:000418f9       ?CommitStolenCores@ResourceManager@details@Concurrency@@AAEXPAVSchedulerProxy@23@@Z 004428f9 f   libconcrt:ResourceManager.obj
 0001:00041a08       ?ComputeDesiredHWThreadsWithExternalThread@SchedulerProxy@details@Concurrency@@QBEIXZ 00442a08 f i libconcrt:ResourceManager.obj
 0001:00041a2b       ?ComputeMinHWThreadsWithExternalThread@SchedulerProxy@details@Concurrency@@QBEIXZ 00442a2b f i libconcrt:ResourceManager.obj
 0001:00041a58       ?CreateAllocatedNodeData@ResourceManager@details@Concurrency@@QAEPAUSchedulerNode@23@XZ 00442a58 f   libconcrt:ResourceManager.obj
 0001:00041b8f       ?CreateDynamicRMWorker@ResourceManager@details@Concurrency@@AAEXXZ 00442b8f f   libconcrt:ResourceManager.obj
 0001:00041bf0       ?CreateNodeTopology@ResourceManager@details@Concurrency@@UAEXIPAIPAPAI0@Z 00442bf0 f   libconcrt:ResourceManager.obj
 0001:00041bf3       ?CreateResourceManager@Concurrency@@YAPAUIResourceManager@1@XZ 00442bf3 f   libconcrt:ResourceManager.obj
 0001:00041bf8       ?CreateSchedulerProxy@ResourceManager@details@Concurrency@@AAEPAVSchedulerProxy@23@PAUIScheduler@3@@Z 00442bf8 f   libconcrt:ResourceManager.obj
 0001:00041c5a       ?CreateSingleton@ResourceManager@details@Concurrency@@SAPAV123@XZ 00442c5a f   libconcrt:ResourceManager.obj
 0001:00041cfa       ?CurrentSubscriptionLevel@ResourceManager@details@Concurrency@@QAEIII@Z 00442cfa f   libconcrt:ResourceManager.obj
 0001:00041d64       ?DesiredHWThreads@SchedulerProxy@details@Concurrency@@QBEIXZ 00442d64 f i libconcrt:ResourceManager.obj
 0001:00041d7d       ?DestroyAllocatedNodeData@ResourceManager@details@Concurrency@@QAEXPAUSchedulerNode@23@@Z 00442d7d f   libconcrt:ResourceManager.obj
 0001:00041db9       ?DetermineTopology@ResourceManager@details@Concurrency@@AAEXXZ 00442db9 f   libconcrt:ResourceManager.obj
 0001:000420f3       ?DiscardExistingSchedulerStatistics@ResourceManager@details@Concurrency@@AAEXXZ 004430f3 f   libconcrt:ResourceManager.obj
 0001:00042160       ?DistributeCoresToSurvivingScheduler@ResourceManager@details@Concurrency@@AAE_NXZ 00443160 f   libconcrt:ResourceManager.obj
 0001:00042303       ?DistributeExclusiveCores@ResourceManager@details@Concurrency@@AAEXIIIII@Z 00443303 f   libconcrt:ResourceManager.obj
 0001:00042442       ?DistributeIdleCores@ResourceManager@details@Concurrency@@AAEXII@Z 00443442 f   libconcrt:ResourceManager.obj
 0001:000425d7       ?DoCoreMigration@ResourceManager@details@Concurrency@@AAEXXZ 004435d7 f   libconcrt:ResourceManager.obj
 0001:0004281c       ?DynamicAssignCores@ResourceManager@details@Concurrency@@AAEXPAVSchedulerProxy@23@II_N@Z 0044381c f   libconcrt:ResourceManager.obj
 0001:0004288b       ?DynamicMigrateCores@ResourceManager@details@Concurrency@@AAEXPAUDynamicAllocationData@23@PAVSchedulerProxy@23@II@Z 0044388b f   libconcrt:ResourceManager.obj
 0001:000429f1       ?DynamicRMThreadProc@ResourceManager@details@Concurrency@@CGKPAX@Z 004439f1 f   libconcrt:ResourceManager.obj
 0001:00042a0a       ?DynamicResourceManager@ResourceManager@details@Concurrency@@AAEXXZ 00443a0a f   libconcrt:ResourceManager.obj
 0001:00042b0a       ?FindBestFitExclusiveAllocation@ResourceManager@details@Concurrency@@AAEIAAI0PAUDynamicAllocationData@23@II@Z 00443b0a f   libconcrt:ResourceManager.obj
 0001:00042e52       ?FindBestFitIdleAllocation@ResourceManager@details@Concurrency@@AAEIIPAUDynamicAllocationData@23@I@Z 00443e52 f   libconcrt:ResourceManager.obj
 0001:00042f6e       ?FindCoreForPartiallyFilledNode@ResourceManager@details@Concurrency@@AAE_NAAI0PAUDynamicAllocationData@23@I@Z 00443f6e f   libconcrt:ResourceManager.obj
 0001:00043079       ?FindGroupAffinity@AffinityRestriction@ResourceManager@details@Concurrency@@QAEPAUHardwareAffinity@34@G@Z 00444079 f i libconcrt:ResourceManager.obj
 0001:000430ad       ?FlushStoreBuffers@ResourceManager@details@Concurrency@@QAEXXZ 004440ad f   libconcrt:ResourceManager.obj
 0001:000430df       ?GetCoreCount@ResourceManager@details@Concurrency@@SAIXZ 004440df f   libconcrt:ResourceManager.obj
 0001:0004312a       ?GetCurrentNodeAndCore@ResourceManager@details@Concurrency@@QAEIPAI@Z 0044412a f   libconcrt:ResourceManager.obj
 0001:0004323a       ?GetExecutionResourceCount@TopologyObject@GlobalNode@details@Concurrency@@UBEIXZ 0044423a f i libconcrt:ResourceManager.obj
 0001:0004323a       ?GetId@TopologyObject@GlobalCore@details@Concurrency@@UBEIXZ 0044423a f i libconcrt:ResourceManager.obj
 0001:00043241       ?GetFirstExecutionResource@TopologyObject@GlobalNode@details@Concurrency@@UBEPAUITopologyExecutionResource@4@XZ 00444241 f i libconcrt:ResourceManager.obj
 0001:0004324b       ?GetFirstNode@ResourceManager@details@Concurrency@@UBEPAUITopologyNode@3@XZ 0044424b f i libconcrt:ResourceManager.obj
 0001:00043252       ?GetId@TopologyObject@GlobalNode@details@Concurrency@@UBEIXZ 00444252 f i libconcrt:ResourceManager.obj
 0001:00043259       ?GetNext@TopologyObject@GlobalCore@details@Concurrency@@UBEPAUITopologyExecutionResource@4@XZ 00444259 f   libconcrt:ResourceManager.obj
 0001:00043270       ?GetNext@TopologyObject@GlobalNode@details@Concurrency@@UBEPAUITopologyNode@4@XZ 00444270 f   libconcrt:ResourceManager.obj
 0001:00043287       ?GetNextGlobalCore@GlobalNode@details@Concurrency@@QAEPAUGlobalCore@23@PBU423@@Z 00444287 f i libconcrt:ResourceManager.obj
 0001:000432ac       ?GetNextGlobalNode@ResourceManager@details@Concurrency@@QAEPAUGlobalNode@23@PBU423@@Z 004442ac f i libconcrt:ResourceManager.obj
 0001:000432d1       ?GetNodeCount@ResourceManager@details@Concurrency@@SAIXZ 004442d1 f   libconcrt:ResourceManager.obj
 0001:0004331c       ?GetNumaNode@TopologyObject@GlobalNode@details@Concurrency@@UBEKXZ 0044431c f i libconcrt:ResourceManager.obj
 0001:00043323       ?GetOSVersion@Concurrency@@YA?AW4OSVersion@IResourceManager@1@XZ 00444323 f   libconcrt:ResourceManager.obj
 0001:00043328       ?GetProcessorCount@Concurrency@@YAIXZ 00444328 f   libconcrt:ResourceManager.obj
 0001:0004332d       ?GetProcessorNodeCount@Concurrency@@YAIXZ 0044432d f   libconcrt:ResourceManager.obj
 0001:00043332       ?GetSchedulerId@Concurrency@@YAIXZ 00444332 f   libconcrt:ResourceManager.obj
 0001:0004333f       ?GetTopologyInformation@ResourceManager@details@Concurrency@@CAXW4_LOGICAL_PROCESSOR_RELATIONSHIP@@@Z 0044433f f   libconcrt:ResourceManager.obj
 0001:00043368       ?HandleBorrowedCores@ResourceManager@details@Concurrency@@AAEXPAVSchedulerProxy@23@PAUAllocationData@23@@Z 00444368 f   libconcrt:ResourceManager.obj
 0001:00043487       ?HandleSharedCores@ResourceManager@details@Concurrency@@AAEXPAVSchedulerProxy@23@PAUDynamicAllocationData@23@@Z 00444487 f   libconcrt:ResourceManager.obj
 0001:000435d1       ?IncreaseFullyLoadedSchedulerAllocations@ResourceManager@details@Concurrency@@AAEXXZ 004445d1 f   libconcrt:ResourceManager.obj
 0001:00043607       ?Initialize@GlobalCore@details@Concurrency@@QAEXPAUGlobalNode@23@IE@Z 00444607 f i libconcrt:ResourceManager.obj
 0001:00043646       ?Initialize@GlobalNode@details@Concurrency@@QAEXPAVResourceManager@23@GGKII@Z 00444646 f i libconcrt:ResourceManager.obj
 0001:0004375b       ?InitializeRMBuffers@ResourceManager@details@Concurrency@@AAEXXZ 0044475b f   libconcrt:ResourceManager.obj
 0001:0004381d       ?InitializeSystemInformation@ResourceManager@details@Concurrency@@CAX_N@Z 0044481d f   libconcrt:ResourceManager.obj
 0001:00043a8f       ?MinVprocHWThreads@SchedulerProxy@details@Concurrency@@QBEIXZ 00444a8f f i libconcrt:ResourceManager.obj
 0001:00043aa8       ?PerformAllocation@ResourceManager@details@Concurrency@@QAEPAVExecutionResource@23@PAVSchedulerProxy@23@_N1@Z 00444aa8 f   libconcrt:ResourceManager.obj
 0001:00043c00       ?PopulateCommonAllocationData@ResourceManager@details@Concurrency@@AAEXIPAVSchedulerProxy@23@PAUAllocationData@23@@Z 00444c00 f   libconcrt:ResourceManager.obj
 0001:00043cc8       ?PopulateDynamicAllocationData@ResourceManager@details@Concurrency@@AAEXXZ 00444cc8 f   libconcrt:ResourceManager.obj
 0001:00043ddc       ?PreProcessDynamicAllocationData@ResourceManager@details@Concurrency@@AAEXXZ 00444ddc f   libconcrt:ResourceManager.obj
 0001:00043ea5       ?PreProcessStaticAllocationData@ResourceManager@details@Concurrency@@AAEXXZ 00444ea5 f   libconcrt:ResourceManager.obj
 0001:00043ed4       ?PrepareReceiversForCoreTransfer@ResourceManager@details@Concurrency@@AAEII@Z 00444ed4 f   libconcrt:ResourceManager.obj
 0001:000440e8       ?RedistributeCoresAmongAll@ResourceManager@details@Concurrency@@AAEIPAVSchedulerProxy@23@III@Z 004450e8 f   libconcrt:ResourceManager.obj
 0001:000444be       ?Reference@ResourceManager@details@Concurrency@@UAEIXZ 004454be f   libconcrt:ResourceManager.obj
 0001:000444c8       ?RegisterScheduler@ResourceManager@details@Concurrency@@UAEPAUISchedulerProxy@3@PAUIScheduler@3@I@Z 004454c8 f   libconcrt:ResourceManager.obj
 0001:0004450e       ?Release@ResourceManager@details@Concurrency@@UAEIXZ 0044550e f   libconcrt:ResourceManager.obj
 0001:000445b9       ?ReleaseCoresOnExistingSchedulers@ResourceManager@details@Concurrency@@AAEIPAVSchedulerProxy@23@II@Z 004455b9 f   libconcrt:ResourceManager.obj
 0001:00044610       ?ReleaseSchedulerResources@ResourceManager@details@Concurrency@@AAE_NPAVSchedulerProxy@23@0I@Z 00445610 f   libconcrt:ResourceManager.obj
 0001:00044706       ?Remove@?$List@VSchedulerProxy@details@Concurrency@@VCount@CollectionTypes@23@@details@Concurrency@@QAEXPAVSchedulerProxy@23@@Z 00445706 f i libconcrt:ResourceManager.obj
 0001:0004473c       ?RemoveExecutionResource@ResourceManager@details@Concurrency@@QAEXPAVExecutionResource@23@@Z 0044573c f   libconcrt:ResourceManager.obj
 0001:000447b3       ?RequestInitialVirtualProcessors@ResourceManager@details@Concurrency@@QAEPAUIExecutionResource@3@PAVSchedulerProxy@23@_N@Z 004457b3 f   libconcrt:ResourceManager.obj
 0001:000448c8       ?ReserveAtHigherUseCounts@ResourceManager@details@Concurrency@@AAEIPAVSchedulerProxy@23@I@Z 004458c8 f   libconcrt:ResourceManager.obj
 0001:000448fe       ?ReserveCores@ResourceManager@details@Concurrency@@AAEIPAVSchedulerProxy@23@II@Z 004458fe f   libconcrt:ResourceManager.obj
 0001:00044adb       ?ResetGlobalAllocationData@ResourceManager@details@Concurrency@@AAEXXZ 00445adb f   libconcrt:ResourceManager.obj
 0001:00044b34       ?RetrieveSystemVersionInformation@ResourceManager@details@Concurrency@@CAXXZ 00445b34 f   libconcrt:ResourceManager.obj
 0001:00044c24       ?RoundUpScaledAllocations@ResourceManager@details@Concurrency@@CAXPAPAUAllocationData@23@II@Z 00445c24 f   libconcrt:ResourceManager.obj
 0001:00044dde       ?SendResourceNotifications@ResourceManager@details@Concurrency@@QAEXPAVSchedulerProxy@23@@Z 00445dde f   libconcrt:ResourceManager.obj
 0001:00044fc0       ?SetupStaticAllocationData@ResourceManager@details@Concurrency@@AAEXPAVSchedulerProxy@23@_N@Z 00445fc0 f   libconcrt:ResourceManager.obj
 0001:00045091       ?Shutdown@ResourceManager@details@Concurrency@@QAEXPAVSchedulerProxy@23@@Z 00446091 f   libconcrt:ResourceManager.obj
 0001:0004515f       ?SubscribeCurrentThread@ResourceManager@details@Concurrency@@QAEPAVExecutionResource@23@PAVSchedulerProxy@23@@Z 0044615f f   libconcrt:ResourceManager.obj
 0001:000451b3       ?ToggleRMIdleState@ResourceManager@details@Concurrency@@AAEXPAUSchedulerNode@23@PAUSchedulerCore@23@PAUGlobalNode@23@PAUGlobalCore@23@PAUAllocationData@23@@Z 004461b3 f   libconcrt:ResourceManager.obj
 0001:0004521c       ?Version@ResourceManager@details@Concurrency@@SA?AW4OSVersion@IResourceManager@3@XZ 0044621c f   libconcrt:ResourceManager.obj
 0001:00045265       ??0MultiWaitBlock@details@Concurrency@@QAE@I_N0@Z 00446265 f i libconcrt:event.obj
 0001:000452a1       ??0MultiWaitBlockHolder@details@Concurrency@@QAE@_NI00@Z 004462a1 f   libconcrt:event.obj
 0001:00045328       ??0TimedSingleWaitBlock@details@Concurrency@@QAE@_N@Z 00446328 f i libconcrt:event.obj
 0001:00045357       ??0WaitAnyBlock@details@Concurrency@@QAE@I_N0@Z 00446357 f i libconcrt:event.obj
 0001:0004537f       ??0WaitBlock@details@Concurrency@@QAE@XZ 0044637f f i libconcrt:event.obj
 0001:0004539f       ??0_Condition_variable@details@Concurrency@@QAE@XZ 0044639f f   libconcrt:event.obj
 0001:000453be       ??0event@Concurrency@@QAE@XZ 004463be f   libconcrt:event.obj
 0001:000453e1       ??1?$_MallocaArrayHolder@PAVContext@Concurrency@@@details@Concurrency@@UAE@XZ 004463e1 f i libconcrt:event.obj
 0001:000453f1       ??1MultiWaitBlockHolder@details@Concurrency@@QAE@XZ 004463f1 f   libconcrt:event.obj
 0001:0004540f       ??1_Condition_variable@details@Concurrency@@QAE@XZ 0044640f f   libconcrt:event.obj
 0001:0004545d       ??1event@Concurrency@@QAE@XZ 0044645d f   libconcrt:event.obj
 0001:0004551a       ??_G?$_MallocaArrayHolder@PAVContext@Concurrency@@@details@Concurrency@@UAEPAXI@Z 0044651a f i libconcrt:event.obj
 0001:0004551a       ??_E?$_MallocaArrayHolder@PAVContext@Concurrency@@@details@Concurrency@@UAEPAXI@Z 0044651a f i libconcrt:event.obj
 0001:00045546       ?Destroy@SingleWaitBlock@details@Concurrency@@UAEXXZ 00446546 f   libconcrt:event.obj
 0001:00045546       ?SweepResetNode@SingleWaitBlock@details@Concurrency@@UAE_NXZ 00446546 f   libconcrt:event.obj
 0001:00045546       ?SweepResetNode@WaitAnyBlock@details@Concurrency@@UAE_NXZ 00446546 f   libconcrt:event.obj
 0001:00045546       ?Reset@SingleWaitBlock@details@Concurrency@@UAE_NXZ 00446546 f   libconcrt:event.obj
 0001:00045546       ?Reset@WaitAnyBlock@details@Concurrency@@UAE_NXZ 00446546 f   libconcrt:event.obj
 0001:00045547       ?Destroy@TimedSingleWaitBlock@details@Concurrency@@UAEXXZ 00446547 f   libconcrt:event.obj
 0001:00045560       ?Destroy@WaitAllBlock@details@Concurrency@@UAEXXZ 00446560 f   libconcrt:event.obj
 0001:00045565       ?DispatchEventTimer@MultiWaitBlock@details@Concurrency@@SGXPAU_TP_CALLBACK_INSTANCE@@PAXPAU_TP_TIMER@@@Z 00446565 f   libconcrt:event.obj
 0001:000455c5       ?DispatchEventTimer@TimedSingleWaitBlock@details@Concurrency@@SGXPAU_TP_CALLBACK_INSTANCE@@PAXPAU_TP_TIMER@@@Z 004465c5 f   libconcrt:event.obj
 0001:000455f8       ?DispatchEventTimerXP@MultiWaitBlock@details@Concurrency@@SGXPAXE@Z 004465f8 f   libconcrt:event.obj
 0001:00045650       ?DispatchEventTimerXP@TimedSingleWaitBlock@details@Concurrency@@SGXPAXE@Z 00446650 f   libconcrt:event.obj
 0001:00045672       ?GetSharedTimerQueue@details@Concurrency@@YAPAXXZ 00446672 f   libconcrt:event.obj
 0001:00045708       ?NotifyCompletedNode@MultiWaitBlock@details@Concurrency@@QAEXXZ 00446708 f   libconcrt:event.obj
 0001:00045721       ?Reset@WaitAllBlock@details@Concurrency@@UAE_NXZ 00446721 f   libconcrt:event.obj
 0001:0004575a       ?Satisfy@SingleWaitBlock@details@Concurrency@@UAE_NPAPAVContext@3@PAVEventWaitNode@23@@Z 0044675a f   libconcrt:event.obj
 0001:000457b4       ?Satisfy@TimedSingleWaitBlock@details@Concurrency@@UAE_NPAPAVContext@3@PAVEventWaitNode@23@@Z 004467b4 f   libconcrt:event.obj
 0001:0004580d       ?Satisfy@WaitAllBlock@details@Concurrency@@UAE_NPAPAVContext@3@PAVEventWaitNode@23@@Z 0044680d f   libconcrt:event.obj
 0001:00045854       ?Satisfy@WaitAnyBlock@details@Concurrency@@UAE_NPAPAVContext@3@PAVEventWaitNode@23@@Z 00446854 f   libconcrt:event.obj
 0001:00045897       ?Set@StructuredEvent@details@Concurrency@@QAEXXZ 00446897 f   libconcrt:event.obj
 0001:000458df       ?SingleSatisfy@MultiWaitBlock@details@Concurrency@@MAEXPAPAVContext@3@PAVEventWaitNode@23@@Z 004468df f   libconcrt:event.obj
 0001:0004598f       ?Sweep@details@Concurrency@@YAPAVEventWaitNode@12@PAV312@_N@Z 0044698f f   libconcrt:event.obj
 0001:000459e2       ?SweepResetNode@WaitAllBlock@details@Concurrency@@UAE_NXZ 004469e2 f   libconcrt:event.obj
 0001:00045a15       ?SweepWaitNode@TimedSingleWaitBlock@details@Concurrency@@UAE_NXZ 00446a15 f   libconcrt:event.obj
 0001:00045a39       ?SweepWaitNode@WaitAllBlock@details@Concurrency@@UAE_NXZ 00446a39 f   libconcrt:event.obj
 0001:00045a7e       ?SweepWaitNode@WaitAnyBlock@details@Concurrency@@UAE_NXZ 00446a7e f   libconcrt:event.obj
 0001:00045ab6       ?Wait@StructuredEvent@details@Concurrency@@QAEXXZ 00446ab6 f   libconcrt:event.obj
 0001:00045b21       ?createTimer@TimedSingleWaitBlock@details@Concurrency@@QAE_NI@Z 00446b21 f i libconcrt:event.obj
 0001:00045b84       ?destroyTimer@TimedSingleWaitBlock@details@Concurrency@@QAEX_N@Z 00446b84 f i libconcrt:event.obj
 0001:00045bd0       ?notify_all@_Condition_variable@details@Concurrency@@QAEXXZ 00446bd0 f   libconcrt:event.obj
 0001:00045c67       ?notify_one@_Condition_variable@details@Concurrency@@QAEXXZ 00446c67 f   libconcrt:event.obj
 0001:00045d24       ?set@event@Concurrency@@QAEXXZ 00446d24 f   libconcrt:event.obj
 0001:00045e5c       ?wait@_Condition_variable@details@Concurrency@@QAEXAAVcritical_section@3@@Z 00446e5c f   libconcrt:event.obj
 0001:00045ec0       ?wait@event@Concurrency@@QAEII@Z 00446ec0 f   libconcrt:event.obj
 0001:00045fa1       ?wait_for@_Condition_variable@details@Concurrency@@QAE_NAAVcritical_section@3@I@Z 00446fa1 f   libconcrt:event.obj
 0001:00046089       ?wait_for_multiple@event@Concurrency@@SAIPAPAV12@I_NI@Z 00447089 f   libconcrt:event.obj
 0001:000463a1       ??0exception_ptr@std@@QAE@ABV01@@Z 004473a1 f i libconcrt:TaskCollectionBase.obj
 0001:000463e5       ?_Current_exception@exception_ptr@std@@SA?AV12@XZ 004473e5 f i libconcrt:TaskCollectionBase.obj
 0001:00046433       ?_FinishCancelState@_TaskCollectionBase@details@Concurrency@@IAEXI@Z 00447433 f   libconcrt:TaskCollectionBase.obj
 0001:00046459       ?_GetTokenState@_TaskCollectionBase@details@Concurrency@@QAEPAV_CancellationTokenState@23@PAPAV_CancellationTokenRegistration@23@@Z 00447459 f   libconcrt:TaskCollectionBase.obj
 0001:00046481       ?_MarkCancellation@_TaskCollectionBase@details@Concurrency@@IAE_NXZ 00447481 f   libconcrt:TaskCollectionBase.obj
 0001:000464a9       ?_RaisedCancel@_TaskCollectionBase@details@Concurrency@@IAEXXZ 004474a9 f   libconcrt:TaskCollectionBase.obj
 0001:000464d4       ?_RaisedException@_TaskCollectionBase@details@Concurrency@@IAEXXZ 004474d4 f   libconcrt:TaskCollectionBase.obj
 0001:00046532       ?_RethrowException@_TaskCollectionBase@details@Concurrency@@IAEXXZ 00447532 f   libconcrt:TaskCollectionBase.obj
 0001:000465a2       ?_RethrowException@exception_ptr@std@@QBEXXZ 004475a2 f i libconcrt:TaskCollectionBase.obj
 0001:000465a9       ?_WillInterruptForPendingCancel@_TaskCollectionBase@details@Concurrency@@IAE_NXZ 004475a9 f   libconcrt:TaskCollectionBase.obj
 0001:0004661f       ?rethrow_exception@std@@YAXVexception_ptr@1@@Z 0044761f f i libconcrt:TaskCollectionBase.obj
 0001:00046638       ??0?$StructuredWorkStealingQueue@V_UnrealizedChore@details@Concurrency@@V_CriticalNonReentrantLock@23@@details@Concurrency@@QAE@PAV_CriticalNonReentrantLock@12@@Z 00447638 f i libconcrt:WorkQueue.obj
 0001:00046638       ??0?$StructuredWorkStealingQueue@VInternalContextBase@details@Concurrency@@V_HyperNonReentrantLock@23@@details@Concurrency@@QAE@PAV_HyperNonReentrantLock@12@@Z 00447638 f i libconcrt:VirtualProcessor.obj
 0001:000466a8       ??0?$WorkStealingQueue@V_UnrealizedChore@details@Concurrency@@V_CriticalNonReentrantLock@23@@details@Concurrency@@QAE@PAV_CriticalNonReentrantLock@12@@Z 004476a8 f i libconcrt:WorkQueue.obj
 0001:00046711       ??0WorkQueue@details@Concurrency@@QAE@XZ 00447711 f   libconcrt:WorkQueue.obj
 0001:0004675b       ?DeferToAffineSearchers@Slot@?$Mailbox@V_UnrealizedChore@details@Concurrency@@@details@Concurrency@@QBE_NXZ 0044775b f i libconcrt:WorkQueue.obj
 0001:0004675b       ?DeferToAffineSearchers@Slot@?$Mailbox@VInternalContextBase@details@Concurrency@@@details@Concurrency@@QBE_NXZ 0044775b f i libconcrt:SchedulingNode.obj
 0001:000467b1       ?RedetachFromScheduleGroupAtSafePoint@WorkQueue@details@Concurrency@@QAEXPAVScheduleGroupSegmentBase@23@@Z 004477b1 f   libconcrt:WorkQueue.obj
 0001:000467d5       ?Reinitialize@WorkQueue@details@Concurrency@@AAEXXZ 004477d5 f   libconcrt:WorkQueue.obj
 0001:0004680f       ?RetireAtSafePoint@WorkQueue@details@Concurrency@@QAEXPAVScheduleGroupSegmentBase@23@@Z 0044780f f   libconcrt:WorkQueue.obj
 0001:00046833       ?StaticRedetachFromScheduleGroup@WorkQueue@details@Concurrency@@CAXPAV123@@Z 00447833 f   libconcrt:WorkQueue.obj
 0001:00046844       ?StaticRetire@WorkQueue@details@Concurrency@@CAXPAV123@@Z 00447844 f   libconcrt:WorkQueue.obj
 0001:00046855       ?Steal@WorkQueue@details@Concurrency@@QAEPAV_UnrealizedChore@23@_N@Z 00447855 f   libconcrt:WorkQueue.obj
 0001:00046898       ?Sweep@?$WorkStealingQueue@V_UnrealizedChore@details@Concurrency@@V_CriticalNonReentrantLock@23@@details@Concurrency@@QAEXP6A_NPAV_UnrealizedChore@23@PAX@Z12@Z 00447898 f i libconcrt:WorkQueue.obj
 0001:0004694c       ?SweepUnstructured@WorkQueue@details@Concurrency@@QAEXP6A_NPAV_UnrealizedChore@23@PAX@Z12@Z 0044794c f   libconcrt:WorkQueue.obj
 0001:00046958       ?TryToSteal@WorkQueue@details@Concurrency@@QAEPAV_UnrealizedChore@23@_NAA_N@Z 00447958 f   libconcrt:WorkQueue.obj
 0001:000469bc       ?UnlockedSteal@?$StructuredWorkStealingQueue@V_UnrealizedChore@details@Concurrency@@V_CriticalNonReentrantLock@23@@details@Concurrency@@QAEPAV_UnrealizedChore@23@_N@Z 004479bc f i libconcrt:WorkQueue.obj
 0001:000469bc       ?UnlockedSteal@?$StructuredWorkStealingQueue@VInternalContextBase@details@Concurrency@@V_HyperNonReentrantLock@23@@details@Concurrency@@QAEPAVInternalContextBase@23@_N@Z 004479bc f i libconcrt:SchedulingNode.obj
 0001:00046a3a       ?UnlockedSteal@?$WorkStealingQueue@V_UnrealizedChore@details@Concurrency@@V_CriticalNonReentrantLock@23@@details@Concurrency@@QAEPAV_UnrealizedChore@23@_N0@Z 00447a3a f i libconcrt:WorkQueue.obj
 0001:00046ac8       ?UnlockedSteal@WorkQueue@details@Concurrency@@AAEPAV_UnrealizedChore@23@_N@Z 00447ac8 f   libconcrt:WorkQueue.obj
 0001:00046b90       ??0?$Mailbox@V_UnrealizedChore@details@Concurrency@@@details@Concurrency@@QAE@PAVSchedulerBase@12@ABVQuickBitSet@12@_NI@Z 00447b90 f i libconcrt:ScheduleGroupBase.obj
 0001:00046c07       ??0ScheduleGroupBase@details@Concurrency@@QAE@PAVSchedulerBase@12@PAVlocation@2@@Z 00447c07 f   libconcrt:ScheduleGroupBase.obj
 0001:00046c67       ??0ScheduleGroupSegmentBase@details@Concurrency@@IAE@PAVScheduleGroupBase@12@PAVSchedulingRing@12@PAVlocation@2@@Z 00447c67 f   libconcrt:ScheduleGroupBase.obj
 0001:00046d27       ??0Segment@?$Mailbox@V_UnrealizedChore@details@Concurrency@@@details@Concurrency@@QAE@PAVSchedulerBase@23@ABVQuickBitSet@23@II@Z 00447d27 f i libconcrt:ScheduleGroupBase.obj
 0001:00046d93       ??1?$ListArray@U?$ListArrayInlineLink@VWorkQueue@details@Concurrency@@@details@Concurrency@@@details@Concurrency@@QAE@XZ 00447d93 f i libconcrt:ScheduleGroupBase.obj
 0001:00046e0d       ??1?$ListArray@VWorkQueue@details@Concurrency@@@details@Concurrency@@QAE@XZ 00447e0d f i libconcrt:ScheduleGroupBase.obj
 0001:00046e84       ??1?$Mailbox@V_UnrealizedChore@details@Concurrency@@@details@Concurrency@@QAE@XZ 00447e84 f i libconcrt:ScheduleGroupBase.obj
 0001:00046eea       ??1ScheduleGroupSegmentBase@details@Concurrency@@UAE@XZ 00447eea f   libconcrt:ScheduleGroupBase.obj
 0001:00046f38       ??4QuickBitSet@details@Concurrency@@QAEAAV012@$$QAV012@@Z 00447f38 f i libconcrt:ScheduleGroupBase.obj
 0001:00046f62       ??_EScheduleGroupSegmentBase@details@Concurrency@@UAEPAXI@Z 00447f62 f i libconcrt:ScheduleGroupBase.obj
 0001:00046f62       ??_GScheduleGroupSegmentBase@details@Concurrency@@UAEPAXI@Z 00447f62 f i libconcrt:ScheduleGroupBase.obj
 0001:00046f87       ?Add@?$ListArray@VExternalStatistics@details@Concurrency@@@details@Concurrency@@QAEHPAVExternalStatistics@23@@Z 00447f87 f i libconcrt:ScheduleGroupBase.obj
 0001:00046f87       ?Add@?$ListArray@U?$ListArrayInlineLink@VWorkQueue@details@Concurrency@@@details@Concurrency@@@details@Concurrency@@QAEHPAU?$ListArrayInlineLink@VWorkQueue@details@Concurrency@@@23@@Z 00447f87 f i libconcrt:ScheduleGroupBase.obj
 0001:000470ea       ?Add@?$ListArray@VScheduleGroupSegmentBase@details@Concurrency@@@details@Concurrency@@QAEHPAVScheduleGroupSegmentBase@23@@Z 004480ea f i libconcrt:ScheduleGroupBase.obj
 0001:00047251       ?AddRunnableContext@ScheduleGroupSegmentBase@details@Concurrency@@IAEXPAVInternalContextBase@23@Vlocation@3@@Z 00448251 f   libconcrt:ScheduleGroupBase.obj
 0001:00047338       ?CheckForDeletion@?$ListArray@U?$ListArrayInlineLink@VWorkQueue@details@Concurrency@@@details@Concurrency@@@details@Concurrency@@AAEXXZ 00448338 f i libconcrt:ScheduleGroupBase.obj
 0001:0004735e       ?CheckForDeletionBridge@?$ListArray@U?$ListArrayInlineLink@VWorkQueue@details@Concurrency@@@details@Concurrency@@@details@Concurrency@@CAXPAV123@@Z 0044835e f i libconcrt:ScheduleGroupBase.obj
 0001:0004736a       ?ClearQuickCacheSlotIf@SchedulerBase@details@Concurrency@@QAEXIPAVScheduleGroupSegmentBase@23@@Z 0044836a f i libconcrt:ScheduleGroupBase.obj
 0001:0004738f       ?CreateSegment@ScheduleGroupBase@details@Concurrency@@IAEPAVScheduleGroupSegmentBase@23@PAVlocation@3@PAVSchedulingRing@23@@Z 0044838f f   libconcrt:ScheduleGroupBase.obj
 0001:00047442       ?DeleteElements@?$ListArray@U?$ListArrayInlineLink@VWorkQueue@details@Concurrency@@@details@Concurrency@@@details@Concurrency@@AAEXPAU_SINGLE_LIST_ENTRY@@@Z 00448442 f i libconcrt:ScheduleGroupBase.obj
 0001:00047463       ?DemandInitialize@?$Mailbox@V_UnrealizedChore@details@Concurrency@@@details@Concurrency@@AAEXXZ 00448463 f i libconcrt:ScheduleGroupBase.obj
 0001:000474d9       ?Dequeue@?$Mailbox@V_UnrealizedChore@details@Concurrency@@@details@Concurrency@@QAE_NPAPAV_UnrealizedChore@23@@Z 004484d9 f i libconcrt:ScheduleGroupBase.obj
 0001:0004759d       ?Dequeue@?$SafeSQueue@VRealizedChore@details@Concurrency@@V_HyperNonReentrantLock@23@@details@Concurrency@@QAEPAVRealizedChore@23@XZ 0044859d f i libconcrt:ScheduleGroupBase.obj
 0001:000475d1       ?DetachActiveWorkQueue@ScheduleGroupSegmentBase@details@Concurrency@@IAEXPAVWorkQueue@23@@Z 004485d1 f   libconcrt:ScheduleGroupBase.obj
 0001:00047610       ?Enqueue@?$SafeSQueue@VRealizedChore@details@Concurrency@@V_HyperNonReentrantLock@23@@details@Concurrency@@QAEXPAVRealizedChore@23@@Z 00448610 f i libconcrt:ScheduleGroupBase.obj
 0001:0004764b       ?FindSegment@ScheduleGroupBase@details@Concurrency@@MAEPAVScheduleGroupSegmentBase@23@PAVlocation@3@PAVSchedulingRing@23@@Z 0044864b f   libconcrt:ScheduleGroupBase.obj
 0001:000476a1       ?GetDetachedWorkQueue@ScheduleGroupSegmentBase@details@Concurrency@@IAEPAVWorkQueue@23@XZ 004486a1 f   libconcrt:ScheduleGroupBase.obj
 0001:00047708       ?GetInternalContext@ScheduleGroupSegmentBase@details@Concurrency@@IAEPAVInternalContextBase@23@PAU_Chore@23@_N@Z 00448708 f   libconcrt:ScheduleGroupBase.obj
 0001:0004773b       ?GetRealizedChore@ScheduleGroupSegmentBase@details@Concurrency@@IAEPAVRealizedChore@23@XZ 0044873b f   libconcrt:ScheduleGroupBase.obj
 0001:0004774b       ?GetResourceMaskId@SchedulerBase@details@Concurrency@@QAEII@Z 0044874b f i libconcrt:ScheduleGroupBase.obj
 0001:0004776b       ?Grow@?$Mailbox@V_UnrealizedChore@details@Concurrency@@@details@Concurrency@@AAEPAUSegment@123@PAU4123@@Z 0044876b f i libconcrt:ScheduleGroupBase.obj
 0001:000477b5       ?HasRealizedChores@ScheduleGroupSegmentBase@details@Concurrency@@IBE_NXZ 004487b5 f   libconcrt:ScheduleGroupBase.obj
 0001:000477bd       ?HasUnrealizedChores@ScheduleGroupSegmentBase@details@Concurrency@@IAE_NXZ 004487bd f   libconcrt:ScheduleGroupBase.obj
 0001:000477c8       ?Initialize@?$Mailbox@V_UnrealizedChore@details@Concurrency@@@details@Concurrency@@QAEXABVQuickBitSet@23@@Z 004487c8 f i libconcrt:ScheduleGroupBase.obj
 0001:000477f1       ?Initialize@ScheduleGroupBase@details@Concurrency@@QAEXPAVlocation@3@@Z 004487f1 f   libconcrt:ScheduleGroupBase.obj
 0001:00047804       ?Initialize@ScheduleGroupSegmentBase@details@Concurrency@@IAEXPAVScheduleGroupBase@23@PAVSchedulingRing@23@PAVlocation@3@@Z 00448804 f   libconcrt:ScheduleGroupBase.obj
 0001:00047888       ?LocateMailboxSegment@?$Mailbox@V_UnrealizedChore@details@Concurrency@@@details@Concurrency@@AAEPAUSegment@123@I_N@Z 00448888 f i libconcrt:ScheduleGroupBase.obj
 0001:000478d0       ?LocateSegment@ScheduleGroupBase@details@Concurrency@@UAEPAVScheduleGroupSegmentBase@23@PAVlocation@3@_N@Z 004488d0 f   libconcrt:ScheduleGroupBase.obj
 0001:000479b5       ?LocateUnrealizedChores@ScheduleGroupSegmentBase@details@Concurrency@@IAEPAVWorkQueue@23@XZ 004489b5 f   libconcrt:ScheduleGroupBase.obj
 0001:00047a0e       ?MarkDetachment@?$WorkStealingQueue@V_UnrealizedChore@details@Concurrency@@V_CriticalNonReentrantLock@23@@details@Concurrency@@QAEXXZ 00448a0e f i libconcrt:ScheduleGroupBase.obj
 0001:00047a41       ?RedetachQueue@ScheduleGroupSegmentBase@details@Concurrency@@QAEXPAVWorkQueue@23@@Z 00448a41 f   libconcrt:ScheduleGroupBase.obj
 0001:00047a5a       ?ReleaseInternalContext@ScheduleGroupSegmentBase@details@Concurrency@@IAEXPAVInternalContextBase@23@@Z 00448a5a f   libconcrt:ScheduleGroupBase.obj
 0001:00047a80       ?Remove@?$ListArray@U?$ListArrayInlineLink@VWorkQueue@details@Concurrency@@@details@Concurrency@@@details@Concurrency@@QAE_NPAU?$ListArrayInlineLink@VWorkQueue@details@Concurrency@@@23@H_N@Z 00448a80 f i libconcrt:ScheduleGroupBase.obj
 0001:00047b73       ?Remove@ScheduleGroupSegmentBase@details@Concurrency@@IAEXXZ 00448b73 f   libconcrt:ScheduleGroupBase.obj
 0001:00047b96       ?RemoveSegments@ScheduleGroupBase@details@Concurrency@@MAEXXZ 00448b96 f   libconcrt:ScheduleGroupBase.obj
 0001:00047bd5       ?RetireDetachedQueue@ScheduleGroupSegmentBase@details@Concurrency@@QAEXPAVWorkQueue@23@@Z 00448bd5 f   libconcrt:ScheduleGroupBase.obj
 0001:00047bfc       ?SafelyDeleteDetachedWorkQueue@ScheduleGroupSegmentBase@details@Concurrency@@IAE_NPAVWorkQueue@23@@Z 00448bfc f   libconcrt:ScheduleGroupBase.obj
 0001:00047c3e       ?ScheduleTask@ScheduleGroupBase@details@Concurrency@@QAEXP6AXPAX@Z0AAVlocation@3@@Z 00448c3e f   libconcrt:ScheduleGroupBase.obj
 0001:00047c6e       ?ScheduleTask@ScheduleGroupBase@details@Concurrency@@UAEXP6AXPAX@Z0@Z 00448c6e f   libconcrt:ScheduleGroupBase.obj
 0001:00047c96       ?ScheduleTask@ScheduleGroupSegmentBase@details@Concurrency@@QAEXP6AXPAX@Z0@Z 00448c96 f   libconcrt:ScheduleGroupBase.obj
 0001:00047dcc       ?SetDeletionReferences@Segment@?$Mailbox@V_UnrealizedChore@details@Concurrency@@@details@Concurrency@@QAEXI@Z 00448dcc f i libconcrt:ScheduleGroupBase.obj
 0001:00047df2       ?StealUnrealizedChore@ScheduleGroupSegmentBase@details@Concurrency@@IAEPAV_UnrealizedChore@23@_N@Z 00448df2 f   libconcrt:ScheduleGroupBase.obj
 0001:00047faf       ??0SchedulerPolicy@Concurrency@@QAA@IZZ 00448faf f   libconcrt:SchedulerPolicyBase.obj
 0001:00047fcf       ??0SchedulerPolicy@Concurrency@@QAE@ABV01@@Z 00448fcf f   libconcrt:SchedulerPolicyBase.obj
 0001:00047ff5       ??0invalid_scheduler_policy_key@Concurrency@@QAE@ABV01@@Z 00448ff5 f i libconcrt:SchedulerPolicyBase.obj
 0001:00048010       ??0invalid_scheduler_policy_thread_specification@Concurrency@@QAE@ABV01@@Z 00449010 f i libconcrt:SchedulerPolicyBase.obj
 0001:0004802b       ??0invalid_scheduler_policy_value@Concurrency@@QAE@ABV01@@Z 0044902b f i libconcrt:SchedulerPolicyBase.obj
 0001:00048046       ??1SchedulerPolicy@Concurrency@@QAE@XZ 00449046 f   libconcrt:SchedulerPolicyBase.obj
 0001:00048052       ??4SchedulerPolicy@Concurrency@@QAEAAV01@ABV01@@Z 00449052 f   libconcrt:SchedulerPolicyBase.obj
 0001:00048070       ?GetPolicyValue@SchedulerPolicy@Concurrency@@QBEIW4PolicyElementKey@2@@Z 00449070 f   libconcrt:SchedulerPolicyBase.obj
 0001:000480a8       ?_Initialize@SchedulerPolicy@Concurrency@@AAEXIPAPAD@Z 004490a8 f   libconcrt:SchedulerPolicyBase.obj
 0001:00048196       ?_ResolvePolicyValues@SchedulerPolicy@Concurrency@@AAEXXZ 00449196 f   libconcrt:SchedulerPolicyBase.obj
 0001:000481df       ?_StringFromPolicyKey@SchedulerPolicy@Concurrency@@CAPADI@Z 004491df f   libconcrt:SchedulerPolicyBase.obj
 0001:000481f6       ?_ValidPolicyValue@SchedulerPolicy@Concurrency@@CA_NW4PolicyElementKey@2@I@Z 004491f6 f   libconcrt:SchedulerPolicyBase.obj
 0001:000482d6       ?_ValidateConcRTPolicy@SchedulerPolicy@Concurrency@@QBEXXZ 004492d6 f   libconcrt:SchedulerPolicyBase.obj
 0001:00048312       ??$_InternalDeleteHelper@VScheduleGroupSegmentBase@details@Concurrency@@@details@Concurrency@@YAXPAVScheduleGroupSegmentBase@01@@Z 00449312 f i libconcrt:SchedulingRing.obj
 0001:00048312       ??$_InternalDeleteHelper@VVirtualProcessor@details@Concurrency@@@details@Concurrency@@YAXPAVVirtualProcessor@01@@Z 00449312 f i libconcrt:VirtualProcessor.obj
 0001:00048334       ??0VirtualProcessor@details@Concurrency@@QAE@XZ 00449334 f   libconcrt:VirtualProcessor.obj
 0001:00048396       ??1VirtualProcessor@details@Concurrency@@UAE@XZ 00449396 f   libconcrt:VirtualProcessor.obj
 0001:00048402       ??_GVirtualProcessor@details@Concurrency@@UAEPAXI@Z 00449402 f i libconcrt:VirtualProcessor.obj
 0001:00048402       ??_EVirtualProcessor@details@Concurrency@@UAEPAXI@Z 00449402 f i libconcrt:VirtualProcessor.obj
 0001:00048427       ?AcknowledgedAffinityMessage@SchedulerBase@details@Concurrency@@QAE_NI@Z 00449427 f i libconcrt:VirtualProcessor.obj
 0001:00048464       ?Affinitize@VirtualProcessor@details@Concurrency@@MAEXPAVInternalContextBase@23@@Z 00449464 f   libconcrt:VirtualProcessor.obj
 0001:000484ad       ?CheckAffinityNotification@VirtualProcessor@details@Concurrency@@QAE_NXZ 004494ad f   libconcrt:VirtualProcessor.obj
 0001:000484cb       ?CheckForDeletion@?$ListArray@VVirtualProcessor@details@Concurrency@@@details@Concurrency@@AAEXXZ 004494cb f i libconcrt:VirtualProcessor.obj
 0001:000484f1       ?CheckForDeletionBridge@?$ListArray@VVirtualProcessor@details@Concurrency@@@details@Concurrency@@CAXPAV123@@Z 004494f1 f i libconcrt:VirtualProcessor.obj
 0001:000484fd       ?ClaimExclusiveOwnership@VirtualProcessor@details@Concurrency@@QAE_NAAVClaimTicket@123@K_N@Z 004494fd f   libconcrt:VirtualProcessor.obj
 0001:00048592       ?ClearQuickCacheSlot@SchedulerBase@details@Concurrency@@QAEXI@Z 00449592 f i libconcrt:VirtualProcessor.obj
 0001:000485b7       ?Deactivate@VirtualProcessor@details@Concurrency@@QAE_NPAUIExecutionContext@3@@Z 004495b7 f   libconcrt:VirtualProcessor.obj
 0001:000485d9       ?DeleteElements@?$ListArray@VVirtualProcessor@details@Concurrency@@@details@Concurrency@@AAEXPAU_SINGLE_LIST_ENTRY@@@Z 004495d9 f i libconcrt:VirtualProcessor.obj
 0001:000485fa       ?EnsureAllTasksVisible@VirtualProcessor@details@Concurrency@@QAEXPAUIExecutionContext@3@@Z 004495fa f   libconcrt:VirtualProcessor.obj
 0001:0004861c       ?ExerciseClaim@VirtualProcessor@details@Concurrency@@AAE_NW4AvailabilityType@123@PAVScheduleGroupSegmentBase@23@PAVInternalContextBase@23@@Z 0044961c f   libconcrt:VirtualProcessor.obj
 0001:000486ad       ?ExerciseWith@ClaimTicket@VirtualProcessor@details@Concurrency@@QAE_NPAVInternalContextBase@34@@Z 004496ad f   libconcrt:VirtualProcessor.obj
 0001:000486d8       ?GetCurrentSubAllocator@VirtualProcessor@details@Concurrency@@QAEPAVSubAllocator@23@XZ 004496d8 f   libconcrt:VirtualProcessor.obj
 0001:000486ee       ?Initialize@VirtualProcessor@details@Concurrency@@MAEXPAVSchedulingNode@23@PAUIVirtualProcessorRoot@3@@Z 004496ee f   libconcrt:VirtualProcessor.obj
 0001:0004886e       ?InterlockedClear@ReferenceCountedQuickBitSet@details@Concurrency@@QAEII@Z 0044986e f i libconcrt:VirtualProcessor.obj
 0001:000488ae       ?InterlockedSet@ReferenceCountedQuickBitSet@details@Concurrency@@QAEII@Z 004498ae f i libconcrt:VirtualProcessor.obj
 0001:000488f4       ?MakeAvailable@VirtualProcessor@details@Concurrency@@IAEXW4AvailabilityType@123@_N@Z 004498f4 f   libconcrt:VirtualProcessor.obj
 0001:00048964       ?MarkForRetirement@VirtualProcessor@details@Concurrency@@AAEXXZ 00449964 f   libconcrt:VirtualProcessor.obj
 0001:000489d0       ?Oversubscribe@VirtualProcessor@details@Concurrency@@EAEPAV123@XZ 004499d0 f   libconcrt:VirtualProcessor.obj
 0001:00048a03       ?Remove@?$ListArray@VVirtualProcessor@details@Concurrency@@@details@Concurrency@@QAE_NPAVVirtualProcessor@23@H_N@Z 00449a03 f i libconcrt:VirtualProcessor.obj
 0001:00048af9       ?Retire@VirtualProcessor@details@Concurrency@@MAEXXZ 00449af9 f   libconcrt:VirtualProcessor.obj
 0001:00048c5c       ?SafePoint@VirtualProcessor@details@Concurrency@@QAE_NXZ 00449c5c f   libconcrt:VirtualProcessor.obj
 0001:00048c70       ?SaveRetiredVirtualProcessorStatistics@SchedulerBase@details@Concurrency@@QAEXPAVVirtualProcessor@23@@Z 00449c70 f i libconcrt:VirtualProcessor.obj
 0001:00048caa       ?SpinUntilClear@QuickBitSet@details@Concurrency@@QBEXI@Z 00449caa f i libconcrt:VirtualProcessor.obj
 0001:00048cf4       ?SpinUntilSet@QuickBitSet@details@Concurrency@@QBEXI@Z 00449cf4 f i libconcrt:VirtualProcessor.obj
 0001:00048d3e       ?StartupWorkerContext@VirtualProcessor@details@Concurrency@@EAE_NPAVScheduleGroupSegmentBase@23@PAVInternalContextBase@23@@Z 00449d3e f   libconcrt:VirtualProcessor.obj
 0001:00048ddf       ?ThrowVirtualProcessorEvent@VirtualProcessor@details@Concurrency@@CAXW4ConcRT_EventType@3@EKK@Z 00449ddf f   libconcrt:VirtualProcessor.obj
 0001:00048e52       ?ToInternalContext@VirtualProcessor@details@Concurrency@@MAEPAVInternalContextBase@23@PAUIExecutionContext@3@@Z 00449e52 f   libconcrt:VirtualProcessor.obj
 0001:00048e5c       ?TraceVirtualProcessorEvent@VirtualProcessor@details@Concurrency@@AAEXW4ConcRT_EventType@3@EKK@Z 00449e5c f i libconcrt:VirtualProcessor.obj
 0001:00048e89       ?UpdateWorkState@VirtualProcessor@details@Concurrency@@QAEX_N0@Z 00449e89 f   libconcrt:VirtualProcessor.obj
 0001:00048ee9       ?Wipe@QuickBitSet@details@Concurrency@@QAEXXZ 00449ee9 f i libconcrt:VirtualProcessor.obj
 0001:00048f06       ??0SchedulingNode@details@Concurrency@@QAE@ABVQuickBitSet@12@KPAVSchedulingRing@12@@Z 00449f06 f   libconcrt:SchedulingNode.obj
 0001:00048f83       ??1?$ListArray@VVirtualProcessor@details@Concurrency@@@details@Concurrency@@QAE@XZ 00449f83 f i libconcrt:SchedulingNode.obj
 0001:00048ffa       ??1SchedulingNode@details@Concurrency@@QAE@XZ 00449ffa f   libconcrt:SchedulingNode.obj
 0001:00049023       ?Add@?$ListArray@VVirtualProcessor@details@Concurrency@@@details@Concurrency@@QAEHPAVVirtualProcessor@23@@Z 0044a023 f i libconcrt:SchedulingNode.obj
 0001:00049187       ?AddVirtualProcessor@SchedulingNode@details@Concurrency@@QAEPAVVirtualProcessor@23@PAUIVirtualProcessorRoot@3@_N@Z 0044a187 f   libconcrt:SchedulingNode.obj
 0001:00049291       ?FindMatchingVirtualProcessor@SchedulingNode@details@Concurrency@@QAEPAVVirtualProcessor@23@PAUIVirtualProcessorRoot@3@@Z 0044a291 f   libconcrt:SchedulingNode.obj
 0001:000492d0       ?FindVirtualProcessorByLocation@SchedulingNode@details@Concurrency@@QAEPAVVirtualProcessor@23@PBVlocation@3@@Z 0044a2d0 f   libconcrt:SchedulingNode.obj
 0001:0004932a       ?FoundAvailableVirtualProcessor@SchedulingNode@details@Concurrency@@AAE_NAAVClaimTicket@VirtualProcessor@23@Vlocation@3@K@Z 0044a32a f   libconcrt:SchedulingNode.obj
 0001:0004939a       ?GetLocation@SchedulingNode@details@Concurrency@@QAE?AVlocation@3@XZ 0044a39a f   libconcrt:SchedulingNode.obj
 0001:000493ce       ?Steal@?$StructuredWorkStealingQueue@VInternalContextBase@details@Concurrency@@V_HyperNonReentrantLock@23@@details@Concurrency@@QAEPAVInternalContextBase@23@_N@Z 0044a3ce f i libconcrt:SchedulingNode.obj
 0001:00049411       ??0InternalContextBase@details@Concurrency@@QAE@PAVSchedulerBase@12@@Z 0044a411 f   libconcrt:InternalContextBase.obj
 0001:0004948a       ??0context_self_unblock@Concurrency@@QAE@ABV01@@Z 0044a48a f i libconcrt:InternalContextBase.obj
 0001:000494a5       ??0context_unblock_unbalanced@Concurrency@@QAE@ABV01@@Z 0044a4a5 f i libconcrt:InternalContextBase.obj
 0001:000494c0       ??0invalid_oversubscribe_operation@Concurrency@@QAE@ABV01@@Z 0044a4c0 f i libconcrt:InternalContextBase.obj
 0001:000494db       ??0nested_scheduler_missing_detach@Concurrency@@QAE@ABV01@@Z 0044a4db f i libconcrt:InternalContextBase.obj
 0001:000494f6       ??1InternalContextBase@details@Concurrency@@UAE@XZ 0044a4f6 f   libconcrt:InternalContextBase.obj
 0001:00049544       ??1ScopedCriticalRegion@ContextBase@details@Concurrency@@QAE@XZ 0044a544 f i libconcrt:InternalContextBase.obj
 0001:0004957c       ??_EInternalContextBase@details@Concurrency@@W3AEPAXI@Z 0044a57c f i libconcrt:InternalContextBase.obj
 0001:00049584       ??_GInternalContextBase@details@Concurrency@@UAEPAXI@Z 0044a584 f i libconcrt:InternalContextBase.obj
 0001:00049584       ??_EInternalContextBase@details@Concurrency@@UAEPAXI@Z 0044a584 f i libconcrt:InternalContextBase.obj
 0001:000495a9       ?AddToRunnables@InternalContextBase@details@Concurrency@@MAEXVlocation@3@@Z 0044a5a9 f   libconcrt:InternalContextBase.obj
 0001:0004972a       ?Alloc@InternalContextBase@details@Concurrency@@UAEPAXI@Z 0044a72a f   libconcrt:InternalContextBase.obj
 0001:0004977e       ?Block@InternalContextBase@details@Concurrency@@UAEXXZ 0044a77e f   libconcrt:InternalContextBase.obj
 0001:000498b6       ?Cancel@InternalContextBase@details@Concurrency@@MAEXXZ 0044a8b6 f   libconcrt:InternalContextBase.obj
 0001:0004992a       ?Cleanup@InternalContextBase@details@Concurrency@@IAEXXZ 0044a92a f   libconcrt:InternalContextBase.obj
 0001:00049942       ?CleanupDispatchedContextOnCancel@InternalContextBase@details@Concurrency@@IAEXXZ 0044a942 f   libconcrt:InternalContextBase.obj
 0001:0004995d       ?Dispatch@InternalContextBase@details@Concurrency@@UAEXPAUDispatchState@3@@Z 0044a95d f   libconcrt:InternalContextBase.obj
 0001:00049aeb       ?ExecuteChoreInline@InternalContextBase@details@Concurrency@@IAEXPAVWorkItem@23@@Z 0044aaeb f   libconcrt:InternalContextBase.obj
 0001:00049b28       ?ExecutedAssociatedChore@InternalContextBase@details@Concurrency@@IAE_NXZ 0044ab28 f   libconcrt:InternalContextBase.obj
 0001:00049b96       ?FindWorkForBlockingOrNesting@InternalContextBase@details@Concurrency@@AAEPAV123@AA_N0@Z 0044ab96 f   libconcrt:InternalContextBase.obj
 0001:00049cc5       ?Free@InternalContextBase@details@Concurrency@@UAEXPAX@Z 0044acc5 f   libconcrt:InternalContextBase.obj
 0001:00049cf1       ?GetAndResetOversubscribedVProc@InternalContextBase@details@Concurrency@@QAEPAVVirtualProcessor@23@PAV423@@Z 0044acf1 f   libconcrt:InternalContextBase.obj
 0001:00049d1f       ?GetId@InternalContextBase@details@Concurrency@@W3BEIXZ 0044ad1f f i libconcrt:InternalContextBase.obj
 0001:00049d27       ?GetProxy@InternalContextBase@details@Concurrency@@UAEPAUIThreadProxy@3@XZ 0044ad27 f   libconcrt:InternalContextBase.obj
 0001:00049d2e       ?GetScheduler@InternalContextBase@details@Concurrency@@UAEPAUIScheduler@3@XZ 0044ad2e f   libconcrt:InternalContextBase.obj
 0001:00049d47       ?GetVirtualProcessorId@InternalContextBase@details@Concurrency@@UBEIXZ 0044ad47 f   libconcrt:InternalContextBase.obj
 0001:00049d76       ?IsSynchronouslyBlocked@InternalContextBase@details@Concurrency@@UBE_NXZ 0044ad76 f i libconcrt:InternalContextBase.obj
 0001:00049d7e       ?IsVirtualProcessorRetired@InternalContextBase@details@Concurrency@@IAE_NXZ 0044ad7e f   libconcrt:InternalContextBase.obj
 0001:00049ddc       ?LeaveScheduler@InternalContextBase@details@Concurrency@@AAEXXZ 0044addc f   libconcrt:InternalContextBase.obj
 0001:00049ee4       ?Oversubscribe@InternalContextBase@details@Concurrency@@UAEX_N@Z 0044aee4 f   libconcrt:InternalContextBase.obj
 0001:00049f6c       ?PrepareForUse@InternalContextBase@details@Concurrency@@QAEXPAVScheduleGroupSegmentBase@23@PAU_Chore@23@_N@Z 0044af6c f   libconcrt:InternalContextBase.obj
 0001:00049fbf       ?PrepareToRun@InternalContextBase@details@Concurrency@@MAEXPAVVirtualProcessor@23@@Z 0044afbf f i libconcrt:InternalContextBase.obj
 0001:00049fd6       ?ReclaimVirtualProcessor@InternalContextBase@details@Concurrency@@IAEXXZ 0044afd6 f   libconcrt:InternalContextBase.obj
 0001:0004a041       ?RejoinScheduler@InternalContextBase@details@Concurrency@@AAEXXZ 0044b041 f   libconcrt:InternalContextBase.obj
 0001:0004a060       ?RemoveFromUse@InternalContextBase@details@Concurrency@@QAEXXZ 0044b060 f   libconcrt:InternalContextBase.obj
 0001:0004a083       ?SetProxy@InternalContextBase@details@Concurrency@@UAEXPAUIThreadProxy@3@@Z 0044b083 f   libconcrt:InternalContextBase.obj
 0001:0004a0b8       ?SpinUntilBlocked@InternalContextBase@details@Concurrency@@IAEXXZ 0044b0b8 f   libconcrt:InternalContextBase.obj
 0001:0004a0e5       ?SpinUntilValueEquals@details@Concurrency@@YAXPCJJ@Z 0044b0e5 f i libconcrt:InternalContextBase.obj
 0001:0004a114       ?SpinYield@InternalContextBase@details@Concurrency@@UAEXXZ 0044b114 f   libconcrt:InternalContextBase.obj
 0001:0004a1d2       ?SwapScheduleGroupSegment@InternalContextBase@details@Concurrency@@QAEXPAVScheduleGroupSegmentBase@23@_N@Z 0044b1d2 f   libconcrt:InternalContextBase.obj
 0001:0004a21d       ?SwitchOut@InternalContextBase@details@Concurrency@@IAE_NW4ReasonForSwitch@123@@Z 0044b21d f   libconcrt:InternalContextBase.obj
 0001:0004a33f       ?SwitchTo@InternalContextBase@details@Concurrency@@IAEXPAV123@W4ReasonForSwitch@123@@Z 0044b33f f   libconcrt:InternalContextBase.obj
 0001:0004a47d       ?Unblock@InternalContextBase@details@Concurrency@@UAEXXZ 0044b47d f   libconcrt:InternalContextBase.obj
 0001:0004a53e       ?WaitForWork@InternalContextBase@details@Concurrency@@IAEXXZ 0044b53e f   libconcrt:InternalContextBase.obj
 0001:0004a63e       ?WorkWasFound@InternalContextBase@details@Concurrency@@IAE_NPAVWorkItem@23@@Z 0044b63e f   libconcrt:InternalContextBase.obj
 0001:0004a6b5       ?Yield@InternalContextBase@details@Concurrency@@UAEXXZ 0044b6b5 f   libconcrt:InternalContextBase.obj
 0001:0004a83e       ??0SchedulingRing@details@Concurrency@@QAE@PAVSchedulerBase@12@H@Z 0044b83e f   libconcrt:SchedulingRing.obj
 0001:0004a8c7       ??1?$ListArray@VScheduleGroupSegmentBase@details@Concurrency@@@details@Concurrency@@QAE@XZ 0044b8c7 f i libconcrt:SchedulingRing.obj
 0001:0004a93e       ??1SchedulingRing@details@Concurrency@@QAE@XZ 0044b93e f   libconcrt:SchedulingRing.obj
 0001:0004a956       ?Activate@SchedulingRing@details@Concurrency@@QAEXXZ 0044b956 f   libconcrt:SchedulingRing.obj
 0001:0004a962       ?CheckForDeletion@?$ListArray@VScheduleGroupSegmentBase@details@Concurrency@@@details@Concurrency@@AAEXXZ 0044b962 f i libconcrt:SchedulingRing.obj
 0001:0004a988       ?CheckForDeletionBridge@?$ListArray@VScheduleGroupSegmentBase@details@Concurrency@@@details@Concurrency@@CAXPAV123@@Z 0044b988 f i libconcrt:SchedulingRing.obj
 0001:0004a994       ?DeleteElements@?$ListArray@VScheduleGroupSegmentBase@details@Concurrency@@@details@Concurrency@@AAEXPAU_SINGLE_LIST_ENTRY@@@Z 0044b994 f i libconcrt:SchedulingRing.obj
 0001:0004a9b5       ?Remove@?$ListArray@VScheduleGroupSegmentBase@details@Concurrency@@@details@Concurrency@@QAE_NPAVScheduleGroupSegmentBase@23@H_N@Z 0044b9b5 f i libconcrt:SchedulingRing.obj
 0001:0004aaab       ?RemoveScheduleGroupSegment@SchedulingRing@details@Concurrency@@AAEXPAVScheduleGroupSegmentBase@23@@Z 0044baab f   libconcrt:SchedulingRing.obj
 0001:0004aada       ??IQuickBitSet@details@Concurrency@@QBE?AV012@ABV012@@Z 0044bada f i libconcrt:CacheLocalScheduleGroup.obj
 0001:0004ab28       ?AddToRunnablesCollection@CacheLocalScheduleGroupSegment@details@Concurrency@@EAEXPAVInternalContextBase@23@@Z 0044bb28 f   libconcrt:CacheLocalScheduleGroup.obj
 0001:0004ab28       ?AddToRunnablesCollection@FairScheduleGroupSegment@details@Concurrency@@EAEXPAVInternalContextBase@23@@Z 0044bb28 f   libconcrt:FairScheduleGroup.obj
 0001:0004ab37       ?Enqueue@?$Mailbox@V_UnrealizedChore@details@Concurrency@@@details@Concurrency@@QAE?AVSlot@123@PAV_UnrealizedChore@23@@Z 0044bb37 f i libconcrt:CacheLocalScheduleGroup.obj
 0001:0004ab88       ?Enqueue@?$SafeSQueue@VInternalContextBase@details@Concurrency@@V_HyperNonReentrantLock@23@@details@Concurrency@@QAEXPAVInternalContextBase@23@@Z 0044bb88 f i libconcrt:CacheLocalScheduleGroup.obj
 0001:0004abc6       ?InterlockedSet@QuickBitSet@details@Concurrency@@QAEXABV123@@Z 0044bbc6 f i libconcrt:CacheLocalScheduleGroup.obj
 0001:0004abfe       ?MailChore@CacheLocalScheduleGroup@details@Concurrency@@UAE?AVSlot@?$Mailbox@V_UnrealizedChore@details@Concurrency@@@23@PAV_UnrealizedChore@23@PAVlocation@3@PAPAVScheduleGroupSegmentBase@23@@Z 0044bbfe f   libconcrt:CacheLocalScheduleGroup.obj
 0001:0004ac36       ?MailChore@CacheLocalScheduleGroupSegment@details@Concurrency@@QAE?AVSlot@?$Mailbox@V_UnrealizedChore@details@Concurrency@@@23@PAV_UnrealizedChore@23@@Z 0044bc36 f   libconcrt:CacheLocalScheduleGroup.obj
 0001:0004ac4e       ?NotifyAffinitizedWork@CacheLocalScheduleGroupSegment@details@Concurrency@@UAEXXZ 0044bc4e f   libconcrt:CacheLocalScheduleGroup.obj
 0001:0004ac81       ?PostAffinityMessage@SchedulerBase@details@Concurrency@@QAEXABVQuickBitSet@23@@Z 0044bc81 f i libconcrt:CacheLocalScheduleGroup.obj
 0001:0004acc1       ?SetQuickCacheSlot@SchedulerBase@details@Concurrency@@QAEXIPAVScheduleGroupSegmentBase@23@@Z 0044bcc1 f i libconcrt:CacheLocalScheduleGroup.obj
 0001:0004ace7       ?FindSegment@FairScheduleGroup@details@Concurrency@@MAEPAVScheduleGroupSegmentBase@23@PAVlocation@3@PAVSchedulingRing@23@@Z 0044bce7 f   libconcrt:FairScheduleGroup.obj
 0001:0004ad18       ?LocateSegment@FairScheduleGroup@details@Concurrency@@UAEPAVScheduleGroupSegmentBase@23@PAVlocation@3@_N@Z 0044bd18 f   libconcrt:FairScheduleGroup.obj
 0001:0004ad83       ??0ExternalContextBase@details@Concurrency@@QAE@PAVSchedulerBase@12@_N@Z 0044bd83 f   libconcrt:ExternalContextBase.obj
 0001:0004ae1c       ??_EExternalContextBase@details@Concurrency@@UAEPAXI@Z 0044be1c f i libconcrt:ExternalContextBase.obj
 0001:0004ae1c       ??_GExternalContextBase@details@Concurrency@@UAEPAXI@Z 0044be1c f i libconcrt:ExternalContextBase.obj
 0001:0004ae7e       ?Alloc@ExternalContextBase@details@Concurrency@@UAEPAXI@Z 0044be7e f   libconcrt:ExternalContextBase.obj
 0001:0004aeb6       ?Block@ExternalContextBase@details@Concurrency@@UAEXXZ 0044beb6 f   libconcrt:ExternalContextBase.obj
 0001:0004af00       ?Cleanup@ExternalContextBase@details@Concurrency@@AAEXXZ 0044bf00 f   libconcrt:ExternalContextBase.obj
 0001:0004af58       ?Free@ExternalContextBase@details@Concurrency@@UAEXPAX@Z 0044bf58 f   libconcrt:ExternalContextBase.obj
 0001:0004af94       ?ImplicitDetachHandler@ExternalContextBase@details@Concurrency@@CGXPAU_TP_CALLBACK_INSTANCE@@PAXPAU_TP_WAIT@@K@Z 0044bf94 f   libconcrt:ExternalContextBase.obj
 0001:0004afb6       ?ImplicitDetachHandlerXP@ExternalContextBase@details@Concurrency@@CGXPAXE@Z 0044bfb6 f   libconcrt:ExternalContextBase.obj
 0001:0004afd9       ?IsSynchronouslyBlocked@ExternalContextBase@details@Concurrency@@UBE_NXZ 0044bfd9 f i libconcrt:ExternalContextBase.obj
 0001:0004afe1       ?Oversubscribe@ExternalContextBase@details@Concurrency@@UAEX_N@Z 0044bfe1 f   libconcrt:ExternalContextBase.obj
 0001:0004b018       ?PrepareForUse@ExternalContextBase@details@Concurrency@@QAEX_N@Z 0044c018 f   libconcrt:ExternalContextBase.obj
 0001:0004b0dd       ?RemoveFromUse@ExternalContextBase@details@Concurrency@@QAEXXZ 0044c0dd f   libconcrt:ExternalContextBase.obj
 0001:0004b0ff       ?SpinYield@ExternalContextBase@details@Concurrency@@UAEXXZ 0044c0ff f i libconcrt:ExternalContextBase.obj
 0001:0004b117       ?Unblock@ExternalContextBase@details@Concurrency@@UAEXXZ 0044c117 f   libconcrt:ExternalContextBase.obj
 0001:0004b19a       ?Yield@ExternalContextBase@details@Concurrency@@UAEXXZ 0044c19a f   libconcrt:ExternalContextBase.obj
 0001:0004b1ca       ??0ThreadInternalContext@details@Concurrency@@QAE@PAVSchedulerBase@12@@Z 0044c1ca f i libconcrt:ThreadScheduler.obj
 0001:0004b1f2       ??0ThreadScheduler@details@Concurrency@@QAE@ABVSchedulerPolicy@2@@Z 0044c1f2 f   libconcrt:ThreadScheduler.obj
 0001:0004b225       ??_EThreadInternalContext@details@Concurrency@@W3AEPAXI@Z 0044c225 f i libconcrt:ThreadScheduler.obj
 0001:0004b22d       ??_EThreadScheduler@details@Concurrency@@W7AEPAXI@Z 0044c22d f i libconcrt:ThreadScheduler.obj
 0001:0004b235       ??_EThreadInternalContext@details@Concurrency@@UAEPAXI@Z 0044c235 f i libconcrt:ThreadScheduler.obj
 0001:0004b235       ??_GThreadInternalContext@details@Concurrency@@UAEPAXI@Z 0044c235 f i libconcrt:ThreadScheduler.obj
 0001:0004b267       ??_GThreadScheduler@details@Concurrency@@UAEPAXI@Z 0044c267 f i libconcrt:ThreadScheduler.obj
 0001:0004b267       ??_EThreadScheduler@details@Concurrency@@UAEPAXI@Z 0044c267 f i libconcrt:ThreadScheduler.obj
 0001:0004b29b       ?AddVirtualProcessors@ThreadScheduler@details@Concurrency@@UAEXPAPAUIVirtualProcessorRoot@3@I@Z 0044c29b f i libconcrt:ThreadScheduler.obj
 0001:0004b2a7       ?Create@ThreadScheduler@details@Concurrency@@SAPAV123@ABVSchedulerPolicy@3@@Z 0044c2a7 f   libconcrt:ThreadScheduler.obj
 0001:0004b2da       ?CreateInternalContext@ThreadScheduler@details@Concurrency@@MAEPAVInternalContextBase@23@XZ 0044c2da f   libconcrt:ThreadScheduler.obj
 0001:0004b318       ?CreateVirtualProcessor@ThreadScheduler@details@Concurrency@@UAEPAVVirtualProcessor@23@PAVSchedulingNode@23@PAUIVirtualProcessorRoot@3@@Z 0044c318 f   libconcrt:ThreadScheduler.obj
 0001:0004b350       ?GetIScheduler@ThreadScheduler@details@Concurrency@@UAEPAUIScheduler@3@XZ 0044c350 f i libconcrt:ThreadScheduler.obj
 0001:0004b354       ?GetId@ThreadScheduler@details@Concurrency@@UBEIXZ 0044c354 f i libconcrt:ThreadScheduler.obj
 0001:0004b36d       ?GetPolicy@ThreadScheduler@details@Concurrency@@UBE?AVSchedulerPolicy@3@XZ 0044c36d f i libconcrt:ThreadScheduler.obj
 0001:0004b382       ?GetPolicy@ThreadScheduler@details@Concurrency@@W7BE?AVSchedulerPolicy@3@XZ 0044c382 f i libconcrt:ThreadScheduler.obj
 0001:0004b38a       ?RemoveVirtualProcessors@ThreadScheduler@details@Concurrency@@UAEXPAPAUIVirtualProcessorRoot@3@I@Z 0044c38a f i libconcrt:ThreadScheduler.obj
 0001:0004b396       ?Statistics@ThreadScheduler@details@Concurrency@@UAEXPAI00@Z 0044c396 f i libconcrt:ThreadScheduler.obj
 0001:0004b3a2       ?OneShotStaticConstruction@UMSThreadScheduler@details@Concurrency@@SAXXZ 0044c3a2 f   libconcrt:UMSThreadScheduler.obj
 0001:0004b3e6       ?OneShotStaticDestruction@UMSThreadScheduler@details@Concurrency@@SAXXZ 0044c3e6 f   libconcrt:UMSThreadScheduler.obj
 0001:0004b3fa       ??0ExecutionResource@details@Concurrency@@QAE@PAVSchedulerProxy@12@PAUSchedulerNode@12@I@Z 0044c3fa f   libconcrt:ExecutionResource.obj
 0001:0004b45c       ??0ExecutionResource@details@Concurrency@@QAE@PAVSchedulerProxy@12@PAV012@@Z 0044c45c f   libconcrt:ExecutionResource.obj
 0001:0004b4b0       ?CurrentSubscriptionLevel@ExecutionResource@details@Concurrency@@UBEIXZ 0044c4b0 f   libconcrt:ExecutionResource.obj
 0001:0004b4c2       ?DecrementUseCounts@ExecutionResource@details@Concurrency@@QAEXXZ 0044c4c2 f   libconcrt:ExecutionResource.obj
 0001:0004b52a       ?GetExecutionResourceId@ExecutionResource@details@Concurrency@@UBEIXZ 0044c52a f i libconcrt:ExecutionResource.obj
 0001:0004b52a       ?GetNodeId@VirtualProcessorRoot@details@Concurrency@@UBEIXZ 0044c52a f i libconcrt:VirtualProcessorRoot.obj
 0001:0004b52e       ?GetNodeId@ExecutionResource@details@Concurrency@@UBEIXZ 0044c52e f i libconcrt:ExecutionResource.obj
 0001:0004b532       ?IncrementUseCounts@ExecutionResource@details@Concurrency@@QAEXXZ 0044c532 f   libconcrt:ExecutionResource.obj
 0001:0004b5fc       ?Remove@ExecutionResource@details@Concurrency@@UAEXPAUIScheduler@3@@Z 0044c5fc f   libconcrt:ExecutionResource.obj
 0001:0004b65d       ?ResetCurrent@ExecutionResource@details@Concurrency@@QAEXXZ 0044c65d f   libconcrt:ExecutionResource.obj
 0001:0004b679       ?SetAsCurrent@ExecutionResource@details@Concurrency@@QAEXXZ 0044c679 f   libconcrt:ExecutionResource.obj
 0001:0004b69c       ??0HillClimbing@details@Concurrency@@QAE@IIPAVSchedulerProxy@12@@Z 0044c69c f   libconcrt:HillClimbing.obj
 0001:0004b72b       ?Add@MeasuredHistory@HillClimbing@details@Concurrency@@QAEXNI@Z 0044c72b f   libconcrt:HillClimbing.obj
 0001:0004b74e       ?CalculateThroughputSlope@HillClimbing@details@Concurrency@@AAENHH@Z 0044c74e f   libconcrt:HillClimbing.obj
 0001:0004b836       ?CoefficientOfVariationMean@MeasuredHistory@HillClimbing@details@Concurrency@@QAENXZ 0044c836 f   libconcrt:HillClimbing.obj
 0001:0004b87d       ?EstablishControlSetting@HillClimbing@details@Concurrency@@AAEXI@Z 0044c87d f   libconcrt:HillClimbing.obj
 0001:0004b8c2       ?FlushHistories@HillClimbing@details@Concurrency@@AAEXXZ 0044c8c2 f   libconcrt:HillClimbing.obj
 0001:0004b908       ?GetHistory@HillClimbing@details@Concurrency@@AAEPAVMeasuredHistory@123@I@Z 0044c908 f   libconcrt:HillClimbing.obj
 0001:0004b933       ?GetRandomMove@HillClimbing@details@Concurrency@@AAEHXZ 0044c933 f   libconcrt:HillClimbing.obj
 0001:0004b94c       ?IsStableHistory@HillClimbing@details@Concurrency@@AAE_NPAVMeasuredHistory@123@@Z 0044c94c f   libconcrt:HillClimbing.obj
 0001:0004b97c       ?RecommendControlSetting@HillClimbing@details@Concurrency@@AAEII@Z 0044c97c f   libconcrt:HillClimbing.obj
 0001:0004ba43       ?Update@HillClimbing@details@Concurrency@@QAEIIIII@Z 0044ca43 f   libconcrt:HillClimbing.obj
 0001:0004bc54       ?Variance@MeasuredHistory@HillClimbing@details@Concurrency@@QAENXZ 0044cc54 f   libconcrt:HillClimbing.obj
 0001:0004bca2       ??0SchedulerProxy@details@Concurrency@@QAE@PAUIScheduler@2@PAVResourceManager@12@ABVSchedulerPolicy@2@@Z 0044cca2 f   libconcrt:SchedulerProxy.obj
 0001:0004bef8       ??1SchedulerProxy@details@Concurrency@@IAE@XZ 0044cef8 f   libconcrt:SchedulerProxy.obj
 0001:0004bf57       ?AddCore@SchedulerProxy@details@Concurrency@@QAEXPAUSchedulerNode@23@I_N@Z 0044cf57 f   libconcrt:SchedulerProxy.obj
 0001:0004c024       ?AddExecutionResource@SchedulerProxy@details@Concurrency@@QAEXPAVExecutionResource@23@@Z 0044d024 f   libconcrt:SchedulerProxy.obj
 0001:0004c06d       ?AddTail@?$List@VExecutionResource@details@Concurrency@@VCount@CollectionTypes@23@@details@Concurrency@@QAEXPAVExecutionResource@23@@Z 0044d06d f i libconcrt:SchedulerProxy.obj
 0001:0004c0a6       ?AddThreadSubscription@SchedulerProxy@details@Concurrency@@QAEXPAVExecutionResource@23@@Z 0044d0a6 f   libconcrt:SchedulerProxy.obj
 0001:0004c0b5       ?AddVirtualProcessorRoots@SchedulerProxy@details@Concurrency@@QAEXPAPAUIVirtualProcessorRoot@3@I@Z 0044d0b5 f   libconcrt:SchedulerProxy.obj
 0001:0004c163       ?AdjustAllocationIncrease@SchedulerProxy@details@Concurrency@@QBEII@Z 0044d163 f   libconcrt:SchedulerProxy.obj
 0001:0004c1d3       ?BindContext@SchedulerProxy@details@Concurrency@@UAEXPAUIExecutionContext@3@@Z 0044d1d3 f   libconcrt:SchedulerProxy.obj
 0001:0004c231       ?Cleanup@SchedulerProxy@details@Concurrency@@IAEXXZ 0044d231 f   libconcrt:SchedulerProxy.obj
 0001:0004c300       ?CreateExternalThreadResource@SchedulerProxy@details@Concurrency@@QAEPAVExecutionResource@23@PAUSchedulerNode@23@I@Z 0044d300 f   libconcrt:SchedulerProxy.obj
 0001:0004c347       ?CreateOversubscriber@SchedulerProxy@details@Concurrency@@UAEPAUIVirtualProcessorRoot@3@PAUIExecutionResource@3@@Z 0044d347 f   libconcrt:SchedulerProxy.obj
 0001:0004c403       ?CreateVirtualProcessorRoot@SchedulerProxy@details@Concurrency@@UAEPAVVirtualProcessorRoot@23@PAUSchedulerNode@23@I@Z 0044d403 f   libconcrt:SchedulerProxy.obj
 0001:0004c43b       ?DecrementCoreSubscription@SchedulerProxy@details@Concurrency@@QAEXPAVExecutionResource@23@@Z 0044d43b f   libconcrt:SchedulerProxy.obj
 0001:0004c485       ?DecrementFixedCoreCount@SchedulerProxy@details@Concurrency@@QAEXII_N@Z 0044d485 f   libconcrt:SchedulerProxy.obj
 0001:0004c500       ?DeleteThis@SchedulerProxy@details@Concurrency@@MAEXXZ 0044d500 f i libconcrt:SchedulerProxy.obj
 0001:0004c51b       ?DestroyExecutionResource@SchedulerProxy@details@Concurrency@@QAEXPAVExecutionResource@23@@Z 0044d51b f   libconcrt:SchedulerProxy.obj
 0001:0004c5a0       ?DestroyVirtualProcessorRoot@SchedulerProxy@details@Concurrency@@QAEXPAVVirtualProcessorRoot@23@@Z 0044d5a0 f   libconcrt:SchedulerProxy.obj
 0001:0004c62a       ?FinalShutdown@SchedulerProxy@details@Concurrency@@UAEXXZ 0044d62a f   libconcrt:SchedulerProxy.obj
 0001:0004c647       ?GetCurrentThreadExecutionResource@SchedulerProxy@details@Concurrency@@QAEPAVExecutionResource@23@XZ 0044d647 f   libconcrt:SchedulerProxy.obj
 0001:0004c664       ?GetNewThreadProxy@SchedulerProxy@details@Concurrency@@UAEPAUIThreadProxy@3@PAUIExecutionContext@3@@Z 0044d664 f   libconcrt:SchedulerProxy.obj
 0001:0004c6b2       ?GetResourceForNewSubscription@SchedulerProxy@details@Concurrency@@QAEPAVExecutionResource@23@PAV423@@Z 0044d6b2 f   libconcrt:SchedulerProxy.obj
 0001:0004c700       ?GrantAllocation@SchedulerProxy@details@Concurrency@@QAEPAVExecutionResource@23@I_N0@Z 0044d700 f   libconcrt:SchedulerProxy.obj
 0001:0004c9dd       ?IncrementCoreSubscription@SchedulerProxy@details@Concurrency@@QAEXPAVExecutionResource@23@@Z 0044d9dd f   libconcrt:SchedulerProxy.obj
 0001:0004ca2b       ?IncrementFixedCoreCount@SchedulerProxy@details@Concurrency@@QAEXII_N@Z 0044da2b f   libconcrt:SchedulerProxy.obj
 0001:0004cab3       ?ReferenceCurrentThreadExecutionResource@SchedulerProxy@details@Concurrency@@QAEPAVExecutionResource@23@XZ 0044dab3 f   libconcrt:SchedulerProxy.obj
 0001:0004cb60       ?Remove@?$List@VExecutionResource@details@Concurrency@@VCount@CollectionTypes@23@@details@Concurrency@@QAEXPAVExecutionResource@23@@Z 0044db60 f i libconcrt:SchedulerProxy.obj
 0001:0004cb96       ?RemoveCore@SchedulerProxy@details@Concurrency@@QAEXPAUSchedulerNode@23@I@Z 0044db96 f   libconcrt:SchedulerProxy.obj
 0001:0004cc80       ?RemoveThreadSubscription@SchedulerProxy@details@Concurrency@@QAEXPAVExecutionResource@23@@Z 0044dc80 f   libconcrt:SchedulerProxy.obj
 0001:0004ccac       ?RequestInitialVirtualProcessors@SchedulerProxy@details@Concurrency@@UAEPAUIExecutionResource@3@_N@Z 0044dcac f   libconcrt:SchedulerProxy.obj
 0001:0004ccbf       ?SendCoreNotification@SchedulerProxy@details@Concurrency@@QAEXPAUSchedulerCore@23@_N@Z 0044dcbf f   libconcrt:SchedulerProxy.obj
 0001:0004cd97       ?Shutdown@SchedulerProxy@details@Concurrency@@UAEXXZ 0044dd97 f   libconcrt:SchedulerProxy.obj
 0001:0004cda1       ?SubscribeCurrentThread@SchedulerProxy@details@Concurrency@@UAEPAUIExecutionResource@3@XZ 0044dda1 f   libconcrt:SchedulerProxy.obj
 0001:0004cdab       ?ToggleBorrowedState@SchedulerProxy@details@Concurrency@@QAEXPAUSchedulerNode@23@I@Z 0044ddab f   libconcrt:SchedulerProxy.obj
 0001:0004cde7       ?UnbindContext@SchedulerProxy@details@Concurrency@@UAEXPAUIExecutionContext@3@@Z 0044dde7 f   libconcrt:SchedulerProxy.obj
 0001:0004ce32       ?Initialize@WinRT@details@Concurrency@@SAXXZ 0044de32 f   libconcrt:WinRTWrapper.obj
 0001:0004cee1       ?RoInitialize@WinRT@details@Concurrency@@SAJW4RO_INIT_TYPE@@@Z 0044dee1 f   libconcrt:WinRTWrapper.obj
 0001:0004cf03       ?RoUninitialize@WinRT@details@Concurrency@@SAXXZ 0044df03 f   libconcrt:WinRTWrapper.obj
 0001:0004cf1e       ??0?$ThreadProxyFactory@VFreeThreadProxy@details@Concurrency@@@details@Concurrency@@IAE@PAVThreadProxyFactoryManager@12@@Z 0044df1e f i libconcrt:ThreadProxyFactoryManager.obj
 0001:0004cf59       ??0FreeThreadProxy@details@Concurrency@@QAE@PAUIThreadProxyFactory@12@I@Z 0044df59 f i libconcrt:ThreadProxyFactoryManager.obj
 0001:0004cf90       ??0FreeThreadProxyFactory@details@Concurrency@@IAE@PAVThreadProxyFactoryManager@12@@Z 0044df90 f i libconcrt:ThreadProxyFactoryManager.obj
 0001:0004cfbc       ??0ThreadProxyFactoryManager@details@Concurrency@@QAE@XZ 0044dfbc f   libconcrt:ThreadProxyFactoryManager.obj
 0001:0004cff0       ??1ThreadProxyFactoryManager@details@Concurrency@@QAE@XZ 0044dff0 f   libconcrt:ThreadProxyFactoryManager.obj
 0001:0004d069       ??_E?$ThreadProxyFactory@VFreeThreadProxy@details@Concurrency@@@details@Concurrency@@UAEPAXI@Z 0044e069 f i libconcrt:ThreadProxyFactoryManager.obj
 0001:0004d069       ??_G?$ThreadProxyFactory@VFreeThreadProxy@details@Concurrency@@@details@Concurrency@@UAEPAXI@Z 0044e069 f i libconcrt:ThreadProxyFactoryManager.obj
 0001:0004d08c       ??_GFreeThreadProxy@details@Concurrency@@UAEPAXI@Z 0044e08c f i libconcrt:ThreadProxyFactoryManager.obj
 0001:0004d08c       ??_EFreeThreadProxy@details@Concurrency@@UAEPAXI@Z 0044e08c f i libconcrt:ThreadProxyFactoryManager.obj
 0001:0004d0b4       ??_GFreeThreadProxyFactory@details@Concurrency@@UAEPAXI@Z 0044e0b4 f i libconcrt:ThreadProxyFactoryManager.obj
 0001:0004d0b4       ??_EFreeThreadProxyFactory@details@Concurrency@@UAEPAXI@Z 0044e0b4 f i libconcrt:ThreadProxyFactoryManager.obj
 0001:0004d0d7       ??_EIThreadProxyFactory@details@Concurrency@@UAEPAXI@Z 0044e0d7 f i libconcrt:ThreadProxyFactoryManager.obj
 0001:0004d0d7       ??_GIThreadProxyFactory@details@Concurrency@@UAEPAXI@Z 0044e0d7 f i libconcrt:ThreadProxyFactoryManager.obj
 0001:0004d0fa       ?Create@FreeThreadProxyFactory@details@Concurrency@@EAEPAVFreeThreadProxy@23@I@Z 0044e0fa f i libconcrt:ThreadProxyFactoryManager.obj
 0001:0004d12f       ?CreateFactory@FreeThreadProxyFactory@details@Concurrency@@SAPAV123@PAVThreadProxyFactoryManager@23@@Z 0044e12f f i libconcrt:ThreadProxyFactoryManager.obj
 0001:0004d16a       ?GetFreeThreadProxyFactory@ThreadProxyFactoryManager@details@Concurrency@@QAEPAVFreeThreadProxyFactory@23@XZ 0044e16a f   libconcrt:ThreadProxyFactoryManager.obj
 0001:0004d1b2       ?Prepare@?$ThreadProxyFactory@VFreeThreadProxy@details@Concurrency@@@details@Concurrency@@MAEXPAVFreeThreadProxy@23@H@Z 0044e1b2 f i libconcrt:ThreadProxyFactoryManager.obj
 0001:0004d1ca       ?ReclaimProxy@?$ThreadProxyFactory@VFreeThreadProxy@details@Concurrency@@@details@Concurrency@@UAEXPAUIThreadProxy@3@@Z 0044e1ca f i libconcrt:ThreadProxyFactoryManager.obj
 0001:0004d22d       ?ReclaimProxy@FreeThreadProxyFactory@details@Concurrency@@UAEXPAUIThreadProxy@3@@Z 0044e22d f i libconcrt:ThreadProxyFactoryManager.obj
 0001:0004d2d2       ?Reference@FreeThreadProxyFactory@details@Concurrency@@UAEJXZ 0044e2d2 f i libconcrt:ThreadProxyFactoryManager.obj
 0001:0004d2dc       ?Release@FreeThreadProxyFactory@details@Concurrency@@UAEJXZ 0044e2dc f i libconcrt:ThreadProxyFactoryManager.obj
 0001:0004d309       ?RequestProxy@?$ThreadProxyFactory@VFreeThreadProxy@details@Concurrency@@@details@Concurrency@@UAEPAUIThreadProxy@3@IH@Z 0044e309 f i libconcrt:ThreadProxyFactoryManager.obj
 0001:0004d38d       ?Retire@FreeThreadProxyFactory@details@Concurrency@@EAEXPAVFreeThreadProxy@23@@Z 0044e38d f i libconcrt:ThreadProxyFactoryManager.obj
 0001:0004d39c       ?RetireThreadProxies@?$ThreadProxyFactory@VFreeThreadProxy@details@Concurrency@@@details@Concurrency@@QAEXXZ 0044e39c f i libconcrt:ThreadProxyFactoryManager.obj
 0001:0004d40a       ?ShutdownFactory@FreeThreadProxyFactory@details@Concurrency@@UAEXXZ 0044e40a f i libconcrt:ThreadProxyFactoryManager.obj
 0001:0004d42b       ?YieldToSystem@FreeThreadProxy@details@Concurrency@@UAEXXZ 0044e42b f i libconcrt:ThreadProxyFactoryManager.obj
 0001:0004d430       ??0location@Concurrency@@QAE@W4_Type@01@IIPAX@Z 0044e430 f   libconcrt:location.obj
 0001:0004d455       ?_FastNodeIntersects@location@Concurrency@@QBE_NABV12@@Z 0044e455 f   libconcrt:location.obj
 0001:0004d4c3       ?_FastVPIntersects@location@Concurrency@@QBE_NABV12@@Z 0044e4c3 f   libconcrt:location.obj
 0001:0004d50f       ??0WorkItem@details@Concurrency@@QAE@PAVInternalContextBase@12@@Z 0044e50f f   libconcrt:SearchAlgorithms.obj
 0001:0004d535       ?AcquireQuickCacheSlot@SchedulerBase@details@Concurrency@@QAEPAVScheduleGroupSegmentBase@23@I@Z 0044e535 f i libconcrt:SearchAlgorithms.obj
 0001:0004d553       ?ActualGetQuickCacheSlot@SchedulerBase@details@Concurrency@@AAEPAVScheduleGroupSegmentBase@23@I@Z 0044e553 f i libconcrt:SearchAlgorithms.obj
 0001:0004d586       ?Bind@WorkItem@details@Concurrency@@QAEPAVInternalContextBase@23@XZ 0044e586 f   libconcrt:SearchAlgorithms.obj
 0001:0004d5d3       ?BindTo@WorkItem@details@Concurrency@@QAEXPAVInternalContextBase@23@@Z 0044e5d3 f   libconcrt:SearchAlgorithms.obj
 0001:0004d60d       ?GetLocalRunnable@WorkSearchContext@details@Concurrency@@AAE_NPAVWorkItem@23@PAVVirtualProcessor@23@_N@Z 0044e60d f   libconcrt:SearchAlgorithms.obj
 0001:0004d6a6       ?GetNextSchedulingNode@SchedulerBase@details@Concurrency@@QAEPAVSchedulingNode@23@PAHH@Z 0044e6a6 f i libconcrt:SearchAlgorithms.obj
 0001:0004d6f5       ?GetPseudoRRAffineScheduleGroupSegment@SchedulingRing@details@Concurrency@@QAEPAVScheduleGroupSegmentBase@23@PAH@Z 0044e6f5 f i libconcrt:SearchAlgorithms.obj
 0001:0004d730       ?GetPseudoRRNonAffineScheduleGroupSegment@SchedulingRing@details@Concurrency@@QAEPAVScheduleGroupSegmentBase@23@PAH@Z 0044e730 f i libconcrt:SearchAlgorithms.obj
 0001:0004d76e       ?GetRealizedChore@WorkSearchContext@details@Concurrency@@AAE_NPAVWorkItem@23@PAVScheduleGroupSegmentBase@23@_N@Z 0044e76e f   libconcrt:SearchAlgorithms.obj
 0001:0004d7c0       ?GetRealizedChoreWithinGroup@WorkSearchContext@details@Concurrency@@AAE_NPAVWorkItem@23@PAVScheduleGroupSegmentBase@23@_NW4SearchAffinity@123@2@Z 0044e7c0 f   libconcrt:SearchAlgorithms.obj
 0001:0004d841       ?GetRunnableContext@WorkSearchContext@details@Concurrency@@AAE_NPAVWorkItem@23@PAVScheduleGroupSegmentBase@23@@Z 0044e841 f   libconcrt:SearchAlgorithms.obj
 0001:0004d880       ?GetRunnableContextWithinGroup@WorkSearchContext@details@Concurrency@@AAE_NPAVWorkItem@23@PAVScheduleGroupSegmentBase@23@W4SearchAffinity@123@_N@Z 0044e880 f   libconcrt:SearchAlgorithms.obj
 0001:0004d8fb       ?GetUnrealizedChore@WorkSearchContext@details@Concurrency@@AAE_NPAVWorkItem@23@PAVScheduleGroupSegmentBase@23@_N2@Z 0044e8fb f   libconcrt:SearchAlgorithms.obj
 0001:0004d950       ?GetUnrealizedChoreWithinGroup@WorkSearchContext@details@Concurrency@@AAE_NPAVWorkItem@23@PAVScheduleGroupSegmentBase@23@_NW4SearchAffinity@123@2@Z 0044e950 f   libconcrt:SearchAlgorithms.obj
 0001:0004d9e0       ?Invoke@WorkItem@details@Concurrency@@QAEXXZ 0044e9e0 f   libconcrt:SearchAlgorithms.obj
 0001:0004da23       ?PreSearch@WorkSearchContext@details@Concurrency@@AAE_NPAVWorkItem@23@@Z 0044ea23 f   libconcrt:SearchAlgorithms.obj
 0001:0004da61       ?QuickSearch@WorkSearchContext@details@Concurrency@@AAE_NPAVScheduleGroupSegmentBase@23@PAVWorkItem@23@_NK@Z 0044ea61 f   libconcrt:SearchAlgorithms.obj
 0001:0004dace       ?QuickSearchYield@WorkSearchContext@details@Concurrency@@AAE_NPAVScheduleGroupSegmentBase@23@PAVWorkItem@23@_NK@Z 0044eace f   libconcrt:SearchAlgorithms.obj
 0001:0004db3c       ?Reset@WorkSearchContext@details@Concurrency@@QAEXPAVVirtualProcessor@23@W4Algorithm@123@@Z 0044eb3c f   libconcrt:SearchAlgorithms.obj
 0001:0004db96       ?ResolveToken@WorkItem@details@Concurrency@@QAE_NXZ 0044eb96 f   libconcrt:SearchAlgorithms.obj
 0001:0004dc17       ?SearchCacheLocal@WorkSearchContext@details@Concurrency@@AAE_NPAVWorkItem@23@PAVScheduleGroupSegmentBase@23@_NK@Z 0044ec17 f   libconcrt:SearchAlgorithms.obj
 0001:0004df43       ?SearchCacheLocalYield@WorkSearchContext@details@Concurrency@@AAE_NPAVWorkItem@23@PAVScheduleGroupSegmentBase@23@_NK@Z 0044ef43 f   libconcrt:SearchAlgorithms.obj
 0001:0004e22a       ?SearchCacheLocal_Realized@WorkSearchContext@details@Concurrency@@AAE_NPAVWorkItem@23@PAVSchedulingRing@23@PAVScheduleGroupSegmentBase@23@_NW4SearchAffinity@123@K3@Z 0044f22a f   libconcrt:SearchAlgorithms.obj
 0001:0004e328       ?SearchCacheLocal_Runnables@WorkSearchContext@details@Concurrency@@AAE_NPAVWorkItem@23@PAVSchedulingRing@23@PAVScheduleGroupSegmentBase@23@_NW4SearchAffinity@123@K3@Z 0044f328 f   libconcrt:SearchAlgorithms.obj
 0001:0004e438       ?SearchCacheLocal_Unrealized@WorkSearchContext@details@Concurrency@@AAE_NPAVWorkItem@23@PAVSchedulingRing@23@PAVScheduleGroupSegmentBase@23@_NW4SearchAffinity@123@K3@Z 0044f438 f   libconcrt:SearchAlgorithms.obj
 0001:0004e53d       ?SearchFair@WorkSearchContext@details@Concurrency@@AAE_NPAVWorkItem@23@PAVScheduleGroupSegmentBase@23@_NK@Z 0044f53d f   libconcrt:SearchAlgorithms.obj
 0001:0004e652       ?SearchFairYield@WorkSearchContext@details@Concurrency@@AAE_NPAVWorkItem@23@PAVScheduleGroupSegmentBase@23@_NK@Z 0044f652 f   libconcrt:SearchAlgorithms.obj
 0001:0004e762       ?SearchFair_Realized@WorkSearchContext@details@Concurrency@@AAE_NPAVWorkItem@23@PAVSchedulingRing@23@_N@Z 0044f762 f   libconcrt:SearchAlgorithms.obj
 0001:0004e7f8       ?SearchFair_Runnables@WorkSearchContext@details@Concurrency@@AAE_NPAVWorkItem@23@PAVSchedulingRing@23@@Z 0044f7f8 f   libconcrt:SearchAlgorithms.obj
 0001:0004e87b       ?SearchFair_Unrealized@WorkSearchContext@details@Concurrency@@AAE_NPAVWorkItem@23@PAVSchedulingRing@23@_N@Z 0044f87b f   libconcrt:SearchAlgorithms.obj
 0001:0004e915       ?SkipSegmentSearch@WorkSearchContext@details@Concurrency@@AAE_NPAVScheduleGroupSegmentBase@23@0W4SearchAffinity@123@_N@Z 0044f915 f   libconcrt:SearchAlgorithms.obj
 0001:0004e9a1       ?StealForeignLocalRunnable@WorkSearchContext@details@Concurrency@@AAE_NPAVWorkItem@23@PAVSchedulingNode@23@@Z 0044f9a1 f   libconcrt:SearchAlgorithms.obj
 0001:0004e9e5       ?StealLocalRunnable@WorkSearchContext@details@Concurrency@@AAE_NPAVWorkItem@23@PAVSchedulingNode@23@PAVVirtualProcessor@23@@Z 0044f9e5 f   libconcrt:SearchAlgorithms.obj
 0001:0004ea66       ?StealLocalRunnableContext@VirtualProcessor@details@Concurrency@@AAEPAVInternalContextBase@23@XZ 0044fa66 f i libconcrt:SearchAlgorithms.obj
 0001:0004ea7d       ?TransferReferences@WorkItem@details@Concurrency@@QAEXPAVInternalContextBase@23@@Z 0044fa7d f   libconcrt:SearchAlgorithms.obj
 0001:0004eac8       ?Invoke@RealizedChore@details@Concurrency@@QAEXXZ 0044fac8 f   libconcrt:RealizedChore.obj
 0001:0004eadc       ??0ThreadVirtualProcessor@details@Concurrency@@QAE@PAVSchedulingNode@12@PAUIVirtualProcessorRoot@2@@Z 0044fadc f   libconcrt:ThreadVirtualProcessor.obj
 0001:0004eb13       ??_EThreadVirtualProcessor@details@Concurrency@@UAEPAXI@Z 0044fb13 f i libconcrt:ThreadVirtualProcessor.obj
 0001:0004eb13       ??_GThreadVirtualProcessor@details@Concurrency@@UAEPAXI@Z 0044fb13 f i libconcrt:ThreadVirtualProcessor.obj
 0001:0004eb3e       ??0VirtualProcessorRoot@details@Concurrency@@QAE@PAVSchedulerProxy@12@PAUSchedulerNode@12@I@Z 0044fb3e f   libconcrt:VirtualProcessorRoot.obj
 0001:0004eb8a       ??_EVirtualProcessorRoot@details@Concurrency@@UAEPAXI@Z 0044fb8a f i libconcrt:VirtualProcessorRoot.obj
 0001:0004eb8a       ??_GVirtualProcessorRoot@details@Concurrency@@UAEPAXI@Z 0044fb8a f i libconcrt:VirtualProcessorRoot.obj
 0001:0004ebb4       ?CurrentSubscriptionLevel@VirtualProcessorRoot@details@Concurrency@@UBEIXZ 0044fbb4 f i libconcrt:VirtualProcessorRoot.obj
 0001:0004ebbc       ?GetId@VirtualProcessorRoot@details@Concurrency@@UBEIXZ 0044fbbc f i libconcrt:VirtualProcessorRoot.obj
 0001:0004ebc0       ?Remove@VirtualProcessorRoot@details@Concurrency@@UAEXPAUIScheduler@3@@Z 0044fbc0 f   libconcrt:VirtualProcessorRoot.obj
 0001:0004ec1a       ?ResetSubscriptionLevel@VirtualProcessorRoot@details@Concurrency@@QAEXXZ 0044fc1a f   libconcrt:VirtualProcessorRoot.obj
 0001:0004ec39       ?Subscribe@VirtualProcessorRoot@details@Concurrency@@QAEXXZ 0044fc39 f   libconcrt:VirtualProcessorRoot.obj
 0001:0004ec46       ?Unsubscribe@VirtualProcessorRoot@details@Concurrency@@QAEXXZ 0044fc46 f   libconcrt:VirtualProcessorRoot.obj
 0001:0004ec53       ??0FreeVirtualProcessorRoot@details@Concurrency@@QAE@PAVSchedulerProxy@12@PAUSchedulerNode@12@I@Z 0044fc53 f   libconcrt:FreeVirtualProcessorRoot.obj
 0001:0004ec88       ??8HardwareAffinity@details@Concurrency@@QAE_NABU012@@Z 0044fc88 f i libconcrt:FreeVirtualProcessorRoot.obj
 0001:0004eca8       ??_EFreeVirtualProcessorRoot@details@Concurrency@@UAEPAXI@Z 0044fca8 f i libconcrt:FreeVirtualProcessorRoot.obj
 0001:0004eca8       ??_GFreeVirtualProcessorRoot@details@Concurrency@@UAEPAXI@Z 0044fca8 f i libconcrt:FreeVirtualProcessorRoot.obj
 0001:0004ecd2       ?AcquireActivatedContext@VirtualProcessorRoot@details@Concurrency@@QAEPAUIExecutionContext@3@XZ 0044fcd2 f i libconcrt:FreeVirtualProcessorRoot.obj
 0001:0004ed03       ?Activate@FreeVirtualProcessorRoot@details@Concurrency@@UAEXPAUIExecutionContext@3@@Z 0044fd03 f   libconcrt:FreeVirtualProcessorRoot.obj
 0001:0004edc7       ?Affinitize@FreeVirtualProcessorRoot@details@Concurrency@@QAEXPAVFreeThreadProxy@23@@Z 0044fdc7 f   libconcrt:FreeVirtualProcessorRoot.obj
 0001:0004ee30       ?Deactivate@FreeVirtualProcessorRoot@details@Concurrency@@UAE_NPAUIExecutionContext@3@@Z 0044fe30 f   libconcrt:FreeVirtualProcessorRoot.obj
 0001:0004eed5       ?DeleteThis@FreeVirtualProcessorRoot@details@Concurrency@@UAEXXZ 0044fed5 f   libconcrt:FreeVirtualProcessorRoot.obj
 0001:0004ef23       ?EnsureAllTasksVisible@FreeVirtualProcessorRoot@details@Concurrency@@UAEXPAUIExecutionContext@3@@Z 0044ff23 f   libconcrt:FreeVirtualProcessorRoot.obj
 0001:0004efa5       ?ResetOnIdle@FreeVirtualProcessorRoot@details@Concurrency@@QAEXW4SwitchingProxyState@3@@Z 0044ffa5 f   libconcrt:FreeVirtualProcessorRoot.obj
 0001:0004f012       ?SetAffinity@FreeThreadProxy@details@Concurrency@@QAEXUHardwareAffinity@23@@Z 00450012 f i libconcrt:FreeVirtualProcessorRoot.obj
 0001:0004f048       ?SpinUntilIdle@FreeVirtualProcessorRoot@details@Concurrency@@IAEXXZ 00450048 f i libconcrt:FreeVirtualProcessorRoot.obj
 0001:0004f078       ?AssociateExecutionContext@FreeThreadProxy@details@Concurrency@@QAEXPAUIExecutionContext@3@@Z 00450078 f   libconcrt:FreeThreadProxy.obj
 0001:0004f09b       ?Dispatch@FreeThreadProxy@details@Concurrency@@EAEXXZ 0045009b f   libconcrt:FreeThreadProxy.obj
 0001:0004f143       ?ReturnIdleProxy@FreeThreadProxy@details@Concurrency@@QAEXXZ 00450143 f   libconcrt:FreeThreadProxy.obj
 0001:0004f161       ?SwitchOut@FreeThreadProxy@details@Concurrency@@UAEXW4SwitchingProxyState@3@@Z 00450161 f   libconcrt:FreeThreadProxy.obj
 0001:0004f1b4       ?SwitchTo@FreeThreadProxy@details@Concurrency@@UAEXPAUIExecutionContext@3@W4SwitchingProxyState@3@@Z 004501b4 f   libconcrt:FreeThreadProxy.obj
 0001:0004f27a       ??0ThreadProxy@details@Concurrency@@QAE@PAUIThreadProxyFactory@12@I@Z 0045027a f   libconcrt:ThreadProxy.obj
 0001:0004f34f       ??0scheduler_worker_creation_error@Concurrency@@QAE@ABV01@@Z 0045034f f i libconcrt:ThreadProxy.obj
 0001:0004f36a       ??1ThreadProxy@details@Concurrency@@UAE@XZ 0045036a f   libconcrt:ThreadProxy.obj
 0001:0004f3cd       ??_GThreadProxy@details@Concurrency@@UAEPAXI@Z 004503cd f i libconcrt:ThreadProxy.obj
 0001:0004f3cd       ??_EThreadProxy@details@Concurrency@@UAEPAXI@Z 004503cd f i libconcrt:ThreadProxy.obj
 0001:0004f3ef       ?Cancel@ThreadProxy@details@Concurrency@@QAEXXZ 004503ef f   libconcrt:ThreadProxy.obj
 0001:0004f400       ?GetId@ThreadProxy@details@Concurrency@@UBEIXZ 00450400 f   libconcrt:ThreadProxy.obj
 0001:0004f404       ?ResumeExecution@ThreadProxy@details@Concurrency@@QAEXXZ 00450404 f   libconcrt:ThreadProxy.obj
 0001:0004f40e       ?SetPriority@ThreadProxy@details@Concurrency@@QAEXH@Z 0045040e f   libconcrt:ThreadProxy.obj
 0001:0004f426       ?SpinUntilBlocked@ThreadProxy@details@Concurrency@@QAEXXZ 00450426 f   libconcrt:ThreadProxy.obj
 0001:0004f453       ?SuspendExecution@ThreadProxy@details@Concurrency@@QAEXXZ 00450453 f   libconcrt:ThreadProxy.obj
 0001:0004f46f       ?ThreadProxyMain@ThreadProxy@details@Concurrency@@CGKPAX@Z 0045046f f   libconcrt:ThreadProxy.obj
 0001:0004f4bf       ??2@YAPAXI@Z               004504bf f   LIBCMT:new_scalar.obj
 0001:0004f4ef       ??3@YAXPAXI@Z              004504ef f   LIBCMT:delete_scalar_size.obj
 0001:0004f4fd       ??_U@YAPAXI@Z              004504fd f   LIBCMT:new_array.obj
 0001:0004f506       ??_V@YAXPAX@Z              00450506 f   LIBCMT:delete_array.obj
 0001:0004f510       __alloca_probe_16          00450510 f   LIBCMT:alloca16.obj
 0001:0004f526       __alloca_probe_8           00450526     LIBCMT:alloca16.obj
 0001:0004f53c       ??_Gtype_info@@UAEPAXI@Z   0045053c f i LIBCMT:std_type_info_static.obj
 0001:0004f53c       ??_Etype_info@@UAEPAXI@Z   0045053c f i LIBCMT:std_type_info_static.obj
 0001:0004f55f       ??3@YAXPAX@Z               0045055f f   LIBCMT:delete_scalar.obj
 0001:0004f564       ??2@YAPAXIABUnothrow_t@std@@@Z 00450564 f   LIBCMT:new_scalar_nothrow.obj
 0001:0004f5b6       ??$__crt_fast_encode_pointer@PAP6AXXZ@@YAPAP6AXXZQAP6AXXZ@Z 004505b6 f i LIBCMT:utility.obj
 0001:0004f5b6       ??$__crt_fast_encode_pointer@PAX@@YAPAXQAX@Z 004505b6 f i libvcruntime:winapi_downlevel.obj
 0001:0004f5b6       ??$__crt_fast_encode_pointer@P6GXPAU_RTL_CONDITION_VARIABLE@@@Z@@YAP6GXPAU_RTL_CONDITION_VARIABLE@@@ZQ6GX0@Z@Z 004505b6 f i LIBCMT:thread_safe_statics.obj
 0001:0004f5b6       ??$__crt_fast_encode_pointer@P6GHPAU_RTL_CONDITION_VARIABLE@@PAU_RTL_CRITICAL_SECTION@@K@Z@@YAP6GHPAU_RTL_CONDITION_VARIABLE@@PAU_RTL_CRITICAL_SECTION@@K@ZQ6GH01K@Z@Z 004505b6 f i LIBCMT:thread_safe_statics.obj
 0001:0004f617       ___scrt_acquire_startup_lock 00450617 f   LIBCMT:utility.obj
 0001:0004f649       ___scrt_initialize_crt     00450649 f   LIBCMT:utility.obj
 0001:0004f682       ___scrt_initialize_onexit_tables 00450682 f   LIBCMT:utility.obj
 0001:0004f72c       ___scrt_is_nonwritable_in_current_image 0045072c f   LIBCMT:utility.obj
 0001:0004f7b6       ___scrt_release_startup_lock 004507b6 f   LIBCMT:utility.obj
 0001:0004f7d3       ___scrt_uninitialize_crt   004507d3 f   LIBCMT:utility.obj
 0001:0004f7fb       __onexit                   004507fb f   LIBCMT:utility.obj
 0001:0004f836       _atexit                    00450836 f   LIBCMT:utility.obj
 0001:0004f980       __chkstk                   00450980 f   LIBCMT:chkstk.obj
 0001:0004f980       __alloca_probe             00450980 f   LIBCMT:chkstk.obj
 0001:0004f9b0       __allshl                   004509b0 f   LIBCMT:llshl.obj
 0001:0004fc05       _mainCRTStartup            00450c05 f   LIBCMT:exe_main.obj
 0001:0004fc0f       @__security_check_cookie@4 00450c0f f   LIBCMT:_secchk_.obj
 0001:0004fc20       __aullshr                  00450c20 f   LIBCMT:ullshr.obj
 0001:0004fc40       __aulldiv                  00450c40 f   LIBCMT:ulldiv.obj
 0001:0004fcb0       __alldiv                   00450cb0 f   LIBCMT:lldiv.obj
 0001:0004fd5a       __EH_epilog3               00450d5a f   LIBCMT:ehprolg3.obj
 0001:0004fd6f       __EH_epilog3_GS            00450d6f f   LIBCMT:ehprolg3.obj
 0001:0004fd80       __EH_prolog3               00450d80 f   LIBCMT:ehprolg3.obj
 0001:0004fdb4       __EH_prolog3_GS            00450db4 f   LIBCMT:ehprolg3.obj
 0001:0004fdeb       __EH_prolog3_catch         00450deb f   LIBCMT:ehprolg3.obj
 0001:0004fe30       __allmul                   00450e30 f   LIBCMT:llmul.obj
 0001:0004fe64       ??_M@YGXPAXIIP6EX0@Z@Z     00450e64 f   LIBCMT:ehvecdtr.obj
 0001:0004fedf       ?__ArrayUnwind@@YGXPAXIIP6EX0@Z@Z 00450edf f   LIBCMT:ehvecdtr.obj
 0001:0004ff4e       ??_V@YAXPAXI@Z             00450f4e f   LIBCMT:delete_array_size.obj
 0001:0004ff60       __aullrem                  00450f60 f   LIBCMT:ullrem.obj
 0001:0004fff0       __SEH_prolog4              00450ff0 f   LIBCMT:_sehprolg4_.obj
 0001:00050036       __SEH_epilog4              00451036 f   LIBCMT:_sehprolg4_.obj
 0001:0005004b       ??_L@YGXPAXIIP6EX0@Z1@Z    0045104b f   LIBCMT:ehvecctr.obj
 0001:000500c0       __ftol2_sse                004510c0 f   LIBCMT:_ftol2_.obj
 0001:000500c9       __ftol2_pentium4           004510c9 f   LIBCMT:_ftol2_.obj
 0001:000500dc       __ftol2_sse_excpt          004510dc f   LIBCMT:_ftol2_.obj
 0001:00050100       __ftol2                    00451100 f   LIBCMT:_ftol2_.obj
 0001:00050175       ??0bad_array_new_length@std@@QAE@ABV01@@Z 00451175 f i LIBCMT:throw_bad_alloc.obj
 0001:00050190       ??0bad_array_new_length@std@@QAE@XZ 00451190 f i LIBCMT:throw_bad_alloc.obj
 0001:000501a8       ?__scrt_throw_std_bad_array_new_length@@YAXXZ 004511a8 f   LIBCMT:throw_bad_alloc.obj
 0001:000501c5       ___isa_available_init      004511c5 f   LIBCMT:_cpu_disp_.obj
 0001:0005035e       ___scrt_is_ucrt_dll_in_use 0045135e f   LIBCMT:ucrt_detection.obj
 0001:0005036a       ___scrt_fastfail           0045136a f   LIBCMT:utility_desktop.obj
 0001:00050486       ___scrt_is_managed_app     00451486 f   LIBCMT:utility_desktop.obj
 0001:000504c9       ___scrt_set_unhandled_exception_filter 004514c9 f   LIBCMT:utility_desktop.obj
 0001:000504d5       ___scrt_unhandled_exception_filter@4 004514d5 f   LIBCMT:utility_desktop.obj
 0001:00050516       __crt_debugger_hook        00451516 f   LIBCMT:utility_desktop.obj
 0001:0005056d       ___security_init_cookie    0045156d f   LIBCMT:gs_support.obj
 0001:000505b8       __get_startup_file_mode    004515b8 f   LIBCMT:file_mode.obj
 0001:000505be       ?__scrt_initialize_type_info@@YAXXZ 004515be f   LIBCMT:tncleanup.obj
 0001:000505ca       __initialize_default_precision 004515ca f   LIBCMT:default_precision.obj
 0001:000505eb       ___scrt_initialize_default_local_stdio_options 004515eb f   LIBCMT:default_local_stdio_options.obj
 0001:00050608       ___scrt_is_user_matherr_present 00451608 f   LIBCMT:matherr_detection.obj
 0001:00050614       ___scrt_get_dyn_tls_init_callback 00451614 f   LIBCMT:dyn_tls_init.obj
 0001:0005061a       ___scrt_get_dyn_tls_dtor_callback 0045161a f   LIBCMT:dyn_tls_dtor.obj
 0001:00050620       __RTC_Initialize           00451620 f   LIBCMT:_initsect_.obj
 0001:0005064c       __RTC_Terminate            0045164c f   LIBCMT:_initsect_.obj
 0001:00050678       ___raise_securityfailure   00451678 f   LIBCMT:gs_report.obj
 0001:000506a0       ___report_gsfailure        004516a0 f   LIBCMT:gs_report.obj
 0001:0005079b       ___report_rangecheckfailure 0045179b f   LIBCMT:gs_report.obj
 0001:000507a7       ___report_securityfailure  004517a7 f   LIBCMT:gs_report.obj
 0001:00050877       __purecall                 00451877 f   libvcruntime:purevirt.obj
 0001:000508a0       ___std_exception_copy      004518a0 f   libvcruntime:std_exception.obj
 0001:00050903       ___std_exception_destroy   00451903 f   libvcruntime:std_exception.obj
 0001:00050922       __CxxThrowException@8      00451922 f   libvcruntime:throw.obj
 0001:00050991       ?_CallCatchBlock2@@YAPAXPAUEHRegistrationNode@@PBU_s_FuncInfo@@PAXHK@Z 00451991 f   libvcruntime:trnsctrl.obj
 0001:000509f1       ?_CallSETranslator@@YAHPAUEHExceptionRecord@@PAUEHRegistrationNode@@PAX2PBU_s_FuncInfo@@H1@Z 004519f1 f   libvcruntime:trnsctrl.obj
 0001:00050ace       ?_GetRangeOfTrysToCheck@@YAPBU_s_TryBlockMapEntry@@PBU_s_FuncInfo@@HHPAI1@Z 00451ace f   libvcruntime:trnsctrl.obj
 0001:00050b46       ?_JumpToContinuation@@YGXPAXPAUEHRegistrationNode@@@Z 00451b46 f   libvcruntime:trnsctrl.obj
 0001:00050b78       ?_UnwindNestedFrames@@YGXPAUEHRegistrationNode@@PAUEHExceptionRecord@@@Z 00451b78 f   libvcruntime:trnsctrl.obj
 0001:00050bcd       __CatchGuardHandler        00451bcd f   libvcruntime:trnsctrl.obj
 0001:00050bfe       __CreateFrameInfo          00451bfe f   libvcruntime:trnsctrl.obj
 0001:00050c22       __FindAndUnlinkFrame       00451c22 f   libvcruntime:trnsctrl.obj
 0001:00050c67       __TranslatorGuardHandler   00451c67 f   libvcruntime:trnsctrl.obj
 0001:00050d06       ___CxxFrameHandler3        00451d06 f   libvcruntime:trnsctrl.obj
 0001:00050d40       _memcpy                    00451d40 f   libvcruntime:memcpy.obj
 0001:000512c0       _memmove                   004522c0 f   libvcruntime:memmove.obj
 0001:00051840       _memset                    00452840 f   libvcruntime:memset.obj
 0001:000519a0       _memchr                    004529a0 f   libvcruntime:memchr.obj
 0001:00051a50       _strstr                    00452a50 f   libvcruntime:strstr.obj
 0001:00051cb3       ___uncaught_exception      00452cb3 f   libvcruntime:uncaught_exception.obj
 0001:00051cc7       ___DestructExceptionObject 00452cc7 f   libvcruntime:ehhelpers.obj
 0001:00051d5d       ?_CallMemberFunction0@@YGXQAX0@Z 00452d5d f i libvcruntime:ehhelpers.obj
 0001:00051d6a       __IsExceptionObjectToBeDestroyed 00452d6a f   libvcruntime:ehhelpers.obj
 0001:00051d90       ___AdjustPointer           00452d90 f   libvcruntime:ehhelpers.obj
 0001:00051db5       ___FrameUnwindFilter       00452db5 f   libvcruntime:ehhelpers.obj
 0001:00051dfa       ___current_exception       00452dfa f   libvcruntime:ehhelpers.obj
 0001:00051e03       ___processing_throw        00452e03 f   libvcruntime:ehhelpers.obj
 0001:00051e0c       ___std_terminate           00452e0c f   libvcruntime:ehhelpers.obj
 0001:00051e11       _memcmp                    00452e11 f   libvcruntime:_memcmp_.obj
 0001:00053a70       __except_handler4          00454a70 f   libvcruntime:_chandler4_.obj
 0001:00053bc7       ??0__non_rtti_object@std@@QAE@ABV01@@Z 00454bc7 f i libvcruntime:rtti.obj
 0001:00053be2       ??0bad_typeid@std@@QAE@ABV01@@Z 00454be2 f i libvcruntime:rtti.obj
 0001:00054009       ?__construct_from_string_literal@__non_rtti_object@std@@SA?AV12@QBD@Z 00455009 f i libvcruntime:rtti.obj
 0001:00054025       ?__construct_from_string_literal@bad_cast@std@@SA?AV12@QBD@Z 00455025 f i libvcruntime:rtti.obj
 0001:00054041       ___RTDynamicCast           00455041 f   libvcruntime:rtti.obj
 0001:0005412a       ___vcrt_initialize         0045512a f   libvcruntime:initialization.obj
 0001:00054153       ___vcrt_uninitialize       00455153 f   libvcruntime:initialization.obj
 0001:00054172       ___std_type_info_compare   00455172 f   libvcruntime:std_type_info.obj
 0001:000541ae       ___vcrt_initialize_pure_virtual_call_handler 004551ae f   libvcruntime:purevirt_data.obj
 0001:000541b9       ___vcrt_freefls@4          004551b9 f   libvcruntime:per_thread_data.obj
 0001:000541d5       ___vcrt_getptd             004551d5 f   libvcruntime:per_thread_data.obj
 0001:000541e3       ___vcrt_getptd_noexit      004551e3 f   libvcruntime:per_thread_data.obj
 0001:00054275       ___vcrt_getptd_noinit      00455275 f   libvcruntime:per_thread_data.obj
 0001:000542ac       ___vcrt_initialize_ptd     004552ac f   libvcruntime:per_thread_data.obj
 0001:000542f0       ___vcrt_uninitialize_ptd   004552f0 f   libvcruntime:per_thread_data.obj
 0001:00054310       __CallSettingFrame@12      00455310 f   libvcruntime:lowhelpr.obj
 0001:00054337       __NLG_Return               00455337     libvcruntime:lowhelpr.obj
 0001:0005435c       ??0bad_exception@std@@QAE@ABV01@@Z 0045535c f i libvcruntime:frame.obj
 0001:00054377       ??0bad_exception@std@@QAE@XZ 00455377 f i libvcruntime:frame.obj
 0001:0005438f       ??8type_info@@QBE_NABV0@@Z 0045538f f i libvcruntime:frame.obj
 0001:00054b9f       ?_CallMemberFunction1@@YGXQAX00@Z 00455b9f f i libvcruntime:frame.obj
 0001:00054baf       ?_CallMemberFunction2@@YGXQAX00H@Z 00455baf f i libvcruntime:frame.obj
 0001:00054bc2       ___BuildCatchObject        00455bc2 f   libvcruntime:frame.obj
 0001:00054c51       ___BuildCatchObjectHelper  00455c51 f   libvcruntime:frame.obj
 0001:00054d85       ___FrameUnwindToState      00455d85 f   libvcruntime:frame.obj
 0001:00054e52       ___InternalCxxFrameHandler 00455e52 f   libvcruntime:frame.obj
 0001:00054f4f       ___TypeMatch               00455f4f f   libvcruntime:frame.obj
 0001:00054fdd       ___except_validate_context_record 00455fdd f   libvcruntime:jbcxrval.obj
 0001:0005500d       ___except_validate_jump_buffer 0045600d f   libvcruntime:jbcxrval.obj
 0001:00055040       _strchr                    00456040 f   libvcruntime:strchr.obj
 0001:000550ae       ___from_strstr_to_strchr   004560ae     libvcruntime:strchr.obj
 0001:00055170       __local_unwind4            00456170 f   libvcruntime:_exsup4_.obj
 0001:00055248       __seh_longjmp_unwind4@4    00456248 f   libvcruntime:_exsup4_.obj
 0001:00055270       @_EH4_CallFilterFunc@8     00456270 f   libvcruntime:_exsup4_.obj
 0001:00055288       @_EH4_TransferToHandler@8  00456288 f   libvcruntime:_exsup4_.obj
 0001:000552a4       @_EH4_GlobalUnwind2@8      004562a4 f   libvcruntime:_exsup4_.obj
 0001:000552c0       @_EH4_LocalUnwind@16       004562c0 f   libvcruntime:_exsup4_.obj
 0001:000552d7       ___vcrt_initialize_locks   004562d7 f   libvcruntime:locks.obj
 0001:00055313       ___vcrt_uninitialize_locks 00456313 f   libvcruntime:locks.obj
 0001:00055477       ___vcrt_FlsAlloc           00456477 f   libvcruntime:winapi_downlevel.obj
 0001:000554b2       ___vcrt_FlsFree            004564b2 f   libvcruntime:winapi_downlevel.obj
 0001:000554ed       ___vcrt_FlsGetValue        004564ed f   libvcruntime:winapi_downlevel.obj
 0001:00055528       ___vcrt_FlsSetValue        00456528 f   libvcruntime:winapi_downlevel.obj
 0001:00055566       ___vcrt_InitializeCriticalSectionEx 00456566 f   libvcruntime:winapi_downlevel.obj
 0001:000555ad       ___vcrt_initialize_winapi_thunks 004565ad f   libvcruntime:winapi_downlevel.obj
 0001:000555d6       ___vcrt_uninitialize_winapi_thunks 004565d6 f   libvcruntime:winapi_downlevel.obj
 0001:00055610       __global_unwind2           00456610 f   libvcruntime:_exsup_.obj
 0001:00055676       __local_unwind2            00456676 f   libvcruntime:_exsup_.obj
 0001:000556fa       __abnormal_termination     004566fa f   libvcruntime:_exsup_.obj
 0001:00055720       __NLG_Notify1              00456720 f   libvcruntime:_exsup_.obj
 0001:0005572c       __NLG_Notify               0045672c f   libvcruntime:_exsup_.obj
 0001:00055743       __NLG_Dispatch2            00456743     libvcruntime:_exsup_.obj
 0001:00055743       __NLG_Dispatch             00456743     libvcruntime:_exsup_.obj
 0001:0005574b       __NLG_Call                 0045674b f   libvcruntime:_exsup_.obj
 0001:0005574d       __NLG_Return2              0045674d     libvcruntime:_exsup_.obj
 0001:0005574e       _unexpected                0045674e f   libvcruntime:unexpected.obj
 0001:0005576b       ?initialize@?$dual_state_global@PAPAD@__crt_state_management@@QAEXQAPAD@Z 0045676b f i libucrt:environment_initialization.obj
 0001:0005576b       ?initialize@?$dual_state_global@H@__crt_state_management@@QAEXH@Z 0045676b f i libucrt:timeset.obj
 0001:0005576b       ?initialize@?$dual_state_global@P6AHPAU_exception@@@Z@__crt_state_management@@QAEXQ6AHPAU_exception@@@Z@Z 0045676b f i libucrt:matherr.obj
 0001:0005576b       ?initialize@?$dual_state_global@P6AXH@Z@__crt_state_management@@QAEXQ6AXH@Z@Z 0045676b f i libucrt:signal.obj
 0001:0005576b       ?initialize@?$dual_state_global@P6AXPB_W00II@Z@__crt_state_management@@QAEXQ6AXPB_W00II@Z@Z 0045676b f i libucrt:invalid_parameter.obj
 0001:0005576b       ?initialize@?$dual_state_global@J@__crt_state_management@@QAEXJ@Z 0045676b f i libucrt:timeset.obj
 0001:0005576b       ?initialize@?$dual_state_global@P6AHI@Z@__crt_state_management@@QAEXQ6AHI@Z@Z 0045676b f i libucrt:new_handler.obj
 0001:0005576b       ?initialize@?$dual_state_global@PAU__crt_locale_data@@@__crt_state_management@@QAEXQAU__crt_locale_data@@@Z 0045676b f i libucrt:initialization.obj
 0001:0005579c       ___acrt_call_reportfault   0045679c f   libucrt:invalid_parameter.obj
 0001:000558d7       ___acrt_initialize_invalid_parameter_handler 004568d7 f   libucrt:invalid_parameter.obj
 0001:000558eb       __invalid_parameter        004568eb f   libucrt:invalid_parameter.obj
 0001:00055966       __invalid_parameter_noinfo 00456966 f   libucrt:invalid_parameter.obj
 0001:00055976       __invalid_parameter_noinfo_noreturn 00456976 f   libucrt:invalid_parameter.obj
 0001:00055993       __invoke_watson            00456993 f   libucrt:invalid_parameter.obj
 0001:000559c6       _free                      004569c6 f   libucrt:free.obj
 0001:000559cb       _malloc                    004569cb f   libucrt:malloc.obj
 0001:000559d6       ___acrt_initialize_stdio   004569d6 f   libucrt:_file.obj
 0001:00055a9e       ___acrt_iob_func           00456a9e f   libucrt:_file.obj
 0001:00055aae       ___acrt_uninitialize_stdio 00456aae f   libucrt:_file.obj
 0001:00055afa       __get_stream_buffer_pointers 00456afa f   libucrt:_file.obj
 0001:00055b40       __lock_file                00456b40 f   libucrt:_file.obj
 0001:00055b54       __unlock_file              00456b54 f   libucrt:_file.obj
 0001:00055c29       _fopen                     00456c29 f   libucrt:fopen.obj
 0001:00055c40       _fopen_s                   00456c40 f   libucrt:fopen.obj
 0001:00055c87       __fclose_nolock            00456c87 f   libucrt:fclose.obj
 0001:00055cfd       _fclose                    00456cfd f   libucrt:fclose.obj
 0001:00055d7d       ?LongLongSub@@YAJ_J0PA_J@Z 00456d7d f i libucrt:fseek.obj
 0001:00056037       __fseeki64                 00457037 f   libucrt:fseek.obj
 0001:00056052       _fseek                     00457052 f   libucrt:fseek.obj
 0001:00056635       __ftelli64                 00457635 f   libucrt:ftell.obj
 0001:00056640       __ftelli64_nolock          00457640 f   libucrt:ftell.obj
 0001:0005664b       _ftell                     0045764b f   libucrt:ftell.obj
 0001:00056656       ??$?RV<lambda_11b4f7b0d3157825a5656a18eba1ae27>@@AAV<lambda_b51c0495177f500e782686251704ae76>@@V<lambda_cf89b47920b5017557bfe891e78aca36>@@@?$__crt_seh_guarded_call@I@@QAEI$$QAV<lambda_11b4f7b0d3157825a5656a18eba1ae27>@@AAV<lambda_b51c0495177f500e782686251704ae76>@@$$QAV<lambda_cf89b47920b5017557bfe891e78aca36>@@@Z 00457656 f i libucrt:fwrite.obj
 0001:000566a7       ??$__acrt_lock_stream_and_call@V<lambda_b51c0495177f500e782686251704ae76>@@@@YAIQAU_iobuf@@$$QAV<lambda_b51c0495177f500e782686251704ae76>@@@Z 004576a7 f i libucrt:fwrite.obj
 0001:00056715       __fwrite_nolock            00457715 f   libucrt:fwrite.obj
 0001:0005688e       _fwrite                    0045788e f   libucrt:fwrite.obj
 0001:000568e6       ??$?RV<lambda_db08b09ef7aa9d4f8620ce68402612bc>@@AAV<lambda_4f2c1eaeead2a5fc776db5b62ea0fb9b>@@V<lambda_3ae262bc35d4ba6a3825c4f6bcaaf95c>@@@?$__crt_seh_guarded_call@H@@QAEH$$QAV<lambda_db08b09ef7aa9d4f8620ce68402612bc>@@AAV<lambda_4f2c1eaeead2a5fc776db5b62ea0fb9b>@@$$QAV<lambda_3ae262bc35d4ba6a3825c4f6bcaaf95c>@@@Z 004578e6 f i libucrt:output.obj
 0001:00056937       ??$__acrt_lock_stream_and_call@V<lambda_4f2c1eaeead2a5fc776db5b62ea0fb9b>@@@@YAHQAU_iobuf@@$$QAV<lambda_4f2c1eaeead2a5fc776db5b62ea0fb9b>@@@Z 00457937 f i libucrt:output.obj
 0001:00056b53       ??$count@D@formatting_buffer@__crt_stdio_output@@QBEIXZ 00457b53 f i libucrt:output.obj
 0001:00056b6b       ??$ensure_buffer_is_big_enough@D@formatting_buffer@__crt_stdio_output@@QAE_NI@Z 00457b6b f i libucrt:output.obj
 0001:00056bf1       ??$is_wide_character_specifier@D@__crt_stdio_output@@YA_N_KDW4length_modifier@0@@Z 00457bf1 f i libucrt:output.obj
 0001:00056c31       ??$scratch_data@D@formatting_buffer@__crt_stdio_output@@QAEPADXZ 00457c31 f i libucrt:output.obj
 0001:00056c4f       ??$type_case_integer_parse_into_buffer@I@?$output_processor@DV?$stream_output_adapter@D@__crt_stdio_output@@V?$standard_base@DV?$stream_output_adapter@D@__crt_stdio_output@@@2@@__crt_stdio_output@@AAEXII_N@Z 00457c4f f i libucrt:output.obj
 0001:00056c4f       ??$type_case_integer_parse_into_buffer@I@?$output_processor@DV?$string_output_adapter@D@__crt_stdio_output@@V?$format_validation_base@DV?$string_output_adapter@D@__crt_stdio_output@@@2@@__crt_stdio_output@@AAEXII_N@Z 00457c4f f i libucrt:output.obj
 0001:00056cc4       ??$type_case_integer_parse_into_buffer@_K@?$output_processor@DV?$string_output_adapter@D@__crt_stdio_output@@V?$format_validation_base@DV?$string_output_adapter@D@__crt_stdio_output@@@2@@__crt_stdio_output@@AAEX_KI_N@Z 00457cc4 f i libucrt:output.obj
 0001:00056cc4       ??$type_case_integer_parse_into_buffer@_K@?$output_processor@DV?$stream_output_adapter@D@__crt_stdio_output@@V?$standard_base@DV?$stream_output_adapter@D@__crt_stdio_output@@@2@@__crt_stdio_output@@AAEX_KI_N@Z 00457cc4 f i libucrt:output.obj
 0001:00056d4c       ??$write_multiple_characters@V?$stream_output_adapter@D@__crt_stdio_output@@D@__crt_stdio_output@@YAXABV?$stream_output_adapter@D@0@DHQAH@Z 00457d4c f i libucrt:output.obj
 0001:00056d78       ??$write_multiple_characters@V?$string_output_adapter@D@__crt_stdio_output@@D@__crt_stdio_output@@YAXABV?$string_output_adapter@D@0@DHQAH@Z 00457d78 f i libucrt:output.obj
 0001:00056da4       ??0?$common_data@D@__crt_stdio_output@@IAE@XZ 00457da4 f i libucrt:output.obj
 0001:00056deb       ??0?$output_adapter_data@DV?$string_output_adapter@D@__crt_stdio_output@@@__crt_stdio_output@@IAE@ABV?$string_output_adapter@D@1@_KQBDQAU__crt_locale_pointers@@QAD@Z 00457deb f i libucrt:output.obj
 0001:00056deb       ??0?$output_adapter_data@DV?$stream_output_adapter@D@__crt_stdio_output@@@__crt_stdio_output@@IAE@ABV?$stream_output_adapter@D@1@_KQBDQAU__crt_locale_pointers@@QAD@Z 00457deb f i libucrt:output.obj
 0001:00056e27       ??0?$output_processor@DV?$string_output_adapter@D@__crt_stdio_output@@V?$format_validation_base@DV?$string_output_adapter@D@__crt_stdio_output@@@2@@__crt_stdio_output@@QAE@ABV?$string_output_adapter@D@1@_KQBDQAU__crt_locale_pointers@@QAD@Z 00457e27 f i libucrt:output.obj
 0001:00056e27       ??0?$output_processor@DV?$stream_output_adapter@D@__crt_stdio_output@@V?$standard_base@DV?$stream_output_adapter@D@__crt_stdio_output@@@2@@__crt_stdio_output@@QAE@ABV?$stream_output_adapter@D@1@_KQBDQAU__crt_locale_pointers@@QAD@Z 00457e27 f i libucrt:output.obj
 0001:00056e5c       ??0_LocaleUpdate@@QAE@QAU__crt_locale_pointers@@@Z 00457e5c f i libucrt:output.obj
 0001:00056edf       ??1formatting_buffer@__crt_stdio_output@@QAE@XZ 00457edf f i libucrt:output.obj
 0001:00056ef9       ??4?$__crt_unique_heap_ptr@DU__crt_internal_free_policy@@@@QAEAAV0@$$QAV0@@Z 00457ef9 f i libucrt:output.obj
 0001:00056fda       ?crop_zeroes@__crt_stdio_output@@YAXPADQAU__crt_locale_pointers@@@Z 00457fda f i libucrt:output.obj
 0001:00057031       ?find_next_state@?$output_processor@DV?$stream_output_adapter@D@__crt_stdio_output@@V?$standard_base@DV?$stream_output_adapter@D@__crt_stdio_output@@@2@@__crt_stdio_output@@ABE?AW4state@2@DW432@@Z 00458031 f i libucrt:output.obj
 0001:00057063       ?find_next_state@?$output_processor@DV?$string_output_adapter@D@__crt_stdio_output@@V?$format_validation_base@DV?$string_output_adapter@D@__crt_stdio_output@@@2@@__crt_stdio_output@@ABE?AW4state@2@DW432@@Z 00458063 f i libucrt:output.obj
 0001:00057098       ?force_decimal_point@__crt_stdio_output@@YAXPADQAU__crt_locale_pointers@@@Z 00458098 f i libucrt:output.obj
 0001:000570f4       ?parse_int_from_format_string@?$output_processor@DV?$string_output_adapter@D@__crt_stdio_output@@V?$format_validation_base@DV?$string_output_adapter@D@__crt_stdio_output@@@2@@__crt_stdio_output@@AAE_NQAH@Z 004580f4 f i libucrt:output.obj
 0001:000570f4       ?parse_int_from_format_string@?$output_processor@DV?$stream_output_adapter@D@__crt_stdio_output@@V?$standard_base@DV?$stream_output_adapter@D@__crt_stdio_output@@@2@@__crt_stdio_output@@AAE_NQAH@Z 004580f4 f i libucrt:output.obj
 0001:00057150       ?process@?$output_processor@DV?$stream_output_adapter@D@__crt_stdio_output@@V?$standard_base@DV?$stream_output_adapter@D@__crt_stdio_output@@@2@@__crt_stdio_output@@QAEHXZ 00458150 f i libucrt:output.obj
 0001:0005726c       ?process@?$output_processor@DV?$string_output_adapter@D@__crt_stdio_output@@V?$format_validation_base@DV?$string_output_adapter@D@__crt_stdio_output@@@2@@__crt_stdio_output@@QAEHXZ 0045826c f i libucrt:output.obj
 0001:00057394       ?state_case_flag@?$output_processor@DV?$string_output_adapter@D@__crt_stdio_output@@V?$format_validation_base@DV?$string_output_adapter@D@__crt_stdio_output@@@2@@__crt_stdio_output@@AAE_NXZ 00458394 f i libucrt:output.obj
 0001:00057394       ?state_case_flag@?$output_processor@DV?$stream_output_adapter@D@__crt_stdio_output@@V?$standard_base@DV?$stream_output_adapter@D@__crt_stdio_output@@@2@@__crt_stdio_output@@AAE_NXZ 00458394 f i libucrt:output.obj
 0001:000573d1       ?state_case_normal@?$output_processor@DV?$stream_output_adapter@D@__crt_stdio_output@@V?$standard_base@DV?$stream_output_adapter@D@__crt_stdio_output@@@2@@__crt_stdio_output@@AAE_NXZ 004583d1 f i libucrt:output.obj
 0001:000573f0       ?state_case_normal@?$output_processor@DV?$string_output_adapter@D@__crt_stdio_output@@V?$format_validation_base@DV?$string_output_adapter@D@__crt_stdio_output@@@2@@__crt_stdio_output@@AAE_NXZ 004583f0 f i libucrt:output.obj
 0001:0005740f       ?state_case_normal_common@?$output_processor@DV?$stream_output_adapter@D@__crt_stdio_output@@V?$standard_base@DV?$stream_output_adapter@D@__crt_stdio_output@@@2@@__crt_stdio_output@@AAE_NXZ 0045840f f i libucrt:output.obj
 0001:00057439       ?state_case_normal_common@?$output_processor@DV?$string_output_adapter@D@__crt_stdio_output@@V?$format_validation_base@DV?$string_output_adapter@D@__crt_stdio_output@@@2@@__crt_stdio_output@@AAE_NXZ 00458439 f i libucrt:output.obj
 0001:00057463       ?state_case_normal_tchar@?$output_processor@DV?$stream_output_adapter@D@__crt_stdio_output@@V?$standard_base@DV?$stream_output_adapter@D@__crt_stdio_output@@@2@@__crt_stdio_output@@AAE_ND@Z 00458463 f i libucrt:output.obj
 0001:000574c4       ?state_case_normal_tchar@?$output_processor@DV?$string_output_adapter@D@__crt_stdio_output@@V?$format_validation_base@DV?$string_output_adapter@D@__crt_stdio_output@@@2@@__crt_stdio_output@@AAE_ND@Z 004584c4 f i libucrt:output.obj
 0001:00057525       ?state_case_precision@?$output_processor@DV?$stream_output_adapter@D@__crt_stdio_output@@V?$standard_base@DV?$stream_output_adapter@D@__crt_stdio_output@@@2@@__crt_stdio_output@@AAE_NXZ 00458525 f i libucrt:output.obj
 0001:00057525       ?state_case_precision@?$output_processor@DV?$string_output_adapter@D@__crt_stdio_output@@V?$format_validation_base@DV?$string_output_adapter@D@__crt_stdio_output@@@2@@__crt_stdio_output@@AAE_NXZ 00458525 f i libucrt:output.obj
 0001:0005754d       ?state_case_size@?$output_processor@DV?$stream_output_adapter@D@__crt_stdio_output@@V?$standard_base@DV?$stream_output_adapter@D@__crt_stdio_output@@@2@@__crt_stdio_output@@AAE_NXZ 0045854d f i libucrt:output.obj
 0001:000576b6       ?state_case_size@?$output_processor@DV?$string_output_adapter@D@__crt_stdio_output@@V?$format_validation_base@DV?$string_output_adapter@D@__crt_stdio_output@@@2@@__crt_stdio_output@@AAE_NXZ 004586b6 f i libucrt:output.obj
 0001:0005781f       ?state_case_type@?$output_processor@DV?$stream_output_adapter@D@__crt_stdio_output@@V?$standard_base@DV?$stream_output_adapter@D@__crt_stdio_output@@@2@@__crt_stdio_output@@AAE_NXZ 0045881f f i libucrt:output.obj
 0001:00057a4e       ?state_case_type@?$output_processor@DV?$string_output_adapter@D@__crt_stdio_output@@V?$format_validation_base@DV?$string_output_adapter@D@__crt_stdio_output@@@2@@__crt_stdio_output@@AAE_NXZ 00458a4e f i libucrt:output.obj
 0001:00057c7d       ?state_case_width@?$output_processor@DV?$string_output_adapter@D@__crt_stdio_output@@V?$format_validation_base@DV?$string_output_adapter@D@__crt_stdio_output@@@2@@__crt_stdio_output@@AAE_NXZ 00458c7d f i libucrt:output.obj
 0001:00057c7d       ?state_case_width@?$output_processor@DV?$stream_output_adapter@D@__crt_stdio_output@@V?$standard_base@DV?$stream_output_adapter@D@__crt_stdio_output@@@2@@__crt_stdio_output@@AAE_NXZ 00458c7d f i libucrt:output.obj
 0001:00057ca8       ?to_integer_size@__crt_stdio_output@@YAIW4length_modifier@1@@Z 00458ca8 f i libucrt:output.obj
 0001:00057d04       ?type_case_Z@?$output_processor@DV?$string_output_adapter@D@__crt_stdio_output@@V?$format_validation_base@DV?$string_output_adapter@D@__crt_stdio_output@@@2@@__crt_stdio_output@@AAE_NXZ 00458d04 f i libucrt:output.obj
 0001:00057d04       ?type_case_Z@?$output_processor@DV?$stream_output_adapter@D@__crt_stdio_output@@V?$standard_base@DV?$stream_output_adapter@D@__crt_stdio_output@@@2@@__crt_stdio_output@@AAE_NXZ 00458d04 f i libucrt:output.obj
 0001:00057d67       ?type_case_a@?$output_processor@DV?$stream_output_adapter@D@__crt_stdio_output@@V?$standard_base@DV?$stream_output_adapter@D@__crt_stdio_output@@@2@@__crt_stdio_output@@AAE_NXZ 00458d67 f i libucrt:output.obj
 0001:00057d67       ?type_case_a@?$output_processor@DV?$string_output_adapter@D@__crt_stdio_output@@V?$format_validation_base@DV?$string_output_adapter@D@__crt_stdio_output@@@2@@__crt_stdio_output@@AAE_NXZ 00458d67 f i libucrt:output.obj
 0001:00057ec1       ?type_case_c_tchar@?$output_processor@DV?$string_output_adapter@D@__crt_stdio_output@@V?$format_validation_base@DV?$string_output_adapter@D@__crt_stdio_output@@@2@@__crt_stdio_output@@AAE_ND@Z 00458ec1 f i libucrt:output.obj
 0001:00057ec1       ?type_case_c_tchar@?$output_processor@DV?$stream_output_adapter@D@__crt_stdio_output@@V?$standard_base@DV?$stream_output_adapter@D@__crt_stdio_output@@@2@@__crt_stdio_output@@AAE_ND@Z 00458ec1 f i libucrt:output.obj
 0001:00057f51       ?type_case_integer@?$output_processor@DV?$stream_output_adapter@D@__crt_stdio_output@@V?$standard_base@DV?$stream_output_adapter@D@__crt_stdio_output@@@2@@__crt_stdio_output@@AAE_NI_N@Z 00458f51 f i libucrt:output.obj
 0001:00057f51       ?type_case_integer@?$output_processor@DV?$string_output_adapter@D@__crt_stdio_output@@V?$format_validation_base@DV?$string_output_adapter@D@__crt_stdio_output@@@2@@__crt_stdio_output@@AAE_NI_N@Z 00458f51 f i libucrt:output.obj
 0001:0005809b       ?type_case_n@?$output_processor@DV?$string_output_adapter@D@__crt_stdio_output@@V?$format_validation_base@DV?$string_output_adapter@D@__crt_stdio_output@@@2@@__crt_stdio_output@@AAE_NXZ 0045909b f i libucrt:output.obj
 0001:0005809b       ?type_case_n@?$output_processor@DV?$stream_output_adapter@D@__crt_stdio_output@@V?$standard_base@DV?$stream_output_adapter@D@__crt_stdio_output@@@2@@__crt_stdio_output@@AAE_NXZ 0045909b f i libucrt:output.obj
 0001:0005810f       ?type_case_o@?$output_processor@DV?$string_output_adapter@D@__crt_stdio_output@@V?$format_validation_base@DV?$string_output_adapter@D@__crt_stdio_output@@@2@@__crt_stdio_output@@AAE_NXZ 0045910f f i libucrt:output.obj
 0001:0005810f       ?type_case_o@?$output_processor@DV?$stream_output_adapter@D@__crt_stdio_output@@V?$standard_base@DV?$stream_output_adapter@D@__crt_stdio_output@@@2@@__crt_stdio_output@@AAE_NXZ 0045910f f i libucrt:output.obj
 0001:0005812e       ?type_case_p@?$output_processor@DV?$string_output_adapter@D@__crt_stdio_output@@V?$format_validation_base@DV?$string_output_adapter@D@__crt_stdio_output@@@2@@__crt_stdio_output@@AAE_NXZ 0045912e f i libucrt:output.obj
 0001:0005812e       ?type_case_p@?$output_processor@DV?$stream_output_adapter@D@__crt_stdio_output@@V?$standard_base@DV?$stream_output_adapter@D@__crt_stdio_output@@@2@@__crt_stdio_output@@AAE_NXZ 0045912e f i libucrt:output.obj
 0001:00058146       ?type_case_s@?$output_processor@DV?$string_output_adapter@D@__crt_stdio_output@@V?$format_validation_base@DV?$string_output_adapter@D@__crt_stdio_output@@@2@@__crt_stdio_output@@AAE_NXZ 00459146 f i libucrt:output.obj
 0001:00058146       ?type_case_s@?$output_processor@DV?$stream_output_adapter@D@__crt_stdio_output@@V?$standard_base@DV?$stream_output_adapter@D@__crt_stdio_output@@@2@@__crt_stdio_output@@AAE_NXZ 00459146 f i libucrt:output.obj
 0001:000581b9       ?validate@?$stream_output_adapter@D@__crt_stdio_output@@QBE_NXZ 004591b9 f i libucrt:output.obj
 0001:000581da       ?validate@?$string_output_adapter@D@__crt_stdio_output@@QBE_NXZ 004591da f i libucrt:output.obj
 0001:000581da       ?validate@?$c_string_character_source@D@__crt_strtox@@QBE_NXZ 004591da f i libucrt:strtox.obj
 0001:000581da       ?validate@?$c_string_character_source@_W@__crt_strtox@@QBE_NXZ 004591da f i libucrt:strtox.obj
 0001:000581f5       ?validate_and_update_state_at_end_of_format_string@?$format_validation_base@DV?$string_output_adapter@D@__crt_stdio_output@@@__crt_stdio_output@@IBE_NXZ 004591f5 f i libucrt:output.obj
 0001:00058217       ?validate_stream_is_ansi_if_required@?$__acrt_stdio_char_traits@D@@SA_NQAU_iobuf@@@Z 00459217 f i libucrt:output.obj
 0001:00058299       ?write_character@?$stream_output_adapter@D@__crt_stdio_output@@QBEXDQAH@Z 00459299 f i libucrt:output.obj
 0001:000582d6       ?write_character@?$string_output_adapter@D@__crt_stdio_output@@QBE_NDQAH@Z 004592d6 f i libucrt:output.obj
 0001:00058318       ?write_stored_string_tchar@?$output_processor@DV?$stream_output_adapter@D@__crt_stdio_output@@V?$standard_base@DV?$stream_output_adapter@D@__crt_stdio_output@@@2@@__crt_stdio_output@@AAE_ND@Z 00459318 f i libucrt:output.obj
 0001:000583bf       ?write_stored_string_tchar@?$output_processor@DV?$string_output_adapter@D@__crt_stdio_output@@V?$format_validation_base@DV?$string_output_adapter@D@__crt_stdio_output@@@2@@__crt_stdio_output@@AAE_ND@Z 004593bf f i libucrt:output.obj
 0001:00058466       ?write_string@?$stream_output_adapter@D@__crt_stdio_output@@QBEXQBDHQAH1@Z 00459466 f i libucrt:output.obj
 0001:000584f0       ?write_string@?$string_output_adapter@D@__crt_stdio_output@@QBEXQBDHQAH1@Z 004594f0 f i libucrt:output.obj
 0001:00058583       ___stdio_common_vfprintf   00459583 f   libucrt:output.obj
 0001:000585fa       ___stdio_common_vsprintf_s 004595fa f   libucrt:output.obj
 0001:0005861e       ??$__crt_fast_encode_pointer@P6GHPA_WKJ@Z@@YAP6GHPA_WKJ@ZQ6GH0KJ@Z@Z 0045961e f i libucrt:winapi_thunks.obj
 0001:0005861e       ??$__crt_fast_encode_pointer@P6AHPAU_exception@@@Z@@YAP6AHPAU_exception@@@ZQ6AH0@Z@Z 0045961e f i libucrt:matherr.obj
 0001:0005861e       ??$__crt_fast_encode_pointer@P6AHXZ@@YAP6AHXZQ6AHXZ@Z 0045961e f i libucrt:onexit.obj
 0001:0005861e       ??$__crt_fast_encode_pointer@P6GXPAXK0@Z@@YAP6GXPAXK0@ZQ6GX0K0@Z@Z 0045961e f i libucrt:exit.obj
 0001:00058858       ___acrt_initialize_thread_local_exit_callback 00459858 f   libucrt:exit.obj
 0001:00058867       __c_exit                   00459867 f   libucrt:exit.obj
 0001:00058876       __cexit                    00459876 f   libucrt:exit.obj
 0001:00058885       __exit                     00459885 f   libucrt:exit.obj
 0001:0005889b       __register_thread_local_exe_atexit_callback 0045989b f   libucrt:exit.obj
 0001:000588d3       _exit                      004598d3 f   libucrt:exit.obj
 0001:000588e9       ??$is_overflow_condition@K@__crt_strtox@@YA_NIK@Z 004598e9 f i libucrt:strtox.obj
 0001:0005891c       ??$is_overflow_condition@_K@__crt_strtox@@YA_NI_K@Z 0045991c f i libucrt:strtox.obj
 0001:0005895f       ??$make_c_string_character_source@D$$T@__crt_strtox@@YA?AV?$c_string_character_source@D@0@QBD$$T@Z 0045995f f i libucrt:atox.obj
 0001:0005895f       ??$make_c_string_character_source@DPAPAD@__crt_strtox@@YA?AV?$c_string_character_source@D@0@QBDQAPAD@Z 0045995f f i libucrt:strtox.obj
 0001:0005895f       ??$make_c_string_character_source@_W$$T@__crt_strtox@@YA?AV?$c_string_character_source@_W@0@QB_W$$T@Z 0045995f f i libucrt:atox.obj
 0001:0005897a       ??$parse_integer@KV?$c_string_character_source@D@__crt_strtox@@@__crt_strtox@@YAKQAU__crt_locale_pointers@@V?$c_string_character_source@D@0@H_N@Z 0045997a f i libucrt:strtox.obj
 0001:00058ba2       ??$parse_integer@KV?$c_string_character_source@_W@__crt_strtox@@@__crt_strtox@@YAKQAU__crt_locale_pointers@@V?$c_string_character_source@_W@0@H_N@Z 00459ba2 f i libucrt:strtox.obj
 0001:00059287       ??$parse_integer@_KV?$c_string_character_source@D@__crt_strtox@@@__crt_strtox@@YA_KQAU__crt_locale_pointers@@V?$c_string_character_source@D@0@H_N@Z 0045a287 f i libucrt:strtox.obj
 0001:0005952d       ?unget@?$c_string_character_source@D@__crt_strtox@@QAEXD@Z 0045a52d f i libucrt:strtox.obj
 0001:00059555       ?unget@?$c_string_character_source@_W@__crt_strtox@@QAEX_W@Z 0045a555 f i libucrt:strtox.obj
 0001:00059581       __chvalidchk_l             0045a581 f i libucrt:strtox.obj
 0001:000595ab       __ischartype_l             0045a5ab f i libucrt:strtox.obj
 0001:000595de       _strtol                    0045a5de f   libucrt:strtox.obj
 0001:0005960a       _strtoull                  0045a60a f   libucrt:strtox.obj
 0001:00059636       _calloc                    0045a636 f   libucrt:calloc.obj
 0001:00059641       _frexp                     0045a641 f   libucrt:frexp.obj
 0001:0005973d       __fputc_nolock             0045a73d f   libucrt:fputc.obj
 0001:00059766       _fputc                     0045a766 f   libucrt:fputc.obj
 0001:0005986a       ??$assemble_floating_point_ind@N@__crt_strtox@@YAXAAN@Z 0045a86a f i libucrt:input.obj
 0001:00059899       ??$assemble_floating_point_infinity@N@__crt_strtox@@YAX_NAAN@Z 0045a899 f i libucrt:input.obj
 0001:000598d8       ??$assemble_floating_point_qnan@N@__crt_strtox@@YAX_NAAN@Z 0045a8d8 f i libucrt:input.obj
 0001:00059917       ??$assemble_floating_point_snan@N@__crt_strtox@@YAX_NAAN@Z 0045a917 f i libucrt:input.obj
 0001:0005995b       ??$assemble_floating_point_value_t@M@__crt_strtox@@YA?AW4SLD_STATUS@@_NH_KAAM@Z 0045a95b f i libucrt:input.obj
 0001:0005998b       ??$assemble_floating_point_value_t@N@__crt_strtox@@YA?AW4SLD_STATUS@@_NH_KAAN@Z 0045a98b f i libucrt:input.obj
 0001:000599ea       ??$assemble_floating_point_zero@N@__crt_strtox@@YAX_NAAN@Z 0045a9ea f i libucrt:input.obj
 0001:00059ae8       ??$convert_decimal_string_to_floating_type@M@__crt_strtox@@YA?AW4SLD_STATUS@@ABUfloating_point_string@0@AAM@Z 0045aae8 f i libucrt:input.obj
 0001:00059b0b       ??$convert_decimal_string_to_floating_type@N@__crt_strtox@@YA?AW4SLD_STATUS@@ABUfloating_point_string@0@AAN@Z 0045ab0b f i libucrt:input.obj
 0001:00059b2e       ??$convert_hexadecimal_string_to_floating_type@M@__crt_strtox@@YA?AW4SLD_STATUS@@ABUfloating_point_string@0@AAM@Z 0045ab2e f i libucrt:input.obj
 0001:00059b51       ??$convert_hexadecimal_string_to_floating_type@N@__crt_strtox@@YA?AW4SLD_STATUS@@ABUfloating_point_string@0@AAN@Z 0045ab51 f i libucrt:input.obj
 0001:00059b74       ??$make_input_adapter_character_source@V?$string_input_adapter@D@__crt_stdio_input@@@__crt_strtox@@YA?AV?$input_adapter_character_source@V?$string_input_adapter@D@__crt_stdio_input@@@0@QAV?$string_input_adapter@D@__crt_stdio_input@@_KQA_N@Z 0045ab74 f i libucrt:input.obj
 0001:00059b92       ??$parse_floating_point@V?$input_adapter_character_source@V?$string_input_adapter@D@__crt_stdio_input@@@__crt_strtox@@M@__crt_strtox@@YA?AW4SLD_STATUS@@QAU__crt_locale_pointers@@V?$input_adapter_character_source@V?$string_input_adapter@D@__crt_stdio_input@@@0@QAM@Z 0045ab92 f i libucrt:input.obj
 0001:00059c0d       ??$parse_floating_point@V?$input_adapter_character_source@V?$string_input_adapter@D@__crt_stdio_input@@@__crt_strtox@@N@__crt_strtox@@YA?AW4SLD_STATUS@@QAU__crt_locale_pointers@@V?$input_adapter_character_source@V?$string_input_adapter@D@__crt_stdio_input@@@0@QAN@Z 0045ac0d f i libucrt:input.obj
 0001:00059c88       ??$parse_floating_point_from_source@V?$input_adapter_character_source@V?$string_input_adapter@D@__crt_stdio_input@@@__crt_strtox@@@__crt_strtox@@YA?AW4floating_point_parse_result@0@QAU__crt_locale_pointers@@AAV?$input_adapter_character_source@V?$string_input_adapter@D@__crt_stdio_input@@@0@AAUfloating_point_string@0@@Z 0045ac88 f i libucrt:input.obj
 0001:0005a0ef       ??$parse_floating_point_possible_infinity@DV?$input_adapter_character_source@V?$string_input_adapter@D@__crt_stdio_input@@@__crt_strtox@@_K@__crt_strtox@@YA?AW4floating_point_parse_result@0@AADAAV?$input_adapter_character_source@V?$string_input_adapter@D@__crt_stdio_input@@@0@_K@Z 0045b0ef f i libucrt:input.obj
 0001:0005a1b0       ??$parse_floating_point_possible_nan@DV?$input_adapter_character_source@V?$string_input_adapter@D@__crt_stdio_input@@@__crt_strtox@@_K@__crt_strtox@@YA?AW4floating_point_parse_result@0@AADAAV?$input_adapter_character_source@V?$string_input_adapter@D@__crt_stdio_input@@@0@_K@Z 0045b1b0 f i libucrt:input.obj
 0001:0005a2c2       ??$parse_floating_point_possible_nan_is_ind@DV?$input_adapter_character_source@V?$string_input_adapter@D@__crt_stdio_input@@@__crt_strtox@@@__crt_strtox@@YA_NAADAAV?$input_adapter_character_source@V?$string_input_adapter@D@__crt_stdio_input@@@0@@Z 0045b2c2 f i libucrt:input.obj
 0001:0005a2fc       ??$parse_floating_point_possible_nan_is_snan@DV?$input_adapter_character_source@V?$string_input_adapter@D@__crt_stdio_input@@@__crt_strtox@@@__crt_strtox@@YA_NAADAAV?$input_adapter_character_source@V?$string_input_adapter@D@__crt_stdio_input@@@0@@Z 0045b2fc f i libucrt:input.obj
 0001:0005a336       ??$parse_floating_point_write_result@M@__crt_strtox@@YA?AW4SLD_STATUS@@W4floating_point_parse_result@0@ABUfloating_point_string@0@QAM@Z 0045b336 f i libucrt:input.obj
 0001:0005a446       ??$parse_floating_point_write_result@N@__crt_strtox@@YA?AW4SLD_STATUS@@W4floating_point_parse_result@0@ABUfloating_point_string@0@QAN@Z 0045b446 f i libucrt:input.obj
 0001:0005a54a       ??$parse_integer@_KV?$input_adapter_character_source@V?$string_input_adapter@D@__crt_stdio_input@@@__crt_strtox@@@__crt_strtox@@YA_KQAU__crt_locale_pointers@@V?$input_adapter_character_source@V?$string_input_adapter@D@__crt_stdio_input@@@0@H_N@Z 0045b54a f i libucrt:input.obj
 0001:0005a7fb       ??$process_floating_point_specifier_t@M@?$input_processor@DV?$string_input_adapter@D@__crt_stdio_input@@@__crt_stdio_input@@AAE_NXZ 0045b7fb f i libucrt:input.obj
 0001:0005a863       ??$process_floating_point_specifier_t@N@?$input_processor@DV?$string_input_adapter@D@__crt_stdio_input@@@__crt_stdio_input@@AAE_NXZ 0045b863 f i libucrt:input.obj
 0001:0005a8cb       ??$process_string_specifier_tchar@D@?$input_processor@DV?$string_input_adapter@D@__crt_stdio_input@@@__crt_stdio_input@@AAE_NW4conversion_mode@1@D@Z 0045b8cb f i libucrt:input.obj
 0001:0005aa2d       ??$process_string_specifier_tchar@_W@?$input_processor@DV?$string_input_adapter@D@__crt_stdio_input@@@__crt_stdio_input@@AAE_NW4conversion_mode@1@_W@Z 0045ba2d f i libucrt:input.obj
 0001:0005ab99       ??$skip_whitespace@Vstring_input_adapter@__crt_stdio_input@@D@__crt_stdio_input@@YAHAAV?$string_input_adapter@D@0@QAU__crt_locale_pointers@@@Z 0045bb99 f i libucrt:input.obj
 0001:0005abc8       ??$write_floating_point@M@?$input_processor@DV?$string_input_adapter@D@__crt_stdio_input@@@__crt_stdio_input@@AAE_NABM@Z 0045bbc8 f i libucrt:input.obj
 0001:0005abff       ??$write_floating_point@N@?$input_processor@DV?$string_input_adapter@D@__crt_stdio_input@@@__crt_stdio_input@@AAE_NABN@Z 0045bbff f i libucrt:input.obj
 0001:0005ac3c       ??0?$format_string_parser@D@__crt_stdio_input@@QAE@_KQBE@Z 0045bc3c f i libucrt:input.obj
 0001:0005ac86       ??0?$input_adapter_character_source@V?$string_input_adapter@D@__crt_stdio_input@@@__crt_strtox@@QAE@QAV?$string_input_adapter@D@__crt_stdio_input@@_KQA_N@Z 0045bc86 f i libucrt:input.obj
 0001:0005acb7       ??0?$input_processor@DV?$string_input_adapter@D@__crt_stdio_input@@@__crt_stdio_input@@QAE@ABV?$string_input_adapter@D@1@_KQBDQAU__crt_locale_pointers@@QAD@Z 0045bcb7 f i libucrt:input.obj
 0001:0005ad29       ?advance@?$format_string_parser@D@__crt_stdio_input@@QAE_NXZ 0045bd29 f i libucrt:input.obj
 0001:0005ae49       ?as_double@floating_point_value@__crt_strtox@@QBEAANXZ 0045be49 f i libucrt:input.obj
 0001:0005ae6e       ?as_float@floating_point_value@__crt_strtox@@QBEAAMXZ 0045be6e f i libucrt:input.obj
 0001:0005ae93       ?assemble_floating_point_infinity@__crt_strtox@@YAX_NABVfloating_point_value@1@@Z 0045be93 f i libucrt:input.obj
 0001:0005aecd       ?assemble_floating_point_value@__crt_strtox@@YA?AW4SLD_STATUS@@_KH_N1ABVfloating_point_value@1@@Z 0045becd f i libucrt:input.obj
 0001:0005b219       ?assemble_floating_point_value_from_big_integer@__crt_strtox@@YA?AW4SLD_STATUS@@ABUbig_integer@1@I_N1ABVfloating_point_value@1@@Z 0045c219 f i libucrt:input.obj
 0001:0005b3a7       ?assemble_floating_point_zero@__crt_strtox@@YAX_NABVfloating_point_value@1@@Z 0045c3a7 f i libucrt:input.obj
 0001:0005b3db       ?convert_decimal_string_to_floating_type_common@__crt_strtox@@YA?AW4SLD_STATUS@@ABUfloating_point_string@1@ABVfloating_point_value@1@@Z 0045c3db f i libucrt:input.obj
 0001:0005d19e       ?convert_hexadecimal_string_to_floating_type_common@__crt_strtox@@YA?AW4SLD_STATUS@@ABUfloating_point_string@1@ABVfloating_point_value@1@@Z 0045e19e f i libucrt:input.obj
 0001:0005d24a       ?denormal_mantissa_mask@floating_point_value@__crt_strtox@@QBE_KXZ 0045e24a f i libucrt:input.obj
 0001:0005d270       ?divide@__crt_strtox@@YA_KAAUbig_integer@1@ABU21@@Z 0045e270 f i libucrt:input.obj
 0001:0005d71e       ?get@?$input_adapter_character_source@V?$string_input_adapter@D@__crt_stdio_input@@@__crt_strtox@@QAEDXZ 0045e71e f i libucrt:input.obj
 0001:0005d758       ?get@?$string_input_adapter@D@__crt_stdio_input@@QAEHXZ 0045e758 f i libucrt:input.obj
 0001:0005d76e       ?invert@?$scanset_buffer@E@__crt_stdio_input@@QAEXXZ 0045e76e f i libucrt:input.obj
 0001:0005d78c       ?is_character_allowed_in_string@?$input_processor@DV?$string_input_adapter@D@__crt_stdio_input@@@__crt_stdio_input@@ABE_NW4conversion_mode@2@H@Z 0045e78c f i libucrt:input.obj
 0001:0005d7d2       ?length@?$format_string_parser@D@__crt_stdio_input@@QBEIXZ 0045e7d2 f i libucrt:input.obj
 0001:0005d813       ?normal_mantissa_mask@floating_point_value@__crt_strtox@@QBE_KXZ 0045e813 f i libucrt:input.obj
 0001:0005d82a       ?process@?$input_processor@DV?$string_input_adapter@D@__crt_stdio_input@@@__crt_stdio_input@@QAEHXZ 0045e82a f i libucrt:input.obj
 0001:0005d8af       ?process_character_count_specifier@?$input_processor@DV?$string_input_adapter@D@__crt_stdio_input@@@__crt_stdio_input@@AAE_NXZ 0045e8af f i libucrt:input.obj
 0001:0005d8c9       ?process_conversion_specifier@?$input_processor@DV?$string_input_adapter@D@__crt_stdio_input@@@__crt_stdio_input@@AAE_NXZ 0045e8c9 f i libucrt:input.obj
 0001:0005d93d       ?process_floating_point_specifier@?$input_processor@DV?$string_input_adapter@D@__crt_stdio_input@@@__crt_stdio_input@@AAE_NXZ 0045e93d f i libucrt:input.obj
 0001:0005d96d       ?process_integer_specifier@?$input_processor@DV?$string_input_adapter@D@__crt_stdio_input@@@__crt_stdio_input@@AAE_NI_N@Z 0045e96d f i libucrt:input.obj
 0001:0005d9d3       ?process_literal_character@?$input_processor@DV?$string_input_adapter@D@__crt_stdio_input@@@__crt_stdio_input@@AAE_NXZ 0045e9d3 f i libucrt:input.obj
 0001:0005da09       ?process_literal_character_tchar@?$input_processor@DV?$string_input_adapter@D@__crt_stdio_input@@@__crt_stdio_input@@AAE_ND@Z 0045ea09 f i libucrt:input.obj
 0001:0005da5f       ?process_state@?$input_processor@DV?$string_input_adapter@D@__crt_stdio_input@@@__crt_stdio_input@@AAE_NXZ 0045ea5f f i libucrt:input.obj
 0001:0005da95       ?process_string_specifier@?$input_processor@DV?$string_input_adapter@D@__crt_stdio_input@@@__crt_stdio_input@@AAE_NW4conversion_mode@2@@Z 0045ea95 f i libucrt:input.obj
 0001:0005dadd       ?process_whitespace@?$input_processor@DV?$string_input_adapter@D@__crt_stdio_input@@@__crt_stdio_input@@AAE_NXZ 0045eadd f i libucrt:input.obj
 0001:0005dafa       ?restore_state@?$input_adapter_character_source@V?$string_input_adapter@D@__crt_stdio_input@@@__crt_strtox@@QAE_N_K@Z 0045eafa f i libucrt:input.obj
 0001:0005db1f       ?scan_conversion_specifier@?$format_string_parser@D@__crt_stdio_input@@AAE_NXZ 0045eb1f f i libucrt:input.obj
 0001:0005dc8a       ?scan_optional_field_width@?$format_string_parser@D@__crt_stdio_input@@AAE_NXZ 0045ec8a f i libucrt:input.obj
 0001:0005dd29       ?scan_optional_length_modifier@?$format_string_parser@D@__crt_stdio_input@@AAEXXZ 0045ed29 f i libucrt:input.obj
 0001:0005de49       ?scan_optional_literal_character_trail_bytes_tchar@?$format_string_parser@D@__crt_stdio_input@@AAE_ND@Z 0045ee49 f i libucrt:input.obj
 0001:0005de9e       ?scan_optional_wide_modifier@?$format_string_parser@D@__crt_stdio_input@@AAEXXZ 0045ee9e f i libucrt:input.obj
 0001:0005debc       ?scan_scanset_range@?$format_string_parser@D@__crt_stdio_input@@AAE_NXZ 0045eebc f i libucrt:input.obj
 0001:0005dfc3       ?set@?$scanset_buffer@E@__crt_stdio_input@@QAEXE@Z 0045efc3 f i libucrt:input.obj
 0001:0005dfee       ?set_wide_for_c_s_or_scanset@?$format_string_parser@D@__crt_stdio_input@@AAEXXZ 0045efee f i libucrt:input.obj
 0001:0005e00e       ?test@?$scanset_buffer@E@__crt_stdio_input@@QBE_NE@Z 0045f00e f i libucrt:input.obj
 0001:0005e03f       ?to_floating_point_length@__crt_stdio_input@@YAIW4length_modifier@1@@Z 0045f03f f i libucrt:input.obj
 0001:0005e062       ?to_integer_length@__crt_stdio_input@@YAIW4length_modifier@1@@Z 0045f062 f i libucrt:input.obj
 0001:0005e0ba       ?unget@?$input_adapter_character_source@V?$string_input_adapter@D@__crt_stdio_input@@@__crt_strtox@@QAEXD@Z 0045f0ba f i libucrt:input.obj
 0001:0005e0fb       ?unget@?$string_input_adapter@D@__crt_stdio_input@@QAEXH@Z 0045f0fb f i libucrt:input.obj
 0001:0005e11a       ?validate@?$format_string_parser@D@__crt_stdio_input@@QBE_NXZ 0045f11a f i libucrt:input.obj
 0001:0005e136       ?validate@?$input_adapter_character_source@V?$string_input_adapter@D@__crt_stdio_input@@@__crt_strtox@@QBE_NXZ 0045f136 f i libucrt:input.obj
 0001:0005e157       ?validate@?$string_input_adapter@D@__crt_stdio_input@@QAE_NXZ 0045f157 f i libucrt:input.obj
 0001:0005e179       ?write_character@?$input_processor@DV?$string_input_adapter@D@__crt_stdio_input@@@__crt_stdio_input@@AAE_NQA_WIAAPA_WAAID@Z 0045f179 f i libucrt:input.obj
 0001:0005e1ea       ?write_integer@?$input_processor@DV?$string_input_adapter@D@__crt_stdio_input@@@__crt_stdio_input@@AAE_N_K_N@Z 0045f1ea f i libucrt:input.obj
 0001:0005e261       ___stdio_common_vsscanf    0045f261 f   libucrt:input.obj
 0001:0005e310       _strcspn                   0045f310 f   libucrt:strcspn.obj
 0001:0005e356       _terminate                 0045f356 f   libucrt:terminate.obj
 0001:0005e392       _localeconv                0045f392 f   libucrt:localeconv.obj
 0001:0005e3bc       ??$__crt_time_is_leap_year@H@@YA_NH@Z 0045f3bc f i libucrt:asctime.obj
 0001:0005e5de       ?__crt_time_is_day_valid@@YA_NHHH@Z 0045f5de f i libucrt:asctime.obj
 0001:0005e625       _asctime                   0045f625 f   libucrt:asctime.obj
 0001:0005e905       __localtime64              0045f905 f   libucrt:localtime.obj
 0001:0005e9ab       __time64                   0045f9ab f   libucrt:time.obj
 0001:0005e9ed       _strcpy_s                  0045f9ed f   libucrt:strcpy_s.obj
 0001:0005ecb4       __dupenv_s                 0045fcb4 f   libucrt:getenv.obj
 0001:0005ecd2       _getenv_s                  0045fcd2 f   libucrt:getenv.obj
 0001:0005ecdd       ___acrt_stdio_flush_nolock 0045fcdd f   libucrt:fflush.obj
 0001:0005ed43       __fflush_nolock            0045fd43 f   libucrt:fflush.obj
 0001:0005ed8a       __flushall                 0045fd8a f   libucrt:fflush.obj
 0001:0005ee6b       _fflush                    0045fe6b f   libucrt:fflush.obj
 0001:0005eef1       __getdrive                 0045fef1 f   libucrt:drive.obj
 0001:0005efa0       __fread_nolock_s           0045ffa0 f   libucrt:fread.obj
 0001:0005f16c       _fread                     0046016c f   libucrt:fread.obj
 0001:0005f189       _fread_s                   00460189 f   libucrt:fread.obj
 0001:0005f4ea       __tolower_l                004604ea f   libucrt:tolower_toupper.obj
 0001:0005f504       __toupper_l                00460504 f   libucrt:tolower_toupper.obj
 0001:0005f51e       _tolower                   0046051e f   libucrt:tolower_toupper.obj
 0001:0005f54e       _toupper                   0046054e f   libucrt:tolower_toupper.obj
 0001:0005f57e       __wtol                     0046057e f   libucrt:atox.obj
 0001:0005f5a8       _atoi                      004605a8 f   libucrt:atox.obj
 0001:0005f5a8       _atol                      004605a8 f   libucrt:atox.obj
 0001:0005f633       ___acrt_initialize_clock   00460633 f   libucrt:clock.obj
 0001:0005f699       _clock                     00460699 f   libucrt:clock.obj
 0001:0005f6fb       _rand                      004606fb f   libucrt:rand.obj
 0001:0005f71c       __aligned_free             0046071c f   libucrt:align.obj
 0001:0005f721       __aligned_free_base        00460721 f   libucrt:align.obj
 0001:0005f73b       __aligned_malloc           0046073b f   libucrt:align.obj
 0001:0005f746       __aligned_malloc_base      00460746 f   libucrt:align.obj
 0001:0005f75d       __aligned_offset_malloc_base 0046075d f   libucrt:align.obj
 0001:0005f7e7       ___acrt_initialize_locks   004607e7 f   libucrt:locks.obj
 0001:0005f828       ___acrt_lock               00460828 f   libucrt:locks.obj
 0001:0005f83f       ___acrt_uninitialize_locks 0046083f f   libucrt:locks.obj
 0001:0005f870       ___acrt_unlock             00460870 f   libucrt:locks.obj
 0001:0005f887       __lock_locales             00460887 f   libucrt:locks.obj
 0001:0005f890       __unlock_locales           00460890 f   libucrt:locks.obj
 0001:0005f899       ___pctype_func             00460899 f   libucrt:ctype.obj
 0001:0005f8bf       __isdigit_l                004608bf f i libucrt:_ctype.obj
 0001:0005f8f7       __islower_l                004608f7 f i libucrt:_ctype.obj
 0001:0005f92f       __isspace_l                0046092f f i libucrt:_ctype.obj
 0001:0005f967       __isupper_l                00460967 f i libucrt:_ctype.obj
 0001:0005f99f       _isdigit                   0046099f f i libucrt:_ctype.obj
 0001:0005f9cc       _islower                   004609cc f i libucrt:_ctype.obj
 0001:0005f9f9       _isspace                   004609f9 f i libucrt:_ctype.obj
 0001:0005fa26       _isupper                   00460a26 f i libucrt:_ctype.obj
 0001:0005fa53       __wcsdup                   00460a53 f   libucrt:wcsdup.obj
 0001:0005fab4       ____lc_codepage_func       00460ab4 f   libucrt:initctype.obj
 0001:0005fadb       ____lc_locale_name_func    00460adb f   libucrt:initctype.obj
 0001:0005fb04       ____mb_cur_max_func        00460b04 f   libucrt:initctype.obj
 0001:0005fb2b       ___acrt_locale_initialize_ctype 00460b2b f   libucrt:initctype.obj
 0001:0005fec9       ___acrt_errno_from_os_error 00460ec9 f   libucrt:errno.obj
 0001:0005ff0c       ___acrt_errno_map_os_error 00460f0c f   libucrt:errno.obj
 0001:0005ff2f       ___doserrno                00460f2f f   libucrt:errno.obj
 0001:0005ff42       __errno                    00460f42 f   libucrt:errno.obj
 0001:0005ffae       __ismbblead                00460fae f   libucrt:ismbbyte.obj
 0001:00060063       _setlocale                 00461063 f   libucrt:setlocale.obj
 0001:000601c0       __fgetc_nolock             004611c0 f   libucrt:fgetc.obj
 0001:000601fc       _fgetc                     004611fc f   libucrt:fgetc.obj
 0001:000602fe       _fgetpos                   004612fe f   libucrt:fgetpos.obj
 0001:00060359       _fsetpos                   00461359 f   libucrt:fsetpos.obj
 0001:00060394       ??$?RV<lambda_d92cfe8357b99225085016881b624cb0>@@AAV<lambda_b721fa326cdb32351d23dfa67958c160>@@V<lambda_42d75b0848218ec137fa420c8ba9fdf9>@@@?$__crt_seh_guarded_call@H@@QAEH$$QAV<lambda_d92cfe8357b99225085016881b624cb0>@@AAV<lambda_b721fa326cdb32351d23dfa67958c160>@@$$QAV<lambda_42d75b0848218ec137fa420c8ba9fdf9>@@@Z 00461394 f i libucrt:setvbuf.obj
 0001:000603e5       ??$__acrt_lock_stream_and_call@V<lambda_b721fa326cdb32351d23dfa67958c160>@@@@YAHQAU_iobuf@@$$QAV<lambda_b721fa326cdb32351d23dfa67958c160>@@@Z 004613e5 f i libucrt:setvbuf.obj
 0001:000604da       _setvbuf                   004614da f   libucrt:setvbuf.obj
 0001:00060550       __ungetc_nolock            00461550 f   libucrt:ungetc.obj
 0001:0006063f       _ungetc                    0046163f f   libucrt:ungetc.obj
 0001:000606af       ___strncnt                 004616af f   libucrt:strncnt.obj
 0001:000606cb       _abort                     004616cb f   libucrt:abort.obj
 0001:00060710       _pow                       00461710 f   libucrt:pow.obj
 0001:00060750       __CIpow                    00461750 f   libucrt:pow.obj
 0001:0006078b       __CIpow_default            0046178b f   libucrt:pow.obj
 0001:000607a4       __pow_default              004617a4     libucrt:pow.obj
 0001:00060999       _wcscpy_s                  00461999 f   libucrt:wcscpy_s.obj
 0001:000609fd       _strnlen                   004619fd f   libucrt:strnlen.obj
 0001:00060b24       _wcsnlen                   00461b24 f   libucrt:strnlen.obj
 0001:00060da8       _wcsncpy_s                 00461da8 f   libucrt:wcsncpy_s.obj
 0001:00060dc0       _exp                       00461dc0 f   libucrt:87ctran.obj
 0001:00060dfc       __CIexp                    00461dfc f   libucrt:87ctran.obj
 0001:00060e37       __exp_default              00461e37 f   libucrt:87ctran.obj
 0001:00060e41       __CIexp_default            00461e41 f   libucrt:87ctran.obj
 0001:00060e50       __CIsqrt                   00461e50 f   libucrt:sqrt.obj
 0001:00060e64       _sqrt                      00461e64     libucrt:sqrt.obj
 0001:00060f0a       ___acrt_initialize_new_handler 00461f0a f   libucrt:new_handler.obj
 0001:00060f1e       __callnewh                 00461f1e f   libucrt:new_handler.obj
 0001:00060f62       __query_new_handler        00461f62 f   libucrt:new_handler.obj
 0001:00060fb4       __seh_filter_exe           00461fb4 f   libucrt:exception_filter.obj
 0001:000613c0       ___acrt_allocate_buffer_for_argv 004623c0 f   libucrt:argv_parsing.obj
 0001:00061415       __configure_narrow_argv    00462415 f   libucrt:argv_parsing.obj
 0001:00061627       ??$uninitialize@A6AXAAPAPA_W@Z@?$dual_state_global@PAPA_W@__crt_state_management@@QAEXA6AXAAPAPA_W@Z@Z 00462627 f i libucrt:environment_initialization.obj
 0001:00061627       ??$uninitialize@A6AXAAPAPAD@Z@?$dual_state_global@PAPAD@__crt_state_management@@QAEXA6AXAAPAPAD@Z@Z 00462627 f i libucrt:environment_initialization.obj
 0001:0006169d       ___dcrt_get_or_create_narrow_environment_nolock 0046269d f   libucrt:environment_initialization.obj
 0001:000616a2       ___dcrt_uninitialize_environments_nolock 004626a2 f   libucrt:environment_initialization.obj
 0001:000616d9       __get_initial_narrow_environment 004626d9 f   libucrt:environment_initialization.obj
 0001:000616ed       __initialize_narrow_environment 004626ed f   libucrt:environment_initialization.obj
 0001:000616f2       ??$?RV<lambda_800076c951b434888f4765a74a194fcc>@@AAV<lambda_4e60a939b0d047cfe11ddc22648dfba9>@@V<lambda_6dbb1268764f43b569ce7b67e331d33a>@@@?$__crt_seh_guarded_call@H@@QAEH$$QAV<lambda_800076c951b434888f4765a74a194fcc>@@AAV<lambda_4e60a939b0d047cfe11ddc22648dfba9>@@$$QAV<lambda_6dbb1268764f43b569ce7b67e331d33a>@@@Z 004626f2 f i libucrt:onexit.obj
 0001:00061743       ??$?RV<lambda_995298e7d72eb4c2aab26c0585b3abe5>@@AAV<lambda_275893d493268fdec8709772e3fcec0e>@@V<lambda_293819299cbf9a7022e18b56a874bb5c>@@@?$__crt_seh_guarded_call@H@@QAEH$$QAV<lambda_995298e7d72eb4c2aab26c0585b3abe5>@@AAV<lambda_275893d493268fdec8709772e3fcec0e>@@$$QAV<lambda_293819299cbf9a7022e18b56a874bb5c>@@@Z 00462743 f i libucrt:onexit.obj
 0001:00061794       ??$__acrt_lock_and_call@V<lambda_275893d493268fdec8709772e3fcec0e>@@@@YAHW4__acrt_lock_id@@$$QAV<lambda_275893d493268fdec8709772e3fcec0e>@@@Z 00462794 f i libucrt:onexit.obj
 0001:000617bc       ??$__acrt_lock_and_call@V<lambda_4e60a939b0d047cfe11ddc22648dfba9>@@@@YAHW4__acrt_lock_id@@$$QAV<lambda_4e60a939b0d047cfe11ddc22648dfba9>@@@Z 004627bc f i libucrt:onexit.obj
 0001:00061a45       __crt_atexit               00462a45 f   libucrt:onexit.obj
 0001:00061a5b       __execute_onexit_table     00462a5b f   libucrt:onexit.obj
 0001:00061a78       __initialize_onexit_table  00462a78 f   libucrt:onexit.obj
 0001:00061ab5       __register_onexit_function 00462ab5 f   libucrt:onexit.obj
 0001:00061bca       ___acrt_initialize         00462bca f   libucrt:initialization.obj
 0001:00061bdc       ___acrt_uninitialize       00462bdc f   libucrt:initialization.obj
 0001:00061bee       __query_app_type           00462bee f   libucrt:report_runtime_error.obj
 0001:00061bf4       __set_app_type             00462bf4 f   libucrt:report_runtime_error.obj
 0001:00061c03       ___acrt_has_user_matherr   00462c03 f   libucrt:matherr.obj
 0001:00061c1c       ___acrt_initialize_user_matherr 00462c1c f   libucrt:matherr.obj
 0001:00061c30       ___acrt_invoke_user_matherr 00462c30 f   libucrt:matherr.obj
 0001:00061c79       ___setusermatherr          00462c79 f   libucrt:matherr.obj
 0001:00061c8e       __initterm                 00462c8e f   libucrt:initterm.obj
 0001:00061cea       __initterm_e               00462cea f   libucrt:initterm.obj
 0001:00061d2f       __get_fmode                00462d2f f   libucrt:setmode.obj
 0001:00061d5b       __set_fmode                00462d5b f   libucrt:setmode.obj
 0001:00061d98       __setmode_nolock           00462d98 f   libucrt:setmode.obj
 0001:00061e69       ___acrt_initialize_command_line 00462e69 f   libucrt:argv_data.obj
 0001:00061e82       ___p___argc                00462e82 f   libucrt:argv_data.obj
 0001:00061e88       ___p___argv                00462e88 f   libucrt:argv_data.obj
 0001:00061e8e       ??$?RV<lambda_70818de7b02deff9841e8b0962a60ed9>@@AAV<lambda_2af78c5f5901b1372d98f9ab3177dfa6>@@AAV<lambda_f51fe5fd7c79a33db34fc9310f277369>@@@?$__crt_seh_guarded_call@X@@QAEX$$QAV<lambda_70818de7b02deff9841e8b0962a60ed9>@@AAV<lambda_2af78c5f5901b1372d98f9ab3177dfa6>@@AAV<lambda_f51fe5fd7c79a33db34fc9310f277369>@@@Z 00462e8e f i libucrt:wsetlocale.obj
 0001:00061ec9       ??$?RV<lambda_c76fdea48760d5f9368b465f31df4405>@@AAV<lambda_e378711a6f6581bf7f0efd7cdf97f5d9>@@V<lambda_e927a58b2a85c081d733e8c6192ae2d2>@@@?$__crt_seh_guarded_call@X@@QAEX$$QAV<lambda_c76fdea48760d5f9368b465f31df4405>@@AAV<lambda_e378711a6f6581bf7f0efd7cdf97f5d9>@@$$QAV<lambda_e927a58b2a85c081d733e8c6192ae2d2>@@@Z 00462ec9 f i libucrt:wsetlocale.obj
 0001:00061f0c       ??$__acrt_lock_and_call@V<lambda_e378711a6f6581bf7f0efd7cdf97f5d9>@@@@YAXW4__acrt_lock_id@@$$QAV<lambda_e378711a6f6581bf7f0efd7cdf97f5d9>@@@Z 00462f0c f i libucrt:wsetlocale.obj
 0001:0006208e       ___acrt_copy_locale_name   0046308e f   libucrt:wsetlocale.obj
 0001:000620f4       ___acrt_set_locale_changed 004630f4 f   libucrt:wsetlocale.obj
 0001:000620ff       ___acrt_uninitialize_locale 004630ff f   libucrt:wsetlocale.obj
 0001:00062151       ___lc_lctowcs              00463151 f   libucrt:wsetlocale.obj
 0001:000621c1       ___lc_wcstolc              004631c1 f   libucrt:wsetlocale.obj
 0001:000622f0       __configthreadlocale       004632f0 f   libucrt:wsetlocale.obj
 0001:00062381       __expandlocale             00463381 f   libucrt:wsetlocale.obj
 0001:000626f8       __wcscats                  004636f8 f   libucrt:wsetlocale.obj
 0001:00062739       __wsetlocale               00463739 f   libucrt:wsetlocale.obj
 0001:00063003       __query_new_mode           00464003 f   libucrt:new_mode.obj
 0001:00063009       __set_new_mode             00464009 f   libucrt:new_mode.obj
 0001:00063038       ___p__commode              00464038 f   libucrt:ncommode.obj
 0001:0006303e       __controlfp_s              0046403e f   libucrt:contrlfp.obj
 0001:0006309d       _wcsncmp                   0046409d f   libucrt:wcsncmp.obj
 0001:000630e0       _strncmp                   004640e0 f   libucrt:strncmp.obj
 0001:00063158       ??$?RV<lambda_3518db117f0e7cdb002338c5d3c47b6c>@@AAV<lambda_b2ea41f6bbb362cd97d94c6828d90b61>@@V<lambda_abdedf541bb04549bc734292b4a045d4>@@@?$__crt_seh_guarded_call@X@@QAEX$$QAV<lambda_3518db117f0e7cdb002338c5d3c47b6c>@@AAV<lambda_b2ea41f6bbb362cd97d94c6828d90b61>@@$$QAV<lambda_abdedf541bb04549bc734292b4a045d4>@@@Z 00464158 f i libucrt:per_thread_data.obj
 0001:000631a8       ??$?RV<lambda_51b6e8b1eb166f2a3faf91f424b38130>@@AAV<lambda_6250bd4b2a391816dd638c3bf72b0bcb>@@V<lambda_0b5a4a3e68152e1d9b943535f5f47bed>@@@?$__crt_seh_guarded_call@X@@QAEX$$QAV<lambda_51b6e8b1eb166f2a3faf91f424b38130>@@AAV<lambda_6250bd4b2a391816dd638c3bf72b0bcb>@@$$QAV<lambda_0b5a4a3e68152e1d9b943535f5f47bed>@@@Z 004641a8 f i libucrt:per_thread_data.obj
 0001:00063209       ??$?RV<lambda_5b71d36f03204c0beab531769a5b5694>@@AAV<lambda_be2b3da3f62db62e9dad5dc70221a656>@@V<lambda_8f9ce462984622f9bf76b59e2aaaf805>@@@?$__crt_seh_guarded_call@X@@QAEX$$QAV<lambda_5b71d36f03204c0beab531769a5b5694>@@AAV<lambda_be2b3da3f62db62e9dad5dc70221a656>@@$$QAV<lambda_8f9ce462984622f9bf76b59e2aaaf805>@@@Z 00464209 f i libucrt:per_thread_data.obj
 0001:00063254       ??$?RV<lambda_9df27f884b057bc3edfc946cb5b7cf47>@@AAV<lambda_e69574bed617af4e071282c136b37893>@@V<lambda_cc0d902bcbbeb830f749456577db4721>@@@?$__crt_seh_guarded_call@X@@QAEX$$QAV<lambda_9df27f884b057bc3edfc946cb5b7cf47>@@AAV<lambda_e69574bed617af4e071282c136b37893>@@$$QAV<lambda_cc0d902bcbbeb830f749456577db4721>@@@Z 00464254 f i libucrt:per_thread_data.obj
 0001:0006329c       ??$__acrt_lock_and_call@V<lambda_6250bd4b2a391816dd638c3bf72b0bcb>@@@@YAXW4__acrt_lock_id@@$$QAV<lambda_6250bd4b2a391816dd638c3bf72b0bcb>@@@Z 0046429c f i libucrt:per_thread_data.obj
 0001:000632c4       ??$__acrt_lock_and_call@V<lambda_b2ea41f6bbb362cd97d94c6828d90b61>@@@@YAXW4__acrt_lock_id@@$$QAV<lambda_b2ea41f6bbb362cd97d94c6828d90b61>@@@Z 004642c4 f i libucrt:per_thread_data.obj
 0001:000632ec       ??$__acrt_lock_and_call@V<lambda_be2b3da3f62db62e9dad5dc70221a656>@@@@YAXW4__acrt_lock_id@@$$QAV<lambda_be2b3da3f62db62e9dad5dc70221a656>@@@Z 004642ec f i libucrt:per_thread_data.obj
 0001:00063314       ??$__acrt_lock_and_call@V<lambda_e69574bed617af4e071282c136b37893>@@@@YAXW4__acrt_lock_id@@$$QAV<lambda_e69574bed617af4e071282c136b37893>@@@Z 00464314 f i libucrt:per_thread_data.obj
 0001:000634ca       ___acrt_getptd             004644ca f   libucrt:per_thread_data.obj
 0001:0006354e       ___acrt_getptd_noexit      0046454e f   libucrt:per_thread_data.obj
 0001:000635d3       ___acrt_initialize_ptd     004645d3 f   libucrt:per_thread_data.obj
 0001:000635ff       ___acrt_uninitialize_ptd   004645ff f   libucrt:per_thread_data.obj
 0001:00063619       __free_base                00464619 f   libucrt:free_base.obj
 0001:00063653       __malloc_base              00464653 f   libucrt:malloc_base.obj
 0001:000636a1       __calloc_base              004646a1 f   libucrt:calloc_base.obj
 0001:00063744       ??$?RV<lambda_9227be29367c048ad7fd93a717dcb1a1>@@AAV<lambda_a463b7b0560cfcaf9b17f27c6ef46564>@@V<lambda_ccea11b5727ccf69be64f5f5d9a08d9f>@@@?$__crt_seh_guarded_call@H@@QAEH$$QAV<lambda_9227be29367c048ad7fd93a717dcb1a1>@@AAV<lambda_a463b7b0560cfcaf9b17f27c6ef46564>@@$$QAV<lambda_ccea11b5727ccf69be64f5f5d9a08d9f>@@@Z 00464744 f i libucrt:winapi_thunks.obj
 0001:000637c8       ??$__acrt_lock_and_call@V<lambda_a463b7b0560cfcaf9b17f27c6ef46564>@@@@YAHW4__acrt_lock_id@@$$QAV<lambda_a463b7b0560cfcaf9b17f27c6ef46564>@@@Z 004647c8 f i libucrt:winapi_thunks.obj
 0001:00063921       ___acrt_AreFileApisANSI@0  00464921 f   libucrt:winapi_thunks.obj
 0001:0006396f       ___acrt_CompareStringEx@36 0046496f f   libucrt:winapi_thunks.obj
 0001:000639e3       ___acrt_EnumSystemLocalesEx@16 004649e3 f   libucrt:winapi_thunks.obj
 0001:00063a50       ___acrt_FlsAlloc@4         00464a50 f   libucrt:winapi_thunks.obj
 0001:00063aa6       ___acrt_FlsFree@4          00464aa6 f   libucrt:winapi_thunks.obj
 0001:00063afc       ___acrt_FlsGetValue@4      00464afc f   libucrt:winapi_thunks.obj
 0001:00063b52       ___acrt_FlsSetValue@8      00464b52 f   libucrt:winapi_thunks.obj
 0001:00063bab       ___acrt_GetLocaleInfoEx@16 00464bab f   libucrt:winapi_thunks.obj
 0001:00063c15       ___acrt_GetSystemTimePreciseAsFileTime@4 00464c15 f   libucrt:winapi_thunks.obj
 0001:00063c6b       ___acrt_GetUserDefaultLocaleName@8 00464c6b f   libucrt:winapi_thunks.obj
 0001:00063cd2       ___acrt_InitializeCriticalSectionEx@12 00464cd2 f   libucrt:winapi_thunks.obj
 0001:00063d34       ___acrt_IsValidLocaleName@4 00464d34 f   libucrt:winapi_thunks.obj
 0001:00063d97       ___acrt_LCIDToLocaleName@16 00464d97 f   libucrt:winapi_thunks.obj
 0001:00063e01       ___acrt_LCMapStringEx@36   00464e01 f   libucrt:winapi_thunks.obj
 0001:00063e89       ___acrt_LocaleNameToLCID@8 00464e89 f   libucrt:winapi_thunks.obj
 0001:00063ee5       ___acrt_can_use_vista_locale_apis 00464ee5 f   libucrt:winapi_thunks.obj
 0001:00063ef1       ___acrt_initialize_winapi_thunks 00464ef1 f   libucrt:winapi_thunks.obj
 0001:00063f17       ___acrt_is_packaged_app    00464f17 f   libucrt:winapi_thunks.obj
 0001:00063f9e       ___acrt_uninitialize_winapi_thunks 00464f9e f   libucrt:winapi_thunks.obj
 0001:00063fd5       __fcloseall                00464fd5 f   libucrt:closeall.obj
 0001:00064075       ___acrt_stdio_free_buffer_nolock 00465075 f   libucrt:_freebuf.obj
 0001:0006421f       ___acrt_initialize_lowio   0046521f f   libucrt:ioinit.obj
 0001:00064275       ___acrt_uninitialize_lowio 00465275 f   libucrt:ioinit.obj
 0001:000642a1       ?__acrt_stdio_allocate_stream@@YA?AV__crt_stdio_stream@@XZ 004652a1 f   libucrt:stream.obj
 0001:00064300       ?__acrt_stdio_free_stream@@YAXV__crt_stdio_stream@@@Z 00465300 f   libucrt:stream.obj
 0001:000643fe       ??$__acrt_stdio_parse_mode@D@@YA?AU__acrt_stdio_stream_mode@@QBD@Z 004653fe f i libucrt:openfile.obj
 0001:000646b5       ?__acrt_stdio_parse_mode_D@@YA_NAAU__acrt_stdio_stream_mode@@@Z 004656b5 f i libucrt:openfile.obj
 0001:000646d0       ?__acrt_stdio_parse_mode_T@@YA_NAAU__acrt_stdio_stream_mode@@@Z 004656d0 f i libucrt:openfile.obj
 0001:000646ef       ?__acrt_stdio_parse_mode_b@@YA_NAAU__acrt_stdio_stream_mode@@@Z 004656ef f i libucrt:openfile.obj
 0001:0006470f       ?__acrt_stdio_parse_mode_c@@YA_NAAU__acrt_stdio_stream_mode@@AA_N@Z 0046570f f i libucrt:openfile.obj
 0001:00064731       ?__acrt_stdio_parse_mode_n@@YA_NAAU__acrt_stdio_stream_mode@@AA_N@Z 00465731 f i libucrt:openfile.obj
 0001:00064753       ?__acrt_stdio_parse_mode_plus@@YA_NAAU__acrt_stdio_stream_mode@@AA_N@Z 00465753 f i libucrt:openfile.obj
 0001:00064788       ?__acrt_stdio_parse_mode_t@@YA_NAAU__acrt_stdio_stream_mode@@@Z 00465788 f i libucrt:openfile.obj
 0001:000647a8       __openfile                 004657a8 f   libucrt:openfile.obj
 0001:000647b3       ??$?RV<lambda_123407a5e2ac06da108355a851863b7a>@@AAV<lambda_2fe9b910cf3cbf4a0ab98a02ba45b3ec>@@V<lambda_ae55bdf541ad94d75914d381c370e64d>@@@?$__crt_seh_guarded_call@H@@QAEH$$QAV<lambda_123407a5e2ac06da108355a851863b7a>@@AAV<lambda_2fe9b910cf3cbf4a0ab98a02ba45b3ec>@@$$QAV<lambda_ae55bdf541ad94d75914d381c370e64d>@@@Z 004657b3 f i libucrt:close.obj
 0001:00064835       ??$__acrt_lowio_lock_fh_and_call@V<lambda_2fe9b910cf3cbf4a0ab98a02ba45b3ec>@@@@YAHH$$QAV<lambda_2fe9b910cf3cbf4a0ab98a02ba45b3ec>@@@Z 00465835 f i libucrt:close.obj
 0001:0006485d       __close                    0046585d f   libucrt:close.obj
 0001:000648dc       __close_nolock             004658dc f   libucrt:close.obj
 0001:00064978       __fileno                   00465978 f   libucrt:fileno.obj
 0001:00064b21       __lseeki64                 00465b21 f   libucrt:lseek.obj
 0001:00064b3c       __lseeki64_nolock          00465b3c f   libucrt:lseek.obj
 0001:0006503f       __read                     0046603f f   libucrt:read.obj
 0001:00065152       __read_nolock              00466152 f   libucrt:read.obj
 0001:00065a97       __write                    00466a97 f   libucrt:write.obj
 0001:00065b82       __write_nolock             00466b82 f   libucrt:write.obj
 0001:00065f6b       ___acrt_stdio_flush_and_write_narrow_nolock 00466f6b f   libucrt:_flsbuf.obj
 0001:00065f76       ___acrt_stdio_begin_temporary_buffering_nolock 00466f76 f   libucrt:_sftbuf.obj
 0001:0006602b       ___acrt_stdio_end_temporary_buffering_nolock 0046702b f   libucrt:_sftbuf.obj
 0001:00066064       __mbtowc_l                 00467064 f   libucrt:mbtowc.obj
 0001:0006615e       _mbtowc                    0046715e f   libucrt:mbtowc.obj
 0001:00066178       __wctomb_s_l               00467178 f   libucrt:wctomb.obj
 0001:00066299       _wctomb_s                  00467299 f   libucrt:wctomb.obj
 0001:000662b6       ___acrt_update_locale_info 004672b6 f   libucrt:locale_update.obj
 0001:000662e3       ___acrt_update_multibyte_info 004672e3 f   libucrt:locale_update.obj
 0001:00066310       ?__acrt_fp_classify@@YA?AW4__acrt_fp_class@@ABN@Z 00467310 f i libucrt:cvt.obj
 0001:0006637c       ?__acrt_fp_is_negative@@YA_NABN@Z 0046737c f i libucrt:cvt.obj
 0001:00066bdb       ___acrt_fp_format          00467bdb f   libucrt:cvt.obj
 0001:00066d25       __get_printf_count_output  00467d25 f   libucrt:printf_count_output.obj
 0001:00066d3a       _iswctype                  00467d3a f   libucrt:iswctype.obj
 0001:00066d99       __isctype_l                00467d99 f   libucrt:isctype.obj
 0001:00066e6b       __dsign                    00467e6b f   libucrt:nan.obj
 0001:00066e7b       __errcode                  00467e7b f   libucrt:fpexcept.obj
 0001:00066eaf       __except1                  00467eaf f   libucrt:fpexcept.obj
 0001:00066f7d       __handle_exc               00467f7d f   libucrt:fpexcept.obj
 0001:0006715d       __raise_exc                0046815d f   libucrt:fpexcept.obj
 0001:00067180       __raise_exc_ex             00468180 f   libucrt:fpexcept.obj
 0001:00067471       __set_errno_from_matherr   00468471 f   libucrt:fpexcept.obj
 0001:000674a0       __umatherr                 004684a0 f   libucrt:fpexcept.obj
 0001:00067542       __decomp                   00468542 f   libucrt:util.obj
 0001:00067616       __set_exp                  00468616 f   libucrt:util.obj
 0001:00067645       __sptype                   00468645 f   libucrt:util.obj
 0001:000676a3       ___set_fpsr_sse2           004686a3 f   libucrt:fpctrl.obj
 0001:00067719       __clrfp                    00468719 f   libucrt:fpctrl.obj
 0001:0006772c       __ctrlfp                   0046872c f   libucrt:fpctrl.obj
 0001:00067758       __set_statfp               00468758 f   libucrt:fpctrl.obj
 0001:000677b3       __statfp                   004687b3 f   libucrt:fpctrl.obj
 0001:000677c5       _fegetround                004687c5 f   libucrt:fegetround.obj
 0001:000677d0       ___acrt_initialize_timeset 004687d0 f   libucrt:timeset.obj
 0001:00067807       ___daylight                00468807 f   libucrt:timeset.obj
 0001:0006780d       ___dstbias                 0046880d f   libucrt:timeset.obj
 0001:00067813       ___timezone                00468813 f   libucrt:timeset.obj
 0001:00067819       ___tzname                  00468819 f   libucrt:timeset.obj
 0001:0006781f       __get_daylight             0046881f f   libucrt:timeset.obj
 0001:0006784b       __get_dstbias              0046884b f   libucrt:timeset.obj
 0001:00067877       __get_timezone             00468877 f   libucrt:timeset.obj
 0001:000678a3       ??$__crt_time_elapsed_leap_years@H@@YAHH@Z 004688a3 f i libucrt:gmtime.obj
 0001:00067ace       ___getgmtimebuf            00468ace f   libucrt:gmtime.obj
 0001:00067b0c       __gmtime64_s               00468b0c f   libucrt:gmtime.obj
 0001:0006825e       ___tzset                   0046925e f   libucrt:tzset.obj
 0001:000682af       __isindst                  004692af f   libucrt:tzset.obj
 0001:000682f9       __strnicoll                004692f9 f   libucrt:strnicol.obj
 0001:00068322       __strnicoll_l              00469322 f   libucrt:strnicol.obj
 0001:000683ec       ??$?RV<lambda_61cee617f5178ae960314fd4d05640a0>@@AAV<lambda_6978c1fb23f02e42e1d9e99668cc68aa>@@V<lambda_9cd88cf8ad10232537feb2133f08c833>@@@?$__crt_seh_guarded_call@H@@QAEH$$QAV<lambda_61cee617f5178ae960314fd4d05640a0>@@AAV<lambda_6978c1fb23f02e42e1d9e99668cc68aa>@@$$QAV<lambda_9cd88cf8ad10232537feb2133f08c833>@@@Z 004693ec f i libucrt:commit.obj
 0001:00068484       ??$__acrt_lowio_lock_fh_and_call@V<lambda_6978c1fb23f02e42e1d9e99668cc68aa>@@@@YAHH$$QAV<lambda_6978c1fb23f02e42e1d9e99668cc68aa>@@@Z 00469484 f i libucrt:commit.obj
 0001:000684ac       __commit                   004694ac f   libucrt:commit.obj
 0001:0006869c       ___acrt_stdio_refill_and_read_narrow_nolock 0046969c f   libucrt:_filbuf.obj
 0001:000686a7       __isleadbyte_l             004696a7 f i libucrt:_wctype.obj
 0001:000688fd       ___acrt_LCMapStringA       004698fd f   libucrt:lcmapstringa.obj
 0001:00068948       __msize                    00469948 f   libucrt:msize.obj
 0001:00068a76       ___acrt_GetLocaleInfoA     00469a76 f   libucrt:getlocaleinfoa.obj
 0001:00068c28       ___acrt_GetStringTypeA     00469c28 f   libucrt:getstringtypea.obj
 0001:00068ebe       __mbstowcs_s_l             00469ebe f   libucrt:mbstowcs.obj
 0001:00068fa1       _mbstowcs_s                00469fa1 f   libucrt:mbstowcs.obj
 0001:00069242       __wcstombs_s_l             0046a242 f   libucrt:wcstombs.obj
 0001:0006930f       ___acrt_stdio_allocate_buffer_nolock 0046a30f f   libucrt:_getbuf.obj
 0001:0006936c       ??$?RV<lambda_a048d3beccc847880fc8490e18b82769>@@AAV<lambda_ec61778202f4f5fc7e7711acc23c3bca>@@V<lambda_f7496a158712204296dd6628a163878e>@@@?$__crt_seh_guarded_call@P6AXH@Z@@QAEP6AXH@Z$$QAV<lambda_a048d3beccc847880fc8490e18b82769>@@AAV<lambda_ec61778202f4f5fc7e7711acc23c3bca>@@$$QAV<lambda_f7496a158712204296dd6628a163878e>@@@Z 0046a36c f i libucrt:signal.obj
 0001:000693c6       ??$__acrt_lock_and_call@V<lambda_ec61778202f4f5fc7e7711acc23c3bca>@@@@YAP6AXH@ZW4__acrt_lock_id@@$$QAV<lambda_ec61778202f4f5fc7e7711acc23c3bca>@@@Z 0046a3c6 f i libucrt:signal.obj
 0001:00069458       ___acrt_get_sigabrt_handler 0046a458 f   libucrt:signal.obj
 0001:0006946f       ___acrt_initialize_signal_handlers 0046a46f f   libucrt:signal.obj
 0001:000694aa       ___fpecode                 0046a4aa f   libucrt:signal.obj
 0001:000694b3       _raise                     0046a4b3 f   libucrt:signal.obj
 0001:000696bb       __realloc_base             0046a6bb f   libucrt:realloc_base.obj
 0001:00069724       __fpclass                  0046a724 f   libucrt:ieeemisc.obj
 0001:000697c8       ___acrt_initialize_sse2    0046a7c8 f   libucrt:mathfcns.obj
 0001:000697e0       __CIpow_pentium4           0046a7e0 f   libucrt:pow_pentium4.obj
 0001:000697f9       __pow_pentium4             0046a7f9     libucrt:pow_pentium4.obj
 0001:0006a311       __fFEXP                    0046b311     libucrt:87tran.obj
 0001:0006a368       __rtinfpopse               0046b368     libucrt:87tran.obj
 0001:0006a36a       __rtinfnpopse              0046b36a     libucrt:87tran.obj
 0001:0006a37a       __fFLN                     0046b37a     libucrt:87tran.obj
 0001:0006a42f       __rtinfpop                 0046b42f     libucrt:87tran.obj
 0001:0006a431       __rtinfnpop                0046b431     libucrt:87tran.obj
 0001:0006a44e       __ffexpm1                  0046b44e     libucrt:87tran.obj
 0001:0006a500       __trandisp1                0046b500 f   libucrt:87disp.obj
 0001:0006a567       __trandisp2                0046b567 f   libucrt:87disp.obj
 0001:0006a5f3       __rttospopde               0046b5f3     libucrt:87disp.obj
 0001:0006a5f8       __rttospop                 0046b5f8     libucrt:87disp.obj
 0001:0006a5fa       __rtnospop                 0046b5fa     libucrt:87disp.obj
 0001:0006a5fc       __rttosnpop                0046b5fc     libucrt:87disp.obj
 0001:0006a5fd       __rtnospopde               0046b5fd     libucrt:87disp.obj
 0001:0006a604       __rtzeropop                0046b604     libucrt:87disp.obj
 0001:0006a606       __rtzeronpop               0046b606     libucrt:87disp.obj
 0001:0006a60b       __rtzerospop               0046b60b     libucrt:87disp.obj
 0001:0006a618       __rtonepop                 0046b618     libucrt:87disp.obj
 0001:0006a61a       __rtonenpop                0046b61a     libucrt:87disp.obj
 0001:0006a61f       __tosnan1                  0046b61f     libucrt:87disp.obj
 0001:0006a64a       __nosnan2                  0046b64a     libucrt:87disp.obj
 0001:0006a64c       __tosnan2                  0046b64c     libucrt:87disp.obj
 0001:0006a674       __nan2                     0046b674     libucrt:87disp.obj
 0001:0006a6b3       __rtindfpop                0046b6b3     libucrt:87disp.obj
 0001:0006a6b5       __rtindfnpop               0046b6b5     libucrt:87disp.obj
 0001:0006a6c6       __rttosnpopde              0046b6c6     libucrt:87disp.obj
 0001:0006a6d0       __rtatan2inf               0046b6d0     libucrt:87disp.obj
 0001:0006a6ed       __rtchsifneg               0046b6ed     libucrt:87disp.obj
 0001:0006a700       __startTwoArgErrorHandling 0046b700 f   libucrt:genexcep.obj
 0001:0006a717       __startOneArgErrorHandling 0046b717 f   libucrt:genexcep.obj
 0001:0006a760       __twoToTOS                 0046b760 f   libucrt:common.obj
 0001:0006a775       __load_CW                  0046b775 f   libucrt:common.obj
 0001:0006a78c       __convertTOStoQNaN         0046b78c f   libucrt:common.obj
 0001:0006a7a5       __fload_withFB             0046b7a5 f   libucrt:common.obj
 0001:0006a7e8       __checkTOS_withFB          0046b7e8 f   libucrt:common.obj
 0001:0006a7fe       __fast_exit                0046b7fe f   libucrt:common.obj
 0001:0006a80b       __math_exit                0046b80b f   libucrt:common.obj
 0001:0006a835       __check_overflow_exit      0046b835 f   libucrt:common.obj
 0001:0006a849       __check_range_exit         0046b849 f   libucrt:common.obj
 0001:0006a8ec       __d_inttype                0046b8ec f   libucrt:powhlp.obj
 0001:0006a956       __powhlp                   0046b956 f   libucrt:powhlp.obj
 0001:0006aa81       __wcsicmp                  0046ba81 f   libucrt:wcsicmp.obj
 0001:0006ab16       __wcsicmp_l                0046bb16 f   libucrt:wcsicmp.obj
 0001:0006ac00       __CIexp_pentium4           0046bc00 f   libucrt:exp_pentium4.obj
 0001:0006ac18       __exp_pentium4             0046bc18     libucrt:exp_pentium4.obj
 0001:0006aec0       __cintrindisp2             0046bec0 f   libucrt:87cdisp.obj
 0001:0006af04       __cintrindisp1             0046bf04 f   libucrt:87cdisp.obj
 0001:0006af47       __ctrandisp2               0046bf47 f   libucrt:87cdisp.obj
 0001:0006b0d6       __ctrandisp1               0046c0d6 f   libucrt:87cdisp.obj
 0001:0006b109       __fload                    0046c109 f   libucrt:87cdisp.obj
 0001:0006b507       ??1?$argument_list@D@?A0xb0e4b824@@QAE@XZ 0046c507 f i libucrt:argv_wildcards.obj
 0001:0006b52c       ?append@?$argument_list@D@?A0xb0e4b824@@QAEHQAD@Z 0046c52c f i libucrt:argv_wildcards.obj
 0001:0006b561       ?expand_if_necessary@?$argument_list@D@?A0xb0e4b824@@AAEHXZ 0046c561 f i libucrt:argv_wildcards.obj
 0001:0006b5e8       ___acrt_expand_narrow_argv_wildcards 0046c5e8 f   libucrt:argv_wildcards.obj
 0001:0006b5f3       ??$?RV<lambda_978dc153c237d78434369da87b74ff60>@@AAV<lambda_ad1ced32f4ac17aa236e5ef05d6b3b7c>@@V<lambda_4a8533e2866a575feecb8298ce776b0d>@@@?$__crt_seh_guarded_call@X@@QAEX$$QAV<lambda_978dc153c237d78434369da87b74ff60>@@AAV<lambda_ad1ced32f4ac17aa236e5ef05d6b3b7c>@@$$QAV<lambda_4a8533e2866a575feecb8298ce776b0d>@@@Z 0046c5f3 f i libucrt:mbctype.obj
 0001:0006b636       ??$__acrt_lock_and_call@V<lambda_ad1ced32f4ac17aa236e5ef05d6b3b7c>@@@@YAXW4__acrt_lock_id@@$$QAV<lambda_ad1ced32f4ac17aa236e5ef05d6b3b7c>@@@Z 0046c636 f i libucrt:mbctype.obj
 0001:0006bacd       ___acrt_initialize_multibyte 0046cacd f   libucrt:mbctype.obj
 0001:0006baeb       ___acrt_update_thread_multibyte_data 0046caeb f   libucrt:mbctype.obj
 0001:0006bb8d       __setmbcp_nolock           0046cb8d f   libucrt:mbctype.obj
 0001:0006bdb5       ___dcrt_get_narrow_environment_from_os 0046cdb5 f   libucrt:get_environment_from_os.obj
 0001:0006c178       ___dcrt_set_variable_in_narrow_environment_nolock 0046d178 f   libucrt:setenv.obj
 0001:0006c183       __recalloc                 0046d183 f   libucrt:recalloc.obj
 0001:0006c18e       __recalloc_base            0046d18e f   libucrt:recalloc.obj
 0001:0006c1fb       ___acrt_initialize_heap    0046d1fb f   libucrt:heap_handle.obj
 0001:0006c20c       ___acrt_uninitialize_heap  0046d20c f   libucrt:heap_handle.obj
 0001:0006c216       ___acrt_execute_initializers 0046d216 f   libucrt:shared_initialization.obj
 0001:0006c299       ___acrt_execute_uninitializers 0046d299 f   libucrt:shared_initialization.obj
 0001:0006c2e6       _wcscat_s                  0046d2e6 f   libucrt:wcscat_s.obj
 0001:0006c35b       ___acrt_lowio_create_handle_array 0046d35b f   libucrt:osfinfo.obj
 0001:0006c3d5       ___acrt_lowio_destroy_handle_array 0046d3d5 f   libucrt:osfinfo.obj
 0001:0006c40a       ___acrt_lowio_ensure_fh_exists 0046d40a f   libucrt:osfinfo.obj
 0001:0006c4a2       ___acrt_lowio_lock_fh      0046d4a2 f   libucrt:osfinfo.obj
 0001:0006c4c5       ___acrt_lowio_set_os_handle 0046d4c5 f   libucrt:osfinfo.obj
 0001:0006c559       ___acrt_lowio_unlock_fh    0046d559 f   libucrt:osfinfo.obj
 0001:0006c57c       __alloc_osfhnd             0046d57c f   libucrt:osfinfo.obj
 0001:0006c68e       __free_osfhnd              0046d68e f   libucrt:osfinfo.obj
 0001:0006c71f       __get_osfhandle            0046d71f f   libucrt:osfinfo.obj
 0001:0006c789       ___acrt_locale_free_monetary 0046d789 f   libucrt:initmon.obj
 0001:0006c887       ___acrt_locale_initialize_monetary 0046d887 f   libucrt:initmon.obj
 0001:0006cc43       ___acrt_locale_free_numeric 0046dc43 f   libucrt:initnum.obj
 0001:0006ccac       ___acrt_locale_initialize_numeric 0046dcac f   libucrt:initnum.obj
 0001:0006d181       ___acrt_locale_free_time   0046e181 f   libucrt:inittime.obj
 0001:0006d265       ___acrt_locale_initialize_time 0046e265 f   libucrt:inittime.obj
 0001:0006d2e4       _wcscspn                   0046e2e4 f   libucrt:wcscspn.obj
 0001:0006d334       _wcspbrk                   0046e334 f   libucrt:wcspbrk.obj
 0001:0006d379       ___acrt_add_locale_ref     0046e379 f   libucrt:locale_refcounting.obj
 0001:0006d3f6       ___acrt_free_locale        0046e3f6 f   libucrt:locale_refcounting.obj
 0001:0006d540       ___acrt_locale_add_lc_time_reference 0046e540 f   libucrt:locale_refcounting.obj
 0001:0006d569       ___acrt_locale_free_lc_time_if_unreferenced 0046e569 f   libucrt:locale_refcounting.obj
 0001:0006d599       ___acrt_locale_release_lc_time_reference 0046e599 f   libucrt:locale_refcounting.obj
 0001:0006d5c2       ___acrt_release_locale_ref 0046e5c2 f   libucrt:locale_refcounting.obj
 0001:0006d643       ___acrt_update_thread_locale_data 0046e643 f   libucrt:locale_refcounting.obj
 0001:0006d6ba       __updatetlocinfoEx_nolock  0046e6ba f   libucrt:locale_refcounting.obj
 0001:0006de08       ___acrt_get_qualified_locale 0046ee08 f   libucrt:get_qualified_locale.obj
 0001:0006e740       ___acrt_get_qualified_locale_downlevel 0046f740 f   libucrt:getqloc_downlevel.obj
 0001:0006e9f2       __clearfp                  0046f9f2 f   libucrt:ieee87.obj
 0001:0006ead0       __control87                0046fad0 f   libucrt:ieee87.obj
 0001:0006ef27       ___acrt_DownlevelLCIDToLocaleName 0046ff27 f   libucrt:lcidtoname_downlevel.obj
 0001:0006efd1       ___acrt_DownlevelLocaleNameToLCID 0046ffd1 f   libucrt:lcidtoname_downlevel.obj
 0001:0006effd       __wcsnicmp                 0046fffd f   libucrt:wcsnicmp.obj
 0001:0006f0b5       __wcsnicmp_l               004700b5 f   libucrt:wcsnicmp.obj
 0001:0006f1b6       __strnicmp                 004701b6 f   libucrt:strnicmp.obj
 0001:0006f222       __strnicmp_l               00470222 f   libucrt:strnicmp.obj
 0001:0006f8b3       __sopen_nolock             004708b3 f   libucrt:open.obj
 0001:0006f904       __sopen_s                  00470904 f   libucrt:open.obj
 0001:0006f924       __wsopen_nolock            00470924 f   libucrt:open.obj
 0001:0006fc4d       __isatty                   00470c4d f   libucrt:isatty.obj
 0001:0006fca3       __putwch_nolock            00470ca3 f   libucrt:putwch.obj
 0001:0006fce8       ___acrt_fp_strflt_to_string 00470ce8 f   libucrt:_fptostr.obj
 0001:0006fda4       ??0scoped_fp_state_reset@?A0x48fbfdd4@@QAE@XZ 00470da4 f i libucrt:cfout.obj
 0001:0006fdce       ___acrt_fltout             00470dce f   libucrt:cfout.obj
 0001:0007140d       __getfpcontrolword         0047240d f   libucrt:_fenvutils.obj
 0001:00071450       __getfpstatusword          00472450 f   libucrt:_fenvutils.obj
 0001:000714f8       __setfpcontrolword         004724f8 f   libucrt:_fenvutils.obj
 0001:00071578       __setfpstatusword          00472578 f   libucrt:_fenvutils.obj
 0001:000716a9       _strncpy_s                 004726a9 f   libucrt:strncpy_s.obj
 0001:0007195c       ___acrt_CompareStringA     0047295c f   libucrt:comparestringa.obj
 0001:000719a4       ___libm_error_support      004729a4 f   libucrt:libm_error.obj
 0001:00071bbc       __87except                 00472bbc f   libucrt:87except.obj
 0001:00071cc7       __frnd                     00472cc7 f   libucrt:frnd.obj
 0001:00071cdd       __towlower_l               00472cdd f   libucrt:towlower.obj
 0001:00071e90       _qsort                     00472e90 f   libucrt:qsort.obj
 0001:00072230       _strpbrk                   00473230 f   libucrt:strpbrk.obj
 0001:00072270       __mbsdec                   00473270 f   libucrt:mbsdec.obj
 0001:00072287       __mbsdec_l                 00473287 f   libucrt:mbsdec.obj
 0001:00072410       __itow_s                   00473410 f   libucrt:xtoa.obj
 0001:00072450       ___ascii_strnicmp          00473450 f   libucrt:_strnicm.obj
 0001:000724b1       ___acrt_copy_path_to_wide_string 004734b1 f   libucrt:string_utilities.obj
 0001:00072578       __chsize_nolock            00473578 f   libucrt:chsize.obj
 0001:00072709       ___dcrt_lowio_initialize_console_output 00473709 f   libucrt:initcon.obj
 0001:00072728       ___dcrt_terminate_console_output 00473728 f   libucrt:initcon.obj
 0001:0007273f       _fegetenv                  0047373f f   libucrt:fegetenv.obj
 0001:0007275c       _fesetenv                  0047375c f   libucrt:fesetenv.obj
 0001:000727a5       _feholdexcept              004737a5 f   libucrt:feholdexcept.obj
 0001:00072800       _log10                     00473800 f   libucrt:log10.obj
 0001:00072840       __CIlog10                  00473840 f   libucrt:log10.obj
 0001:0007287b       __CIlog10_default          0047387b f   libucrt:log10.obj
 0001:0007288f       __log10_default            0047388f     libucrt:log10.obj
 0001:00072950       _ceil                      00473950 f   libucrt:ceil_pentium4.obj
 0001:00072990       __ceil_pentium4            00473990 f   libucrt:ceil_pentium4.obj
 0001:00072a6d       ___acrt_LCMapStringW       00473a6d f   libucrt:lcmapstringw.obj
 0001:00072ab0       __CIlog10_pentium4         00473ab0 f   libucrt:log10_pentium4.obj
 0001:00072ac8       __log10_pentium4           00473ac8     libucrt:log10_pentium4.obj
 0001:00072d40       __ceil_default             00473d40 f   libucrt:ceil.obj
 0001:00072df9       _IsProcessorFeaturePresent@4 00473df9 f   kernel32:KERNEL32.dll
 0001:00072dff       ??0stl_critical_section_vista@details@Concurrency@@QAE@XZ 00473dff f i libcpmt:mutex.obj
 0001:00072e1f       ?create_stl_critical_section@details@Concurrency@@YAXPAVstl_critical_section_interface@12@@Z 00473e1f f i libcpmt:mutex.obj
 0001:00072e7d       ?destroy@stl_critical_section_concrt@details@Concurrency@@UAEXXZ 00473e7d f i libcpmt:mutex.obj
 0001:00072e85       ?destroy@stl_critical_section_vista@details@Concurrency@@UAEXXZ 00473e85 f i libcpmt:mutex.obj
 0001:00072e90       ?lock@stl_critical_section_concrt@details@Concurrency@@UAEXXZ 00473e90 f i libcpmt:mutex.obj
 0001:00072e98       ?lock@stl_critical_section_vista@details@Concurrency@@UAEXXZ 00473e98 f i libcpmt:mutex.obj
 0001:00072ea3       ?lock@stl_critical_section_win7@details@Concurrency@@UAEXXZ 00473ea3 f i libcpmt:mutex.obj
 0001:0007303a       ?try_lock@stl_critical_section_concrt@details@Concurrency@@UAE_NXZ 0047403a f i libcpmt:mutex.obj
 0001:00073042       ?try_lock@stl_critical_section_vista@details@Concurrency@@UAE_NXZ 00474042 f i libcpmt:mutex.obj
 0001:00073052       ?try_lock@stl_critical_section_win7@details@Concurrency@@UAE_NXZ 00474052 f i libcpmt:mutex.obj
 0001:00073062       ?try_lock_for@stl_critical_section_concrt@details@Concurrency@@UAE_NI@Z 00474062 f i libcpmt:mutex.obj
 0001:0007306e       ?try_lock_for@stl_critical_section_vista@details@Concurrency@@UAE_NI@Z 0047406e f i libcpmt:mutex.obj
 0001:00073080       ?try_lock_for@stl_critical_section_win7@details@Concurrency@@UAE_NI@Z 00474080 f i libcpmt:mutex.obj
 0001:00073092       ?unlock@stl_critical_section_concrt@details@Concurrency@@UAEXXZ 00474092 f i libcpmt:mutex.obj
 0001:0007309a       ?unlock@stl_critical_section_vista@details@Concurrency@@UAEXXZ 0047409a f i libcpmt:mutex.obj
 0001:000730a5       ?unlock@stl_critical_section_win7@details@Concurrency@@UAEXXZ 004740a5 f i libcpmt:mutex.obj
 0001:000730b0       __Mtx_clear_owner          004740b0 f   libcpmt:mutex.obj
 0001:000730bf       __Mtx_destroy_in_situ      004740bf f   libcpmt:mutex.obj
 0001:000730de       __Mtx_getconcrtcs          004740de f   libcpmt:mutex.obj
 0001:000730e9       __Mtx_init_in_situ         004740e9 f   libcpmt:mutex.obj
 0001:0007310a       __Mtx_lock                 0047410a f   libcpmt:mutex.obj
 0001:0007311b       __Mtx_reset_owner          0047411b f   libcpmt:mutex.obj
 0001:0007312f       __Mtx_unlock               0047412f f   libcpmt:mutex.obj
 0001:0007315a       ?create_stl_condition_variable@details@Concurrency@@YAXPAVstl_condition_variable_interface@12@@Z 0047415a f i libcpmt:cond.obj
 0001:000731ba       ?destroy@stl_condition_variable_concrt@details@Concurrency@@UAEXXZ 004741ba f i libcpmt:cond.obj
 0001:0007328c       ?notify_all@stl_condition_variable_concrt@details@Concurrency@@UAEXXZ 0047428c f i libcpmt:cond.obj
 0001:00073294       ?notify_all@stl_condition_variable_vista@details@Concurrency@@UAEXXZ 00474294 f i libcpmt:cond.obj
 0001:00073294       ?notify_all@stl_condition_variable_win7@details@Concurrency@@UAEXXZ 00474294 f i libcpmt:cond.obj
 0001:0007329f       ?notify_one@stl_condition_variable_concrt@details@Concurrency@@UAEXXZ 0047429f f i libcpmt:cond.obj
 0001:000732a7       ?notify_one@stl_condition_variable_win7@details@Concurrency@@UAEXXZ 004742a7 f i libcpmt:cond.obj
 0001:000732a7       ?notify_one@stl_condition_variable_vista@details@Concurrency@@UAEXXZ 004742a7 f i libcpmt:cond.obj
 0001:000732b2       ?wait@stl_condition_variable_concrt@details@Concurrency@@UAEXPAVstl_critical_section_interface@23@@Z 004742b2 f i libcpmt:cond.obj
 0001:000732c8       ?wait@stl_condition_variable_vista@details@Concurrency@@UAEXPAVstl_critical_section_interface@23@@Z 004742c8 f i libcpmt:cond.obj
 0001:000732e3       ?wait@stl_condition_variable_win7@details@Concurrency@@UAEXPAVstl_critical_section_interface@23@@Z 004742e3 f i libcpmt:cond.obj
 0001:000732fe       ?wait_for@stl_condition_variable_concrt@details@Concurrency@@UAE_NPAVstl_critical_section_interface@23@I@Z 004742fe f i libcpmt:cond.obj
 0001:00073317       ?wait_for@stl_condition_variable_vista@details@Concurrency@@UAE_NPAVstl_critical_section_interface@23@I@Z 00474317 f i libcpmt:cond.obj
 0001:00073339       ?wait_for@stl_condition_variable_win7@details@Concurrency@@UAE_NPAVstl_critical_section_interface@23@I@Z 00474339 f i libcpmt:cond.obj
 0001:0007335d       __Cnd_broadcast            0047435d f   libcpmt:cond.obj
 0001:0007337c       __Cnd_destroy_in_situ      0047437c f   libcpmt:cond.obj
 0001:00073399       __Cnd_init_in_situ         00474399 f   libcpmt:cond.obj
 0001:0007339e       __Cnd_wait                 0047439e f   libcpmt:cond.obj
 0001:000733b3       ??0system_error@std@@QAE@HABVerror_category@1@PBD@Z 004743b3 f i libcpmt:thread0.obj
 0001:000733fd       ?_Throw_C_error@std@@YAXH@Z 004743fd f   libcpmt:thread0.obj
 0001:0007342a       ?_Throw_Cpp_error@std@@YAXH@Z 0047442a f   libcpmt:thread0.obj
 0001:0007345f       ??$?0AAPAUEHExceptionRecord@@_N@?$_Ref_count_obj@V__ExceptionPtr@@@std@@QAE@AAPAUEHExceptionRecord@@$$QA_N@Z 0047445f f i libcpmt:excptptr.obj
 0001:0007348f       ??$?0AAPAUEHExceptionRecord@@_N@?$_Ref_count_obj_alloc@V__ExceptionPtr@@U?$_StaticAllocator@H@@@std@@QAE@ABU?$_StaticAllocator@H@@AAPAUEHExceptionRecord@@$$QA_N@Z 0047448f f i libcpmt:excptptr.obj
 0001:000734d0       ??$_Copy_construct_from@V__ExceptionPtr@@@?$_Ptr_base@V__ExceptionPtr@@@std@@IAEXABV?$shared_ptr@V__ExceptionPtr@@@1@@Z 004744d0 f i libcpmt:excptptr.obj
 0001:000734ef       ??$allocate_shared@V__ExceptionPtr@@U?$_StaticAllocator@H@@AAPAUEHExceptionRecord@@_N@std@@YA?AV?$shared_ptr@V__ExceptionPtr@@@0@ABU?$_StaticAllocator@H@@AAPAUEHExceptionRecord@@$$QA_N@Z 004744ef f i libcpmt:excptptr.obj
 0001:00073534       ??$make_shared@V__ExceptionPtr@@AAPAUEHExceptionRecord@@_N@std@@YA?AV?$shared_ptr@V__ExceptionPtr@@@0@AAPAUEHExceptionRecord@@$$QA_N@Z 00474534 f i libcpmt:excptptr.obj
 0001:00073574       ??0__ExceptionPtr@@QAE@PBUEHExceptionRecord@@_N@Z 00474574 f   libcpmt:excptptr.obj
 0001:00073692       ??1__ExceptionPtr@@QAE@XZ  00474692 f   libcpmt:excptptr.obj
 0001:00073753       ??_E?$_Ref_count_obj_alloc@V__ExceptionPtr@@U?$_StaticAllocator@H@@@std@@UAEPAXI@Z 00474753 f i libcpmt:excptptr.obj
 0001:00073753       ??_G?$_Ref_count_obj_alloc@V__ExceptionPtr@@U?$_StaticAllocator@H@@@std@@UAEPAXI@Z 00474753 f i libcpmt:excptptr.obj
 0001:00073753       ??_E?$_Ref_count_obj@V__ExceptionPtr@@@std@@UAEPAXI@Z 00474753 f i libcpmt:excptptr.obj
 0001:00073753       ??_G?$_Ref_count_obj@V__ExceptionPtr@@@std@@UAEPAXI@Z 00474753 f i libcpmt:excptptr.obj
 0001:00073770       ??_G?$shared_ptr@V__ExceptionPtr@@@std@@QAEPAXI@Z 00474770 f i libcpmt:excptptr.obj
 0001:00073799       ?_CallCopyCtor@__ExceptionPtr@@ABEXPAX0IQBU_s_CatchableType@@@Z 00474799 f   libcpmt:excptptr.obj
 0001:00073825       ?_CurrentException@__ExceptionPtr@@SA?AV?$shared_ptr@V__ExceptionPtr@@@std@@XZ 00474825 f   libcpmt:excptptr.obj
 0001:000738ca       ?_Decref@_Ref_count_base@std@@QAEXXZ 004748ca f i libcpmt:excptptr.obj
 0001:00073908       ?_Delete_this@?$_Ref_count_obj@V__ExceptionPtr@@@std@@EAEXXZ 00474908 f i libcpmt:excptptr.obj
 0001:00073926       ?_Delete_this@?$_Ref_count_obj_alloc@V__ExceptionPtr@@U?$_StaticAllocator@H@@@std@@EAEXXZ 00474926 f i libcpmt:excptptr.obj
 0001:00073940       ?_Destroy@?$_Ref_count_obj@V__ExceptionPtr@@@std@@EAEXXZ 00474940 f i libcpmt:excptptr.obj
 0001:00073940       ?_Destroy@?$_Ref_count_obj_alloc@V__ExceptionPtr@@U?$_StaticAllocator@H@@@std@@EAEXXZ 00474940 f i libcpmt:excptptr.obj
 0001:00073948       ?_Get_deleter@_Ref_count_base@std@@UBEPAXABVtype_info@@@Z 00474948 f i libcpmt:excptptr.obj
 0001:0007394d       ?_InitBadAllocException@__ExceptionPtr@@CA?AV?$shared_ptr@V__ExceptionPtr@@@std@@XZ 0047494d f   libcpmt:excptptr.obj
 0001:000739b7       ?_PlacementInitBadAllocException@__ExceptionPtr@@CGHPAX0PAPAX@Z 004749b7 f i libcpmt:excptptr.obj
 0001:000739f6       ?_PopulateExceptionRecord@__ExceptionPtr@@SAPAUEHExceptionRecord@@AAU2@PBXPBU_s_ThrowInfo@@@Z 004749f6 f   libcpmt:excptptr.obj
 0001:00073a50       ?_RethrowException@__ExceptionPtr@@QBEXXZ 00474a50 f   libcpmt:excptptr.obj
 0001:00073b7c       ?__ExceptionPtrCopy@@YAXPAXPBX@Z 00474b7c f   libcpmt:excptptr.obj
 0001:00073b93       ?__ExceptionPtrCreate@@YAXPAX@Z 00474b93 f   libcpmt:excptptr.obj
 0001:00073ba2       ?__ExceptionPtrCurrentException@@YAXPAX@Z 00474ba2 f   libcpmt:excptptr.obj
 0001:00073bd4       ?__ExceptionPtrDestroy@@YAXPAX@Z 00474bd4 f   libcpmt:excptptr.obj
 0001:00073be3       ?__ExceptionPtrRethrow@@YAXPBX@Z 00474be3 f   libcpmt:excptptr.obj
 0001:00073bf5       ?align@std@@YAPAXIIAAPAXAAI@Z 00474bf5 f i libcpmt:excptptr.obj
 0001:00073c30       __Xtime_diff_to_millis2    00474c30 f   libcpmt:xtime.obj
 0001:00073d6f       _xtime_get                 00474d6f f   libcpmt:xtime.obj
 0001:00073da0       __FindPESection            00474da0 f   LIBCMT:pesect.obj
 0001:00073df0       __IsNonwritableInCurrentImage 00474df0 f   LIBCMT:pesect.obj
 0001:00073eb0       __ValidateImageBase        00474eb0 f   LIBCMT:pesect.obj
 0001:00073ef0       __aulldvrm                 00474ef0 f   LIBCMT:ulldvrm.obj
 0001:00073f90       __SEH_prolog4_GS           00474f90 f   LIBCMT:_sehprolg4gs_.obj
 0001:00073fd9       __SEH_epilog4_GS           00474fd9 f   LIBCMT:_sehprolg4gs_.obj
 0001:00073ff0       __allrem                   00474ff0 f   LIBCMT:llrem.obj
 0001:000740b0       __alldvrm                  004750b0 f   LIBCMT:lldvrm.obj
 0001:00074190       _strrchr                   00475190 f   libvcruntime:strrchr.obj
 0001:000742c7       _wcschr                    004752c7 f   libvcruntime:wcschr.obj
 0002:00000000       __imp__InitCommonControlsEx@4 00477000     comctl32:COMCTL32.dll
 0002:00000004       \177COMCTL32_NULL_THUNK_DATA 00477004     comctl32:COMCTL32.dll
 0002:00000008       __imp__WriteConsoleW@20    00477008     kernel32:KERNEL32.dll
 0002:0000000c       __imp__CreateFileW@28      0047700c     kernel32:KERNEL32.dll
 0002:00000010       __imp__SetStdHandle@8      00477010     kernel32:KERNEL32.dll
 0002:00000014       __imp__ReadProcessMemory@20 00477014     kernel32:KERNEL32.dll
 0002:00000018       __imp__ResumeThread@4      00477018     kernel32:KERNEL32.dll
 0002:0000001c       __imp__WaitForDebugEvent@8 0047701c     kernel32:KERNEL32.dll
 0002:00000020       __imp__ContinueDebugEvent@12 00477020     kernel32:KERNEL32.dll
 0002:00000024       __imp__DebugActiveProcess@4 00477024     kernel32:KERNEL32.dll
 0002:00000028       __imp__CloseHandle@4       00477028     kernel32:KERNEL32.dll
 0002:0000002c       __imp__CreateProcessA@40   0047702c     kernel32:KERNEL32.dll
 0002:00000030       __imp__GetTempPathA@8      00477030     kernel32:KERNEL32.dll
 0002:00000034       __imp__GetTempFileNameA@16 00477034     kernel32:KERNEL32.dll
 0002:00000038       __imp__GetCurrentProcess@0 00477038     kernel32:KERNEL32.dll
 0002:0000003c       __imp__GetLastError@0      0047703c     kernel32:KERNEL32.dll
 0002:00000040       __imp__WaitForSingleObject@8 00477040     kernel32:KERNEL32.dll
 0002:00000044       __imp__GetTickCount@0      00477044     kernel32:KERNEL32.dll
 0002:00000048       __imp__GetModuleFileNameA@12 00477048     kernel32:KERNEL32.dll
 0002:0000004c       __imp__GetCommandLineA@0   0047704c     kernel32:KERNEL32.dll
 0002:00000050       __imp__GetFullPathNameA@16 00477050     kernel32:KERNEL32.dll
 0002:00000054       __imp__SetPriorityClass@8  00477054     kernel32:KERNEL32.dll
 0002:00000058       __imp__GetCurrentProcessId@0 00477058     kernel32:KERNEL32.dll
 0002:0000005c       __imp__ExitProcess@4       0047705c     kernel32:KERNEL32.dll
 0002:00000060       __imp__SetUnhandledExceptionFilter@4 00477060     kernel32:KERNEL32.dll
 0002:00000064       __imp__GetCurrentThreadId@0 00477064     kernel32:KERNEL32.dll
 0002:00000068       __imp__WideCharToMultiByte@32 00477068     kernel32:KERNEL32.dll
 0002:0000006c       __imp__CreateThread@24     0047706c     kernel32:KERNEL32.dll
 0002:00000070       __imp__Sleep@4             00477070     kernel32:KERNEL32.dll
 0002:00000074       __imp__GetModuleHandleA@4  00477074     kernel32:KERNEL32.dll
 0002:00000078       __imp__GetProcessHeap@0    00477078     kernel32:KERNEL32.dll
 0002:0000007c       __imp__SetEnvironmentVariableA@8 0047707c     kernel32:KERNEL32.dll
 0002:00000080       __imp__FreeEnvironmentStringsW@4 00477080     kernel32:KERNEL32.dll
 0002:00000084       __imp__GetEnvironmentStringsW@0 00477084     kernel32:KERNEL32.dll
 0002:00000088       __imp__GetOEMCP@0          00477088     kernel32:KERNEL32.dll
 0002:0000008c       __imp__IsValidCodePage@4   0047708c     kernel32:KERNEL32.dll
 0002:00000090       __imp__FindNextFileA@8     00477090     kernel32:KERNEL32.dll
 0002:00000094       __imp__FindFirstFileExA@24 00477094     kernel32:KERNEL32.dll
 0002:00000098       __imp__IsProcessorFeaturePresent@4 00477098     kernel32:KERNEL32.dll
 0002:0000009c       __imp__EnterCriticalSection@4 0047709c     kernel32:KERNEL32.dll
 0002:000000a0       __imp__LeaveCriticalSection@4 004770a0     kernel32:KERNEL32.dll
 0002:000000a4       __imp__DeleteCriticalSection@4 004770a4     kernel32:KERNEL32.dll
 0002:000000a8       __imp__MultiByteToWideChar@24 004770a8     kernel32:KERNEL32.dll
 0002:000000ac       __imp__EncodePointer@4     004770ac     kernel32:KERNEL32.dll
 0002:000000b0       __imp__DecodePointer@4     004770b0     kernel32:KERNEL32.dll
 0002:000000b4       __imp__SetLastError@4      004770b4     kernel32:KERNEL32.dll
 0002:000000b8       __imp__InitializeCriticalSectionAndSpinCount@8 004770b8     kernel32:KERNEL32.dll
 0002:000000bc       __imp__CreateEventW@16     004770bc     kernel32:KERNEL32.dll
 0002:000000c0       __imp__SwitchToThread@0    004770c0     kernel32:KERNEL32.dll
 0002:000000c4       __imp__TlsAlloc@0          004770c4     kernel32:KERNEL32.dll
 0002:000000c8       __imp__TlsGetValue@4       004770c8     kernel32:KERNEL32.dll
 0002:000000cc       __imp__TlsSetValue@8       004770cc     kernel32:KERNEL32.dll
 0002:000000d0       __imp__TlsFree@4           004770d0     kernel32:KERNEL32.dll
 0002:000000d4       __imp__GetSystemTimeAsFileTime@4 004770d4     kernel32:KERNEL32.dll
 0002:000000d8       __imp__GetModuleHandleW@4  004770d8     kernel32:KERNEL32.dll
 0002:000000dc       __imp__GetProcAddress@8    004770dc     kernel32:KERNEL32.dll
 0002:000000e0       __imp__CompareStringW@24   004770e0     kernel32:KERNEL32.dll
 0002:000000e4       __imp__LCMapStringW@24     004770e4     kernel32:KERNEL32.dll
 0002:000000e8       __imp__GetLocaleInfoW@16   004770e8     kernel32:KERNEL32.dll
 0002:000000ec       __imp__GetStringTypeW@16   004770ec     kernel32:KERNEL32.dll
 0002:000000f0       __imp__GetCPInfo@8         004770f0     kernel32:KERNEL32.dll
 0002:000000f4       __imp__TryEnterCriticalSection@4 004770f4     kernel32:KERNEL32.dll
 0002:000000f8       __imp__GetCurrentThread@0  004770f8     kernel32:KERNEL32.dll
 0002:000000fc       __imp__GetThreadTimes@20   004770fc     kernel32:KERNEL32.dll
 0002:00000100       __imp__FreeLibrary@4       00477100     kernel32:KERNEL32.dll
 0002:00000104       __imp__FreeLibraryAndExitThread@8 00477104     kernel32:KERNEL32.dll
 0002:00000108       __imp__GetModuleFileNameW@12 00477108     kernel32:KERNEL32.dll
 0002:0000010c       __imp__LoadLibraryExW@12   0047710c     kernel32:KERNEL32.dll
 0002:00000110       __imp__InterlockedPopEntrySList@4 00477110     kernel32:KERNEL32.dll
 0002:00000114       __imp__InterlockedPushEntrySList@8 00477114     kernel32:KERNEL32.dll
 0002:00000118       __imp__InterlockedFlushSList@4 00477118     kernel32:KERNEL32.dll
 0002:0000011c       __imp__QueryDepthSList@4   0047711c     kernel32:KERNEL32.dll
 0002:00000120       __imp__LoadLibraryW@4      00477120     kernel32:KERNEL32.dll
 0002:00000124       __imp__SetEvent@4          00477124     kernel32:KERNEL32.dll
 0002:00000128       __imp__WaitForSingleObjectEx@12 00477128     kernel32:KERNEL32.dll
 0002:0000012c       __imp__SignalObjectAndWait@16 0047712c     kernel32:KERNEL32.dll
 0002:00000130       __imp__SetThreadPriority@8 00477130     kernel32:KERNEL32.dll
 0002:00000134       __imp__GetThreadPriority@4 00477134     kernel32:KERNEL32.dll
 0002:00000138       __imp__GetLogicalProcessorInformation@8 00477138     kernel32:KERNEL32.dll
 0002:0000013c       __imp__CreateTimerQueueTimer@28 0047713c     kernel32:KERNEL32.dll
 0002:00000140       __imp__ChangeTimerQueueTimer@16 00477140     kernel32:KERNEL32.dll
 0002:00000144       __imp__DeleteTimerQueueTimer@12 00477144     kernel32:KERNEL32.dll
 0002:00000148       __imp__GetNumaHighestNodeNumber@4 00477148     kernel32:KERNEL32.dll
 0002:0000014c       __imp__GetProcessAffinityMask@12 0047714c     kernel32:KERNEL32.dll
 0002:00000150       __imp__SetThreadAffinityMask@8 00477150     kernel32:KERNEL32.dll
 0002:00000154       __imp__RegisterWaitForSingleObject@24 00477154     kernel32:KERNEL32.dll
 0002:00000158       __imp__UnregisterWait@4    00477158     kernel32:KERNEL32.dll
 0002:0000015c       __imp__DuplicateHandle@28  0047715c     kernel32:KERNEL32.dll
 0002:00000160       __imp__ReleaseSemaphore@12 00477160     kernel32:KERNEL32.dll
 0002:00000164       __imp__InitializeSListHead@4 00477164     kernel32:KERNEL32.dll
 0002:00000168       __imp__UnregisterWaitEx@8  00477168     kernel32:KERNEL32.dll
 0002:0000016c       __imp__GetVersionExW@4     0047716c     kernel32:KERNEL32.dll
 0002:00000170       __imp__VirtualAlloc@16     00477170     kernel32:KERNEL32.dll
 0002:00000174       __imp__VirtualProtect@16   00477174     kernel32:KERNEL32.dll
 0002:00000178       __imp__VirtualFree@12      00477178     kernel32:KERNEL32.dll
 0002:0000017c       __imp__CreateTimerQueue@0  0047717c     kernel32:KERNEL32.dll
 0002:00000180       __imp__IsDebuggerPresent@0 00477180     kernel32:KERNEL32.dll
 0002:00000184       __imp__UnhandledExceptionFilter@4 00477184     kernel32:KERNEL32.dll
 0002:00000188       __imp__GetStartupInfoW@4   00477188     kernel32:KERNEL32.dll
 0002:0000018c       __imp__QueryPerformanceCounter@4 0047718c     kernel32:KERNEL32.dll
 0002:00000190       __imp__TerminateProcess@8  00477190     kernel32:KERNEL32.dll
 0002:00000194       __imp__RaiseException@16   00477194     kernel32:KERNEL32.dll
 0002:00000198       __imp__RtlUnwind@16        00477198     kernel32:KERNEL32.dll
 0002:0000019c       __imp__ReadFile@20         0047719c     kernel32:KERNEL32.dll
 0002:000001a0       __imp__GetModuleHandleExW@12 004771a0     kernel32:KERNEL32.dll
 0002:000001a4       __imp__GetCurrentDirectoryW@8 004771a4     kernel32:KERNEL32.dll
 0002:000001a8       __imp__QueryPerformanceFrequency@4 004771a8     kernel32:KERNEL32.dll
 0002:000001ac       __imp__GetStdHandle@4      004771ac     kernel32:KERNEL32.dll
 0002:000001b0       __imp__WriteFile@20        004771b0     kernel32:KERNEL32.dll
 0002:000001b4       __imp__GetCommandLineW@0   004771b4     kernel32:KERNEL32.dll
 0002:000001b8       __imp__GetACP@0            004771b8     kernel32:KERNEL32.dll
 0002:000001bc       __imp__HeapFree@12         004771bc     kernel32:KERNEL32.dll
 0002:000001c0       __imp__HeapAlloc@12        004771c0     kernel32:KERNEL32.dll
 0002:000001c4       __imp__IsValidLocale@8     004771c4     kernel32:KERNEL32.dll
 0002:000001c8       __imp__GetUserDefaultLCID@0 004771c8     kernel32:KERNEL32.dll
 0002:000001cc       __imp__EnumSystemLocalesW@8 004771cc     kernel32:KERNEL32.dll
 0002:000001d0       __imp__GetFileType@4       004771d0     kernel32:KERNEL32.dll
 0002:000001d4       __imp__SetFilePointerEx@20 004771d4     kernel32:KERNEL32.dll
 0002:000001d8       __imp__GetConsoleMode@8    004771d8     kernel32:KERNEL32.dll
 0002:000001dc       __imp__ReadConsoleW@20     004771dc     kernel32:KERNEL32.dll
 0002:000001e0       __imp__GetConsoleCP@0      004771e0     kernel32:KERNEL32.dll
 0002:000001e4       __imp__GetTimeZoneInformation@4 004771e4     kernel32:KERNEL32.dll
 0002:000001e8       __imp__FlushFileBuffers@4  004771e8     kernel32:KERNEL32.dll
 0002:000001ec       __imp__HeapReAlloc@16      004771ec     kernel32:KERNEL32.dll
 0002:000001f0       __imp__HeapSize@12         004771f0     kernel32:KERNEL32.dll
 0002:000001f4       __imp__FindClose@4         004771f4     kernel32:KERNEL32.dll
 0002:000001f8       __imp__SetEndOfFile@4      004771f8     kernel32:KERNEL32.dll
 0002:000001fc       \177KERNEL32_NULL_THUNK_DATA 004771fc     kernel32:KERNEL32.dll
 0002:00000200       __imp__GetDesktopWindow@0  00477200     user32:USER32.dll
 0002:00000204       __imp__GetWindowRect@8     00477204     user32:USER32.dll
 0002:00000208       __imp__SetWindowTextA@8    00477208     user32:USER32.dll
 0002:0000020c       __imp__GetSystemMetrics@4  0047720c     user32:USER32.dll
 0002:00000210       __imp__SystemParametersInfoA@16 00477210     user32:USER32.dll
 0002:00000214       __imp__EndDialog@8         00477214     user32:USER32.dll
 0002:00000218       __imp__DialogBoxParamA@20  00477218     user32:USER32.dll
 0002:0000021c       __imp__SetWindowPos@28     0047721c     user32:USER32.dll
 0002:00000220       __imp__SendMessageA@16     00477220     user32:USER32.dll
 0002:00000224       __imp__GetDlgItem@8        00477224     user32:USER32.dll
 0002:00000228       \177USER32_NULL_THUNK_DATA 00477228     user32:USER32.dll
 0002:0000022c       __imp__UnDecorateSymbolName@16 0047722c     Dbghelp:dbghelp.dll
 0002:00000230       \177dbghelp_NULL_THUNK_DATA 00477230     Dbghelp:dbghelp.dll
 0002:00000234       ___guard_check_icall_fptr  00477234     LIBCMT:guard_support.obj
 0002:00000238       ___xc_a                    00477238     LIBCMT:initializers.obj
 0002:0000027c       ___xc_z                    0047727c     LIBCMT:initializers.obj
 0002:00000280       ___xi_a                    00477280     LIBCMT:initializers.obj
 0002:00000294       ___acrt_stdio_initializer  00477294     libucrt:stdio_initializer.obj
 0002:00000298       ___acrt_clock_initializer  00477298     libucrt:clock_initializer.obj
 0002:0000029c       ___acrt_timeset_initializer 0047729c     libucrt:timeset_initializer.obj
 0002:000002a0       ___acrt_tran_sse2_initializer 004772a0     libucrt:sse2_initializer.obj
 0002:000002a4       ___acrt_multibyte_initializer 004772a4     libucrt:multibyte_initializer.obj
 0002:000002a8       ___xi_z                    004772a8     LIBCMT:initializers.obj
 0002:000002ac       ___xl_a                    004772ac     LIBCMT:tlssup.obj
 0002:000002b0       ___xl_z                    004772b0     LIBCMT:tlssup.obj
 0002:000002b4       ___xp_a                    004772b4     LIBCMT:initializers.obj
 0002:000002bc       ___acrt_locale_terminator  004772bc     libucrt:locale_initializer.obj
 0002:000002c0       ___dcrt_console_output_terminator 004772c0     libucrt:console_output_initializer.obj
 0002:000002c4       ___acrt_stdio_terminator   004772c4     libucrt:stdio_initializer.obj
 0002:000002c8       ___xp_z                    004772c8     LIBCMT:initializers.obj
 0002:000002cc       ___xt_a                    004772cc     LIBCMT:initializers.obj
 0002:000002d0       ___xt_z                    004772d0     LIBCMT:initializers.obj
 0002:000002e4       ??_C@_0BC@EOODALEL@Unknown?5exception?$AA@ 004772e4     Crinkler.obj
 0002:000002f8       ??_C@_0P@GHFPNOJB@bad?5allocation?$AA@ 004772f8     Crinkler.obj
 0002:00000307       ??_C@_00CNPNBAHC@?$AA@     00477307     Crinkler.obj
 0002:00000308       ??_7ProgressBar@@6B@       00477308     Crinkler.obj
 0002:00000320       ??_7ConsoleProgressBar@@6B@ 00477320     Crinkler.obj
 0002:00000338       ??_7WindowProgressBar@@6B@ 00477338     Crinkler.obj
 0002:00000350       ??_7CompositeProgressBar@@6B@ 00477350     Crinkler.obj
 0002:00000368       ??_7_UnrealizedChore@details@Concurrency@@6B@ 00477368     Crinkler.obj
 0002:0000036c       ??_C@_0DC@IODJPMBD@No?5functions?5were?5imported?5from?5@ 0047736c     Crinkler.obj
 0002:000003a0       ??_C@_0BG@DDBEBGFF@Unsupported?5file?5type?$AA@ 004773a0     Crinkler.obj
 0002:000003b8       ??_C@_0P@IFCHICC@mainCRTStartup?$AA@ 004773b8     Crinkler.obj
 0002:000003c8       ??_C@_0BC@EOMPAEPF@WinMainCRTStartup?$AA@ 004773c8     Crinkler.obj
 0002:000003dc       ??_C@_0DG@PPIGIGJC@Cannot?5find?5entry?5point?5?8?$CFs?8?4?5Se@ 004773dc     Crinkler.obj
 0002:00000414       ??_C@_0DE@MIMMHEBG@Entry?5point?5not?5at?5start?5of?5sect@ 00477414     Crinkler.obj
 0002:00000448       ??_C@_0EF@MFKDHEAK@Cannot?5create?5integer?5symbol?5?8?$CFs@ 00477448     Crinkler.obj
 0002:00000490       ??_C@_0FA@JCIGHBGI@Uninitialized?5hunk?5?8?$CFs?8?5forced?5t@ 00477490     Crinkler.obj
 0002:000004e0       ??_C@_0DI@CNEFPJKN@Cannot?5find?5symbol?5?8?$CFs?8?5to?5be?5ex@ 004774e0     Crinkler.obj
 0002:00000518       ??_C@_0BG@CEHDACLH@__imp__LoadLibraryA?$EA4?$AA@ 00477518     Crinkler.obj
 0002:00000530       ??_C@_0BG@OOEFHEAN@__imp__MessageBoxA?$EA16?$AA@ 00477530     Crinkler.obj
 0002:00000548       ??_C@_0BG@HEPCMGPN@__DynamicInitializers?$AA@ 00477548     Crinkler.obj
 0002:00000560       ??_C@_0EO@IIGPOHCI@?6label?5name?5?5?5?5?5?5?5?5?5?5?5?5?5?5?5?5?5?5?5?5?5@ 00477560     Crinkler.obj
 0002:000005b0       ??_C@_09GCOFNFBD@?6?$CF?938?438s?$AA@ 004775b0     Crinkler.obj
 0002:000005bc       ??_C@_0L@EJPFMDN@?5?5?$CF?936?436s?$AA@ 004775bc     Crinkler.obj
 0002:000005c8       ??_C@_0N@IFGPEODL@?5?5?5?5?$CF?934?434s?$AA@ 004775c8     Crinkler.obj
 0002:000005d8       ??_C@_0P@MKLNNCLH@?5?5?5?5?5?5?$CF?932?432s?$AA@ 004775d8     Crinkler.obj
 0002:000005e8       ??_C@_0BG@KFLHGOHD@?5?$CF9d?5?$CF8?42f?5?$CF9d?5?$CF8?42f?6?$AA@ 004775e8     Crinkler.obj
 0002:00000600       ??_C@_0BD@KKHBGNDD@?5?$CF9d?5?5?5?5?5?5?5?5?5?5?$CF9d?6?$AA@ 00477600     Crinkler.obj
 0002:00000614       ??_C@_0BA@FDKAKDDE@Crinkler?5import?$AA@ 00477614     Crinkler.obj
 0002:00000624       ??_C@_0DC@FIIPFMOE@DLL?5fallback?5cannot?5be?5used?5with@ 00477624     Crinkler.obj
 0002:00000658       ??_C@_0DD@LEHFPLCL@Input?5file?5is?5not?5a?5Crinkler?5com@ 00477658     Crinkler.obj
 0002:0000068c       ??_C@_06FEMFHOOG@models?$AA@ 0047768c     Crinkler.obj
 0002:00000694       ??_C@_07OPDAKGAH@_Models?$AA@ 00477694     Crinkler.obj
 0002:0000069c       ??_C@_0BL@IFJFKOOO@Optimizing?5hash?5table?5size?$AA@ 0047769c     Crinkler.obj
 0002:000006b8       ??_C@_0BE@GNEDJFBJ@Reestimating?5models?$AA@ 004776b8     Crinkler.obj
 0002:000006cc       ??_C@_0BC@BCDNBDNA@Estimating?5models?$AA@ 004776cc     Crinkler.obj
 0002:000006e0       ??_C@_0CC@KFFHMKOA@?6Estimated?5compressed?5size?3?5?$CF?42f@ 004776e0     Crinkler.obj
 0002:00000704       ??_C@_0BN@FJLNKGNE@Reestimating?5models?5for?5code?$AA@ 00477704     Crinkler.obj
 0002:00000724       ??_C@_0BL@JOKOILPI@Estimating?5models?5for?5code?$AA@ 00477724     Crinkler.obj
 0002:00000740       ??_C@_08IBBAJKND@Models?3?5?$AA@ 00477740     Crinkler.obj
 0002:0000074c       ??_C@_0CJ@IKNHIIL@Estimated?5compressed?5size?5of?5cod@ 0047774c     Crinkler.obj
 0002:00000778       ??_C@_0BN@HDAIGLID@Reestimating?5models?5for?5data?$AA@ 00477778     Crinkler.obj
 0002:00000798       ??_C@_0BL@LEBLEGKP@Estimating?5models?5for?5data?$AA@ 00477798     Crinkler.obj
 0002:000007b4       ??_C@_0CJ@FEABGKOG@Estimated?5compressed?5size?5of?5dat@ 004777b4     Crinkler.obj
 0002:000007e0       ??_C@_0CG@HNCOFNOM@?6Ideal?5compressed?5size?5of?5code?3?5@ 004777e0     Crinkler.obj
 0002:00000808       ??_C@_0CF@OKKLKMEF@Ideal?5compressed?5size?5of?5data?3?5?$CF@ 00477808     Crinkler.obj
 0002:00000830       ??_C@_0CD@IJLCADMF@Ideal?5compressed?5total?5size?3?5?$CF?42@ 00477830     Crinkler.obj
 0002:0000085c       ??_C@_0N@MGHBILEJ@_SaturatePtr?$AA@ 0047785c     Crinkler.obj
 0002:0000086c       ??_C@_0BE@NNIAIJGH@_SaturateAdjust1Ptr?$AA@ 0047786c     Crinkler.obj
 0002:00000880       ??_C@_0BE@JKCAPDLH@_SaturateAdjust2Ptr?$AA@ 00477880     Crinkler.obj
 0002:00000894       ??_C@_0P@OPAMMGEP@_HashTableSize?$AA@ 00477894     Crinkler.obj
 0002:000008a4       ??_C@_0O@OJGJCEJN@_UnpackedData?$AA@ 004778a4     Crinkler.obj
 0002:000008b4       ??_C@_0L@FFEALDGL@_ImageBase?$AA@ 004778b4     Crinkler.obj
 0002:000008c0       ??_C@_0L@JGPOMPEN@_ModelMask?$AA@ 004778c0     Crinkler.obj
 0002:000008cc       ??_C@_0O@JBGLDBBJ@_BaseProbPtr0?$AA@ 004778cc     Crinkler.obj
 0002:000008dc       ??_C@_0O@IIHAAAFI@_BaseProbPtr1?$AA@ 004778dc     Crinkler.obj
 0002:000008ec       ??_C@_0BA@LINMPMMD@_BoostFactorPtr?$AA@ 004778ec     Crinkler.obj
 0002:000008fc       ??_C@_0BG@DHCAILAC@_DepackEndPositionPtr?$AA@ 004778fc     Crinkler.obj
 0002:00000914       ??_C@_0BI@GHKIELLA@_VirtualSizeHighBytePtr?$AA@ 00477914     Crinkler.obj
 0002:0000092c       ??_C@_0N@LHGLKDGG@_VirtualSize?$AA@ 0047792c     Crinkler.obj
 0002:0000093c       ??_C@_0N@CJIELOOC@_BaseProbPtr?$AA@ 0047793c     Crinkler.obj
 0002:0000094c       ??_C@_0O@JDOFCFPM@_ModelSkipPtr?$AA@ 0047794c     Crinkler.obj
 0002:0000095c       ??_C@_0BD@ILPGCFPF@_ExportTableRVAPtr?$AA@ 0047795c     Crinkler.obj
 0002:00000970       ??_C@_0BM@MAJEAMPE@_NumberOfDataDirectoriesPtr?$AA@ 00477970     Crinkler.obj
 0002:0000098c       ??_C@_0BC@PHINPHPA@_SubsystemTypePtr?$AA@ 0047798c     Crinkler.obj
 0002:000009a0       ??_C@_0BC@HOOJKFJG@_LinkerVersionPtr?$AA@ 004779a0     Crinkler.obj
 0002:000009b4       ??_C@_0N@ICHFCMMK@_SpareNopPtr?$AA@ 004779b4     Crinkler.obj
 0002:000009c4       ??_C@_0BE@OLEHLOAM@_CharacteristicsPtr?$AA@ 004779c4     Crinkler.obj
 0002:00000a28       ??_C@_02GMLFBBN@wb?$AA@    00477a28     Crinkler.obj
 0002:00000a2c       ??_C@_0BN@MCNEOMMD@Cannot?5open?5?8?$CFs?8?5for?5writing?$AA@ 00477a2c     Crinkler.obj
 0002:00000a50       ??_C@_0FI@NJAHGNDF@File?5compressed?5using?5a?5pre?91?44?5@ 00477a50     Crinkler.obj
 0002:00000aa8       ??_C@_0DO@FOPHLFC@File?5compressed?5or?5recompressed?5@ 00477aa8     Crinkler.obj
 0002:00000ae8       ??_C@_0EI@DEFEKIEP@Only?5files?5compressed?5using?5Crin@ 00477ae8     Crinkler.obj
 0002:00000b30       ??_C@_0BI@OKGMBMBC@Original?5file?5size?3?5?$CFd?6?$AA@ 00477b30     Crinkler.obj
 0002:00000b48       ??_C@_03IPHJCBHH@YES?$AA@  00477b48     Crinkler.obj
 0002:00000b4c       ??_C@_02NFLNFON@NO?$AA@    00477b4c     Crinkler.obj
 0002:00000b50       ??_C@_0BK@PBNIFJCJ@Original?5Tiny?5Header?3?5?$CFs?6?$AA@ 00477b50     Crinkler.obj
 0002:00000b6c       ??_C@_0BL@POODLHIC@Original?5Virtual?5size?3?5?$CFd?6?$AA@ 00477b6c     Crinkler.obj
 0002:00000b88       ??_C@_07PCJELJIA@CONSOLE?$AA@ 00477b88     Crinkler.obj
 0002:00000b90       ??_C@_07LHJOABLP@WINDOWS?$AA@ 00477b90     Crinkler.obj
 0002:00000b98       ??_C@_0BN@INIKNHFJ@Original?5Subsystem?5type?3?5?$CFs?6?$AA@ 00477b98     Crinkler.obj
 0002:00000bb8       ??_C@_0CC@JOKGDBN@Original?5Large?5address?5aware?3?5?$CFs@ 00477bb8     Crinkler.obj
 0002:00000bdc       ??_C@_07HIMJODOE@INSTANT?$AA@ 00477bdc     Crinkler.obj
 0002:00000be4       ??_C@_09JMLMCKLI@FAST?1SLOW?$AA@ 00477be4     Crinkler.obj
 0002:00000bf0       ??_C@_0BD@HHJOLBIO@FAST?1SLOW?1VERYSLOW?$AA@ 00477bf0     Crinkler.obj
 0002:00000c04       ??_C@_0BP@PHKHPGPG@Original?5Compression?5mode?3?5?$CFs?6?$AA@ 00477c04     Crinkler.obj
 0002:00000c24       ??_C@_0CA@OGCPPCPK@Original?5Saturate?5counters?3?5?$CFs?6?$AA@ 00477c24     Crinkler.obj
 0002:00000c44       ??_C@_0BI@LBFLFGMO@Original?5Hash?5size?3?5?$CFd?6?$AA@ 00477c44     Crinkler.obj
 0002:00000c5c       ??_C@_0BA@NNKFBPCH@Total?5size?3?5?$CFd?6?$AA@ 00477c5c     Crinkler.obj
 0002:00000c6c       ??_C@_01EEMJAFIK@?6?$AA@   00477c6c     Crinkler.obj
 0002:00000c70       ??_C@_0P@JOJJMKAP@Code?5size?3?5?$CFd?6?$AA@ 00477c70     Crinkler.obj
 0002:00000c80       ??_C@_0P@HJACANDA@Data?5size?3?5?$CFd?6?$AA@ 00477c80     Crinkler.obj
 0002:00000c90       ??_C@_0CI@KPJIGMFP@Failed?5to?5write?5to?5temporary?5fil@ 00477c90     Crinkler.obj
 0002:00000cb8       ??_C@_0EI@NCGMDOCI@Program?5was?5been?5unresponsive?5fo@ 00477cb8     Crinkler.obj
 0002:00000d00       ??_C@_0BP@LNKNKJE@Failed?5to?5read?5process?5memory?6?$AA@ 00477d00     Crinkler.obj
 0002:00000d20       ??_C@_0DA@NFHCLMBL@Call?5transformation?5code?5success@ 00477d20     Crinkler.obj
 0002:00000d50       ??_C@_0DC@MHPCDMEN@Call?5transformation?5code?5does?5no@ 00477d50     Crinkler.obj
 0002:00000d84       ??_C@_0CD@ICCCFOGO@Import?5code?5successfully?5patched@ 00477d84     Crinkler.obj
 0002:00000da8       ??_C@_0CF@NLLOGFPK@Import?5code?5does?5not?5need?5patchi@ 00477da8     Crinkler.obj
 0002:00000dd0       ??_C@_0CG@HODDPGIK@Cannot?5find?5old?5import?5code?5to?5p@ 00477dd0     Crinkler.obj
 0002:00000df8       ??_C@_0BA@MLAJHKNA@crinkler?5header?$AA@ 00477df8     Crinkler.obj
 0002:00000e08       ??_C@_07LFLIHBIB@_header?$AA@ 00477e08     Crinkler.obj
 0002:00000e10       ??_C@_0N@JCFBFJEN@_DepackEntry?$AA@ 00477e10     Crinkler.obj
 0002:00000e20       ??_C@_06IENGEGME@linked?$AA@ 00477e20     Crinkler.obj
 0002:00000e28       ??_C@_0BC@MDEKNPLM@Original?5Exports?3?$AA@ 00477e28     Crinkler.obj
 0002:00000e3c       ??_C@_06LFKKDFDG@?5NONE?6?$AA@ 00477e3c     Crinkler.obj
 0002:00000e44       ??_C@_0BD@POLNKHED@Resulting?5Exports?3?$AA@ 00477e44     Crinkler.obj
 0002:00000e58       ??_C@_0BD@DOBHADI@?6Recompressing?4?4?4?6?$AA@ 00477e58     Crinkler.obj
 0002:00000e6c       ??_C@_0CA@LJCOCBA@Real?5compressed?5total?5size?3?5?$CFd?6?$AA@ 00477e6c     Crinkler.obj
 0002:00000e8c       ??_C@_0DM@LILMGLD@Real?5compressed?5total?5size?3?5?$CFd?6B@ 00477e8c     Crinkler.obj
 0002:00000ec8       ??_C@_08KJPILKIK@HashHunk?$AA@ 00477ec8     Crinkler.obj
 0002:00000ed4       ??_C@_0BC@PJLJMEGM@?6Output?5file?3?5?$CFs?6?$AA@ 00477ed4     Crinkler.obj
 0002:00000ee8       ??_C@_0BG@GMCEEDPD@Final?5file?5size?3?5?$CFd?6?6?$AA@ 00477ee8     Crinkler.obj
 0002:00000f00       ??_C@_07JBHCGDOG@CRT$XCU?$AA@ 00477f00     Crinkler.obj
 0002:00000f08       ??_C@_0BK@HIDPJJNF@dynamic?5initializer?5calls?$AA@ 00477f08     Crinkler.obj
 0002:00000f24       ??_C@_01LKDEMHDF@s?$AA@    00477f24     Crinkler.obj
 0002:00000f28       ??_C@_0CF@POMNDHLE@?6Included?5?$CFd?5dynamic?5initializer@ 00477f28     Crinkler.obj
 0002:00000f50       ??_C@_02JDPG@rb?$AA@       00477f50     Crinkler.obj
 0002:00000f54       ??_C@_0CI@HJBACJIM@Forced?5alignment?5of?5?$CFd?5code?5hunk@ 00477f54     Crinkler.obj
 0002:00000f7c       ??_C@_0BJ@EIILJABG@?5?$CIincluding?5entry?5point?$CJ?$AA@ 00477f7c     Crinkler.obj
 0002:00000f98       ??_C@_02MIICKFIN@?4?6?$AA@ 00477f98     Crinkler.obj
 0002:00000f9c       ??_C@_07PFJDOKIE@_Import?$AA@ 00477f9c     Crinkler.obj
 0002:00000fa4       ??_C@_0N@FBKGGDDM@___ImageBase?$AA@ 00477fa4     Crinkler.obj
 0002:00000fb4       ??_C@_0O@KPKOFKBN@_HashShiftPtr?$AA@ 00477fb4     Crinkler.obj
 0002:00000fc4       ??_C@_0BC@IAIHMGGJ@_MaxNameLengthPtr?$AA@ 00477fc4     Crinkler.obj
 0002:00000fd8       ??_C@_0BF@CBKPDHJG@?6Truncating?5floats?3?6?$AA@ 00477fd8     Crinkler.obj
 0002:00000ff0       ??_C@_0BG@LKKDCDLE@?6Read?5reuse?5file?3?5?$CFs?6?$AA@ 00477ff0     Crinkler.obj
 0002:00001008       ??_C@_0O@HNBJOJF@_HeaderHashes?$AA@ 00478008     Crinkler.obj
 0002:00001018       ??_C@_0CG@IGLAPLGA@?6File?5size?5with?5reuse?5parameters@ 00478018     Crinkler.obj
 0002:00001040       ??_C@_0CB@BMJKADLA@?6Uncompressed?5size?5of?5code?3?5?$CF5d?6@ 00478040     Crinkler.obj
 0002:00001064       ??_C@_0CA@GBJEKFBE@Uncompressed?5size?5of?5data?3?5?$CF5d?6?$AA@ 00478064     Crinkler.obj
 0002:00001084       ??_C@_0BE@DENNAEKC@Final?5file?5size?3?5?$CFd?$AA@ 00478084     Crinkler.obj
 0002:00001098       ??_C@_0BE@PMPKMAM@?5?$CIprevious?5size?5?$CFd?$CJ?$AA@ 00478098     Crinkler.obj
 0002:000010ac       ??_C@_0N@FCELNGHN@?5?$CIno?5change?$CJ?$AA@ 004780ac     Crinkler.obj
 0002:000010bc       ??_C@_02PHMGELLB@?6?6?$AA@ 004780bc     Crinkler.obj
 0002:000010c0       ??_C@_0BJ@JNGAPOKG@Writing?5reuse?5file?3?5?$CFs?6?6?$AA@ 004780c0     Crinkler.obj
 0002:000010dc       ??_C@_0BN@EFGNPIFL@Overwriting?5reuse?5file?3?5?$CFs?6?6?$AA@ 004780dc     Crinkler.obj
 0002:00001100       ??_C@_0EG@JOHGKJDL@Size?5not?5better?5than?5with?5reuse?5@ 00478100     Crinkler.obj
 0002:00001148       ??_C@_0FD@EJBLHGJD@Output?5file?5too?5big?4?5Crinkler?5do@ 00478148     Crinkler.obj
 0002:0000119c       ??_C@_0BA@IJGCHEFD@compressed?5data?$AA@ 0047819c     Crinkler.obj
 0002:000011ac       ??_C@_0M@CPCNJFIA@_PackedData?$AA@ 004781ac     Crinkler.obj
 0002:000011b8       ??_C@_0L@NIOIKHIB@_HashTable?$AA@ 004781b8     Crinkler.obj
 0002:000011c4       ??_C@_05FPBGKCKL@final?$AA@ 004781c4     Crinkler.obj
 0002:000011cc       ??_C@_0N@EKLEAHGF@_ExportTable?$AA@ 004781cc     Crinkler.obj
 0002:000011dc       ??_C@_0P@HPLAJKBO@?5?1SUBSYSTEM?3?$CFs?$AA@ 004781dc     Crinkler.obj
 0002:000011ec       ??_C@_0BE@HCHGHOKI@?5?1LARGEADDRESSAWARE?$AA@ 004781ec     Crinkler.obj
 0002:00001200       ??_C@_0L@CHNHABH@?5?1ENTRY?3?$CFs?$AA@ 00478200     Crinkler.obj
 0002:0000120c       ??_C@_0N@HIOJGKBK@?5?1TINYHEADER?$AA@ 0047820c     Crinkler.obj
 0002:0000121c       ??_C@_0N@PHHPMIID@?5?1TINYIMPORT?$AA@ 0047821c     Crinkler.obj
 0002:0000122c       ??_C@_0O@MNHGNOHL@?5?1COMPMODE?3?$CFs?$AA@ 0047822c     Crinkler.obj
 0002:0000123c       ??_C@_0L@OEDOMGG@?5?1SATURATE?$AA@ 0047823c     Crinkler.obj
 0002:00001248       ??_C@_0O@PGFDPBBP@?5?1HASHSIZE?3?$CFd?$AA@ 00478248     Crinkler.obj
 0002:00001258       ??_C@_0P@HCOJIDEC@?5?1HASHTRIES?3?$CFd?$AA@ 00478258     Crinkler.obj
 0002:00001268       ??_C@_0BA@OGNPFEHM@?5?1ORDERTRIES?3?$CFd?$AA@ 00478268     Crinkler.obj
 0002:00001278       ??_C@_0L@CGFJGHCI@?5?1RANGE?3?$CFs?$AA@ 00478278     Crinkler.obj
 0002:00001284       ??_C@_0BD@LHKPLLM@?5?1REPLACEDLL?3?$CFs?$DN?$CFs?$AA@ 00478284     Crinkler.obj
 0002:00001298       ??_C@_0BE@JJMGDLCM@?5?1FALLBACKDLL?3?$CFs?$DN?$CFs?$AA@ 00478298     Crinkler.obj
 0002:000012ac       ??_C@_0P@ICOBEDKN@?5?1UNSAFEIMPORT?$AA@ 004782ac     Crinkler.obj
 0002:000012bc       ??_C@_0BC@KBCEAEFB@?5?1TRANSFORM?3CALLS?$AA@ 004782bc     Crinkler.obj
 0002:000012d0       ??_C@_0BE@CPKHJPNM@?5?1TRUNCATEFLOATS?3?$CFd?$AA@ 004782d0     Crinkler.obj
 0002:000012e4       ??_C@_0BF@FFKAOPNO@?5?1OVERRIDEALIGNMENTS?$AA@ 004782e4     Crinkler.obj
 0002:000012fc       ??_C@_03HODKBCIO@?3?$CFd?$AA@ 004782fc     Crinkler.obj
 0002:00001300       ??_C@_0O@LKIDOONL@?5?1UNALIGNCODE?$AA@ 00478300     Crinkler.obj
 0002:00001310       ??_C@_0BB@FDEOEGKP@?5?1NOINITIALIZERS?$AA@ 00478310     Crinkler.obj
 0002:00001324       ??_C@_0BD@CPKCLFBM@?5?1EXPORT?3?$CFs?$DN0x?$CF08X?$AA@ 00478324     Crinkler.obj
 0002:00001338       ??_C@_0M@PGNEDGKJ@?5?1EXPORT?3?$CFs?$AA@ 00478338     Crinkler.obj
 0002:00001344       ??_C@_0P@OGNOGPOD@?5?1EXPORT?3?$CFs?$DN?$CFs?$AA@ 00478344     Crinkler.obj
 0002:00001354       ??_C@_0BD@OLBABOEK@vector?$DMT?$DO?5too?5long?$AA@ 00478354     Crinkler.obj
 0002:00001368       ??_C@_0BB@MOGOBHAF@list?$DMT?$DO?5too?5long?$AA@ 00478368     Crinkler.obj
 0002:0000137c       ??_C@_0BA@JFNIOLAK@string?5too?5long?$AA@ 0047837c     Crinkler.obj
 0002:0000138c       ??_C@_0BE@JONHPENG@map?1set?$DMT?$DO?5too?5long?$AA@ 0047838c     Crinkler.obj
 0002:000013b8       ??_C@_05EJCIBGJD@_Step?$AA@ 004783b8     Crinkler.obj
 0002:000013cc       __real@3a000000            004783cc     Crinkler.obj
 0002:000013d4       ??_C@_0BM@BGFMAAGJ@Reused?5hunk?5not?5present?3?5?$CFs?$AA@ 004783d4     ExplicitHunkSorter.obj
 0002:000013f0       ??_C@_0CD@CGKKNKBF@Hunk?5not?5present?5in?5reuse?5file?3?5@ 004783f0     ExplicitHunkSorter.obj
 0002:00001420       __xmm@41f00000000000000000000000000000 00478420     ExplicitHunkSorter.obj
 0002:00001434       ??_C@_0DA@HEBHBJLH@error?3?5illegal?5numeric?5value?5for@ 00478434     Export.obj
 0002:00001464       ??_C@_07KCLLBNKA@Exports?$AA@ 00478464     Export.obj
 0002:0000146c       ??_C@_06NOPGBFOL@EXPORT?$AA@ 0047846c     Export.obj
 0002:00001474       ??_C@_07FLMNHPPG@exports?$AA@ 00478474     Export.obj
 0002:0000147c       ??_C@_0BB@OIHPIFOC@_ExportAddresses?$AA@ 0047847c     Export.obj
 0002:00001490       ??_C@_0N@KDNDLIJG@_ExportNames?$AA@ 00478490     Export.obj
 0002:000014a0       ??_C@_0BA@JDHIBPDI@_ExportOrdinals?$AA@ 004784a0     Export.obj
 0002:000014b0       ??_C@_0N@JKOCNDDI@_ExportName_?$AA@ 004784b0     Export.obj
 0002:000014c0       ??_C@_0P@ILNLDLO@?5?5?$CFs?5?$DN?50x?$CF08X?6?$AA@ 004784c0     Export.obj
 0002:000014d0       ??_C@_05LDOEBFOB@?5?5?$CFs?6?$AA@ 004784d0     Export.obj
 0002:000014d8       ??_C@_0M@OJMEEIGH@?5?5?$CFs?5?9?$DO?5?$CFs?6?$AA@ 004784d8     Export.obj
 0002:000014e4       ??_7CompressionStateEvaluator@@6B@ 004784e4     Compressor:SoftwareCompressionStateEvaluator.obj
 0002:000014e4       ??_7HunkLoader@@6B@        004784e4     Fix.obj
 0002:000014f0       ??_7CoffObjectLoader@@6B@  004784f0     Fix.obj
 0002:00001500       ??_C@_0OBN@MGIAECAJ@?$DM?$CBDOCTYPE?5HTML?5PUBLIC?5?$CC?9?1?1W3C?1?1D@ 00478500     HtmlReport.obj
 0002:00002320       ??_C@_0CLD@IKIOGOKJ@?$DMa?5id?$DN?8state_1?8?5href?$DN?8?$CD?8?5onclick@ 00479320     HtmlReport.obj
 0002:000025d8       ??_C@_0FH@MFJAHDAH@?$DM?1table?$DO?$DMp?$DO?$DMa?5href?$DN?8http?3?1?1crink@ 004795d8     HtmlReport.obj
 0002:00002638       ??_C@_03NKBOLEBK@0?41?$AA@ 00479638     HtmlReport.obj
 0002:0000263c       ??_C@_03LOHCHBBO@0?45?$AA@ 0047963c     HtmlReport.obj
 0002:00002640       ??_C@_01HIHLOKLC@1?$AA@    00479640     HtmlReport.obj
 0002:00002644       ??_C@_01FDFGLJHB@2?$AA@    00479644     HtmlReport.obj
 0002:00002648       ??_C@_01EKENIIDA@3?$AA@    00479648     HtmlReport.obj
 0002:0000264c       ??_C@_01BMBHCPLG@5?$AA@    0047964c     HtmlReport.obj
 0002:00002650       ??_C@_01COCBENDE@7?$AA@    00479650     HtmlReport.obj
 0002:00002654       ??_C@_01LAKCGALK@9?$AA@    00479654     HtmlReport.obj
 0002:00002658       ??_C@_02MIGHPNDL@12?$AA@   00479658     HtmlReport.obj
 0002:0000265c       ??_C@_08MCGACOPD@a?5lot?5of?$AA@ 0047965c     HtmlReport.obj
 0002:00002668       ??_C@_08EPJLHIJG@bad?5cast?$AA@ 00479668     HtmlReport.obj
 0002:00002674       ??_C@_0BA@ELKIONDK@bad?5locale?5name?$AA@ 00479674     HtmlReport.obj
 0002:00002684       ??_C@_05LAPONLG@false?$AA@ 00479684     HtmlReport.obj
 0002:0000268c       ??_C@_04LOAJBDKD@true?$AA@ 0047968c     HtmlReport.obj
 0002:00002694       ??_C@_02LMMGGCAJ@?3?5?$AA@ 00479694     HtmlReport.obj
 0002:00002698       ??_C@_07DCLBNMLN@generic?$AA@ 00479698     HtmlReport.obj
 0002:000026a0       ??_C@_08LLGCOLLL@iostream?$AA@ 004796a0     HtmlReport.obj
 0002:000026ac       ??_C@_0BG@PADBLCHM@iostream?5stream?5error?$AA@ 004796ac     HtmlReport.obj
 0002:000026c4       ??_C@_0BF@PHHKMMFD@ios_base?3?3badbit?5set?$AA@ 004796c4     HtmlReport.obj
 0002:000026dc       ??_C@_0BG@FMKFHCIL@ios_base?3?3failbit?5set?$AA@ 004796dc     HtmlReport.obj
 0002:000026f4       ??_C@_0BF@OOHOMBOF@ios_base?3?3eofbit?5set?$AA@ 004796f4     HtmlReport.obj
 0002:0000270c       ??_C@_0BA@JEHJMEOJ@?$DMtd?$DO?$CGnbsp?$DL?$DM?1td?$DO?$AA@ 0047970c     HtmlReport.obj
 0002:0000271c       ??_C@_0DK@EAHBJDLG@?$DMtd?5title?$DN?8?$CF?42f?5bits?8?5style?$DN?8col@ 0047971c     HtmlReport.obj
 0002:00002758       ??_C@_0DG@NMHIJMPK@?$DMtd?5title?$DN?8?$CF?42f?5bits?8?5style?$DN?8col@ 00479758     HtmlReport.obj
 0002:00002790       ??_C@_0BG@JOBHPHPA@?$DMtd?$DO?$CGnbsp?$DL?$CGnbsp?$DL?$DM?1td?$DO?$AA@ 00479790     HtmlReport.obj
 0002:000027a8       ??_C@_04KNINFIGH@?$DM?1a?$DO?$AA@ 004797a8     HtmlReport.obj
 0002:000027b0       ??_C@_04CDCBNPCK@?$CC?$CJ?8?$DO?$AA@ 004797b0     HtmlReport.obj
 0002:000027b8       ??_C@_0BN@FPCCAHJI@?8?5onclick?$DN?8recursiveExpand?$CI?$CC?$AA@ 004797b8     HtmlReport.obj
 0002:000027d8       ??_C@_0L@LNIEBLFF@?$DMa?5href?$DN?8?$CD?$AA@ 004797d8     HtmlReport.obj
 0002:000027e4       ??_C@_07NIOOBAEF@?$CFs?$CL0x?$CFX?$AA@ 004797e4     HtmlReport.obj
 0002:000027ec       ??_C@_07OLHPDFI@?$CFs?90x?$CFX?$AA@ 004797ec     HtmlReport.obj
 0002:000027f4       ??_C@_02DKCKIIND@?$CFs?$AA@ 004797f4     HtmlReport.obj
 0002:000027f8       ??_C@_02EMFKHFLK@?$CFX?$AA@ 004797f8     HtmlReport.obj
 0002:000027fc       ??_7?$basic_istream@DU?$char_traits@D@std@@@std@@6B@ 004797fc     HtmlReport.obj
 0002:00002800       ??_8?$basic_ostream@DU?$char_traits@D@std@@@std@@7B@ 00479800     HtmlReport.obj
 0002:00002808       ??_7?$basic_iostream@DU?$char_traits@D@std@@@std@@6B@ 00479808     HtmlReport.obj
 0002:0000280c       ??_7?$basic_stringbuf@DU?$char_traits@D@std@@V?$allocator@D@2@@std@@6B@ 0047980c     HtmlReport.obj
 0002:00002848       ??_7?$basic_stringstream@DU?$char_traits@D@std@@V?$allocator@D@2@@std@@6B@ 00479848     HtmlReport.obj
 0002:0000284c       ??_8?$basic_stringstream@DU?$char_traits@D@std@@V?$allocator@D@2@@std@@7B?$basic_istream@DU?$char_traits@D@std@@@1@@ 0047984c     HtmlReport.obj
 0002:00002854       ??_8?$basic_stringstream@DU?$char_traits@D@std@@V?$allocator@D@2@@std@@7B?$basic_ostream@DU?$char_traits@D@std@@@1@@ 00479854     HtmlReport.obj
 0002:0000285c       ??_C@_0P@PAANNPDA@?$DMp?$DO?$DMb?$DOOptions?3?$AA@ 0047985c     HtmlReport.obj
 0002:0000286c       ??_C@_08FKEIAKLO@?$DM?1b?$DO?$DM?1p?$DO?$AA@ 0047986c     HtmlReport.obj
 0002:00002878       ??_C@_0CD@PFGMPAEH@?$DMp?$DO?$DMb?$DOOutput?5file?5size?3?5?$CFd?$DM?1b?$DO?$DM?1@ 00479878     HtmlReport.obj
 0002:000028a0       ??_C@_0EO@HFODHDHN@?$DMp?$DO?$DMtable?$DO?$DMtr?$DO?$DMtd?5rowspan?$DN?82?8?$DO?$DMb@ 004798a0     HtmlReport.obj
 0002:000028f0       ??_C@_0CI@NBHHEKNB@?$DMtd?5bgcolor?$DN?8?$CD?$CF?46X?8?5colspan?$DN?82?8?5@ 004798f0     HtmlReport.obj
 0002:00002918       ??_C@_0BL@FKOPMDP@Less?5than?5?$CFs?5bits?5per?5byte?$AA@ 00479918     HtmlReport.obj
 0002:00002934       ??_C@_0BL@EBJMDMMO@More?5than?5?$CFs?5bits?5per?5byte?$AA@ 00479934     HtmlReport.obj
 0002:00002950       ??_C@_0CA@PIJKGMCH@Between?5?$CFs?5and?5?$CFs?5bits?5per?5byte?$AA@ 00479950     HtmlReport.obj
 0002:00002970       ??_C@_0CA@KMIBAPHP@?8?$DO?$CGnbsp?$DL?$CGnbsp?$DL?$CGnbsp?$DL?$CGnbsp?$DL?$DM?1td?$DO?$AA@ 00479970     HtmlReport.obj
 0002:00002990       ??_C@_0CP@LADILKBG@?$DM?1tr?$DO?6?$DMtr?$DO?$DMtd?5colspan?$DN?82?8?5align?$DN@ 00479990     HtmlReport.obj
 0002:000029c0       ??_C@_0CH@MBBKKJKK@?$DMtd?5colspan?$DN?82?8?5align?$DN?8center?8?$DO?$CF@ 004799c0     HtmlReport.obj
 0002:000029e8       ??_C@_0BM@OOGBFKFJ@?$DMtd?$DO?$DM?1td?$DO?$DM?1tr?$DO?$DM?1table?$DO?$DM?1p?$DO?6?$AA@ 004799e8     HtmlReport.obj
 0002:00002a04       ??_C@_0BD@IKLPMKPF@section_symbol_row?$AA@ 00479a04     HtmlReport.obj
 0002:00002a18       ??_C@_01JLIPDDHJ@?3?$AA@   00479a18     HtmlReport.obj
 0002:00002a1c       ??_C@_0BG@FDBOGFJO@oldsection_symbol_row?$AA@ 00479a1c     HtmlReport.obj
 0002:00002a34       ??_C@_0BC@KPNHDKPL@public_symbol_row?$AA@ 00479a34     HtmlReport.obj
 0002:00002a48       ??_C@_0BD@FCCCJELP@private_symbol_row?$AA@ 00479a48     HtmlReport.obj
 0002:00002a60       ??_C@_0ED@LDIMPCFG@?$DMtr?$DO?$DMtd?5nowrap?5colspan?$DN?85?8?$DO?$DMdiv?5@ 00479a60     HtmlReport.obj
 0002:00002aa4       ??_C@_01IDAFKMJL@_?$AA@    00479aa4     HtmlReport.obj
 0002:00002aa8       ??_C@_0DH@BMGAPFG@?$DMtr?5class?$DN?8?$CFs_expandable?8?5onclic@ 00479aa8     HtmlReport.obj
 0002:00002ae0       ??_C@_0BA@HOIGAIHL@?$DMtr?5class?$DN?8?$CFs?8?$DO?$AA@ 00479ae0     HtmlReport.obj
 0002:00002af0       ??_C@_02HMHJGNPF@?8?$DO?$AA@ 00479af0     HtmlReport.obj
 0002:00002af4       ??_C@_07LEMCJFAN@?$DMa?5id?$DN?8?$AA@ 00479af4     HtmlReport.obj
 0002:00002afc       ??_C@_06ODLOODK@?$CGnbsp?$DL?$AA@ 00479afc     HtmlReport.obj
 0002:00002b04       ??_C@_01JOAMLHOP@?9?$AA@   00479b04     HtmlReport.obj
 0002:00002b08       ??_C@_0EF@GMIFKEKK@?$DMth?5nowrap?5class?$DN?8c1?8?$DO?$CFs?$CF?48X?$CGnbs@ 00479b08     HtmlReport.obj
 0002:00002b50       ??_C@_0BO@KCLIEMLL@?$DMth?5nowrap?5class?$DN?8c3?8?$DO?$CFd?$DM?1th?$DO?$AA@ 00479b50     HtmlReport.obj
 0002:00002b70       ??_C@_0EB@LHMNKFEC@?$DMth?5nowrap?5class?$DN?8c4?8?$DO?$CF?42f?$DM?1th?$DO?$DM@ 00479b70     HtmlReport.obj
 0002:00002bb8       ??_C@_0ED@ENNALMDA@?$DMth?5nowrap?5class?$DN?8c4?8?$DO?$CGnbsp?$DL?$DM?1th@ 00479bb8     HtmlReport.obj
 0002:00002c00       ??_C@_0GE@PNKOMJMJ@?$DMth?5nowrap?5class?$DN?8c3?8?$DO?$CGnbsp?$DL?$DM?1th@ 00479c00     HtmlReport.obj
 0002:00002c64       ??_C@_05IMPJLBNH@?$DM?1tr?$DO?$AA@ 00479c64     HtmlReport.obj
 0002:00002c6c       ??_C@_0BJ@EEDKFDKK@?$DM?1table?$DO?$DM?1div?$DO?$DM?1td?$DO?$DM?1tr?$DO?$AA@ 00479c6c     HtmlReport.obj
 0002:00002c88       ??_C@_0EB@CHMDPCFL@?$DMtr?$DO?$DMtd?5nowrap?5colspan?$DN?85?8?$DO?$DMdiv?5@ 00479c88     HtmlReport.obj
 0002:00002ccc       ??_C@_0DE@JEIFIKMJ@?$DMtr?$DO?$DMtd?5nowrap?5colspan?$DN?85?8?$DO?$DMtabl@ 00479ccc     HtmlReport.obj
 0002:00002d00       ??_C@_04KPOBMNON@?$DMtr?$DO?$AA@ 00479d00     HtmlReport.obj
 0002:00002d08       ??_C@_0DB@HMJBJNKD@?$DMtd?5nowrap?5class?$DN?8address?8?$DO?$CGnbsp@ 00479d08     HtmlReport.obj
 0002:00002d3c       ??_C@_0DO@MBOEJFHP@?$DMtd?5nowrap?5colspan?$DN4?5class?$DN?8hexd@ 00479d3c     HtmlReport.obj
 0002:00002d7c       ??_C@_0DH@OCLFEJIJ@?$DMtd?5nowrap?5title?$DN?8?$CF?42f?5bytes?8?5st@ 00479d7c     HtmlReport.obj
 0002:00002db4       ??_C@_0BI@EJINHDDI@?$DM?1td?$DO?$DM?1tr?$DO?$DM?1table?$DO?$DM?1tr?$DO?$AA@ 00479db4     HtmlReport.obj
 0002:00002dcc       ??_C@_0DF@KHEGNKLP@?$DMtr?$DO?$DMtd?5nowrap?5class?$DN?8address?8?$DO?$CG@ 00479dcc     HtmlReport.obj
 0002:00002e08       ??_C@_0EC@HPPEEHFH@?$DMtd?5title?$DN?8?$CF?42f?5bytes?8?5style?$DN?8co@ 00479e08     HtmlReport.obj
 0002:00002e4c       ??_C@_0BI@IJIGDMON@?$DM?1tr?$DO?$DM?1table?$DO?$DM?1td?$DO?$DM?1tr?$DO?$AA@ 00479e4c     HtmlReport.obj
 0002:00002e64       ??_C@_06MAIPDONP@?$DM?1div?$DO?$AA@ 00479e64     HtmlReport.obj
 0002:00002e6c       ??_C@_0BF@CABLKGGA@?$DM?1table?$DO?$CFs?$DM?1td?$DO?$DM?1tr?$DO?$AA@ 00479e6c     HtmlReport.obj
 0002:00002e84       ??_C@_0BN@CBFFAIMI@Cannot?5open?5file?5for?5writing?$AA@ 00479e84     HtmlReport.obj
 0002:00002ea4       ??_C@_02BBAHNLBA@?$CFp?$AA@ 00479ea4     HtmlReport.obj
 0002:00002ea8       ??_C@_02CLHGNPPK@Lu?$AA@   00479ea8     HtmlReport.obj
 0002:00002eac       ??_C@_02HIKPPMOK@Ld?$AA@   00479eac     HtmlReport.obj
 0002:00002eb0       ??_C@_02BDDLJJBK@lu?$AA@   00479eb0     HtmlReport.obj
 0002:00002eb4       ??_C@_02EAOCLKAK@ld?$AA@   00479eb4     HtmlReport.obj
 0002:00002eb8       ??_C@_02MDKMJEGG@eE?$AA@   00479eb8     HtmlReport.obj
 0002:00002ebc       ??_C@_02OOPEBDOJ@pP?$AA@   00479ebc     HtmlReport.obj
 0002:00002ec0       ??_C@_01LFCBOECM@?4?$AA@   00479ec0     HtmlReport.obj
 0002:00002ec4       ??_C@_0BI@CFPLBAOH@invalid?5string?5position?$AA@ 00479ec4     HtmlReport.obj
 0002:00002edc       __real@3b800000            00479edc     HtmlReport.obj
 0002:00002ee0       __real@4202a05f20000000    00479ee0     HtmlReport.obj
 0002:00002ee8       __real@42c80000            00479ee8     HtmlReport.obj
 0002:00002ef0       __xmm@7fffffffffffffff7fffffffffffffff 00479ef0     HtmlReport.obj
 0002:00002f04       ??_C@_06DJFHFKB@__RTC_?$AA@ 00479f04     Hunk.obj
 0002:00002f0c       ??_C@_0DI@KKLFJPNN@Disable?5?8Basic?5Runtime?5Checks?8?5i@ 00479f0c     Hunk.obj
 0002:00002f44       ??_C@_0BC@IBCJPMOM@__security_cookie?$AA@ 00479f44     Hunk.obj
 0002:00002f58       ??_C@_0DJ@PKOCGDPL@Disable?5?8Buffer?5Security?5Check?8?5@ 00479f58     Hunk.obj
 0002:00002f94       ??_C@_0BD@IDIIECKB@_crt_debugger_hook?$AA@ 00479f94     Hunk.obj
 0002:00002fa8       ??_C@_0BN@EPFFOKHI@Define?5your?5own?5entry?5point?4?$AA@ 00479fa8     Hunk.obj
 0002:00002fc8       ??_C@_06DCDKBOGN@__ftol?$AA@ 00479fc8     Hunk.obj
 0002:00002fd0       ??_C@_0HE@NMINBAG@Suppress?5_ftol?5calls?5with?5the?5?1Q@ 00479fd0     Hunk.obj
 0002:00003044       ??_C@_05DNADIBKB@__Cxx?$AA@ 0047a044     Hunk.obj
 0002:0000304c       ??_C@_0BG@IPKNANKA@Don?8t?5use?5exceptions?4?$AA@ 0047a04c     Hunk.obj
 0002:00003064       ??_C@_0BI@CGHOEJPD@__imp_?$DP?$DP1exception?$EAstd?$EA?$AA@ 0047a064     Hunk.obj
 0002:0000307c       ??_C@_0P@CEGKDJBK@Don?8t?5use?5STL?4?$AA@ 0047a07c     Hunk.obj
 0002:0000308c       ??_C@_08GDBMFOGK@__alloca?$AA@ 0047a08c     Hunk.obj
 0002:00003098       ??_C@_08CEHLGEBN@__chkstk?$AA@ 0047a098     Hunk.obj
 0002:000030a8       ??_C@_0FI@JKGMJPKK@Avoid?5declaring?5large?5arrays?5or?5@ 0047a0a8     Hunk.obj
 0002:00003100       ??_C@_0BI@LMOJBKB@Cannot?5find?5symbol?5?8?$CFs?8?$AA@ 0047a100     Hunk.obj
 0002:00003118       ??_C@_0CF@JMLMFMKL@Cannot?5find?5symbol?5?8?$CFs?8?4?6?5?$CK?5HINT@ 0047a118     Hunk.obj
 0002:00003140       ??_C@_04NBFCGMPH@root?$AA@ 0047a140     Hunk.obj
 0002:00003148       ??_C@_0O@LFGBEDLC@Code?5sections?$AA@ 0047a148     Hunk.obj
 0002:00003158       ??_C@_0O@JGILHLLM@Data?5sections?$AA@ 0047a158     Hunk.obj
 0002:00003168       ??_C@_0BH@PGJNBNHN@Uninitialized?5sections?$AA@ 0047a168     Hunk.obj
 0002:00003180       ??_C@_06CIPIPFKB@?4dummy?$AA@ 0047a180     Hunk.obj
 0002:00003188       ??_C@_03ELJPOBCB@tf_?$AA@  0047a188     Hunk.obj
 0002:0000318c       ??_C@_02JDNIPIGD@NA?$AA@   0047a18c     Hunk.obj
 0002:00003190       ??_C@_05CNONOOAN@tf?$CFd_?$AA@ 0047a190     Hunk.obj
 0002:00003198       ??_C@_0M@IJPGLJFH@__real?$EA?$CF16X?$AA@ 0047a198     Hunk.obj
 0002:000031a4       ??_C@_04BANGNJGK@?$EA3NA?$AA@ 0047a1a4     Hunk.obj
